ARM GAS  C:\Users\DGILLI~1\AppData\Local\Temp\ccgG4JYE.s 			page 1


   1              		.syntax unified
   2              		.cpu cortex-m3
   3              		.fpu softvfp
   4              		.eabi_attribute 20, 1
   5              		.eabi_attribute 21, 1
   6              		.eabi_attribute 23, 3
   7              		.eabi_attribute 24, 1
   8              		.eabi_attribute 25, 1
   9              		.eabi_attribute 26, 1
  10              		.eabi_attribute 30, 1
  11              		.eabi_attribute 34, 1
  12              		.eabi_attribute 18, 4
  13              		.thumb
  14              		.file	"Opamp_3.c"
  15              		.text
  16              	.Ltext0:
  17              		.cfi_sections	.debug_frame
  18              		.section	.text.Opamp_3_Enable,"ax",%progbits
  19              		.align	2
  20              		.global	Opamp_3_Enable
  21              		.thumb
  22              		.thumb_func
  23              		.type	Opamp_3_Enable, %function
  24              	Opamp_3_Enable:
  25              	.LFB1:
  26              		.file 1 ".\\Generated_Source\\PSoC5\\Opamp_3.c"
   1:.\Generated_Source\PSoC5/Opamp_3.c **** /*******************************************************************************
   2:.\Generated_Source\PSoC5/Opamp_3.c **** * File Name: Opamp_3.c
   3:.\Generated_Source\PSoC5/Opamp_3.c **** * Version 1.90
   4:.\Generated_Source\PSoC5/Opamp_3.c **** *
   5:.\Generated_Source\PSoC5/Opamp_3.c **** * Description:
   6:.\Generated_Source\PSoC5/Opamp_3.c **** *  This file provides the source code to the API for OpAmp (Analog Buffer) 
   7:.\Generated_Source\PSoC5/Opamp_3.c **** *  Component.
   8:.\Generated_Source\PSoC5/Opamp_3.c **** *
   9:.\Generated_Source\PSoC5/Opamp_3.c **** * Note:
  10:.\Generated_Source\PSoC5/Opamp_3.c **** *
  11:.\Generated_Source\PSoC5/Opamp_3.c **** ********************************************************************************
  12:.\Generated_Source\PSoC5/Opamp_3.c **** * Copyright 2008-2012, Cypress Semiconductor Corporation.  All rights reserved.
  13:.\Generated_Source\PSoC5/Opamp_3.c **** * You may use this file only in accordance with the license, terms, conditions, 
  14:.\Generated_Source\PSoC5/Opamp_3.c **** * disclaimers, and limitations in the end user license agreement accompanying 
  15:.\Generated_Source\PSoC5/Opamp_3.c **** * the software package with which this file was provided.
  16:.\Generated_Source\PSoC5/Opamp_3.c **** *******************************************************************************/
  17:.\Generated_Source\PSoC5/Opamp_3.c **** 
  18:.\Generated_Source\PSoC5/Opamp_3.c **** #include "Opamp_3.h"
  19:.\Generated_Source\PSoC5/Opamp_3.c **** 
  20:.\Generated_Source\PSoC5/Opamp_3.c **** uint8 Opamp_3_initVar = 0u;
  21:.\Generated_Source\PSoC5/Opamp_3.c **** 
  22:.\Generated_Source\PSoC5/Opamp_3.c **** 
  23:.\Generated_Source\PSoC5/Opamp_3.c **** /*******************************************************************************   
  24:.\Generated_Source\PSoC5/Opamp_3.c **** * Function Name: Opamp_3_Init
  25:.\Generated_Source\PSoC5/Opamp_3.c **** ********************************************************************************
  26:.\Generated_Source\PSoC5/Opamp_3.c **** *
  27:.\Generated_Source\PSoC5/Opamp_3.c **** * Summary:
  28:.\Generated_Source\PSoC5/Opamp_3.c **** *  Initialize component's parameters to the parameters set by user in the 
  29:.\Generated_Source\PSoC5/Opamp_3.c **** *  customizer of the component placed onto schematic. Usually called in 
  30:.\Generated_Source\PSoC5/Opamp_3.c **** *  Opamp_3_Start().
  31:.\Generated_Source\PSoC5/Opamp_3.c **** *
ARM GAS  C:\Users\DGILLI~1\AppData\Local\Temp\ccgG4JYE.s 			page 2


  32:.\Generated_Source\PSoC5/Opamp_3.c **** * Parameters:
  33:.\Generated_Source\PSoC5/Opamp_3.c **** *  void
  34:.\Generated_Source\PSoC5/Opamp_3.c **** *
  35:.\Generated_Source\PSoC5/Opamp_3.c **** * Return:
  36:.\Generated_Source\PSoC5/Opamp_3.c **** *  void
  37:.\Generated_Source\PSoC5/Opamp_3.c **** *
  38:.\Generated_Source\PSoC5/Opamp_3.c **** *******************************************************************************/
  39:.\Generated_Source\PSoC5/Opamp_3.c **** void Opamp_3_Init(void) 
  40:.\Generated_Source\PSoC5/Opamp_3.c **** {
  41:.\Generated_Source\PSoC5/Opamp_3.c ****     Opamp_3_SetPower(Opamp_3_DEFAULT_POWER);
  42:.\Generated_Source\PSoC5/Opamp_3.c **** }
  43:.\Generated_Source\PSoC5/Opamp_3.c **** 
  44:.\Generated_Source\PSoC5/Opamp_3.c **** 
  45:.\Generated_Source\PSoC5/Opamp_3.c **** /*******************************************************************************   
  46:.\Generated_Source\PSoC5/Opamp_3.c **** * Function Name: Opamp_3_Enable
  47:.\Generated_Source\PSoC5/Opamp_3.c **** ********************************************************************************
  48:.\Generated_Source\PSoC5/Opamp_3.c **** *
  49:.\Generated_Source\PSoC5/Opamp_3.c **** * Summary:
  50:.\Generated_Source\PSoC5/Opamp_3.c **** *  Enables the OpAmp block operation
  51:.\Generated_Source\PSoC5/Opamp_3.c **** *
  52:.\Generated_Source\PSoC5/Opamp_3.c **** * Parameters:
  53:.\Generated_Source\PSoC5/Opamp_3.c **** *  void
  54:.\Generated_Source\PSoC5/Opamp_3.c **** *
  55:.\Generated_Source\PSoC5/Opamp_3.c **** * Return:
  56:.\Generated_Source\PSoC5/Opamp_3.c **** *  void
  57:.\Generated_Source\PSoC5/Opamp_3.c **** *
  58:.\Generated_Source\PSoC5/Opamp_3.c **** *******************************************************************************/
  59:.\Generated_Source\PSoC5/Opamp_3.c **** void Opamp_3_Enable(void) 
  60:.\Generated_Source\PSoC5/Opamp_3.c **** {
  27              		.loc 1 60 0
  28              		.cfi_startproc
  29              		@ args = 0, pretend = 0, frame = 0
  30              		@ frame_needed = 0, uses_anonymous_args = 0
  31              		@ link register save eliminated.
  61:.\Generated_Source\PSoC5/Opamp_3.c ****     /* Enable negative charge pumps in ANIF */
  62:.\Generated_Source\PSoC5/Opamp_3.c ****     Opamp_3_PUMP_CR1_REG  |= (Opamp_3_PUMP_CR1_CLKSEL | Opamp_3_PUMP_CR1_FORCE);
  32              		.loc 1 62 0
  33 0000 084A     		ldr	r2, .L2
  34 0002 1378     		ldrb	r3, [r2]	@ zero_extendqisi2
  35 0004 43F06003 		orr	r3, r3, #96
  36 0008 1370     		strb	r3, [r2]
  63:.\Generated_Source\PSoC5/Opamp_3.c **** 
  64:.\Generated_Source\PSoC5/Opamp_3.c ****     /* Enable power to buffer in active mode */
  65:.\Generated_Source\PSoC5/Opamp_3.c ****     Opamp_3_PM_ACT_CFG_REG |= Opamp_3_ACT_PWR_EN;
  37              		.loc 1 65 0
  38 000a A2F5A652 		sub	r2, r2, #5312
  39 000e 133A     		subs	r2, r2, #19
  40 0010 1378     		ldrb	r3, [r2]	@ zero_extendqisi2
  41 0012 43F00203 		orr	r3, r3, #2
  42 0016 1370     		strb	r3, [r2]
  66:.\Generated_Source\PSoC5/Opamp_3.c **** 
  67:.\Generated_Source\PSoC5/Opamp_3.c ****     /* Enable power to buffer in alternative active mode */
  68:.\Generated_Source\PSoC5/Opamp_3.c ****     Opamp_3_PM_STBY_CFG_REG |= Opamp_3_STBY_PWR_EN;
  43              		.loc 1 68 0
  44 0018 1032     		adds	r2, r2, #16
  45 001a 1378     		ldrb	r3, [r2]	@ zero_extendqisi2
  46 001c 43F00203 		orr	r3, r3, #2
ARM GAS  C:\Users\DGILLI~1\AppData\Local\Temp\ccgG4JYE.s 			page 3


  47 0020 1370     		strb	r3, [r2]
  48 0022 7047     		bx	lr
  49              	.L3:
  50              		.align	2
  51              	.L2:
  52 0024 77580040 		.word	1073764471
  53              		.cfi_endproc
  54              	.LFE1:
  55              		.size	Opamp_3_Enable, .-Opamp_3_Enable
  56              		.section	.text.Opamp_3_Stop,"ax",%progbits
  57              		.align	2
  58              		.global	Opamp_3_Stop
  59              		.thumb
  60              		.thumb_func
  61              		.type	Opamp_3_Stop, %function
  62              	Opamp_3_Stop:
  63              	.LFB3:
  69:.\Generated_Source\PSoC5/Opamp_3.c **** }
  70:.\Generated_Source\PSoC5/Opamp_3.c **** 
  71:.\Generated_Source\PSoC5/Opamp_3.c **** 
  72:.\Generated_Source\PSoC5/Opamp_3.c **** /*******************************************************************************
  73:.\Generated_Source\PSoC5/Opamp_3.c **** * Function Name:   Opamp_3_Start
  74:.\Generated_Source\PSoC5/Opamp_3.c **** ********************************************************************************
  75:.\Generated_Source\PSoC5/Opamp_3.c **** *
  76:.\Generated_Source\PSoC5/Opamp_3.c **** * Summary:
  77:.\Generated_Source\PSoC5/Opamp_3.c **** *  The start function initializes the Analog Buffer with the default values and 
  78:.\Generated_Source\PSoC5/Opamp_3.c **** *  sets the power to the given level. A power level of 0, is same as 
  79:.\Generated_Source\PSoC5/Opamp_3.c **** *  executing the stop function.
  80:.\Generated_Source\PSoC5/Opamp_3.c **** *
  81:.\Generated_Source\PSoC5/Opamp_3.c **** * Parameters:
  82:.\Generated_Source\PSoC5/Opamp_3.c **** *  void
  83:.\Generated_Source\PSoC5/Opamp_3.c **** *
  84:.\Generated_Source\PSoC5/Opamp_3.c **** * Return:
  85:.\Generated_Source\PSoC5/Opamp_3.c **** *  void
  86:.\Generated_Source\PSoC5/Opamp_3.c **** *
  87:.\Generated_Source\PSoC5/Opamp_3.c **** * Global variables:
  88:.\Generated_Source\PSoC5/Opamp_3.c **** *  Opamp_3_initVar: Used to check the initial configuration, modified 
  89:.\Generated_Source\PSoC5/Opamp_3.c **** *  when this function is called for the first time.
  90:.\Generated_Source\PSoC5/Opamp_3.c **** *
  91:.\Generated_Source\PSoC5/Opamp_3.c **** *******************************************************************************/
  92:.\Generated_Source\PSoC5/Opamp_3.c **** void Opamp_3_Start(void) 
  93:.\Generated_Source\PSoC5/Opamp_3.c **** {
  94:.\Generated_Source\PSoC5/Opamp_3.c ****     if(Opamp_3_initVar == 0u)
  95:.\Generated_Source\PSoC5/Opamp_3.c ****     {
  96:.\Generated_Source\PSoC5/Opamp_3.c ****         Opamp_3_initVar = 1u;
  97:.\Generated_Source\PSoC5/Opamp_3.c ****         Opamp_3_Init();
  98:.\Generated_Source\PSoC5/Opamp_3.c ****     }
  99:.\Generated_Source\PSoC5/Opamp_3.c **** 
 100:.\Generated_Source\PSoC5/Opamp_3.c ****     Opamp_3_Enable();
 101:.\Generated_Source\PSoC5/Opamp_3.c **** }
 102:.\Generated_Source\PSoC5/Opamp_3.c **** 
 103:.\Generated_Source\PSoC5/Opamp_3.c **** 
 104:.\Generated_Source\PSoC5/Opamp_3.c **** /*******************************************************************************
 105:.\Generated_Source\PSoC5/Opamp_3.c **** * Function Name: Opamp_3_Stop
 106:.\Generated_Source\PSoC5/Opamp_3.c **** ********************************************************************************
 107:.\Generated_Source\PSoC5/Opamp_3.c **** *
 108:.\Generated_Source\PSoC5/Opamp_3.c **** * Summary:
ARM GAS  C:\Users\DGILLI~1\AppData\Local\Temp\ccgG4JYE.s 			page 4


 109:.\Generated_Source\PSoC5/Opamp_3.c **** *  Powers down amplifier to lowest power state.
 110:.\Generated_Source\PSoC5/Opamp_3.c **** *
 111:.\Generated_Source\PSoC5/Opamp_3.c **** * Parameters:
 112:.\Generated_Source\PSoC5/Opamp_3.c **** *  void
 113:.\Generated_Source\PSoC5/Opamp_3.c **** *
 114:.\Generated_Source\PSoC5/Opamp_3.c **** * Return:
 115:.\Generated_Source\PSoC5/Opamp_3.c **** *  void
 116:.\Generated_Source\PSoC5/Opamp_3.c **** *
 117:.\Generated_Source\PSoC5/Opamp_3.c **** *******************************************************************************/
 118:.\Generated_Source\PSoC5/Opamp_3.c **** void Opamp_3_Stop(void) 
 119:.\Generated_Source\PSoC5/Opamp_3.c **** {
  64              		.loc 1 119 0
  65              		.cfi_startproc
  66              		@ args = 0, pretend = 0, frame = 0
  67              		@ frame_needed = 0, uses_anonymous_args = 0
  68              		@ link register save eliminated.
 120:.\Generated_Source\PSoC5/Opamp_3.c ****     /* Disable power to buffer in active mode template */
 121:.\Generated_Source\PSoC5/Opamp_3.c ****     Opamp_3_PM_ACT_CFG_REG &= (uint8)(~Opamp_3_ACT_PWR_EN);
  69              		.loc 1 121 0
  70 0000 094B     		ldr	r3, .L6
  71 0002 1A78     		ldrb	r2, [r3]	@ zero_extendqisi2
  72 0004 02F0FD02 		and	r2, r2, #253
  73 0008 1A70     		strb	r2, [r3]
 122:.\Generated_Source\PSoC5/Opamp_3.c **** 
 123:.\Generated_Source\PSoC5/Opamp_3.c ****     /* Disable power to buffer in alternative active mode template */
 124:.\Generated_Source\PSoC5/Opamp_3.c ****     Opamp_3_PM_STBY_CFG_REG &= (uint8)(~Opamp_3_STBY_PWR_EN);
  74              		.loc 1 124 0
  75 000a 0849     		ldr	r1, .L6+4
  76 000c 0A78     		ldrb	r2, [r1]	@ zero_extendqisi2
  77 000e 02F0FD02 		and	r2, r2, #253
  78 0012 0A70     		strb	r2, [r1]
 125:.\Generated_Source\PSoC5/Opamp_3.c ****     
 126:.\Generated_Source\PSoC5/Opamp_3.c ****     /* Disable negative charge pumps for ANIF only if all ABuf is turned OFF */
 127:.\Generated_Source\PSoC5/Opamp_3.c ****     if(Opamp_3_PM_ACT_CFG_REG == 0u)
  79              		.loc 1 127 0
  80 0014 1B78     		ldrb	r3, [r3]	@ zero_extendqisi2
  81 0016 13F0FF0F 		tst	r3, #255
  82 001a 04D1     		bne	.L4
 128:.\Generated_Source\PSoC5/Opamp_3.c ****     {
 129:.\Generated_Source\PSoC5/Opamp_3.c ****         Opamp_3_PUMP_CR1_REG &= (uint8)(~(Opamp_3_PUMP_CR1_CLKSEL | Opamp_3_PUMP_CR1_FORCE));
  83              		.loc 1 129 0
  84 001c 044A     		ldr	r2, .L6+8
  85 001e 1378     		ldrb	r3, [r2]	@ zero_extendqisi2
  86 0020 03F09F03 		and	r3, r3, #159
  87 0024 1370     		strb	r3, [r2]
  88              	.L4:
  89 0026 7047     		bx	lr
  90              	.L7:
  91              		.align	2
  92              	.L6:
  93 0028 A4430040 		.word	1073759140
  94 002c B4430040 		.word	1073759156
  95 0030 77580040 		.word	1073764471
  96              		.cfi_endproc
  97              	.LFE3:
  98              		.size	Opamp_3_Stop, .-Opamp_3_Stop
  99              		.section	.text.Opamp_3_SetPower,"ax",%progbits
ARM GAS  C:\Users\DGILLI~1\AppData\Local\Temp\ccgG4JYE.s 			page 5


 100              		.align	2
 101              		.global	Opamp_3_SetPower
 102              		.thumb
 103              		.thumb_func
 104              		.type	Opamp_3_SetPower, %function
 105              	Opamp_3_SetPower:
 106              	.LFB4:
 130:.\Generated_Source\PSoC5/Opamp_3.c ****     }
 131:.\Generated_Source\PSoC5/Opamp_3.c **** }
 132:.\Generated_Source\PSoC5/Opamp_3.c **** 
 133:.\Generated_Source\PSoC5/Opamp_3.c **** 
 134:.\Generated_Source\PSoC5/Opamp_3.c **** /*******************************************************************************
 135:.\Generated_Source\PSoC5/Opamp_3.c **** * Function Name: Opamp_3_SetPower
 136:.\Generated_Source\PSoC5/Opamp_3.c **** ********************************************************************************
 137:.\Generated_Source\PSoC5/Opamp_3.c **** *
 138:.\Generated_Source\PSoC5/Opamp_3.c **** * Summary:
 139:.\Generated_Source\PSoC5/Opamp_3.c **** *  Sets power level of Analog buffer.
 140:.\Generated_Source\PSoC5/Opamp_3.c **** *
 141:.\Generated_Source\PSoC5/Opamp_3.c **** * Parameters: 
 142:.\Generated_Source\PSoC5/Opamp_3.c **** *  power: PSoC3: Sets power level between low (1) and high power (3).
 143:.\Generated_Source\PSoC5/Opamp_3.c **** *         PSoC5: Sets power level High (0)
 144:.\Generated_Source\PSoC5/Opamp_3.c **** *
 145:.\Generated_Source\PSoC5/Opamp_3.c **** * Return:
 146:.\Generated_Source\PSoC5/Opamp_3.c **** *  void
 147:.\Generated_Source\PSoC5/Opamp_3.c **** *
 148:.\Generated_Source\PSoC5/Opamp_3.c **** **********************************************************************************/
 149:.\Generated_Source\PSoC5/Opamp_3.c **** void Opamp_3_SetPower(uint8 power) 
 150:.\Generated_Source\PSoC5/Opamp_3.c **** {
 107              		.loc 1 150 0
 108              		.cfi_startproc
 109              		@ args = 0, pretend = 0, frame = 0
 110              		@ frame_needed = 0, uses_anonymous_args = 0
 111              		@ link register save eliminated.
 112              	.LVL0:
 151:.\Generated_Source\PSoC5/Opamp_3.c ****     #if (CY_PSOC3 || CY_PSOC5LP)
 152:.\Generated_Source\PSoC5/Opamp_3.c ****         Opamp_3_CR_REG &= (uint8)(~Opamp_3_PWR_MASK);
 113              		.loc 1 152 0
 114 0000 054B     		ldr	r3, .L9
 115 0002 1A78     		ldrb	r2, [r3]	@ zero_extendqisi2
 116 0004 02F0FC02 		and	r2, r2, #252
 117 0008 1A70     		strb	r2, [r3]
 153:.\Generated_Source\PSoC5/Opamp_3.c ****         Opamp_3_CR_REG |= power & Opamp_3_PWR_MASK;      /* Set device power */
 118              		.loc 1 153 0
 119 000a 1A78     		ldrb	r2, [r3]	@ zero_extendqisi2
 120 000c 00F00300 		and	r0, r0, #3
 121              	.LVL1:
 122 0010 1043     		orrs	r0, r0, r2
 123 0012 1870     		strb	r0, [r3]
 124 0014 7047     		bx	lr
 125              	.L10:
 126 0016 00BF     		.align	2
 127              	.L9:
 128 0018 5A580040 		.word	1073764442
 129              		.cfi_endproc
 130              	.LFE4:
 131              		.size	Opamp_3_SetPower, .-Opamp_3_SetPower
 132              		.section	.text.Opamp_3_Init,"ax",%progbits
ARM GAS  C:\Users\DGILLI~1\AppData\Local\Temp\ccgG4JYE.s 			page 6


 133              		.align	2
 134              		.global	Opamp_3_Init
 135              		.thumb
 136              		.thumb_func
 137              		.type	Opamp_3_Init, %function
 138              	Opamp_3_Init:
 139              	.LFB0:
  40:.\Generated_Source\PSoC5/Opamp_3.c ****     Opamp_3_SetPower(Opamp_3_DEFAULT_POWER);
 140              		.loc 1 40 0
 141              		.cfi_startproc
 142              		@ args = 0, pretend = 0, frame = 0
 143              		@ frame_needed = 0, uses_anonymous_args = 0
 144 0000 08B5     		push	{r3, lr}
 145              		.cfi_def_cfa_offset 8
 146              		.cfi_offset 3, -8
 147              		.cfi_offset 14, -4
  41:.\Generated_Source\PSoC5/Opamp_3.c **** }
 148              		.loc 1 41 0
 149 0002 0120     		movs	r0, #1
 150 0004 FFF7FEFF 		bl	Opamp_3_SetPower
 151              	.LVL2:
 152 0008 08BD     		pop	{r3, pc}
 153              		.cfi_endproc
 154              	.LFE0:
 155              		.size	Opamp_3_Init, .-Opamp_3_Init
 156 000a 00BF     		.section	.text.Opamp_3_Start,"ax",%progbits
 157              		.align	2
 158              		.global	Opamp_3_Start
 159              		.thumb
 160              		.thumb_func
 161              		.type	Opamp_3_Start, %function
 162              	Opamp_3_Start:
 163              	.LFB2:
  93:.\Generated_Source\PSoC5/Opamp_3.c ****     if(Opamp_3_initVar == 0u)
 164              		.loc 1 93 0
 165              		.cfi_startproc
 166              		@ args = 0, pretend = 0, frame = 0
 167              		@ frame_needed = 0, uses_anonymous_args = 0
 168 0000 08B5     		push	{r3, lr}
 169              		.cfi_def_cfa_offset 8
 170              		.cfi_offset 3, -8
 171              		.cfi_offset 14, -4
  94:.\Generated_Source\PSoC5/Opamp_3.c ****     {
 172              		.loc 1 94 0
 173 0002 054B     		ldr	r3, .L16
 174 0004 1B78     		ldrb	r3, [r3]	@ zero_extendqisi2
 175 0006 23B9     		cbnz	r3, .L14
  96:.\Generated_Source\PSoC5/Opamp_3.c ****         Opamp_3_Init();
 176              		.loc 1 96 0
 177 0008 0122     		movs	r2, #1
 178 000a 034B     		ldr	r3, .L16
 179 000c 1A70     		strb	r2, [r3]
  97:.\Generated_Source\PSoC5/Opamp_3.c ****     }
 180              		.loc 1 97 0
 181 000e FFF7FEFF 		bl	Opamp_3_Init
 182              	.LVL3:
 183              	.L14:
ARM GAS  C:\Users\DGILLI~1\AppData\Local\Temp\ccgG4JYE.s 			page 7


 100:.\Generated_Source\PSoC5/Opamp_3.c **** }
 184              		.loc 1 100 0
 185 0012 FFF7FEFF 		bl	Opamp_3_Enable
 186              	.LVL4:
 187 0016 08BD     		pop	{r3, pc}
 188              	.L17:
 189              		.align	2
 190              	.L16:
 191 0018 00000000 		.word	.LANCHOR0
 192              		.cfi_endproc
 193              	.LFE2:
 194              		.size	Opamp_3_Start, .-Opamp_3_Start
 195              		.global	Opamp_3_initVar
 196              		.bss
 197              		.set	.LANCHOR0,. + 0
 198              		.type	Opamp_3_initVar, %object
 199              		.size	Opamp_3_initVar, 1
 200              	Opamp_3_initVar:
 201 0000 00       		.space	1
 202              		.text
 203              	.Letext0:
 204              		.file 2 ".\\Generated_Source\\PSoC5\\cytypes.h"