ARM GAS  C:\Users\DGILLI~1\AppData\Local\Temp\ccr6u2OL.s 			page 1


   1              		.syntax unified
   2              		.cpu cortex-m3
   3              		.fpu softvfp
   4              		.eabi_attribute 20, 1
   5              		.eabi_attribute 21, 1
   6              		.eabi_attribute 23, 3
   7              		.eabi_attribute 24, 1
   8              		.eabi_attribute 25, 1
   9              		.eabi_attribute 26, 1
  10              		.eabi_attribute 30, 1
  11              		.eabi_attribute 34, 1
  12              		.eabi_attribute 18, 4
  13              		.thumb
  14              		.file	"Opamp_2_PM.c"
  15              		.text
  16              	.Ltext0:
  17              		.cfi_sections	.debug_frame
  18              		.section	.text.Opamp_2_SaveConfig,"ax",%progbits
  19              		.align	2
  20              		.global	Opamp_2_SaveConfig
  21              		.thumb
  22              		.thumb_func
  23              		.type	Opamp_2_SaveConfig, %function
  24              	Opamp_2_SaveConfig:
  25              	.LFB0:
  26              		.file 1 ".\\Generated_Source\\PSoC5\\Opamp_2_PM.c"
   1:.\Generated_Source\PSoC5/Opamp_2_PM.c **** /*******************************************************************************
   2:.\Generated_Source\PSoC5/Opamp_2_PM.c **** * File Name: Opamp_2_PM.c
   3:.\Generated_Source\PSoC5/Opamp_2_PM.c **** * Version 1.90
   4:.\Generated_Source\PSoC5/Opamp_2_PM.c **** *
   5:.\Generated_Source\PSoC5/Opamp_2_PM.c **** * Description:
   6:.\Generated_Source\PSoC5/Opamp_2_PM.c **** *  This file provides the power management source code to the API for the 
   7:.\Generated_Source\PSoC5/Opamp_2_PM.c **** *  OpAmp (Analog Buffer) component.
   8:.\Generated_Source\PSoC5/Opamp_2_PM.c **** *
   9:.\Generated_Source\PSoC5/Opamp_2_PM.c **** * Note:
  10:.\Generated_Source\PSoC5/Opamp_2_PM.c **** *
  11:.\Generated_Source\PSoC5/Opamp_2_PM.c **** ********************************************************************************
  12:.\Generated_Source\PSoC5/Opamp_2_PM.c **** * Copyright 2008-2012, Cypress Semiconductor Corporation.  All rights reserved.
  13:.\Generated_Source\PSoC5/Opamp_2_PM.c **** * You may use this file only in accordance with the license, terms, conditions, 
  14:.\Generated_Source\PSoC5/Opamp_2_PM.c **** * disclaimers, and limitations in the end user license agreement accompanying 
  15:.\Generated_Source\PSoC5/Opamp_2_PM.c **** * the software package with which this file was provided.
  16:.\Generated_Source\PSoC5/Opamp_2_PM.c **** *******************************************************************************/
  17:.\Generated_Source\PSoC5/Opamp_2_PM.c **** 
  18:.\Generated_Source\PSoC5/Opamp_2_PM.c **** #include "Opamp_2.h"
  19:.\Generated_Source\PSoC5/Opamp_2_PM.c **** 
  20:.\Generated_Source\PSoC5/Opamp_2_PM.c **** static Opamp_2_BACKUP_STRUCT  Opamp_2_backup;
  21:.\Generated_Source\PSoC5/Opamp_2_PM.c **** 
  22:.\Generated_Source\PSoC5/Opamp_2_PM.c **** 
  23:.\Generated_Source\PSoC5/Opamp_2_PM.c **** /*******************************************************************************  
  24:.\Generated_Source\PSoC5/Opamp_2_PM.c **** * Function Name: Opamp_2_SaveConfig
  25:.\Generated_Source\PSoC5/Opamp_2_PM.c **** ********************************************************************************
  26:.\Generated_Source\PSoC5/Opamp_2_PM.c **** *
  27:.\Generated_Source\PSoC5/Opamp_2_PM.c **** * Summary:
  28:.\Generated_Source\PSoC5/Opamp_2_PM.c **** *  Saves the current user configuration registers.
  29:.\Generated_Source\PSoC5/Opamp_2_PM.c **** * 
  30:.\Generated_Source\PSoC5/Opamp_2_PM.c **** * Parameters:
  31:.\Generated_Source\PSoC5/Opamp_2_PM.c **** *  void
ARM GAS  C:\Users\DGILLI~1\AppData\Local\Temp\ccr6u2OL.s 			page 2


  32:.\Generated_Source\PSoC5/Opamp_2_PM.c **** * 
  33:.\Generated_Source\PSoC5/Opamp_2_PM.c **** * Return:
  34:.\Generated_Source\PSoC5/Opamp_2_PM.c **** *  void
  35:.\Generated_Source\PSoC5/Opamp_2_PM.c **** *
  36:.\Generated_Source\PSoC5/Opamp_2_PM.c **** *******************************************************************************/
  37:.\Generated_Source\PSoC5/Opamp_2_PM.c **** void Opamp_2_SaveConfig(void) 
  38:.\Generated_Source\PSoC5/Opamp_2_PM.c **** {
  27              		.loc 1 38 0
  28              		.cfi_startproc
  29              		@ args = 0, pretend = 0, frame = 0
  30              		@ frame_needed = 0, uses_anonymous_args = 0
  31              		@ link register save eliminated.
  32 0000 7047     		bx	lr
  33              		.cfi_endproc
  34              	.LFE0:
  35              		.size	Opamp_2_SaveConfig, .-Opamp_2_SaveConfig
  36 0002 00BF     		.section	.text.Opamp_2_RestoreConfig,"ax",%progbits
  37              		.align	2
  38              		.global	Opamp_2_RestoreConfig
  39              		.thumb
  40              		.thumb_func
  41              		.type	Opamp_2_RestoreConfig, %function
  42              	Opamp_2_RestoreConfig:
  43              	.LFB1:
  39:.\Generated_Source\PSoC5/Opamp_2_PM.c ****     /* Nothing to save as registers are System reset on retention flops */
  40:.\Generated_Source\PSoC5/Opamp_2_PM.c **** }
  41:.\Generated_Source\PSoC5/Opamp_2_PM.c **** 
  42:.\Generated_Source\PSoC5/Opamp_2_PM.c **** 
  43:.\Generated_Source\PSoC5/Opamp_2_PM.c **** /*******************************************************************************  
  44:.\Generated_Source\PSoC5/Opamp_2_PM.c **** * Function Name: Opamp_2_RestoreConfig
  45:.\Generated_Source\PSoC5/Opamp_2_PM.c **** ********************************************************************************
  46:.\Generated_Source\PSoC5/Opamp_2_PM.c **** *
  47:.\Generated_Source\PSoC5/Opamp_2_PM.c **** * Summary:
  48:.\Generated_Source\PSoC5/Opamp_2_PM.c **** *  Restores the current user configuration registers.
  49:.\Generated_Source\PSoC5/Opamp_2_PM.c **** *
  50:.\Generated_Source\PSoC5/Opamp_2_PM.c **** * Parameters:
  51:.\Generated_Source\PSoC5/Opamp_2_PM.c **** *  void
  52:.\Generated_Source\PSoC5/Opamp_2_PM.c **** *
  53:.\Generated_Source\PSoC5/Opamp_2_PM.c **** * Return:
  54:.\Generated_Source\PSoC5/Opamp_2_PM.c **** *  void
  55:.\Generated_Source\PSoC5/Opamp_2_PM.c **** *
  56:.\Generated_Source\PSoC5/Opamp_2_PM.c **** *******************************************************************************/
  57:.\Generated_Source\PSoC5/Opamp_2_PM.c **** void Opamp_2_RestoreConfig(void) 
  58:.\Generated_Source\PSoC5/Opamp_2_PM.c **** {
  44              		.loc 1 58 0
  45              		.cfi_startproc
  46              		@ args = 0, pretend = 0, frame = 0
  47              		@ frame_needed = 0, uses_anonymous_args = 0
  48              		@ link register save eliminated.
  49 0000 7047     		bx	lr
  50              		.cfi_endproc
  51              	.LFE1:
  52              		.size	Opamp_2_RestoreConfig, .-Opamp_2_RestoreConfig
  53 0002 00BF     		.section	.text.Opamp_2_Sleep,"ax",%progbits
  54              		.align	2
  55              		.global	Opamp_2_Sleep
  56              		.thumb
ARM GAS  C:\Users\DGILLI~1\AppData\Local\Temp\ccr6u2OL.s 			page 3


  57              		.thumb_func
  58              		.type	Opamp_2_Sleep, %function
  59              	Opamp_2_Sleep:
  60              	.LFB2:
  59:.\Generated_Source\PSoC5/Opamp_2_PM.c ****     /* Nothing to restore */
  60:.\Generated_Source\PSoC5/Opamp_2_PM.c **** }
  61:.\Generated_Source\PSoC5/Opamp_2_PM.c **** 
  62:.\Generated_Source\PSoC5/Opamp_2_PM.c **** 
  63:.\Generated_Source\PSoC5/Opamp_2_PM.c **** /*******************************************************************************   
  64:.\Generated_Source\PSoC5/Opamp_2_PM.c **** * Function Name: Opamp_2_Sleep
  65:.\Generated_Source\PSoC5/Opamp_2_PM.c **** ********************************************************************************
  66:.\Generated_Source\PSoC5/Opamp_2_PM.c **** *
  67:.\Generated_Source\PSoC5/Opamp_2_PM.c **** * Summary:
  68:.\Generated_Source\PSoC5/Opamp_2_PM.c **** *  Disables block's operation and saves its configuration. Should be called 
  69:.\Generated_Source\PSoC5/Opamp_2_PM.c **** *  just prior to entering sleep.
  70:.\Generated_Source\PSoC5/Opamp_2_PM.c **** *
  71:.\Generated_Source\PSoC5/Opamp_2_PM.c **** * Parameters:
  72:.\Generated_Source\PSoC5/Opamp_2_PM.c **** *  void
  73:.\Generated_Source\PSoC5/Opamp_2_PM.c **** *
  74:.\Generated_Source\PSoC5/Opamp_2_PM.c **** * Return:
  75:.\Generated_Source\PSoC5/Opamp_2_PM.c **** *  void
  76:.\Generated_Source\PSoC5/Opamp_2_PM.c **** *
  77:.\Generated_Source\PSoC5/Opamp_2_PM.c **** * Global variables:
  78:.\Generated_Source\PSoC5/Opamp_2_PM.c **** *  Opamp_2_backup: The structure field 'enableState' is modified 
  79:.\Generated_Source\PSoC5/Opamp_2_PM.c **** *  depending on the enable state of the block before entering to sleep mode.
  80:.\Generated_Source\PSoC5/Opamp_2_PM.c **** *
  81:.\Generated_Source\PSoC5/Opamp_2_PM.c **** *******************************************************************************/
  82:.\Generated_Source\PSoC5/Opamp_2_PM.c **** void Opamp_2_Sleep(void) 
  83:.\Generated_Source\PSoC5/Opamp_2_PM.c **** {
  61              		.loc 1 83 0
  62              		.cfi_startproc
  63              		@ args = 0, pretend = 0, frame = 0
  64              		@ frame_needed = 0, uses_anonymous_args = 0
  65              		.loc 1 83 0
  66 0000 08B5     		push	{r3, lr}
  67              		.cfi_def_cfa_offset 8
  68              		.cfi_offset 3, -8
  69              		.cfi_offset 14, -4
  84:.\Generated_Source\PSoC5/Opamp_2_PM.c ****     /* Save OpAmp enable state */
  85:.\Generated_Source\PSoC5/Opamp_2_PM.c ****     if((Opamp_2_PM_ACT_CFG_REG & Opamp_2_ACT_PWR_EN) != 0u)
  70              		.loc 1 85 0
  71 0002 074B     		ldr	r3, .L7
  72 0004 1B78     		ldrb	r3, [r3]	@ zero_extendqisi2
  73 0006 13F0010F 		tst	r3, #1
  74 000a 05D0     		beq	.L4
  86:.\Generated_Source\PSoC5/Opamp_2_PM.c ****     {
  87:.\Generated_Source\PSoC5/Opamp_2_PM.c ****         /* Component is enabled */
  88:.\Generated_Source\PSoC5/Opamp_2_PM.c ****         Opamp_2_backup.enableState = 1u;
  75              		.loc 1 88 0
  76 000c 0122     		movs	r2, #1
  77 000e 054B     		ldr	r3, .L7+4
  78 0010 1A70     		strb	r2, [r3]
  89:.\Generated_Source\PSoC5/Opamp_2_PM.c ****          /* Stops the component */
  90:.\Generated_Source\PSoC5/Opamp_2_PM.c ****          Opamp_2_Stop();
  79              		.loc 1 90 0
  80 0012 FFF7FEFF 		bl	Opamp_2_Stop
  81              	.LVL0:
ARM GAS  C:\Users\DGILLI~1\AppData\Local\Temp\ccr6u2OL.s 			page 4


  82 0016 08BD     		pop	{r3, pc}
  83              	.L4:
  91:.\Generated_Source\PSoC5/Opamp_2_PM.c ****     }
  92:.\Generated_Source\PSoC5/Opamp_2_PM.c ****     else
  93:.\Generated_Source\PSoC5/Opamp_2_PM.c ****     {
  94:.\Generated_Source\PSoC5/Opamp_2_PM.c ****         /* Component is disabled */
  95:.\Generated_Source\PSoC5/Opamp_2_PM.c ****         Opamp_2_backup.enableState = 0u;
  84              		.loc 1 95 0
  85 0018 0022     		movs	r2, #0
  86 001a 024B     		ldr	r3, .L7+4
  87 001c 1A70     		strb	r2, [r3]
  88 001e 08BD     		pop	{r3, pc}
  89              	.L8:
  90              		.align	2
  91              	.L7:
  92 0020 A4430040 		.word	1073759140
  93 0024 00000000 		.word	.LANCHOR0
  94              		.cfi_endproc
  95              	.LFE2:
  96              		.size	Opamp_2_Sleep, .-Opamp_2_Sleep
  97              		.section	.text.Opamp_2_Wakeup,"ax",%progbits
  98              		.align	2
  99              		.global	Opamp_2_Wakeup
 100              		.thumb
 101              		.thumb_func
 102              		.type	Opamp_2_Wakeup, %function
 103              	Opamp_2_Wakeup:
 104              	.LFB3:
  96:.\Generated_Source\PSoC5/Opamp_2_PM.c ****     }
  97:.\Generated_Source\PSoC5/Opamp_2_PM.c ****     /* Saves the configuration */
  98:.\Generated_Source\PSoC5/Opamp_2_PM.c ****     Opamp_2_SaveConfig();
  99:.\Generated_Source\PSoC5/Opamp_2_PM.c **** }
 100:.\Generated_Source\PSoC5/Opamp_2_PM.c **** 
 101:.\Generated_Source\PSoC5/Opamp_2_PM.c **** 
 102:.\Generated_Source\PSoC5/Opamp_2_PM.c **** /*******************************************************************************  
 103:.\Generated_Source\PSoC5/Opamp_2_PM.c **** * Function Name: Opamp_2_Wakeup
 104:.\Generated_Source\PSoC5/Opamp_2_PM.c **** ********************************************************************************
 105:.\Generated_Source\PSoC5/Opamp_2_PM.c **** *
 106:.\Generated_Source\PSoC5/Opamp_2_PM.c **** * Summary:
 107:.\Generated_Source\PSoC5/Opamp_2_PM.c **** *  Enables block's operation and restores its configuration. Should be called
 108:.\Generated_Source\PSoC5/Opamp_2_PM.c **** *  just after awaking from sleep.
 109:.\Generated_Source\PSoC5/Opamp_2_PM.c **** *
 110:.\Generated_Source\PSoC5/Opamp_2_PM.c **** * Parameters:
 111:.\Generated_Source\PSoC5/Opamp_2_PM.c **** *  void
 112:.\Generated_Source\PSoC5/Opamp_2_PM.c **** *
 113:.\Generated_Source\PSoC5/Opamp_2_PM.c **** * Return:
 114:.\Generated_Source\PSoC5/Opamp_2_PM.c **** *  void
 115:.\Generated_Source\PSoC5/Opamp_2_PM.c **** *
 116:.\Generated_Source\PSoC5/Opamp_2_PM.c **** * Global variables:
 117:.\Generated_Source\PSoC5/Opamp_2_PM.c **** *  Opamp_2_backup: The structure field 'enableState' is used to 
 118:.\Generated_Source\PSoC5/Opamp_2_PM.c **** *  restore the enable state of block after wakeup from sleep mode.
 119:.\Generated_Source\PSoC5/Opamp_2_PM.c **** *
 120:.\Generated_Source\PSoC5/Opamp_2_PM.c **** *******************************************************************************/
 121:.\Generated_Source\PSoC5/Opamp_2_PM.c **** void Opamp_2_Wakeup(void) 
 122:.\Generated_Source\PSoC5/Opamp_2_PM.c **** {
 105              		.loc 1 122 0
 106              		.cfi_startproc
ARM GAS  C:\Users\DGILLI~1\AppData\Local\Temp\ccr6u2OL.s 			page 5


 107              		@ args = 0, pretend = 0, frame = 0
 108              		@ frame_needed = 0, uses_anonymous_args = 0
 109 0000 08B5     		push	{r3, lr}
 110              		.cfi_def_cfa_offset 8
 111              		.cfi_offset 3, -8
 112              		.cfi_offset 14, -4
 123:.\Generated_Source\PSoC5/Opamp_2_PM.c ****     /* Restore the user configuration */
 124:.\Generated_Source\PSoC5/Opamp_2_PM.c ****     Opamp_2_RestoreConfig();
 125:.\Generated_Source\PSoC5/Opamp_2_PM.c **** 
 126:.\Generated_Source\PSoC5/Opamp_2_PM.c ****     /* Enables the component operation */
 127:.\Generated_Source\PSoC5/Opamp_2_PM.c ****     if(Opamp_2_backup.enableState == 1u)
 113              		.loc 1 127 0
 114 0002 034B     		ldr	r3, .L12
 115 0004 1B78     		ldrb	r3, [r3]	@ zero_extendqisi2
 116 0006 012B     		cmp	r3, #1
 117 0008 01D1     		bne	.L9
 128:.\Generated_Source\PSoC5/Opamp_2_PM.c ****     {
 129:.\Generated_Source\PSoC5/Opamp_2_PM.c ****         Opamp_2_Enable();
 118              		.loc 1 129 0
 119 000a FFF7FEFF 		bl	Opamp_2_Enable
 120              	.LVL1:
 121              	.L9:
 122 000e 08BD     		pop	{r3, pc}
 123              	.L13:
 124              		.align	2
 125              	.L12:
 126 0010 00000000 		.word	.LANCHOR0
 127              		.cfi_endproc
 128              	.LFE3:
 129              		.size	Opamp_2_Wakeup, .-Opamp_2_Wakeup
 130              		.bss
 131              		.align	2
 132              		.set	.LANCHOR0,. + 0
 133              		.type	Opamp_2_backup, %object
 134              		.size	Opamp_2_backup, 1
 135              	Opamp_2_backup:
 136 0000 00       		.space	1
 137 0001 000000   		.text
 138              	.Letext0:
 139              		.file 2 ".\\Generated_Source\\PSoC5\\cytypes.h"
 140              		.file 3 ".\\Generated_Source\\PSoC5\\Opamp_2.h"