ARM GAS  C:\Users\DGILLI~1\AppData\Local\Temp\ccLN2vib.s 			page 1


   1              		.syntax unified
   2              		.cpu cortex-m3
   3              		.fpu softvfp
   4              		.eabi_attribute 20, 1
   5              		.eabi_attribute 21, 1
   6              		.eabi_attribute 23, 3
   7              		.eabi_attribute 24, 1
   8              		.eabi_attribute 25, 1
   9              		.eabi_attribute 26, 1
  10              		.eabi_attribute 30, 1
  11              		.eabi_attribute 34, 1
  12              		.eabi_attribute 18, 4
  13              		.thumb
  14              		.file	"WaveDAC8_1_PM.c"
  15              		.text
  16              	.Ltext0:
  17              		.cfi_sections	.debug_frame
  18              		.section	.text.WaveDAC8_1_Sleep,"ax",%progbits
  19              		.align	2
  20              		.global	WaveDAC8_1_Sleep
  21              		.thumb
  22              		.thumb_func
  23              		.type	WaveDAC8_1_Sleep, %function
  24              	WaveDAC8_1_Sleep:
  25              	.LFB0:
  26              		.file 1 ".\\Generated_Source\\PSoC5\\WaveDAC8_1_PM.c"
   1:.\Generated_Source\PSoC5/WaveDAC8_1_PM.c **** /*******************************************************************************
   2:.\Generated_Source\PSoC5/WaveDAC8_1_PM.c **** * File Name: WaveDAC8_1_PM.c  
   3:.\Generated_Source\PSoC5/WaveDAC8_1_PM.c **** * Version 2.0
   4:.\Generated_Source\PSoC5/WaveDAC8_1_PM.c **** *
   5:.\Generated_Source\PSoC5/WaveDAC8_1_PM.c **** * Description:
   6:.\Generated_Source\PSoC5/WaveDAC8_1_PM.c **** *  This file provides the power manager source code to the API for 
   7:.\Generated_Source\PSoC5/WaveDAC8_1_PM.c **** *  the WaveDAC8 component.
   8:.\Generated_Source\PSoC5/WaveDAC8_1_PM.c **** *
   9:.\Generated_Source\PSoC5/WaveDAC8_1_PM.c **** ********************************************************************************
  10:.\Generated_Source\PSoC5/WaveDAC8_1_PM.c **** * Copyright 2013, Cypress Semiconductor Corporation.  All rights reserved.
  11:.\Generated_Source\PSoC5/WaveDAC8_1_PM.c **** * You may use this file only in accordance with the license, terms, conditions, 
  12:.\Generated_Source\PSoC5/WaveDAC8_1_PM.c **** * disclaimers, and limitations in the end user license agreement accompanying 
  13:.\Generated_Source\PSoC5/WaveDAC8_1_PM.c **** * the software package with which this file was provided.
  14:.\Generated_Source\PSoC5/WaveDAC8_1_PM.c **** *******************************************************************************/
  15:.\Generated_Source\PSoC5/WaveDAC8_1_PM.c **** 
  16:.\Generated_Source\PSoC5/WaveDAC8_1_PM.c **** #include "WaveDAC8_1.h"
  17:.\Generated_Source\PSoC5/WaveDAC8_1_PM.c **** 
  18:.\Generated_Source\PSoC5/WaveDAC8_1_PM.c **** static WaveDAC8_1_BACKUP_STRUCT  WaveDAC8_1_backup;
  19:.\Generated_Source\PSoC5/WaveDAC8_1_PM.c **** 
  20:.\Generated_Source\PSoC5/WaveDAC8_1_PM.c **** 
  21:.\Generated_Source\PSoC5/WaveDAC8_1_PM.c **** /*******************************************************************************
  22:.\Generated_Source\PSoC5/WaveDAC8_1_PM.c **** * Function Name: WaveDAC8_1_Sleep
  23:.\Generated_Source\PSoC5/WaveDAC8_1_PM.c **** ********************************************************************************
  24:.\Generated_Source\PSoC5/WaveDAC8_1_PM.c **** *
  25:.\Generated_Source\PSoC5/WaveDAC8_1_PM.c **** * Summary:
  26:.\Generated_Source\PSoC5/WaveDAC8_1_PM.c **** *  Stops the component and saves its configuration. Should be called 
  27:.\Generated_Source\PSoC5/WaveDAC8_1_PM.c **** *  just prior to entering sleep.
  28:.\Generated_Source\PSoC5/WaveDAC8_1_PM.c **** *  
  29:.\Generated_Source\PSoC5/WaveDAC8_1_PM.c **** * Parameters:  
  30:.\Generated_Source\PSoC5/WaveDAC8_1_PM.c **** *  None
  31:.\Generated_Source\PSoC5/WaveDAC8_1_PM.c **** *
ARM GAS  C:\Users\DGILLI~1\AppData\Local\Temp\ccLN2vib.s 			page 2


  32:.\Generated_Source\PSoC5/WaveDAC8_1_PM.c **** * Return: 
  33:.\Generated_Source\PSoC5/WaveDAC8_1_PM.c **** *  None
  34:.\Generated_Source\PSoC5/WaveDAC8_1_PM.c **** *
  35:.\Generated_Source\PSoC5/WaveDAC8_1_PM.c **** * Global variables:
  36:.\Generated_Source\PSoC5/WaveDAC8_1_PM.c **** *  WaveDAC8_1_backup:  The structure field 'enableState' is modified 
  37:.\Generated_Source\PSoC5/WaveDAC8_1_PM.c **** *  depending on the enable state of the block before entering to sleep mode.
  38:.\Generated_Source\PSoC5/WaveDAC8_1_PM.c **** *
  39:.\Generated_Source\PSoC5/WaveDAC8_1_PM.c **** * Reentrant:
  40:.\Generated_Source\PSoC5/WaveDAC8_1_PM.c **** *  No
  41:.\Generated_Source\PSoC5/WaveDAC8_1_PM.c **** *
  42:.\Generated_Source\PSoC5/WaveDAC8_1_PM.c **** *******************************************************************************/
  43:.\Generated_Source\PSoC5/WaveDAC8_1_PM.c **** void WaveDAC8_1_Sleep(void) 
  44:.\Generated_Source\PSoC5/WaveDAC8_1_PM.c **** {
  27              		.loc 1 44 0
  28              		.cfi_startproc
  29              		@ args = 0, pretend = 0, frame = 0
  30              		@ frame_needed = 0, uses_anonymous_args = 0
  31 0000 08B5     		push	{r3, lr}
  32              		.cfi_def_cfa_offset 8
  33              		.cfi_offset 3, -8
  34              		.cfi_offset 14, -4
  45:.\Generated_Source\PSoC5/WaveDAC8_1_PM.c **** 	/* Save DAC8's enable state */
  46:.\Generated_Source\PSoC5/WaveDAC8_1_PM.c **** 
  47:.\Generated_Source\PSoC5/WaveDAC8_1_PM.c **** 	WaveDAC8_1_backup.enableState = (WaveDAC8_1_VDAC8_ACT_PWR_EN == 
  48:.\Generated_Source\PSoC5/WaveDAC8_1_PM.c **** 		(WaveDAC8_1_VDAC8_PWRMGR_REG & WaveDAC8_1_VDAC8_ACT_PWR_EN)) ? 1u : 0u ;
  35              		.loc 1 48 0
  36 0002 074B     		ldr	r3, .L4
  37 0004 1B78     		ldrb	r3, [r3]	@ zero_extendqisi2
  38 0006 03F00803 		and	r3, r3, #8
  47:.\Generated_Source\PSoC5/WaveDAC8_1_PM.c **** 		(WaveDAC8_1_VDAC8_PWRMGR_REG & WaveDAC8_1_VDAC8_ACT_PWR_EN)) ? 1u : 0u ;
  39              		.loc 1 47 0
  40 000a 03F0FF02 		and	r2, r3, #255
  41 000e 03B1     		cbz	r3, .L2
  42 0010 0122     		movs	r2, #1
  43              	.L2:
  47:.\Generated_Source\PSoC5/WaveDAC8_1_PM.c **** 		(WaveDAC8_1_VDAC8_PWRMGR_REG & WaveDAC8_1_VDAC8_ACT_PWR_EN)) ? 1u : 0u ;
  44              		.loc 1 47 0 is_stmt 0 discriminator 4
  45 0012 044B     		ldr	r3, .L4+4
  46 0014 1A70     		strb	r2, [r3]
  49:.\Generated_Source\PSoC5/WaveDAC8_1_PM.c **** 	
  50:.\Generated_Source\PSoC5/WaveDAC8_1_PM.c **** 	WaveDAC8_1_Stop();
  47              		.loc 1 50 0 is_stmt 1 discriminator 4
  48 0016 FFF7FEFF 		bl	WaveDAC8_1_Stop
  49              	.LVL0:
  51:.\Generated_Source\PSoC5/WaveDAC8_1_PM.c **** 	WaveDAC8_1_SaveConfig();
  50              		.loc 1 51 0 discriminator 4
  51 001a FFF7FEFF 		bl	WaveDAC8_1_VDAC8_SaveConfig
  52              	.LVL1:
  53 001e 08BD     		pop	{r3, pc}
  54              	.L5:
  55              		.align	2
  56              	.L4:
  57 0020 A8430040 		.word	1073759144
  58 0024 00000000 		.word	.LANCHOR0
  59              		.cfi_endproc
  60              	.LFE0:
  61              		.size	WaveDAC8_1_Sleep, .-WaveDAC8_1_Sleep
ARM GAS  C:\Users\DGILLI~1\AppData\Local\Temp\ccLN2vib.s 			page 3


  62              		.section	.text.WaveDAC8_1_Wakeup,"ax",%progbits
  63              		.align	2
  64              		.global	WaveDAC8_1_Wakeup
  65              		.thumb
  66              		.thumb_func
  67              		.type	WaveDAC8_1_Wakeup, %function
  68              	WaveDAC8_1_Wakeup:
  69              	.LFB1:
  52:.\Generated_Source\PSoC5/WaveDAC8_1_PM.c **** }
  53:.\Generated_Source\PSoC5/WaveDAC8_1_PM.c **** 
  54:.\Generated_Source\PSoC5/WaveDAC8_1_PM.c **** 
  55:.\Generated_Source\PSoC5/WaveDAC8_1_PM.c **** /*******************************************************************************
  56:.\Generated_Source\PSoC5/WaveDAC8_1_PM.c **** * Function Name: WaveDAC8_1_Wakeup
  57:.\Generated_Source\PSoC5/WaveDAC8_1_PM.c **** ********************************************************************************
  58:.\Generated_Source\PSoC5/WaveDAC8_1_PM.c **** *
  59:.\Generated_Source\PSoC5/WaveDAC8_1_PM.c **** * Summary:
  60:.\Generated_Source\PSoC5/WaveDAC8_1_PM.c **** *  Restores the component configuration. Should be called
  61:.\Generated_Source\PSoC5/WaveDAC8_1_PM.c **** *  just after awaking from sleep.
  62:.\Generated_Source\PSoC5/WaveDAC8_1_PM.c **** *  
  63:.\Generated_Source\PSoC5/WaveDAC8_1_PM.c **** * Parameters:  
  64:.\Generated_Source\PSoC5/WaveDAC8_1_PM.c **** *  None
  65:.\Generated_Source\PSoC5/WaveDAC8_1_PM.c **** *
  66:.\Generated_Source\PSoC5/WaveDAC8_1_PM.c **** * Return: 
  67:.\Generated_Source\PSoC5/WaveDAC8_1_PM.c **** *  void
  68:.\Generated_Source\PSoC5/WaveDAC8_1_PM.c **** *
  69:.\Generated_Source\PSoC5/WaveDAC8_1_PM.c **** * Global variables:
  70:.\Generated_Source\PSoC5/WaveDAC8_1_PM.c **** *  WaveDAC8_1_backup:  The structure field 'enableState' is used to 
  71:.\Generated_Source\PSoC5/WaveDAC8_1_PM.c **** *  restore the enable state of block after wakeup from sleep mode.
  72:.\Generated_Source\PSoC5/WaveDAC8_1_PM.c **** *
  73:.\Generated_Source\PSoC5/WaveDAC8_1_PM.c **** * Reentrant:
  74:.\Generated_Source\PSoC5/WaveDAC8_1_PM.c **** *  No
  75:.\Generated_Source\PSoC5/WaveDAC8_1_PM.c **** *
  76:.\Generated_Source\PSoC5/WaveDAC8_1_PM.c **** *******************************************************************************/
  77:.\Generated_Source\PSoC5/WaveDAC8_1_PM.c **** void WaveDAC8_1_Wakeup(void) 
  78:.\Generated_Source\PSoC5/WaveDAC8_1_PM.c **** {
  70              		.loc 1 78 0
  71              		.cfi_startproc
  72              		@ args = 0, pretend = 0, frame = 0
  73              		@ frame_needed = 0, uses_anonymous_args = 0
  74 0000 08B5     		push	{r3, lr}
  75              		.cfi_def_cfa_offset 8
  76              		.cfi_offset 3, -8
  77              		.cfi_offset 14, -4
  79:.\Generated_Source\PSoC5/WaveDAC8_1_PM.c **** 	WaveDAC8_1_RestoreConfig();
  78              		.loc 1 79 0
  79 0002 FFF7FEFF 		bl	WaveDAC8_1_VDAC8_RestoreConfig
  80              	.LVL2:
  80:.\Generated_Source\PSoC5/WaveDAC8_1_PM.c **** 
  81:.\Generated_Source\PSoC5/WaveDAC8_1_PM.c **** 	if(WaveDAC8_1_backup.enableState == 1u)
  81              		.loc 1 81 0
  82 0006 034B     		ldr	r3, .L9
  83 0008 1B78     		ldrb	r3, [r3]	@ zero_extendqisi2
  84 000a 012B     		cmp	r3, #1
  85 000c 01D1     		bne	.L6
  82:.\Generated_Source\PSoC5/WaveDAC8_1_PM.c **** 	{
  83:.\Generated_Source\PSoC5/WaveDAC8_1_PM.c **** 		WaveDAC8_1_Enable();
  86              		.loc 1 83 0
ARM GAS  C:\Users\DGILLI~1\AppData\Local\Temp\ccLN2vib.s 			page 4


  87 000e FFF7FEFF 		bl	WaveDAC8_1_Enable
  88              	.LVL3:
  89              	.L6:
  90 0012 08BD     		pop	{r3, pc}
  91              	.L10:
  92              		.align	2
  93              	.L9:
  94 0014 00000000 		.word	.LANCHOR0
  95              		.cfi_endproc
  96              	.LFE1:
  97              		.size	WaveDAC8_1_Wakeup, .-WaveDAC8_1_Wakeup
  98              		.bss
  99              		.align	2
 100              		.set	.LANCHOR0,. + 0
 101              		.type	WaveDAC8_1_backup, %object
 102              		.size	WaveDAC8_1_backup, 1
 103              	WaveDAC8_1_backup:
 104 0000 00       		.space	1
 105 0001 000000   		.text
 106              	.Letext0:
 107              		.file 2 ".\\Generated_Source\\PSoC5\\cytypes.h"
 108              		.file 3 ".\\Generated_Source\\PSoC5\\WaveDAC8_1.h"
 109              		.file 4 "Generated_Source\\PSoC5/WaveDAC8_1_VDAC8.h"