ARM GAS  C:\Users\DGILLI~1\AppData\Local\Temp\ccbvQQB4.s 			page 1


   1              		.syntax unified
   2              		.cpu cortex-m3
   3              		.fpu softvfp
   4              		.eabi_attribute 20, 1
   5              		.eabi_attribute 21, 1
   6              		.eabi_attribute 23, 3
   7              		.eabi_attribute 24, 1
   8              		.eabi_attribute 25, 1
   9              		.eabi_attribute 26, 1
  10              		.eabi_attribute 30, 1
  11              		.eabi_attribute 34, 1
  12              		.eabi_attribute 18, 4
  13              		.thumb
  14              		.file	"I2C_1_SLAVE.c"
  15              		.text
  16              	.Ltext0:
  17              		.cfi_sections	.debug_frame
  18              		.section	.text.I2C_1_SlaveStatus,"ax",%progbits
  19              		.align	2
  20              		.global	I2C_1_SlaveStatus
  21              		.thumb
  22              		.thumb_func
  23              		.type	I2C_1_SlaveStatus, %function
  24              	I2C_1_SlaveStatus:
  25              	.LFB0:
  26              		.file 1 ".\\Generated_Source\\PSoC5\\I2C_1_SLAVE.c"
   1:.\Generated_Source\PSoC5/I2C_1_SLAVE.c **** /*******************************************************************************
   2:.\Generated_Source\PSoC5/I2C_1_SLAVE.c **** * File Name: I2C_1_SLAVE.c
   3:.\Generated_Source\PSoC5/I2C_1_SLAVE.c **** * Version 3.50
   4:.\Generated_Source\PSoC5/I2C_1_SLAVE.c **** *
   5:.\Generated_Source\PSoC5/I2C_1_SLAVE.c **** * Description:
   6:.\Generated_Source\PSoC5/I2C_1_SLAVE.c **** *  This file provides the source code of APIs for the I2C component Slave mode.
   7:.\Generated_Source\PSoC5/I2C_1_SLAVE.c **** *
   8:.\Generated_Source\PSoC5/I2C_1_SLAVE.c **** * Note:
   9:.\Generated_Source\PSoC5/I2C_1_SLAVE.c **** *
  10:.\Generated_Source\PSoC5/I2C_1_SLAVE.c **** *******************************************************************************
  11:.\Generated_Source\PSoC5/I2C_1_SLAVE.c **** * Copyright 2012-2015, Cypress Semiconductor Corporation. All rights reserved.
  12:.\Generated_Source\PSoC5/I2C_1_SLAVE.c **** * You may use this file only in accordance with the license, terms, conditions,
  13:.\Generated_Source\PSoC5/I2C_1_SLAVE.c **** * disclaimers, and limitations in the end user license agreement accompanying
  14:.\Generated_Source\PSoC5/I2C_1_SLAVE.c **** * the software package with which this file was provided.
  15:.\Generated_Source\PSoC5/I2C_1_SLAVE.c **** *******************************************************************************/
  16:.\Generated_Source\PSoC5/I2C_1_SLAVE.c **** 
  17:.\Generated_Source\PSoC5/I2C_1_SLAVE.c **** #include "I2C_1_PVT.h"
  18:.\Generated_Source\PSoC5/I2C_1_SLAVE.c **** 
  19:.\Generated_Source\PSoC5/I2C_1_SLAVE.c **** #if (I2C_1_MODE_SLAVE_ENABLED)
  20:.\Generated_Source\PSoC5/I2C_1_SLAVE.c **** 
  21:.\Generated_Source\PSoC5/I2C_1_SLAVE.c **** /**********************************
  22:.\Generated_Source\PSoC5/I2C_1_SLAVE.c **** *      System variables
  23:.\Generated_Source\PSoC5/I2C_1_SLAVE.c **** **********************************/
  24:.\Generated_Source\PSoC5/I2C_1_SLAVE.c **** 
  25:.\Generated_Source\PSoC5/I2C_1_SLAVE.c **** volatile uint8 I2C_1_slStatus;   /* Slave Status  */
  26:.\Generated_Source\PSoC5/I2C_1_SLAVE.c **** 
  27:.\Generated_Source\PSoC5/I2C_1_SLAVE.c **** /* Transmit buffer variables */
  28:.\Generated_Source\PSoC5/I2C_1_SLAVE.c **** volatile uint8 * I2C_1_slRdBufPtr;   /* Pointer to Transmit buffer  */
  29:.\Generated_Source\PSoC5/I2C_1_SLAVE.c **** volatile uint8   I2C_1_slRdBufSize;  /* Slave Transmit buffer size  */
  30:.\Generated_Source\PSoC5/I2C_1_SLAVE.c **** volatile uint8   I2C_1_slRdBufIndex; /* Slave Transmit buffer Index */
  31:.\Generated_Source\PSoC5/I2C_1_SLAVE.c **** 
ARM GAS  C:\Users\DGILLI~1\AppData\Local\Temp\ccbvQQB4.s 			page 2


  32:.\Generated_Source\PSoC5/I2C_1_SLAVE.c **** /* Receive buffer variables */
  33:.\Generated_Source\PSoC5/I2C_1_SLAVE.c **** volatile uint8 * I2C_1_slWrBufPtr;   /* Pointer to Receive buffer  */
  34:.\Generated_Source\PSoC5/I2C_1_SLAVE.c **** volatile uint8   I2C_1_slWrBufSize;  /* Slave Receive buffer size  */
  35:.\Generated_Source\PSoC5/I2C_1_SLAVE.c **** volatile uint8   I2C_1_slWrBufIndex; /* Slave Receive buffer Index */
  36:.\Generated_Source\PSoC5/I2C_1_SLAVE.c **** 
  37:.\Generated_Source\PSoC5/I2C_1_SLAVE.c **** #if (I2C_1_SW_ADRR_DECODE)
  38:.\Generated_Source\PSoC5/I2C_1_SLAVE.c ****     volatile uint8 I2C_1_slAddress;  /* Software address variable */
  39:.\Generated_Source\PSoC5/I2C_1_SLAVE.c **** #endif /* (I2C_1_SW_ADRR_DECODE) */
  40:.\Generated_Source\PSoC5/I2C_1_SLAVE.c **** 
  41:.\Generated_Source\PSoC5/I2C_1_SLAVE.c **** 
  42:.\Generated_Source\PSoC5/I2C_1_SLAVE.c **** /*******************************************************************************
  43:.\Generated_Source\PSoC5/I2C_1_SLAVE.c **** * Function Name: I2C_1_SlaveStatus
  44:.\Generated_Source\PSoC5/I2C_1_SLAVE.c **** ********************************************************************************
  45:.\Generated_Source\PSoC5/I2C_1_SLAVE.c **** *
  46:.\Generated_Source\PSoC5/I2C_1_SLAVE.c **** * Summary:
  47:.\Generated_Source\PSoC5/I2C_1_SLAVE.c **** *  Returns I2C slave's communication status.
  48:.\Generated_Source\PSoC5/I2C_1_SLAVE.c **** *
  49:.\Generated_Source\PSoC5/I2C_1_SLAVE.c **** * Parameters:
  50:.\Generated_Source\PSoC5/I2C_1_SLAVE.c **** *  None.
  51:.\Generated_Source\PSoC5/I2C_1_SLAVE.c **** *
  52:.\Generated_Source\PSoC5/I2C_1_SLAVE.c **** * Return:
  53:.\Generated_Source\PSoC5/I2C_1_SLAVE.c **** *  Current status of I2C slave.
  54:.\Generated_Source\PSoC5/I2C_1_SLAVE.c **** *
  55:.\Generated_Source\PSoC5/I2C_1_SLAVE.c **** * Global variables:
  56:.\Generated_Source\PSoC5/I2C_1_SLAVE.c **** *  I2C_1_slStatus - The global variable used to store a current
  57:.\Generated_Source\PSoC5/I2C_1_SLAVE.c **** *                              status of the I2C slave.
  58:.\Generated_Source\PSoC5/I2C_1_SLAVE.c **** *
  59:.\Generated_Source\PSoC5/I2C_1_SLAVE.c **** *******************************************************************************/
  60:.\Generated_Source\PSoC5/I2C_1_SLAVE.c **** uint8 I2C_1_SlaveStatus(void) 
  61:.\Generated_Source\PSoC5/I2C_1_SLAVE.c **** {
  27              		.loc 1 61 0
  28              		.cfi_startproc
  29              		@ args = 0, pretend = 0, frame = 0
  30              		@ frame_needed = 0, uses_anonymous_args = 0
  31              		@ link register save eliminated.
  62:.\Generated_Source\PSoC5/I2C_1_SLAVE.c ****     return (I2C_1_slStatus);
  32              		.loc 1 62 0
  33 0000 014B     		ldr	r3, .L2
  34 0002 1878     		ldrb	r0, [r3]	@ zero_extendqisi2
  63:.\Generated_Source\PSoC5/I2C_1_SLAVE.c **** }
  35              		.loc 1 63 0
  36 0004 7047     		bx	lr
  37              	.L3:
  38 0006 00BF     		.align	2
  39              	.L2:
  40 0008 00000000 		.word	I2C_1_slStatus
  41              		.cfi_endproc
  42              	.LFE0:
  43              		.size	I2C_1_SlaveStatus, .-I2C_1_SlaveStatus
  44              		.section	.text.I2C_1_SlaveClearReadStatus,"ax",%progbits
  45              		.align	2
  46              		.global	I2C_1_SlaveClearReadStatus
  47              		.thumb
  48              		.thumb_func
  49              		.type	I2C_1_SlaveClearReadStatus, %function
  50              	I2C_1_SlaveClearReadStatus:
  51              	.LFB1:
ARM GAS  C:\Users\DGILLI~1\AppData\Local\Temp\ccbvQQB4.s 			page 3


  64:.\Generated_Source\PSoC5/I2C_1_SLAVE.c **** 
  65:.\Generated_Source\PSoC5/I2C_1_SLAVE.c **** 
  66:.\Generated_Source\PSoC5/I2C_1_SLAVE.c **** /*******************************************************************************
  67:.\Generated_Source\PSoC5/I2C_1_SLAVE.c **** * Function Name: I2C_1_SlaveClearReadStatus
  68:.\Generated_Source\PSoC5/I2C_1_SLAVE.c **** ********************************************************************************
  69:.\Generated_Source\PSoC5/I2C_1_SLAVE.c **** *
  70:.\Generated_Source\PSoC5/I2C_1_SLAVE.c **** * Summary:
  71:.\Generated_Source\PSoC5/I2C_1_SLAVE.c **** *  Clears the read status flags and returns they values.
  72:.\Generated_Source\PSoC5/I2C_1_SLAVE.c **** *  The I2C_1_SSTAT_RD_BUSY flag is not effected by clear.
  73:.\Generated_Source\PSoC5/I2C_1_SLAVE.c **** *
  74:.\Generated_Source\PSoC5/I2C_1_SLAVE.c **** * Parameters:
  75:.\Generated_Source\PSoC5/I2C_1_SLAVE.c **** *  None.
  76:.\Generated_Source\PSoC5/I2C_1_SLAVE.c **** *
  77:.\Generated_Source\PSoC5/I2C_1_SLAVE.c **** * Return:
  78:.\Generated_Source\PSoC5/I2C_1_SLAVE.c **** *  Current read status of I2C slave.
  79:.\Generated_Source\PSoC5/I2C_1_SLAVE.c **** *
  80:.\Generated_Source\PSoC5/I2C_1_SLAVE.c **** * Global variables:
  81:.\Generated_Source\PSoC5/I2C_1_SLAVE.c **** *  I2C_1_slStatus - The global variable used to store a current
  82:.\Generated_Source\PSoC5/I2C_1_SLAVE.c **** *                              status of the I2C slave.
  83:.\Generated_Source\PSoC5/I2C_1_SLAVE.c **** *
  84:.\Generated_Source\PSoC5/I2C_1_SLAVE.c **** * Reentrant:
  85:.\Generated_Source\PSoC5/I2C_1_SLAVE.c **** *  No.
  86:.\Generated_Source\PSoC5/I2C_1_SLAVE.c **** *
  87:.\Generated_Source\PSoC5/I2C_1_SLAVE.c **** *******************************************************************************/
  88:.\Generated_Source\PSoC5/I2C_1_SLAVE.c **** uint8 I2C_1_SlaveClearReadStatus(void) 
  89:.\Generated_Source\PSoC5/I2C_1_SLAVE.c **** {
  52              		.loc 1 89 0
  53              		.cfi_startproc
  54              		@ args = 0, pretend = 0, frame = 0
  55              		@ frame_needed = 0, uses_anonymous_args = 0
  56              		@ link register save eliminated.
  90:.\Generated_Source\PSoC5/I2C_1_SLAVE.c ****     uint8 status;
  91:.\Generated_Source\PSoC5/I2C_1_SLAVE.c **** 
  92:.\Generated_Source\PSoC5/I2C_1_SLAVE.c ****     I2C_1_DisableInt(); /* Lock from interrupt */
  57              		.loc 1 92 0
  58 0000 4FF40041 		mov	r1, #32768
  59 0004 064B     		ldr	r3, .L5
  60 0006 1960     		str	r1, [r3]
  93:.\Generated_Source\PSoC5/I2C_1_SLAVE.c **** 
  94:.\Generated_Source\PSoC5/I2C_1_SLAVE.c ****     /* Mask of transfer complete flag and Error status */
  95:.\Generated_Source\PSoC5/I2C_1_SLAVE.c ****     status = (I2C_1_slStatus & I2C_1_SSTAT_RD_MASK);
  61              		.loc 1 95 0
  62 0008 064B     		ldr	r3, .L5+4
  63 000a 1878     		ldrb	r0, [r3]	@ zero_extendqisi2
  64              	.LVL0:
  96:.\Generated_Source\PSoC5/I2C_1_SLAVE.c ****     I2C_1_slStatus &= (uint8) ~I2C_1_SSTAT_RD_CLEAR;
  65              		.loc 1 96 0
  66 000c 1A78     		ldrb	r2, [r3]	@ zero_extendqisi2
  67 000e 02F0F202 		and	r2, r2, #242
  68 0012 1A70     		strb	r2, [r3]
  97:.\Generated_Source\PSoC5/I2C_1_SLAVE.c **** 
  98:.\Generated_Source\PSoC5/I2C_1_SLAVE.c ****     I2C_1_EnableInt(); /* Release lock */
  69              		.loc 1 98 0
  70 0014 044B     		ldr	r3, .L5+8
  71 0016 1960     		str	r1, [r3]
  99:.\Generated_Source\PSoC5/I2C_1_SLAVE.c **** 
 100:.\Generated_Source\PSoC5/I2C_1_SLAVE.c ****     return (status);
ARM GAS  C:\Users\DGILLI~1\AppData\Local\Temp\ccbvQQB4.s 			page 4


 101:.\Generated_Source\PSoC5/I2C_1_SLAVE.c **** }
  72              		.loc 1 101 0
  73 0018 00F00F00 		and	r0, r0, #15
  74              	.LVL1:
  75 001c 7047     		bx	lr
  76              	.L6:
  77 001e 00BF     		.align	2
  78              	.L5:
  79 0020 80E100E0 		.word	-536813184
  80 0024 00000000 		.word	I2C_1_slStatus
  81 0028 00E100E0 		.word	-536813312
  82              		.cfi_endproc
  83              	.LFE1:
  84              		.size	I2C_1_SlaveClearReadStatus, .-I2C_1_SlaveClearReadStatus
  85              		.section	.text.I2C_1_SlaveClearWriteStatus,"ax",%progbits
  86              		.align	2
  87              		.global	I2C_1_SlaveClearWriteStatus
  88              		.thumb
  89              		.thumb_func
  90              		.type	I2C_1_SlaveClearWriteStatus, %function
  91              	I2C_1_SlaveClearWriteStatus:
  92              	.LFB2:
 102:.\Generated_Source\PSoC5/I2C_1_SLAVE.c **** 
 103:.\Generated_Source\PSoC5/I2C_1_SLAVE.c **** 
 104:.\Generated_Source\PSoC5/I2C_1_SLAVE.c **** /*******************************************************************************
 105:.\Generated_Source\PSoC5/I2C_1_SLAVE.c **** * Function Name: I2C_1_SlaveClearWriteStatus
 106:.\Generated_Source\PSoC5/I2C_1_SLAVE.c **** ********************************************************************************
 107:.\Generated_Source\PSoC5/I2C_1_SLAVE.c **** *
 108:.\Generated_Source\PSoC5/I2C_1_SLAVE.c **** * Summary:
 109:.\Generated_Source\PSoC5/I2C_1_SLAVE.c **** *  Clears the write status flags and returns they values.
 110:.\Generated_Source\PSoC5/I2C_1_SLAVE.c **** *  The I2C_1_SSTAT_WR_BUSY flag is not effected by clear.
 111:.\Generated_Source\PSoC5/I2C_1_SLAVE.c **** *
 112:.\Generated_Source\PSoC5/I2C_1_SLAVE.c **** * Parameters:
 113:.\Generated_Source\PSoC5/I2C_1_SLAVE.c **** *  None.
 114:.\Generated_Source\PSoC5/I2C_1_SLAVE.c **** *
 115:.\Generated_Source\PSoC5/I2C_1_SLAVE.c **** * Return:
 116:.\Generated_Source\PSoC5/I2C_1_SLAVE.c **** *  Current write status of I2C slave.
 117:.\Generated_Source\PSoC5/I2C_1_SLAVE.c **** *
 118:.\Generated_Source\PSoC5/I2C_1_SLAVE.c **** * Global variables:
 119:.\Generated_Source\PSoC5/I2C_1_SLAVE.c **** *  I2C_1_slStatus - The global variable used to store a current
 120:.\Generated_Source\PSoC5/I2C_1_SLAVE.c **** *                              status of the I2C slave.
 121:.\Generated_Source\PSoC5/I2C_1_SLAVE.c **** *
 122:.\Generated_Source\PSoC5/I2C_1_SLAVE.c **** * Reentrant:
 123:.\Generated_Source\PSoC5/I2C_1_SLAVE.c **** *  No.
 124:.\Generated_Source\PSoC5/I2C_1_SLAVE.c **** *
 125:.\Generated_Source\PSoC5/I2C_1_SLAVE.c **** *******************************************************************************/
 126:.\Generated_Source\PSoC5/I2C_1_SLAVE.c **** uint8 I2C_1_SlaveClearWriteStatus(void) 
 127:.\Generated_Source\PSoC5/I2C_1_SLAVE.c **** {
  93              		.loc 1 127 0
  94              		.cfi_startproc
  95              		@ args = 0, pretend = 0, frame = 0
  96              		@ frame_needed = 0, uses_anonymous_args = 0
  97              		@ link register save eliminated.
 128:.\Generated_Source\PSoC5/I2C_1_SLAVE.c ****     uint8 status;
 129:.\Generated_Source\PSoC5/I2C_1_SLAVE.c **** 
 130:.\Generated_Source\PSoC5/I2C_1_SLAVE.c ****     I2C_1_DisableInt(); /* Lock from interrupt */
  98              		.loc 1 130 0
ARM GAS  C:\Users\DGILLI~1\AppData\Local\Temp\ccbvQQB4.s 			page 5


  99 0000 4FF40041 		mov	r1, #32768
 100 0004 064B     		ldr	r3, .L8
 101 0006 1960     		str	r1, [r3]
 131:.\Generated_Source\PSoC5/I2C_1_SLAVE.c **** 
 132:.\Generated_Source\PSoC5/I2C_1_SLAVE.c ****     /* Mask of transfer complete flag and Error status */
 133:.\Generated_Source\PSoC5/I2C_1_SLAVE.c ****     status = (I2C_1_slStatus & I2C_1_SSTAT_WR_MASK);
 102              		.loc 1 133 0
 103 0008 064B     		ldr	r3, .L8+4
 104 000a 1878     		ldrb	r0, [r3]	@ zero_extendqisi2
 105              	.LVL2:
 134:.\Generated_Source\PSoC5/I2C_1_SLAVE.c ****     I2C_1_slStatus &= (uint8) ~I2C_1_SSTAT_WR_CLEAR;
 106              		.loc 1 134 0
 107 000c 1A78     		ldrb	r2, [r3]	@ zero_extendqisi2
 108 000e 02F02F02 		and	r2, r2, #47
 109 0012 1A70     		strb	r2, [r3]
 135:.\Generated_Source\PSoC5/I2C_1_SLAVE.c **** 
 136:.\Generated_Source\PSoC5/I2C_1_SLAVE.c ****     I2C_1_EnableInt(); /* Release lock */
 110              		.loc 1 136 0
 111 0014 044B     		ldr	r3, .L8+8
 112 0016 1960     		str	r1, [r3]
 137:.\Generated_Source\PSoC5/I2C_1_SLAVE.c **** 
 138:.\Generated_Source\PSoC5/I2C_1_SLAVE.c ****     return (status);
 139:.\Generated_Source\PSoC5/I2C_1_SLAVE.c **** }
 113              		.loc 1 139 0
 114 0018 00F0F000 		and	r0, r0, #240
 115              	.LVL3:
 116 001c 7047     		bx	lr
 117              	.L9:
 118 001e 00BF     		.align	2
 119              	.L8:
 120 0020 80E100E0 		.word	-536813184
 121 0024 00000000 		.word	I2C_1_slStatus
 122 0028 00E100E0 		.word	-536813312
 123              		.cfi_endproc
 124              	.LFE2:
 125              		.size	I2C_1_SlaveClearWriteStatus, .-I2C_1_SlaveClearWriteStatus
 126              		.section	.text.I2C_1_SlaveSetAddress,"ax",%progbits
 127              		.align	2
 128              		.global	I2C_1_SlaveSetAddress
 129              		.thumb
 130              		.thumb_func
 131              		.type	I2C_1_SlaveSetAddress, %function
 132              	I2C_1_SlaveSetAddress:
 133              	.LFB3:
 140:.\Generated_Source\PSoC5/I2C_1_SLAVE.c **** 
 141:.\Generated_Source\PSoC5/I2C_1_SLAVE.c **** 
 142:.\Generated_Source\PSoC5/I2C_1_SLAVE.c **** /*******************************************************************************
 143:.\Generated_Source\PSoC5/I2C_1_SLAVE.c **** * Function Name: I2C_1_SlaveSetAddress
 144:.\Generated_Source\PSoC5/I2C_1_SLAVE.c **** ********************************************************************************
 145:.\Generated_Source\PSoC5/I2C_1_SLAVE.c **** *
 146:.\Generated_Source\PSoC5/I2C_1_SLAVE.c **** * Summary:
 147:.\Generated_Source\PSoC5/I2C_1_SLAVE.c **** *  Sets the I2C slave address.
 148:.\Generated_Source\PSoC5/I2C_1_SLAVE.c **** *
 149:.\Generated_Source\PSoC5/I2C_1_SLAVE.c **** * Parameters:
 150:.\Generated_Source\PSoC5/I2C_1_SLAVE.c **** *  address: I2C slave address for the primary device. This value may be any
 151:.\Generated_Source\PSoC5/I2C_1_SLAVE.c **** *  address between 0 and 127.
 152:.\Generated_Source\PSoC5/I2C_1_SLAVE.c **** *
ARM GAS  C:\Users\DGILLI~1\AppData\Local\Temp\ccbvQQB4.s 			page 6


 153:.\Generated_Source\PSoC5/I2C_1_SLAVE.c **** * Return:
 154:.\Generated_Source\PSoC5/I2C_1_SLAVE.c **** *  None.
 155:.\Generated_Source\PSoC5/I2C_1_SLAVE.c **** *
 156:.\Generated_Source\PSoC5/I2C_1_SLAVE.c **** * Global variables:
 157:.\Generated_Source\PSoC5/I2C_1_SLAVE.c **** *  I2C_1_Address  - The global variable used to store an I2C slave
 158:.\Generated_Source\PSoC5/I2C_1_SLAVE.c **** *                              address for the primary device when the software
 159:.\Generated_Source\PSoC5/I2C_1_SLAVE.c **** *                              address detect feature is used.
 160:.\Generated_Source\PSoC5/I2C_1_SLAVE.c **** *
 161:.\Generated_Source\PSoC5/I2C_1_SLAVE.c **** * Reentrant:
 162:.\Generated_Source\PSoC5/I2C_1_SLAVE.c **** *  No.
 163:.\Generated_Source\PSoC5/I2C_1_SLAVE.c **** *
 164:.\Generated_Source\PSoC5/I2C_1_SLAVE.c **** *******************************************************************************/
 165:.\Generated_Source\PSoC5/I2C_1_SLAVE.c **** void I2C_1_SlaveSetAddress(uint8 address) 
 166:.\Generated_Source\PSoC5/I2C_1_SLAVE.c **** {
 134              		.loc 1 166 0
 135              		.cfi_startproc
 136              		@ args = 0, pretend = 0, frame = 0
 137              		@ frame_needed = 0, uses_anonymous_args = 0
 138              		@ link register save eliminated.
 139              	.LVL4:
 167:.\Generated_Source\PSoC5/I2C_1_SLAVE.c **** #if (I2C_1_SW_ADRR_DECODE)
 168:.\Generated_Source\PSoC5/I2C_1_SLAVE.c ****     I2C_1_slAddress = (address & I2C_1_SLAVE_ADDR_MASK);
 169:.\Generated_Source\PSoC5/I2C_1_SLAVE.c **** #else
 170:.\Generated_Source\PSoC5/I2C_1_SLAVE.c ****     I2C_1_ADDR_REG  = (address & I2C_1_SLAVE_ADDR_MASK);
 140              		.loc 1 170 0
 141 0000 00F07F00 		and	r0, r0, #127
 142              	.LVL5:
 143 0004 014B     		ldr	r3, .L11
 144 0006 1870     		strb	r0, [r3]
 145 0008 7047     		bx	lr
 146              	.L12:
 147 000a 00BF     		.align	2
 148              	.L11:
 149 000c CA490040 		.word	1073760714
 150              		.cfi_endproc
 151              	.LFE3:
 152              		.size	I2C_1_SlaveSetAddress, .-I2C_1_SlaveSetAddress
 153              		.section	.text.I2C_1_SlaveInitReadBuf,"ax",%progbits
 154              		.align	2
 155              		.global	I2C_1_SlaveInitReadBuf
 156              		.thumb
 157              		.thumb_func
 158              		.type	I2C_1_SlaveInitReadBuf, %function
 159              	I2C_1_SlaveInitReadBuf:
 160              	.LFB4:
 171:.\Generated_Source\PSoC5/I2C_1_SLAVE.c **** #endif /* (I2C_1_SW_ADRR_DECODE) */
 172:.\Generated_Source\PSoC5/I2C_1_SLAVE.c **** }
 173:.\Generated_Source\PSoC5/I2C_1_SLAVE.c **** 
 174:.\Generated_Source\PSoC5/I2C_1_SLAVE.c **** 
 175:.\Generated_Source\PSoC5/I2C_1_SLAVE.c **** /*******************************************************************************
 176:.\Generated_Source\PSoC5/I2C_1_SLAVE.c **** * Function Name: I2C_1_SlaveInitReadBuf
 177:.\Generated_Source\PSoC5/I2C_1_SLAVE.c **** ********************************************************************************
 178:.\Generated_Source\PSoC5/I2C_1_SLAVE.c **** *
 179:.\Generated_Source\PSoC5/I2C_1_SLAVE.c **** * Summary:
 180:.\Generated_Source\PSoC5/I2C_1_SLAVE.c **** *  Sets the buffer pointer and size of the read buffer. This function also
 181:.\Generated_Source\PSoC5/I2C_1_SLAVE.c **** *  resets the transfer count returned with the I2C_SlaveGetReadBufSize function.
 182:.\Generated_Source\PSoC5/I2C_1_SLAVE.c **** *
ARM GAS  C:\Users\DGILLI~1\AppData\Local\Temp\ccbvQQB4.s 			page 7


 183:.\Generated_Source\PSoC5/I2C_1_SLAVE.c **** * Parameters:
 184:.\Generated_Source\PSoC5/I2C_1_SLAVE.c **** *  readBuf:  Pointer to the data buffer to be read by the master.
 185:.\Generated_Source\PSoC5/I2C_1_SLAVE.c **** *  bufSize:  Size of the read buffer exposed to the I2C master.
 186:.\Generated_Source\PSoC5/I2C_1_SLAVE.c **** *
 187:.\Generated_Source\PSoC5/I2C_1_SLAVE.c **** * Return:
 188:.\Generated_Source\PSoC5/I2C_1_SLAVE.c **** *  None.
 189:.\Generated_Source\PSoC5/I2C_1_SLAVE.c **** *
 190:.\Generated_Source\PSoC5/I2C_1_SLAVE.c **** * Global variables:
 191:.\Generated_Source\PSoC5/I2C_1_SLAVE.c **** *  I2C_1_slRdBufPtr   - The global variable used to store a pointer
 192:.\Generated_Source\PSoC5/I2C_1_SLAVE.c **** *                                  to the slave read buffer.
 193:.\Generated_Source\PSoC5/I2C_1_SLAVE.c **** *  I2C_1_slRdBufSize  - The global variable used to store a slave
 194:.\Generated_Source\PSoC5/I2C_1_SLAVE.c **** *                                  read buffer size.
 195:.\Generated_Source\PSoC5/I2C_1_SLAVE.c **** *  I2C_1_slRdBufIndex - The global variable used to store a current
 196:.\Generated_Source\PSoC5/I2C_1_SLAVE.c **** *                                  index within the slave read buffer.
 197:.\Generated_Source\PSoC5/I2C_1_SLAVE.c **** *
 198:.\Generated_Source\PSoC5/I2C_1_SLAVE.c **** * Side Effects:
 199:.\Generated_Source\PSoC5/I2C_1_SLAVE.c **** *  If this function is called during a bus transaction, data from the previous
 200:.\Generated_Source\PSoC5/I2C_1_SLAVE.c **** *  buffer location and the beginning of the current buffer may be transmitted.
 201:.\Generated_Source\PSoC5/I2C_1_SLAVE.c **** *
 202:.\Generated_Source\PSoC5/I2C_1_SLAVE.c **** * Reentrant:
 203:.\Generated_Source\PSoC5/I2C_1_SLAVE.c **** *  No.
 204:.\Generated_Source\PSoC5/I2C_1_SLAVE.c **** *
 205:.\Generated_Source\PSoC5/I2C_1_SLAVE.c **** *******************************************************************************/
 206:.\Generated_Source\PSoC5/I2C_1_SLAVE.c **** void I2C_1_SlaveInitReadBuf(uint8 * rdBuf, uint8 bufSize)
 207:.\Generated_Source\PSoC5/I2C_1_SLAVE.c ****      
 208:.\Generated_Source\PSoC5/I2C_1_SLAVE.c **** {
 161              		.loc 1 208 0
 162              		.cfi_startproc
 163              		@ args = 0, pretend = 0, frame = 0
 164              		@ frame_needed = 0, uses_anonymous_args = 0
 165              		@ link register save eliminated.
 166              	.LVL6:
 209:.\Generated_Source\PSoC5/I2C_1_SLAVE.c ****     if (NULL != rdBuf)
 167              		.loc 1 209 0
 168 0000 0246     		mov	r2, r0
 169 0002 60B1     		cbz	r0, .L13
 210:.\Generated_Source\PSoC5/I2C_1_SLAVE.c ****     {
 211:.\Generated_Source\PSoC5/I2C_1_SLAVE.c ****         I2C_1_DisableInt(); /* Lock from interrupt */
 170              		.loc 1 211 0
 171 0004 4FF40043 		mov	r3, #32768
 172 0008 0548     		ldr	r0, .L15
 173              	.LVL7:
 174 000a 0360     		str	r3, [r0]
 212:.\Generated_Source\PSoC5/I2C_1_SLAVE.c **** 
 213:.\Generated_Source\PSoC5/I2C_1_SLAVE.c ****         /* Set buffer pointer */
 214:.\Generated_Source\PSoC5/I2C_1_SLAVE.c ****         I2C_1_slRdBufPtr   = (volatile uint8 *) rdBuf;
 175              		.loc 1 214 0
 176 000c 0548     		ldr	r0, .L15+4
 177 000e 0260     		str	r2, [r0]
 215:.\Generated_Source\PSoC5/I2C_1_SLAVE.c ****         I2C_1_slRdBufSize  = bufSize;    /* Set buffer size     */
 178              		.loc 1 215 0
 179 0010 054A     		ldr	r2, .L15+8
 180              	.LVL8:
 181 0012 1170     		strb	r1, [r2]
 216:.\Generated_Source\PSoC5/I2C_1_SLAVE.c ****         I2C_1_slRdBufIndex = 0u;         /* Clears buffer index */
 182              		.loc 1 216 0
 183 0014 0021     		movs	r1, #0
ARM GAS  C:\Users\DGILLI~1\AppData\Local\Temp\ccbvQQB4.s 			page 8


 184              	.LVL9:
 185 0016 054A     		ldr	r2, .L15+12
 186 0018 1170     		strb	r1, [r2]
 187              	.LVL10:
 217:.\Generated_Source\PSoC5/I2C_1_SLAVE.c **** 
 218:.\Generated_Source\PSoC5/I2C_1_SLAVE.c ****         I2C_1_EnableInt(); /* Release lock */
 188              		.loc 1 218 0
 189 001a 054A     		ldr	r2, .L15+16
 190 001c 1360     		str	r3, [r2]
 191              	.LVL11:
 192              	.L13:
 193 001e 7047     		bx	lr
 194              	.L16:
 195              		.align	2
 196              	.L15:
 197 0020 80E100E0 		.word	-536813184
 198 0024 00000000 		.word	I2C_1_slRdBufPtr
 199 0028 00000000 		.word	I2C_1_slRdBufSize
 200 002c 00000000 		.word	I2C_1_slRdBufIndex
 201 0030 00E100E0 		.word	-536813312
 202              		.cfi_endproc
 203              	.LFE4:
 204              		.size	I2C_1_SlaveInitReadBuf, .-I2C_1_SlaveInitReadBuf
 205              		.section	.text.I2C_1_SlaveInitWriteBuf,"ax",%progbits
 206              		.align	2
 207              		.global	I2C_1_SlaveInitWriteBuf
 208              		.thumb
 209              		.thumb_func
 210              		.type	I2C_1_SlaveInitWriteBuf, %function
 211              	I2C_1_SlaveInitWriteBuf:
 212              	.LFB5:
 219:.\Generated_Source\PSoC5/I2C_1_SLAVE.c ****     }
 220:.\Generated_Source\PSoC5/I2C_1_SLAVE.c **** }
 221:.\Generated_Source\PSoC5/I2C_1_SLAVE.c **** 
 222:.\Generated_Source\PSoC5/I2C_1_SLAVE.c **** 
 223:.\Generated_Source\PSoC5/I2C_1_SLAVE.c **** /*******************************************************************************
 224:.\Generated_Source\PSoC5/I2C_1_SLAVE.c **** * Function Name: I2C_1_SlaveInitWriteBuf
 225:.\Generated_Source\PSoC5/I2C_1_SLAVE.c **** ********************************************************************************
 226:.\Generated_Source\PSoC5/I2C_1_SLAVE.c **** *
 227:.\Generated_Source\PSoC5/I2C_1_SLAVE.c **** * Summary:
 228:.\Generated_Source\PSoC5/I2C_1_SLAVE.c **** *  Sets the buffer pointer and size of the read buffer. This function also
 229:.\Generated_Source\PSoC5/I2C_1_SLAVE.c **** *  resets the transfer count returned with the I2C_SlaveGetReadBufSize function.
 230:.\Generated_Source\PSoC5/I2C_1_SLAVE.c **** *
 231:.\Generated_Source\PSoC5/I2C_1_SLAVE.c **** * Parameters:
 232:.\Generated_Source\PSoC5/I2C_1_SLAVE.c **** *  writeBuf:  Pointer to the data buffer to be read by the master.
 233:.\Generated_Source\PSoC5/I2C_1_SLAVE.c **** *  bufSize:  Size of the buffer exposed to the I2C master.
 234:.\Generated_Source\PSoC5/I2C_1_SLAVE.c **** *
 235:.\Generated_Source\PSoC5/I2C_1_SLAVE.c **** * Return:
 236:.\Generated_Source\PSoC5/I2C_1_SLAVE.c **** *  None.
 237:.\Generated_Source\PSoC5/I2C_1_SLAVE.c **** *
 238:.\Generated_Source\PSoC5/I2C_1_SLAVE.c **** * Global variables:
 239:.\Generated_Source\PSoC5/I2C_1_SLAVE.c **** *  I2C_1_slWrBufPtr   - The global variable used to store a pointer
 240:.\Generated_Source\PSoC5/I2C_1_SLAVE.c **** *                                  to the slave write buffer.
 241:.\Generated_Source\PSoC5/I2C_1_SLAVE.c **** *  I2C_1_slWrBufSize  - The global variable used to store a slave
 242:.\Generated_Source\PSoC5/I2C_1_SLAVE.c **** *                                  write buffer size.
 243:.\Generated_Source\PSoC5/I2C_1_SLAVE.c **** *  I2C_1_slWrBufIndex - The global variable used to store a current
 244:.\Generated_Source\PSoC5/I2C_1_SLAVE.c **** *                                  index within the slave write buffer.
ARM GAS  C:\Users\DGILLI~1\AppData\Local\Temp\ccbvQQB4.s 			page 9


 245:.\Generated_Source\PSoC5/I2C_1_SLAVE.c **** *
 246:.\Generated_Source\PSoC5/I2C_1_SLAVE.c **** * Side Effects:
 247:.\Generated_Source\PSoC5/I2C_1_SLAVE.c **** *  If this function is called during a bus transaction, data from the previous
 248:.\Generated_Source\PSoC5/I2C_1_SLAVE.c **** *  buffer location and the beginning of the current buffer may be transmitted.
 249:.\Generated_Source\PSoC5/I2C_1_SLAVE.c **** *
 250:.\Generated_Source\PSoC5/I2C_1_SLAVE.c **** * Reentrant:
 251:.\Generated_Source\PSoC5/I2C_1_SLAVE.c **** *  No.
 252:.\Generated_Source\PSoC5/I2C_1_SLAVE.c **** *
 253:.\Generated_Source\PSoC5/I2C_1_SLAVE.c **** *******************************************************************************/
 254:.\Generated_Source\PSoC5/I2C_1_SLAVE.c **** void I2C_1_SlaveInitWriteBuf(uint8 * wrBuf, uint8 bufSize)
 255:.\Generated_Source\PSoC5/I2C_1_SLAVE.c ****      
 256:.\Generated_Source\PSoC5/I2C_1_SLAVE.c **** {
 213              		.loc 1 256 0
 214              		.cfi_startproc
 215              		@ args = 0, pretend = 0, frame = 0
 216              		@ frame_needed = 0, uses_anonymous_args = 0
 217              		@ link register save eliminated.
 218              	.LVL12:
 257:.\Generated_Source\PSoC5/I2C_1_SLAVE.c ****     if (NULL != wrBuf)
 219              		.loc 1 257 0
 220 0000 0246     		mov	r2, r0
 221 0002 60B1     		cbz	r0, .L17
 258:.\Generated_Source\PSoC5/I2C_1_SLAVE.c ****     {
 259:.\Generated_Source\PSoC5/I2C_1_SLAVE.c ****         I2C_1_DisableInt(); /* Lock from interrupt */
 222              		.loc 1 259 0
 223 0004 4FF40043 		mov	r3, #32768
 224 0008 0548     		ldr	r0, .L19
 225              	.LVL13:
 226 000a 0360     		str	r3, [r0]
 260:.\Generated_Source\PSoC5/I2C_1_SLAVE.c **** 
 261:.\Generated_Source\PSoC5/I2C_1_SLAVE.c ****          /* Set buffer pointer */
 262:.\Generated_Source\PSoC5/I2C_1_SLAVE.c ****         I2C_1_slWrBufPtr   = (volatile uint8 *) wrBuf;
 227              		.loc 1 262 0
 228 000c 0548     		ldr	r0, .L19+4
 229 000e 0260     		str	r2, [r0]
 263:.\Generated_Source\PSoC5/I2C_1_SLAVE.c ****         I2C_1_slWrBufSize  = bufSize;    /* Set buffer size     */
 230              		.loc 1 263 0
 231 0010 054A     		ldr	r2, .L19+8
 232              	.LVL14:
 233 0012 1170     		strb	r1, [r2]
 264:.\Generated_Source\PSoC5/I2C_1_SLAVE.c ****         I2C_1_slWrBufIndex = 0u;         /* Clears buffer index */
 234              		.loc 1 264 0
 235 0014 0021     		movs	r1, #0
 236              	.LVL15:
 237 0016 054A     		ldr	r2, .L19+12
 238 0018 1170     		strb	r1, [r2]
 239              	.LVL16:
 265:.\Generated_Source\PSoC5/I2C_1_SLAVE.c **** 
 266:.\Generated_Source\PSoC5/I2C_1_SLAVE.c ****         I2C_1_EnableInt(); /* Release lock */
 240              		.loc 1 266 0
 241 001a 054A     		ldr	r2, .L19+16
 242 001c 1360     		str	r3, [r2]
 243              	.LVL17:
 244              	.L17:
 245 001e 7047     		bx	lr
 246              	.L20:
 247              		.align	2
ARM GAS  C:\Users\DGILLI~1\AppData\Local\Temp\ccbvQQB4.s 			page 10


 248              	.L19:
 249 0020 80E100E0 		.word	-536813184
 250 0024 00000000 		.word	I2C_1_slWrBufPtr
 251 0028 00000000 		.word	I2C_1_slWrBufSize
 252 002c 00000000 		.word	I2C_1_slWrBufIndex
 253 0030 00E100E0 		.word	-536813312
 254              		.cfi_endproc
 255              	.LFE5:
 256              		.size	I2C_1_SlaveInitWriteBuf, .-I2C_1_SlaveInitWriteBuf
 257              		.section	.text.I2C_1_SlaveGetReadBufSize,"ax",%progbits
 258              		.align	2
 259              		.global	I2C_1_SlaveGetReadBufSize
 260              		.thumb
 261              		.thumb_func
 262              		.type	I2C_1_SlaveGetReadBufSize, %function
 263              	I2C_1_SlaveGetReadBufSize:
 264              	.LFB6:
 267:.\Generated_Source\PSoC5/I2C_1_SLAVE.c ****     }
 268:.\Generated_Source\PSoC5/I2C_1_SLAVE.c **** }
 269:.\Generated_Source\PSoC5/I2C_1_SLAVE.c **** 
 270:.\Generated_Source\PSoC5/I2C_1_SLAVE.c **** 
 271:.\Generated_Source\PSoC5/I2C_1_SLAVE.c **** /*******************************************************************************
 272:.\Generated_Source\PSoC5/I2C_1_SLAVE.c **** * Function Name: I2C_1_SlaveGetReadBufSize
 273:.\Generated_Source\PSoC5/I2C_1_SLAVE.c **** ********************************************************************************
 274:.\Generated_Source\PSoC5/I2C_1_SLAVE.c **** *
 275:.\Generated_Source\PSoC5/I2C_1_SLAVE.c **** * Summary:
 276:.\Generated_Source\PSoC5/I2C_1_SLAVE.c **** *  Returns the number of bytes read by the I2C master since an
 277:.\Generated_Source\PSoC5/I2C_1_SLAVE.c **** *  I2C_SlaveInitReadBuf or I2C_SlaveClearReadBuf function was executed.
 278:.\Generated_Source\PSoC5/I2C_1_SLAVE.c **** *  The maximum return value will be the size of the read buffer.
 279:.\Generated_Source\PSoC5/I2C_1_SLAVE.c **** *
 280:.\Generated_Source\PSoC5/I2C_1_SLAVE.c **** * Parameters:
 281:.\Generated_Source\PSoC5/I2C_1_SLAVE.c **** *  None.
 282:.\Generated_Source\PSoC5/I2C_1_SLAVE.c **** *
 283:.\Generated_Source\PSoC5/I2C_1_SLAVE.c **** * Return:
 284:.\Generated_Source\PSoC5/I2C_1_SLAVE.c **** *  Bytes read by master.
 285:.\Generated_Source\PSoC5/I2C_1_SLAVE.c **** *
 286:.\Generated_Source\PSoC5/I2C_1_SLAVE.c **** * Global variables:
 287:.\Generated_Source\PSoC5/I2C_1_SLAVE.c **** *  I2C_1_slRdBufIndex - The global variable used to store a current
 288:.\Generated_Source\PSoC5/I2C_1_SLAVE.c **** *                                  index within the slave read buffer.
 289:.\Generated_Source\PSoC5/I2C_1_SLAVE.c **** *
 290:.\Generated_Source\PSoC5/I2C_1_SLAVE.c **** *******************************************************************************/
 291:.\Generated_Source\PSoC5/I2C_1_SLAVE.c **** uint8 I2C_1_SlaveGetReadBufSize(void) 
 292:.\Generated_Source\PSoC5/I2C_1_SLAVE.c **** {
 265              		.loc 1 292 0
 266              		.cfi_startproc
 267              		@ args = 0, pretend = 0, frame = 0
 268              		@ frame_needed = 0, uses_anonymous_args = 0
 269              		@ link register save eliminated.
 293:.\Generated_Source\PSoC5/I2C_1_SLAVE.c ****     return (I2C_1_slRdBufIndex);
 270              		.loc 1 293 0
 271 0000 014B     		ldr	r3, .L22
 272 0002 1878     		ldrb	r0, [r3]	@ zero_extendqisi2
 294:.\Generated_Source\PSoC5/I2C_1_SLAVE.c **** }
 273              		.loc 1 294 0
 274 0004 7047     		bx	lr
 275              	.L23:
 276 0006 00BF     		.align	2
ARM GAS  C:\Users\DGILLI~1\AppData\Local\Temp\ccbvQQB4.s 			page 11


 277              	.L22:
 278 0008 00000000 		.word	I2C_1_slRdBufIndex
 279              		.cfi_endproc
 280              	.LFE6:
 281              		.size	I2C_1_SlaveGetReadBufSize, .-I2C_1_SlaveGetReadBufSize
 282              		.section	.text.I2C_1_SlaveGetWriteBufSize,"ax",%progbits
 283              		.align	2
 284              		.global	I2C_1_SlaveGetWriteBufSize
 285              		.thumb
 286              		.thumb_func
 287              		.type	I2C_1_SlaveGetWriteBufSize, %function
 288              	I2C_1_SlaveGetWriteBufSize:
 289              	.LFB7:
 295:.\Generated_Source\PSoC5/I2C_1_SLAVE.c **** 
 296:.\Generated_Source\PSoC5/I2C_1_SLAVE.c **** 
 297:.\Generated_Source\PSoC5/I2C_1_SLAVE.c **** /*******************************************************************************
 298:.\Generated_Source\PSoC5/I2C_1_SLAVE.c **** * Function Name: I2C_1_SlaveGetWriteBufSize
 299:.\Generated_Source\PSoC5/I2C_1_SLAVE.c **** ********************************************************************************
 300:.\Generated_Source\PSoC5/I2C_1_SLAVE.c **** *
 301:.\Generated_Source\PSoC5/I2C_1_SLAVE.c **** * Summary:
 302:.\Generated_Source\PSoC5/I2C_1_SLAVE.c **** *  Returns the number of bytes written by the I2C master since an
 303:.\Generated_Source\PSoC5/I2C_1_SLAVE.c **** *  I2C_SlaveInitWriteBuf or I2C_SlaveClearWriteBuf function was executed.
 304:.\Generated_Source\PSoC5/I2C_1_SLAVE.c **** *  The maximum return value will be the size of the write buffer.
 305:.\Generated_Source\PSoC5/I2C_1_SLAVE.c **** *
 306:.\Generated_Source\PSoC5/I2C_1_SLAVE.c **** * Parameters:
 307:.\Generated_Source\PSoC5/I2C_1_SLAVE.c **** *  None.
 308:.\Generated_Source\PSoC5/I2C_1_SLAVE.c **** *
 309:.\Generated_Source\PSoC5/I2C_1_SLAVE.c **** * Return:
 310:.\Generated_Source\PSoC5/I2C_1_SLAVE.c **** *  Bytes written by master.
 311:.\Generated_Source\PSoC5/I2C_1_SLAVE.c **** *
 312:.\Generated_Source\PSoC5/I2C_1_SLAVE.c **** * Global variables:
 313:.\Generated_Source\PSoC5/I2C_1_SLAVE.c **** *  I2C_1_slWrBufIndex - The global variable used to store a current
 314:.\Generated_Source\PSoC5/I2C_1_SLAVE.c **** *                                  index within the slave write buffer.
 315:.\Generated_Source\PSoC5/I2C_1_SLAVE.c **** *
 316:.\Generated_Source\PSoC5/I2C_1_SLAVE.c **** *******************************************************************************/
 317:.\Generated_Source\PSoC5/I2C_1_SLAVE.c **** uint8 I2C_1_SlaveGetWriteBufSize(void) 
 318:.\Generated_Source\PSoC5/I2C_1_SLAVE.c **** {
 290              		.loc 1 318 0
 291              		.cfi_startproc
 292              		@ args = 0, pretend = 0, frame = 0
 293              		@ frame_needed = 0, uses_anonymous_args = 0
 294              		@ link register save eliminated.
 319:.\Generated_Source\PSoC5/I2C_1_SLAVE.c ****     return (I2C_1_slWrBufIndex);
 295              		.loc 1 319 0
 296 0000 014B     		ldr	r3, .L25
 297 0002 1878     		ldrb	r0, [r3]	@ zero_extendqisi2
 320:.\Generated_Source\PSoC5/I2C_1_SLAVE.c **** }
 298              		.loc 1 320 0
 299 0004 7047     		bx	lr
 300              	.L26:
 301 0006 00BF     		.align	2
 302              	.L25:
 303 0008 00000000 		.word	I2C_1_slWrBufIndex
 304              		.cfi_endproc
 305              	.LFE7:
 306              		.size	I2C_1_SlaveGetWriteBufSize, .-I2C_1_SlaveGetWriteBufSize
 307              		.section	.text.I2C_1_SlaveClearReadBuf,"ax",%progbits
ARM GAS  C:\Users\DGILLI~1\AppData\Local\Temp\ccbvQQB4.s 			page 12


 308              		.align	2
 309              		.global	I2C_1_SlaveClearReadBuf
 310              		.thumb
 311              		.thumb_func
 312              		.type	I2C_1_SlaveClearReadBuf, %function
 313              	I2C_1_SlaveClearReadBuf:
 314              	.LFB8:
 321:.\Generated_Source\PSoC5/I2C_1_SLAVE.c **** 
 322:.\Generated_Source\PSoC5/I2C_1_SLAVE.c **** 
 323:.\Generated_Source\PSoC5/I2C_1_SLAVE.c **** /*******************************************************************************
 324:.\Generated_Source\PSoC5/I2C_1_SLAVE.c **** * Function Name: I2C_1_SlaveClearReadBuf
 325:.\Generated_Source\PSoC5/I2C_1_SLAVE.c **** ********************************************************************************
 326:.\Generated_Source\PSoC5/I2C_1_SLAVE.c **** *
 327:.\Generated_Source\PSoC5/I2C_1_SLAVE.c **** * Summary:
 328:.\Generated_Source\PSoC5/I2C_1_SLAVE.c **** *  Resets the read pointer to the first byte in the read buffer. The next byte
 329:.\Generated_Source\PSoC5/I2C_1_SLAVE.c **** *  read by the master will be the first byte in the read buffer.
 330:.\Generated_Source\PSoC5/I2C_1_SLAVE.c **** *
 331:.\Generated_Source\PSoC5/I2C_1_SLAVE.c **** * Parameters:
 332:.\Generated_Source\PSoC5/I2C_1_SLAVE.c **** *  None.
 333:.\Generated_Source\PSoC5/I2C_1_SLAVE.c **** *
 334:.\Generated_Source\PSoC5/I2C_1_SLAVE.c **** * Return:
 335:.\Generated_Source\PSoC5/I2C_1_SLAVE.c **** *  None.
 336:.\Generated_Source\PSoC5/I2C_1_SLAVE.c **** *
 337:.\Generated_Source\PSoC5/I2C_1_SLAVE.c **** * Global variables:
 338:.\Generated_Source\PSoC5/I2C_1_SLAVE.c **** *  I2C_1_slRdBufIndex - The global variable used to store a current
 339:.\Generated_Source\PSoC5/I2C_1_SLAVE.c **** *                                  index the within slave read buffer.
 340:.\Generated_Source\PSoC5/I2C_1_SLAVE.c **** *
 341:.\Generated_Source\PSoC5/I2C_1_SLAVE.c **** * Reentrant:
 342:.\Generated_Source\PSoC5/I2C_1_SLAVE.c **** *  No.
 343:.\Generated_Source\PSoC5/I2C_1_SLAVE.c **** *
 344:.\Generated_Source\PSoC5/I2C_1_SLAVE.c **** *******************************************************************************/
 345:.\Generated_Source\PSoC5/I2C_1_SLAVE.c **** void I2C_1_SlaveClearReadBuf(void) 
 346:.\Generated_Source\PSoC5/I2C_1_SLAVE.c **** {
 315              		.loc 1 346 0
 316              		.cfi_startproc
 317              		@ args = 0, pretend = 0, frame = 0
 318              		@ frame_needed = 0, uses_anonymous_args = 0
 319              		@ link register save eliminated.
 347:.\Generated_Source\PSoC5/I2C_1_SLAVE.c ****     I2C_1_slRdBufIndex = 0u;
 320              		.loc 1 347 0
 321 0000 0022     		movs	r2, #0
 322 0002 014B     		ldr	r3, .L28
 323 0004 1A70     		strb	r2, [r3]
 324 0006 7047     		bx	lr
 325              	.L29:
 326              		.align	2
 327              	.L28:
 328 0008 00000000 		.word	I2C_1_slRdBufIndex
 329              		.cfi_endproc
 330              	.LFE8:
 331              		.size	I2C_1_SlaveClearReadBuf, .-I2C_1_SlaveClearReadBuf
 332              		.section	.text.I2C_1_SlaveClearWriteBuf,"ax",%progbits
 333              		.align	2
 334              		.global	I2C_1_SlaveClearWriteBuf
 335              		.thumb
 336              		.thumb_func
 337              		.type	I2C_1_SlaveClearWriteBuf, %function
ARM GAS  C:\Users\DGILLI~1\AppData\Local\Temp\ccbvQQB4.s 			page 13


 338              	I2C_1_SlaveClearWriteBuf:
 339              	.LFB9:
 348:.\Generated_Source\PSoC5/I2C_1_SLAVE.c **** }
 349:.\Generated_Source\PSoC5/I2C_1_SLAVE.c **** 
 350:.\Generated_Source\PSoC5/I2C_1_SLAVE.c **** 
 351:.\Generated_Source\PSoC5/I2C_1_SLAVE.c **** /*******************************************************************************
 352:.\Generated_Source\PSoC5/I2C_1_SLAVE.c **** * Function Name: I2C_1_SlaveClearRxBuf
 353:.\Generated_Source\PSoC5/I2C_1_SLAVE.c **** ********************************************************************************
 354:.\Generated_Source\PSoC5/I2C_1_SLAVE.c **** *
 355:.\Generated_Source\PSoC5/I2C_1_SLAVE.c **** * Summary:
 356:.\Generated_Source\PSoC5/I2C_1_SLAVE.c **** *  Resets the write pointer to the first byte in the write buffer. The next byte
 357:.\Generated_Source\PSoC5/I2C_1_SLAVE.c **** *  written by the master will be the first byte in the write buffer.
 358:.\Generated_Source\PSoC5/I2C_1_SLAVE.c **** *
 359:.\Generated_Source\PSoC5/I2C_1_SLAVE.c **** * Parameters:
 360:.\Generated_Source\PSoC5/I2C_1_SLAVE.c **** *  None.
 361:.\Generated_Source\PSoC5/I2C_1_SLAVE.c **** *
 362:.\Generated_Source\PSoC5/I2C_1_SLAVE.c **** * Return:
 363:.\Generated_Source\PSoC5/I2C_1_SLAVE.c **** *  None.
 364:.\Generated_Source\PSoC5/I2C_1_SLAVE.c **** *
 365:.\Generated_Source\PSoC5/I2C_1_SLAVE.c **** * Global variables:
 366:.\Generated_Source\PSoC5/I2C_1_SLAVE.c **** *  I2C_1_slWrBufIndex - The global variable used to store a current
 367:.\Generated_Source\PSoC5/I2C_1_SLAVE.c **** *                                  index within the slave write buffer.
 368:.\Generated_Source\PSoC5/I2C_1_SLAVE.c **** *
 369:.\Generated_Source\PSoC5/I2C_1_SLAVE.c **** * Reentrant:
 370:.\Generated_Source\PSoC5/I2C_1_SLAVE.c **** *  No.
 371:.\Generated_Source\PSoC5/I2C_1_SLAVE.c **** *
 372:.\Generated_Source\PSoC5/I2C_1_SLAVE.c **** *******************************************************************************/
 373:.\Generated_Source\PSoC5/I2C_1_SLAVE.c **** void I2C_1_SlaveClearWriteBuf(void) 
 374:.\Generated_Source\PSoC5/I2C_1_SLAVE.c **** {
 340              		.loc 1 374 0
 341              		.cfi_startproc
 342              		@ args = 0, pretend = 0, frame = 0
 343              		@ frame_needed = 0, uses_anonymous_args = 0
 344              		@ link register save eliminated.
 375:.\Generated_Source\PSoC5/I2C_1_SLAVE.c ****     I2C_1_slWrBufIndex = 0u;
 345              		.loc 1 375 0
 346 0000 0022     		movs	r2, #0
 347 0002 014B     		ldr	r3, .L31
 348 0004 1A70     		strb	r2, [r3]
 349 0006 7047     		bx	lr
 350              	.L32:
 351              		.align	2
 352              	.L31:
 353 0008 00000000 		.word	I2C_1_slWrBufIndex
 354              		.cfi_endproc
 355              	.LFE9:
 356              		.size	I2C_1_SlaveClearWriteBuf, .-I2C_1_SlaveClearWriteBuf
 357              		.comm	I2C_1_slWrBufIndex,1,1
 358              		.comm	I2C_1_slWrBufSize,1,1
 359              		.comm	I2C_1_slWrBufPtr,4,4
 360              		.comm	I2C_1_slRdBufIndex,1,1
 361              		.comm	I2C_1_slRdBufSize,1,1
 362              		.comm	I2C_1_slRdBufPtr,4,4
 363              		.comm	I2C_1_slStatus,1,1
 364              		.text
 365              	.Letext0:
 366              		.file 2 ".\\Generated_Source\\PSoC5\\cytypes.h"
ARM GAS  C:\Users\DGILLI~1\AppData\Local\Temp\ccbvQQB4.s 			page 14

