ARM GAS  C:\Users\DGILLI~1\AppData\Local\Temp\cc2Dgu5j.s 			page 1


   1              		.syntax unified
   2              		.cpu cortex-m3
   3              		.fpu softvfp
   4              		.eabi_attribute 20, 1
   5              		.eabi_attribute 21, 1
   6              		.eabi_attribute 23, 3
   7              		.eabi_attribute 24, 1
   8              		.eabi_attribute 25, 1
   9              		.eabi_attribute 26, 1
  10              		.eabi_attribute 30, 1
  11              		.eabi_attribute 34, 1
  12              		.eabi_attribute 18, 4
  13              		.thumb
  14              		.file	"Pin_1.c"
  15              		.text
  16              	.Ltext0:
  17              		.cfi_sections	.debug_frame
  18              		.section	.text.Pin_1_Write,"ax",%progbits
  19              		.align	2
  20              		.global	Pin_1_Write
  21              		.thumb
  22              		.thumb_func
  23              		.type	Pin_1_Write, %function
  24              	Pin_1_Write:
  25              	.LFB0:
  26              		.file 1 ".\\Generated_Source\\PSoC5\\Pin_1.c"
   1:.\Generated_Source\PSoC5/Pin_1.c **** /*******************************************************************************
   2:.\Generated_Source\PSoC5/Pin_1.c **** * File Name: Pin_1.c  
   3:.\Generated_Source\PSoC5/Pin_1.c **** * Version 2.10
   4:.\Generated_Source\PSoC5/Pin_1.c **** *
   5:.\Generated_Source\PSoC5/Pin_1.c **** * Description:
   6:.\Generated_Source\PSoC5/Pin_1.c **** *  This file contains API to enable firmware control of a Pins component.
   7:.\Generated_Source\PSoC5/Pin_1.c **** *
   8:.\Generated_Source\PSoC5/Pin_1.c **** * Note:
   9:.\Generated_Source\PSoC5/Pin_1.c **** *
  10:.\Generated_Source\PSoC5/Pin_1.c **** ********************************************************************************
  11:.\Generated_Source\PSoC5/Pin_1.c **** * Copyright 2008-2014, Cypress Semiconductor Corporation.  All rights reserved.
  12:.\Generated_Source\PSoC5/Pin_1.c **** * You may use this file only in accordance with the license, terms, conditions, 
  13:.\Generated_Source\PSoC5/Pin_1.c **** * disclaimers, and limitations in the end user license agreement accompanying 
  14:.\Generated_Source\PSoC5/Pin_1.c **** * the software package with which this file was provided.
  15:.\Generated_Source\PSoC5/Pin_1.c **** *******************************************************************************/
  16:.\Generated_Source\PSoC5/Pin_1.c **** 
  17:.\Generated_Source\PSoC5/Pin_1.c **** #include "cytypes.h"
  18:.\Generated_Source\PSoC5/Pin_1.c **** #include "Pin_1.h"
  19:.\Generated_Source\PSoC5/Pin_1.c **** 
  20:.\Generated_Source\PSoC5/Pin_1.c **** /* APIs are not generated for P15[7:6] on PSoC 5 */
  21:.\Generated_Source\PSoC5/Pin_1.c **** #if !(CY_PSOC5A &&\
  22:.\Generated_Source\PSoC5/Pin_1.c **** 	 Pin_1__PORT == 15 && ((Pin_1__MASK & 0xC0) != 0))
  23:.\Generated_Source\PSoC5/Pin_1.c **** 
  24:.\Generated_Source\PSoC5/Pin_1.c **** 
  25:.\Generated_Source\PSoC5/Pin_1.c **** /*******************************************************************************
  26:.\Generated_Source\PSoC5/Pin_1.c **** * Function Name: Pin_1_Write
  27:.\Generated_Source\PSoC5/Pin_1.c **** ********************************************************************************
  28:.\Generated_Source\PSoC5/Pin_1.c **** *
  29:.\Generated_Source\PSoC5/Pin_1.c **** * Summary:
  30:.\Generated_Source\PSoC5/Pin_1.c **** *  Assign a new value to the digital port's data output register.  
  31:.\Generated_Source\PSoC5/Pin_1.c **** *
ARM GAS  C:\Users\DGILLI~1\AppData\Local\Temp\cc2Dgu5j.s 			page 2


  32:.\Generated_Source\PSoC5/Pin_1.c **** * Parameters:  
  33:.\Generated_Source\PSoC5/Pin_1.c **** *  prtValue:  The value to be assigned to the Digital Port. 
  34:.\Generated_Source\PSoC5/Pin_1.c **** *
  35:.\Generated_Source\PSoC5/Pin_1.c **** * Return: 
  36:.\Generated_Source\PSoC5/Pin_1.c **** *  None
  37:.\Generated_Source\PSoC5/Pin_1.c **** *  
  38:.\Generated_Source\PSoC5/Pin_1.c **** *******************************************************************************/
  39:.\Generated_Source\PSoC5/Pin_1.c **** void Pin_1_Write(uint8 value) 
  40:.\Generated_Source\PSoC5/Pin_1.c **** {
  27              		.loc 1 40 0
  28              		.cfi_startproc
  29              		@ args = 0, pretend = 0, frame = 0
  30              		@ frame_needed = 0, uses_anonymous_args = 0
  31              		@ link register save eliminated.
  32              	.LVL0:
  41:.\Generated_Source\PSoC5/Pin_1.c ****     uint8 staticBits = (Pin_1_DR & (uint8)(~Pin_1_MASK));
  33              		.loc 1 41 0
  34 0000 044A     		ldr	r2, .L2
  35 0002 1378     		ldrb	r3, [r2]	@ zero_extendqisi2
  36 0004 03F0FE03 		and	r3, r3, #254
  37              	.LVL1:
  42:.\Generated_Source\PSoC5/Pin_1.c ****     Pin_1_DR = staticBits | ((uint8)(value << Pin_1_SHIFT) & Pin_1_MASK);
  38              		.loc 1 42 0
  39 0008 00F00100 		and	r0, r0, #1
  40              	.LVL2:
  41 000c 1843     		orrs	r0, r0, r3
  42 000e 1070     		strb	r0, [r2]
  43 0010 7047     		bx	lr
  44              	.L3:
  45 0012 00BF     		.align	2
  46              	.L2:
  47 0014 30510040 		.word	1073762608
  48              		.cfi_endproc
  49              	.LFE0:
  50              		.size	Pin_1_Write, .-Pin_1_Write
  51              		.section	.text.Pin_1_SetDriveMode,"ax",%progbits
  52              		.align	2
  53              		.global	Pin_1_SetDriveMode
  54              		.thumb
  55              		.thumb_func
  56              		.type	Pin_1_SetDriveMode, %function
  57              	Pin_1_SetDriveMode:
  58              	.LFB1:
  43:.\Generated_Source\PSoC5/Pin_1.c **** }
  44:.\Generated_Source\PSoC5/Pin_1.c **** 
  45:.\Generated_Source\PSoC5/Pin_1.c **** 
  46:.\Generated_Source\PSoC5/Pin_1.c **** /*******************************************************************************
  47:.\Generated_Source\PSoC5/Pin_1.c **** * Function Name: Pin_1_SetDriveMode
  48:.\Generated_Source\PSoC5/Pin_1.c **** ********************************************************************************
  49:.\Generated_Source\PSoC5/Pin_1.c **** *
  50:.\Generated_Source\PSoC5/Pin_1.c **** * Summary:
  51:.\Generated_Source\PSoC5/Pin_1.c **** *  Change the drive mode on the pins of the port.
  52:.\Generated_Source\PSoC5/Pin_1.c **** * 
  53:.\Generated_Source\PSoC5/Pin_1.c **** * Parameters:  
  54:.\Generated_Source\PSoC5/Pin_1.c **** *  mode:  Change the pins to one of the following drive modes.
  55:.\Generated_Source\PSoC5/Pin_1.c **** *
  56:.\Generated_Source\PSoC5/Pin_1.c **** *  Pin_1_DM_STRONG     Strong Drive 
ARM GAS  C:\Users\DGILLI~1\AppData\Local\Temp\cc2Dgu5j.s 			page 3


  57:.\Generated_Source\PSoC5/Pin_1.c **** *  Pin_1_DM_OD_HI      Open Drain, Drives High 
  58:.\Generated_Source\PSoC5/Pin_1.c **** *  Pin_1_DM_OD_LO      Open Drain, Drives Low 
  59:.\Generated_Source\PSoC5/Pin_1.c **** *  Pin_1_DM_RES_UP     Resistive Pull Up 
  60:.\Generated_Source\PSoC5/Pin_1.c **** *  Pin_1_DM_RES_DWN    Resistive Pull Down 
  61:.\Generated_Source\PSoC5/Pin_1.c **** *  Pin_1_DM_RES_UPDWN  Resistive Pull Up/Down 
  62:.\Generated_Source\PSoC5/Pin_1.c **** *  Pin_1_DM_DIG_HIZ    High Impedance Digital 
  63:.\Generated_Source\PSoC5/Pin_1.c **** *  Pin_1_DM_ALG_HIZ    High Impedance Analog 
  64:.\Generated_Source\PSoC5/Pin_1.c **** *
  65:.\Generated_Source\PSoC5/Pin_1.c **** * Return: 
  66:.\Generated_Source\PSoC5/Pin_1.c **** *  None
  67:.\Generated_Source\PSoC5/Pin_1.c **** *
  68:.\Generated_Source\PSoC5/Pin_1.c **** *******************************************************************************/
  69:.\Generated_Source\PSoC5/Pin_1.c **** void Pin_1_SetDriveMode(uint8 mode) 
  70:.\Generated_Source\PSoC5/Pin_1.c **** {
  59              		.loc 1 70 0
  60              		.cfi_startproc
  61              		@ args = 0, pretend = 0, frame = 0
  62              		@ frame_needed = 0, uses_anonymous_args = 0
  63              		@ link register save eliminated.
  64              	.LVL3:
  71:.\Generated_Source\PSoC5/Pin_1.c **** 	CyPins_SetPinDriveMode(Pin_1_0, mode);
  65              		.loc 1 71 0
  66 0000 044A     		ldr	r2, .L5
  67 0002 1378     		ldrb	r3, [r2]	@ zero_extendqisi2
  68 0004 03F0F103 		and	r3, r3, #241
  69 0008 00F00E00 		and	r0, r0, #14
  70              	.LVL4:
  71 000c 1843     		orrs	r0, r0, r3
  72 000e 1070     		strb	r0, [r2]
  73 0010 7047     		bx	lr
  74              	.L6:
  75 0012 00BF     		.align	2
  76              	.L5:
  77 0014 18500040 		.word	1073762328
  78              		.cfi_endproc
  79              	.LFE1:
  80              		.size	Pin_1_SetDriveMode, .-Pin_1_SetDriveMode
  81              		.section	.text.Pin_1_Read,"ax",%progbits
  82              		.align	2
  83              		.global	Pin_1_Read
  84              		.thumb
  85              		.thumb_func
  86              		.type	Pin_1_Read, %function
  87              	Pin_1_Read:
  88              	.LFB2:
  72:.\Generated_Source\PSoC5/Pin_1.c **** }
  73:.\Generated_Source\PSoC5/Pin_1.c **** 
  74:.\Generated_Source\PSoC5/Pin_1.c **** 
  75:.\Generated_Source\PSoC5/Pin_1.c **** /*******************************************************************************
  76:.\Generated_Source\PSoC5/Pin_1.c **** * Function Name: Pin_1_Read
  77:.\Generated_Source\PSoC5/Pin_1.c **** ********************************************************************************
  78:.\Generated_Source\PSoC5/Pin_1.c **** *
  79:.\Generated_Source\PSoC5/Pin_1.c **** * Summary:
  80:.\Generated_Source\PSoC5/Pin_1.c **** *  Read the current value on the pins of the Digital Port in right justified 
  81:.\Generated_Source\PSoC5/Pin_1.c **** *  form.
  82:.\Generated_Source\PSoC5/Pin_1.c **** *
  83:.\Generated_Source\PSoC5/Pin_1.c **** * Parameters:  
ARM GAS  C:\Users\DGILLI~1\AppData\Local\Temp\cc2Dgu5j.s 			page 4


  84:.\Generated_Source\PSoC5/Pin_1.c **** *  None
  85:.\Generated_Source\PSoC5/Pin_1.c **** *
  86:.\Generated_Source\PSoC5/Pin_1.c **** * Return: 
  87:.\Generated_Source\PSoC5/Pin_1.c **** *  Returns the current value of the Digital Port as a right justified number
  88:.\Generated_Source\PSoC5/Pin_1.c **** *  
  89:.\Generated_Source\PSoC5/Pin_1.c **** * Note:
  90:.\Generated_Source\PSoC5/Pin_1.c **** *  Macro Pin_1_ReadPS calls this function. 
  91:.\Generated_Source\PSoC5/Pin_1.c **** *  
  92:.\Generated_Source\PSoC5/Pin_1.c **** *******************************************************************************/
  93:.\Generated_Source\PSoC5/Pin_1.c **** uint8 Pin_1_Read(void) 
  94:.\Generated_Source\PSoC5/Pin_1.c **** {
  89              		.loc 1 94 0
  90              		.cfi_startproc
  91              		@ args = 0, pretend = 0, frame = 0
  92              		@ frame_needed = 0, uses_anonymous_args = 0
  93              		@ link register save eliminated.
  95:.\Generated_Source\PSoC5/Pin_1.c ****     return (Pin_1_PS & Pin_1_MASK) >> Pin_1_SHIFT;
  94              		.loc 1 95 0
  95 0000 024B     		ldr	r3, .L8
  96 0002 1878     		ldrb	r0, [r3]	@ zero_extendqisi2
  96:.\Generated_Source\PSoC5/Pin_1.c **** }
  97              		.loc 1 96 0
  98 0004 00F00100 		and	r0, r0, #1
  99 0008 7047     		bx	lr
 100              	.L9:
 101 000a 00BF     		.align	2
 102              	.L8:
 103 000c 31510040 		.word	1073762609
 104              		.cfi_endproc
 105              	.LFE2:
 106              		.size	Pin_1_Read, .-Pin_1_Read
 107              		.section	.text.Pin_1_ReadDataReg,"ax",%progbits
 108              		.align	2
 109              		.global	Pin_1_ReadDataReg
 110              		.thumb
 111              		.thumb_func
 112              		.type	Pin_1_ReadDataReg, %function
 113              	Pin_1_ReadDataReg:
 114              	.LFB3:
  97:.\Generated_Source\PSoC5/Pin_1.c **** 
  98:.\Generated_Source\PSoC5/Pin_1.c **** 
  99:.\Generated_Source\PSoC5/Pin_1.c **** /*******************************************************************************
 100:.\Generated_Source\PSoC5/Pin_1.c **** * Function Name: Pin_1_ReadDataReg
 101:.\Generated_Source\PSoC5/Pin_1.c **** ********************************************************************************
 102:.\Generated_Source\PSoC5/Pin_1.c **** *
 103:.\Generated_Source\PSoC5/Pin_1.c **** * Summary:
 104:.\Generated_Source\PSoC5/Pin_1.c **** *  Read the current value assigned to a Digital Port's data output register
 105:.\Generated_Source\PSoC5/Pin_1.c **** *
 106:.\Generated_Source\PSoC5/Pin_1.c **** * Parameters:  
 107:.\Generated_Source\PSoC5/Pin_1.c **** *  None 
 108:.\Generated_Source\PSoC5/Pin_1.c **** *
 109:.\Generated_Source\PSoC5/Pin_1.c **** * Return: 
 110:.\Generated_Source\PSoC5/Pin_1.c **** *  Returns the current value assigned to the Digital Port's data output register
 111:.\Generated_Source\PSoC5/Pin_1.c **** *  
 112:.\Generated_Source\PSoC5/Pin_1.c **** *******************************************************************************/
 113:.\Generated_Source\PSoC5/Pin_1.c **** uint8 Pin_1_ReadDataReg(void) 
 114:.\Generated_Source\PSoC5/Pin_1.c **** {
ARM GAS  C:\Users\DGILLI~1\AppData\Local\Temp\cc2Dgu5j.s 			page 5


 115              		.loc 1 114 0
 116              		.cfi_startproc
 117              		@ args = 0, pretend = 0, frame = 0
 118              		@ frame_needed = 0, uses_anonymous_args = 0
 119              		@ link register save eliminated.
 115:.\Generated_Source\PSoC5/Pin_1.c ****     return (Pin_1_DR & Pin_1_MASK) >> Pin_1_SHIFT;
 120              		.loc 1 115 0
 121 0000 024B     		ldr	r3, .L11
 122 0002 1878     		ldrb	r0, [r3]	@ zero_extendqisi2
 116:.\Generated_Source\PSoC5/Pin_1.c **** }
 123              		.loc 1 116 0
 124 0004 00F00100 		and	r0, r0, #1
 125 0008 7047     		bx	lr
 126              	.L12:
 127 000a 00BF     		.align	2
 128              	.L11:
 129 000c 30510040 		.word	1073762608
 130              		.cfi_endproc
 131              	.LFE3:
 132              		.size	Pin_1_ReadDataReg, .-Pin_1_ReadDataReg
 133              		.text
 134              	.Letext0:
 135              		.file 2 ".\\Generated_Source\\PSoC5\\cytypes.h"