ARM GAS  C:\Users\DGILLI~1\AppData\Local\Temp\ccWjFBvg.s 			page 1


   1              		.syntax unified
   2              		.cpu cortex-m3
   3              		.fpu softvfp
   4              		.eabi_attribute 20, 1
   5              		.eabi_attribute 21, 1
   6              		.eabi_attribute 23, 3
   7              		.eabi_attribute 24, 1
   8              		.eabi_attribute 25, 1
   9              		.eabi_attribute 26, 1
  10              		.eabi_attribute 30, 1
  11              		.eabi_attribute 34, 1
  12              		.eabi_attribute 18, 4
  13              		.thumb
  14              		.file	"SPI_PM.c"
  15              		.text
  16              	.Ltext0:
  17              		.cfi_sections	.debug_frame
  18              		.section	.text.SPI_SaveConfig,"ax",%progbits
  19              		.align	2
  20              		.global	SPI_SaveConfig
  21              		.thumb
  22              		.thumb_func
  23              		.type	SPI_SaveConfig, %function
  24              	SPI_SaveConfig:
  25              	.LFB0:
  26              		.file 1 ".\\Generated_Source\\PSoC5\\SPI_PM.c"
   1:.\Generated_Source\PSoC5/SPI_PM.c **** /*******************************************************************************
   2:.\Generated_Source\PSoC5/SPI_PM.c **** * File Name: SPI_PM.c
   3:.\Generated_Source\PSoC5/SPI_PM.c **** * Version 2.70
   4:.\Generated_Source\PSoC5/SPI_PM.c **** *
   5:.\Generated_Source\PSoC5/SPI_PM.c **** * Description:
   6:.\Generated_Source\PSoC5/SPI_PM.c **** *  This file contains the setup, control and status commands to support
   7:.\Generated_Source\PSoC5/SPI_PM.c **** *  component operations in low power mode.
   8:.\Generated_Source\PSoC5/SPI_PM.c **** *
   9:.\Generated_Source\PSoC5/SPI_PM.c **** * Note:
  10:.\Generated_Source\PSoC5/SPI_PM.c **** *
  11:.\Generated_Source\PSoC5/SPI_PM.c **** ********************************************************************************
  12:.\Generated_Source\PSoC5/SPI_PM.c **** * Copyright 2008-2015, Cypress Semiconductor Corporation.  All rights reserved.
  13:.\Generated_Source\PSoC5/SPI_PM.c **** * You may use this file only in accordance with the license, terms, conditions,
  14:.\Generated_Source\PSoC5/SPI_PM.c **** * disclaimers, and limitations in the end user license agreement accompanying
  15:.\Generated_Source\PSoC5/SPI_PM.c **** * the software package with which this file was provided.
  16:.\Generated_Source\PSoC5/SPI_PM.c **** *******************************************************************************/
  17:.\Generated_Source\PSoC5/SPI_PM.c **** 
  18:.\Generated_Source\PSoC5/SPI_PM.c **** #include "SPI_PVT.h"
  19:.\Generated_Source\PSoC5/SPI_PM.c **** 
  20:.\Generated_Source\PSoC5/SPI_PM.c **** static SPI_BACKUP_STRUCT SPI_backup = 
  21:.\Generated_Source\PSoC5/SPI_PM.c **** {
  22:.\Generated_Source\PSoC5/SPI_PM.c ****     SPI_DISABLED,
  23:.\Generated_Source\PSoC5/SPI_PM.c ****     SPI_BITCTR_INIT,
  24:.\Generated_Source\PSoC5/SPI_PM.c **** };
  25:.\Generated_Source\PSoC5/SPI_PM.c **** 
  26:.\Generated_Source\PSoC5/SPI_PM.c **** 
  27:.\Generated_Source\PSoC5/SPI_PM.c **** /*******************************************************************************
  28:.\Generated_Source\PSoC5/SPI_PM.c **** * Function Name: SPI_SaveConfig
  29:.\Generated_Source\PSoC5/SPI_PM.c **** ********************************************************************************
  30:.\Generated_Source\PSoC5/SPI_PM.c **** *
  31:.\Generated_Source\PSoC5/SPI_PM.c **** * Summary:
ARM GAS  C:\Users\DGILLI~1\AppData\Local\Temp\ccWjFBvg.s 			page 2


  32:.\Generated_Source\PSoC5/SPI_PM.c **** *  Empty function. Included for consistency with other components.
  33:.\Generated_Source\PSoC5/SPI_PM.c **** *
  34:.\Generated_Source\PSoC5/SPI_PM.c **** * Parameters:
  35:.\Generated_Source\PSoC5/SPI_PM.c **** *  None.
  36:.\Generated_Source\PSoC5/SPI_PM.c **** *
  37:.\Generated_Source\PSoC5/SPI_PM.c **** * Return:
  38:.\Generated_Source\PSoC5/SPI_PM.c **** *  None.
  39:.\Generated_Source\PSoC5/SPI_PM.c **** *
  40:.\Generated_Source\PSoC5/SPI_PM.c **** *******************************************************************************/
  41:.\Generated_Source\PSoC5/SPI_PM.c **** void SPI_SaveConfig(void) 
  42:.\Generated_Source\PSoC5/SPI_PM.c **** {
  27              		.loc 1 42 0
  28              		.cfi_startproc
  29              		@ args = 0, pretend = 0, frame = 0
  30              		@ frame_needed = 0, uses_anonymous_args = 0
  31              		@ link register save eliminated.
  32 0000 7047     		bx	lr
  33              		.cfi_endproc
  34              	.LFE0:
  35              		.size	SPI_SaveConfig, .-SPI_SaveConfig
  36 0002 00BF     		.section	.text.SPI_RestoreConfig,"ax",%progbits
  37              		.align	2
  38              		.global	SPI_RestoreConfig
  39              		.thumb
  40              		.thumb_func
  41              		.type	SPI_RestoreConfig, %function
  42              	SPI_RestoreConfig:
  43              	.LFB1:
  43:.\Generated_Source\PSoC5/SPI_PM.c **** 
  44:.\Generated_Source\PSoC5/SPI_PM.c **** }
  45:.\Generated_Source\PSoC5/SPI_PM.c **** 
  46:.\Generated_Source\PSoC5/SPI_PM.c **** 
  47:.\Generated_Source\PSoC5/SPI_PM.c **** /*******************************************************************************
  48:.\Generated_Source\PSoC5/SPI_PM.c **** * Function Name: SPI_RestoreConfig
  49:.\Generated_Source\PSoC5/SPI_PM.c **** ********************************************************************************
  50:.\Generated_Source\PSoC5/SPI_PM.c **** *
  51:.\Generated_Source\PSoC5/SPI_PM.c **** * Summary:
  52:.\Generated_Source\PSoC5/SPI_PM.c **** *  Empty function. Included for consistency with other components.
  53:.\Generated_Source\PSoC5/SPI_PM.c **** *
  54:.\Generated_Source\PSoC5/SPI_PM.c **** * Parameters:
  55:.\Generated_Source\PSoC5/SPI_PM.c **** *  None.
  56:.\Generated_Source\PSoC5/SPI_PM.c **** *
  57:.\Generated_Source\PSoC5/SPI_PM.c **** * Return:
  58:.\Generated_Source\PSoC5/SPI_PM.c **** *  None.
  59:.\Generated_Source\PSoC5/SPI_PM.c **** *
  60:.\Generated_Source\PSoC5/SPI_PM.c **** *******************************************************************************/
  61:.\Generated_Source\PSoC5/SPI_PM.c **** void SPI_RestoreConfig(void) 
  62:.\Generated_Source\PSoC5/SPI_PM.c **** {
  44              		.loc 1 62 0
  45              		.cfi_startproc
  46              		@ args = 0, pretend = 0, frame = 0
  47              		@ frame_needed = 0, uses_anonymous_args = 0
  48              		@ link register save eliminated.
  49 0000 7047     		bx	lr
  50              		.cfi_endproc
  51              	.LFE1:
  52              		.size	SPI_RestoreConfig, .-SPI_RestoreConfig
ARM GAS  C:\Users\DGILLI~1\AppData\Local\Temp\ccWjFBvg.s 			page 3


  53 0002 00BF     		.section	.text.SPI_Sleep,"ax",%progbits
  54              		.align	2
  55              		.global	SPI_Sleep
  56              		.thumb
  57              		.thumb_func
  58              		.type	SPI_Sleep, %function
  59              	SPI_Sleep:
  60              	.LFB2:
  63:.\Generated_Source\PSoC5/SPI_PM.c **** 
  64:.\Generated_Source\PSoC5/SPI_PM.c **** }
  65:.\Generated_Source\PSoC5/SPI_PM.c **** 
  66:.\Generated_Source\PSoC5/SPI_PM.c **** 
  67:.\Generated_Source\PSoC5/SPI_PM.c **** /*******************************************************************************
  68:.\Generated_Source\PSoC5/SPI_PM.c **** * Function Name: SPI_Sleep
  69:.\Generated_Source\PSoC5/SPI_PM.c **** ********************************************************************************
  70:.\Generated_Source\PSoC5/SPI_PM.c **** *
  71:.\Generated_Source\PSoC5/SPI_PM.c **** * Summary:
  72:.\Generated_Source\PSoC5/SPI_PM.c **** *  Prepare SPI Slave Component goes to sleep.
  73:.\Generated_Source\PSoC5/SPI_PM.c **** *
  74:.\Generated_Source\PSoC5/SPI_PM.c **** * Parameters:
  75:.\Generated_Source\PSoC5/SPI_PM.c **** *  None.
  76:.\Generated_Source\PSoC5/SPI_PM.c **** *
  77:.\Generated_Source\PSoC5/SPI_PM.c **** * Return:
  78:.\Generated_Source\PSoC5/SPI_PM.c **** *  None.
  79:.\Generated_Source\PSoC5/SPI_PM.c **** *
  80:.\Generated_Source\PSoC5/SPI_PM.c **** * Global Variables:
  81:.\Generated_Source\PSoC5/SPI_PM.c **** *  SPI_backup - modified when non-retention registers are saved.
  82:.\Generated_Source\PSoC5/SPI_PM.c **** *
  83:.\Generated_Source\PSoC5/SPI_PM.c **** * Reentrant:
  84:.\Generated_Source\PSoC5/SPI_PM.c **** *  No.
  85:.\Generated_Source\PSoC5/SPI_PM.c **** *
  86:.\Generated_Source\PSoC5/SPI_PM.c **** *******************************************************************************/
  87:.\Generated_Source\PSoC5/SPI_PM.c **** void SPI_Sleep(void) 
  88:.\Generated_Source\PSoC5/SPI_PM.c **** {
  61              		.loc 1 88 0
  62              		.cfi_startproc
  63              		@ args = 0, pretend = 0, frame = 0
  64              		@ frame_needed = 0, uses_anonymous_args = 0
  65              		.loc 1 88 0
  66 0000 08B5     		push	{r3, lr}
  67              		.cfi_def_cfa_offset 8
  68              		.cfi_offset 3, -8
  69              		.cfi_offset 14, -4
  89:.\Generated_Source\PSoC5/SPI_PM.c ****     /* Save components enable state */
  90:.\Generated_Source\PSoC5/SPI_PM.c ****     if ((SPI_TX_STATUS_ACTL_REG & SPI_INT_ENABLE) != 0u)
  70              		.loc 1 90 0
  71 0002 074B     		ldr	r3, .L7
  72 0004 1B78     		ldrb	r3, [r3]	@ zero_extendqisi2
  73 0006 13F0100F 		tst	r3, #16
  74 000a 03D0     		beq	.L4
  91:.\Generated_Source\PSoC5/SPI_PM.c ****     {
  92:.\Generated_Source\PSoC5/SPI_PM.c ****         SPI_backup.enableState = 1u;
  75              		.loc 1 92 0
  76 000c 0122     		movs	r2, #1
  77 000e 054B     		ldr	r3, .L7+4
  78 0010 1A70     		strb	r2, [r3]
  79 0012 02E0     		b	.L5
ARM GAS  C:\Users\DGILLI~1\AppData\Local\Temp\ccWjFBvg.s 			page 4


  80              	.L4:
  93:.\Generated_Source\PSoC5/SPI_PM.c ****     }
  94:.\Generated_Source\PSoC5/SPI_PM.c ****     else /* Components block is disabled */
  95:.\Generated_Source\PSoC5/SPI_PM.c ****     {
  96:.\Generated_Source\PSoC5/SPI_PM.c ****         SPI_backup.enableState = 0u;
  81              		.loc 1 96 0
  82 0014 0022     		movs	r2, #0
  83 0016 034B     		ldr	r3, .L7+4
  84 0018 1A70     		strb	r2, [r3]
  85              	.L5:
  97:.\Generated_Source\PSoC5/SPI_PM.c ****     }
  98:.\Generated_Source\PSoC5/SPI_PM.c **** 
  99:.\Generated_Source\PSoC5/SPI_PM.c ****     SPI_Stop();
  86              		.loc 1 99 0
  87 001a FFF7FEFF 		bl	SPI_Stop
  88              	.LVL0:
  89 001e 08BD     		pop	{r3, pc}
  90              	.L8:
  91              		.align	2
  92              	.L7:
  93 0020 9F640040 		.word	1073767583
  94 0024 00000000 		.word	.LANCHOR0
  95              		.cfi_endproc
  96              	.LFE2:
  97              		.size	SPI_Sleep, .-SPI_Sleep
  98              		.section	.text.SPI_Wakeup,"ax",%progbits
  99              		.align	2
 100              		.global	SPI_Wakeup
 101              		.thumb
 102              		.thumb_func
 103              		.type	SPI_Wakeup, %function
 104              	SPI_Wakeup:
 105              	.LFB3:
 100:.\Generated_Source\PSoC5/SPI_PM.c **** 
 101:.\Generated_Source\PSoC5/SPI_PM.c **** }
 102:.\Generated_Source\PSoC5/SPI_PM.c **** 
 103:.\Generated_Source\PSoC5/SPI_PM.c **** 
 104:.\Generated_Source\PSoC5/SPI_PM.c **** /*******************************************************************************
 105:.\Generated_Source\PSoC5/SPI_PM.c **** * Function Name: SPI_Wakeup
 106:.\Generated_Source\PSoC5/SPI_PM.c **** ********************************************************************************
 107:.\Generated_Source\PSoC5/SPI_PM.c **** *
 108:.\Generated_Source\PSoC5/SPI_PM.c **** * Summary:
 109:.\Generated_Source\PSoC5/SPI_PM.c **** *  Prepare SPIM Component to wake up.
 110:.\Generated_Source\PSoC5/SPI_PM.c **** *
 111:.\Generated_Source\PSoC5/SPI_PM.c **** * Parameters:
 112:.\Generated_Source\PSoC5/SPI_PM.c **** *  None.
 113:.\Generated_Source\PSoC5/SPI_PM.c **** *
 114:.\Generated_Source\PSoC5/SPI_PM.c **** * Return:
 115:.\Generated_Source\PSoC5/SPI_PM.c **** *  None.
 116:.\Generated_Source\PSoC5/SPI_PM.c **** *
 117:.\Generated_Source\PSoC5/SPI_PM.c **** * Global Variables:
 118:.\Generated_Source\PSoC5/SPI_PM.c **** *  SPI_backup - used when non-retention registers are restored.
 119:.\Generated_Source\PSoC5/SPI_PM.c **** *  SPI_txBufferWrite - modified every function call - resets to
 120:.\Generated_Source\PSoC5/SPI_PM.c **** *  zero.
 121:.\Generated_Source\PSoC5/SPI_PM.c **** *  SPI_txBufferRead - modified every function call - resets to
 122:.\Generated_Source\PSoC5/SPI_PM.c **** *  zero.
 123:.\Generated_Source\PSoC5/SPI_PM.c **** *  SPI_rxBufferWrite - modified every function call - resets to
ARM GAS  C:\Users\DGILLI~1\AppData\Local\Temp\ccWjFBvg.s 			page 5


 124:.\Generated_Source\PSoC5/SPI_PM.c **** *  zero.
 125:.\Generated_Source\PSoC5/SPI_PM.c **** *  SPI_rxBufferRead - modified every function call - resets to
 126:.\Generated_Source\PSoC5/SPI_PM.c **** *  zero.
 127:.\Generated_Source\PSoC5/SPI_PM.c **** *
 128:.\Generated_Source\PSoC5/SPI_PM.c **** * Reentrant:
 129:.\Generated_Source\PSoC5/SPI_PM.c **** *  No.
 130:.\Generated_Source\PSoC5/SPI_PM.c **** *
 131:.\Generated_Source\PSoC5/SPI_PM.c **** *******************************************************************************/
 132:.\Generated_Source\PSoC5/SPI_PM.c **** void SPI_Wakeup(void) 
 133:.\Generated_Source\PSoC5/SPI_PM.c **** {
 106              		.loc 1 133 0
 107              		.cfi_startproc
 108              		@ args = 0, pretend = 0, frame = 0
 109              		@ frame_needed = 0, uses_anonymous_args = 0
 110 0000 08B5     		push	{r3, lr}
 111              		.cfi_def_cfa_offset 8
 112              		.cfi_offset 3, -8
 113              		.cfi_offset 14, -4
 134:.\Generated_Source\PSoC5/SPI_PM.c ****     #if (SPI_TX_SOFTWARE_BUF_ENABLED)
 135:.\Generated_Source\PSoC5/SPI_PM.c ****         SPI_txBufferFull = 0u;
 136:.\Generated_Source\PSoC5/SPI_PM.c ****         SPI_txBufferRead = 0u;
 137:.\Generated_Source\PSoC5/SPI_PM.c ****         SPI_txBufferWrite = 0u;
 138:.\Generated_Source\PSoC5/SPI_PM.c ****     #endif /* SPI_TX_SOFTWARE_BUF_ENABLED */
 139:.\Generated_Source\PSoC5/SPI_PM.c **** 
 140:.\Generated_Source\PSoC5/SPI_PM.c ****     #if (SPI_RX_SOFTWARE_BUF_ENABLED)
 141:.\Generated_Source\PSoC5/SPI_PM.c ****         SPI_rxBufferFull = 0u;
 142:.\Generated_Source\PSoC5/SPI_PM.c ****         SPI_rxBufferRead = 0u;
 143:.\Generated_Source\PSoC5/SPI_PM.c ****         SPI_rxBufferWrite = 0u;
 144:.\Generated_Source\PSoC5/SPI_PM.c ****     #endif /* SPI_RX_SOFTWARE_BUF_ENABLED */
 145:.\Generated_Source\PSoC5/SPI_PM.c **** 
 146:.\Generated_Source\PSoC5/SPI_PM.c ****     SPI_ClearFIFO();
 114              		.loc 1 146 0
 115 0002 FFF7FEFF 		bl	SPI_ClearFIFO
 116              	.LVL1:
 147:.\Generated_Source\PSoC5/SPI_PM.c **** 
 148:.\Generated_Source\PSoC5/SPI_PM.c ****     /* Restore components block enable state */
 149:.\Generated_Source\PSoC5/SPI_PM.c ****     if (SPI_backup.enableState != 0u)
 117              		.loc 1 149 0
 118 0006 034B     		ldr	r3, .L12
 119 0008 1B78     		ldrb	r3, [r3]	@ zero_extendqisi2
 120 000a 0BB1     		cbz	r3, .L9
 150:.\Generated_Source\PSoC5/SPI_PM.c ****     {
 151:.\Generated_Source\PSoC5/SPI_PM.c ****          /* Components block was enabled */
 152:.\Generated_Source\PSoC5/SPI_PM.c ****          SPI_Enable();
 121              		.loc 1 152 0
 122 000c FFF7FEFF 		bl	SPI_Enable
 123              	.LVL2:
 124              	.L9:
 125 0010 08BD     		pop	{r3, pc}
 126              	.L13:
 127 0012 00BF     		.align	2
 128              	.L12:
 129 0014 00000000 		.word	.LANCHOR0
 130              		.cfi_endproc
 131              	.LFE3:
 132              		.size	SPI_Wakeup, .-SPI_Wakeup
 133              		.data
ARM GAS  C:\Users\DGILLI~1\AppData\Local\Temp\ccWjFBvg.s 			page 6


 134              		.align	2
 135              		.set	.LANCHOR0,. + 0
 136              		.type	SPI_backup, %object
 137              		.size	SPI_backup, 2
 138              	SPI_backup:
 139 0000 00       		.byte	0
 140 0001 07       		.byte	7
 141 0002 0000     		.text
 142              	.Letext0:
 143              		.file 2 ".\\Generated_Source\\PSoC5\\cytypes.h"
 144              		.file 3 ".\\Generated_Source\\PSoC5\\SPI.h"