ARM GAS  C:\Users\DGILLI~1\AppData\Local\Temp\ccZqqpmp.s 			page 1


   1              		.syntax unified
   2              		.cpu cortex-m3
   3              		.fpu softvfp
   4              		.eabi_attribute 20, 1
   5              		.eabi_attribute 21, 1
   6              		.eabi_attribute 23, 3
   7              		.eabi_attribute 24, 1
   8              		.eabi_attribute 25, 1
   9              		.eabi_attribute 26, 1
  10              		.eabi_attribute 30, 1
  11              		.eabi_attribute 34, 1
  12              		.eabi_attribute 18, 4
  13              		.thumb
  14              		.file	"SPIS_1.c"
  15              		.text
  16              	.Ltext0:
  17              		.cfi_sections	.debug_frame
  18              		.section	.text.SPIS_1_Enable,"ax",%progbits
  19              		.align	2
  20              		.global	SPIS_1_Enable
  21              		.thumb
  22              		.thumb_func
  23              		.type	SPIS_1_Enable, %function
  24              	SPIS_1_Enable:
  25              	.LFB1:
  26              		.file 1 ".\\Generated_Source\\PSoC5\\SPIS_1.c"
   1:.\Generated_Source\PSoC5/SPIS_1.c **** /*******************************************************************************
   2:.\Generated_Source\PSoC5/SPIS_1.c **** * File Name: SPIS_1.c
   3:.\Generated_Source\PSoC5/SPIS_1.c **** * Version 2.70
   4:.\Generated_Source\PSoC5/SPIS_1.c **** *
   5:.\Generated_Source\PSoC5/SPIS_1.c **** * Description:
   6:.\Generated_Source\PSoC5/SPIS_1.c **** *  This file provides all API functionality of the SPI Slave component.
   7:.\Generated_Source\PSoC5/SPIS_1.c **** *
   8:.\Generated_Source\PSoC5/SPIS_1.c **** * Note:
   9:.\Generated_Source\PSoC5/SPIS_1.c **** *  None.
  10:.\Generated_Source\PSoC5/SPIS_1.c **** *
  11:.\Generated_Source\PSoC5/SPIS_1.c **** ********************************************************************************
  12:.\Generated_Source\PSoC5/SPIS_1.c **** * Copyright 2008-2015, Cypress Semiconductor Corporation.  All rights reserved.
  13:.\Generated_Source\PSoC5/SPIS_1.c **** * You may use this file only in accordance with the license, terms, conditions,
  14:.\Generated_Source\PSoC5/SPIS_1.c **** * disclaimers, and limitations in the end user license agreement accompanying
  15:.\Generated_Source\PSoC5/SPIS_1.c **** * the software package with which this file was provided.
  16:.\Generated_Source\PSoC5/SPIS_1.c **** *******************************************************************************/
  17:.\Generated_Source\PSoC5/SPIS_1.c **** 
  18:.\Generated_Source\PSoC5/SPIS_1.c **** #include "SPIS_1_PVT.h"
  19:.\Generated_Source\PSoC5/SPIS_1.c **** 
  20:.\Generated_Source\PSoC5/SPIS_1.c **** #if (SPIS_1_TX_SOFTWARE_BUF_ENABLED)
  21:.\Generated_Source\PSoC5/SPIS_1.c **** 
  22:.\Generated_Source\PSoC5/SPIS_1.c ****     volatile uint8 SPIS_1_txBuffer[SPIS_1_TX_BUFFER_SIZE];
  23:.\Generated_Source\PSoC5/SPIS_1.c ****     volatile uint8 SPIS_1_txBufferRead;
  24:.\Generated_Source\PSoC5/SPIS_1.c ****     volatile uint8 SPIS_1_txBufferWrite;
  25:.\Generated_Source\PSoC5/SPIS_1.c ****     volatile uint8 SPIS_1_txBufferFull;
  26:.\Generated_Source\PSoC5/SPIS_1.c **** 
  27:.\Generated_Source\PSoC5/SPIS_1.c **** #endif /* SPIS_1_TX_SOFTWARE_BUF_ENABLED*/
  28:.\Generated_Source\PSoC5/SPIS_1.c **** 
  29:.\Generated_Source\PSoC5/SPIS_1.c **** #if (SPIS_1_RX_SOFTWARE_BUF_ENABLED)
  30:.\Generated_Source\PSoC5/SPIS_1.c **** 
  31:.\Generated_Source\PSoC5/SPIS_1.c ****     volatile uint8 SPIS_1_rxBuffer[SPIS_1_RX_BUFFER_SIZE];
ARM GAS  C:\Users\DGILLI~1\AppData\Local\Temp\ccZqqpmp.s 			page 2


  32:.\Generated_Source\PSoC5/SPIS_1.c ****     volatile uint8 SPIS_1_rxBufferRead;
  33:.\Generated_Source\PSoC5/SPIS_1.c ****     volatile uint8 SPIS_1_rxBufferWrite;
  34:.\Generated_Source\PSoC5/SPIS_1.c ****     volatile uint8 SPIS_1_rxBufferFull;
  35:.\Generated_Source\PSoC5/SPIS_1.c **** 
  36:.\Generated_Source\PSoC5/SPIS_1.c **** #endif /* SPIS_1_RX_SOFTWARE_BUF_ENABLED */
  37:.\Generated_Source\PSoC5/SPIS_1.c **** 
  38:.\Generated_Source\PSoC5/SPIS_1.c **** uint8 SPIS_1_initVar = 0u;
  39:.\Generated_Source\PSoC5/SPIS_1.c **** 
  40:.\Generated_Source\PSoC5/SPIS_1.c **** volatile uint8 SPIS_1_swStatusTx;
  41:.\Generated_Source\PSoC5/SPIS_1.c **** volatile uint8 SPIS_1_swStatusRx;
  42:.\Generated_Source\PSoC5/SPIS_1.c **** 
  43:.\Generated_Source\PSoC5/SPIS_1.c **** 
  44:.\Generated_Source\PSoC5/SPIS_1.c **** /*******************************************************************************
  45:.\Generated_Source\PSoC5/SPIS_1.c **** * Function Name: SPIS_1_Init
  46:.\Generated_Source\PSoC5/SPIS_1.c **** ********************************************************************************
  47:.\Generated_Source\PSoC5/SPIS_1.c **** *
  48:.\Generated_Source\PSoC5/SPIS_1.c **** * Summary:
  49:.\Generated_Source\PSoC5/SPIS_1.c **** *  Inits/Restores default SPIS configuration provided with customizer.
  50:.\Generated_Source\PSoC5/SPIS_1.c **** *
  51:.\Generated_Source\PSoC5/SPIS_1.c **** * Parameters:
  52:.\Generated_Source\PSoC5/SPIS_1.c **** *  None.
  53:.\Generated_Source\PSoC5/SPIS_1.c **** *
  54:.\Generated_Source\PSoC5/SPIS_1.c **** * Return:
  55:.\Generated_Source\PSoC5/SPIS_1.c **** *  None.
  56:.\Generated_Source\PSoC5/SPIS_1.c **** *
  57:.\Generated_Source\PSoC5/SPIS_1.c **** * Side Effects:
  58:.\Generated_Source\PSoC5/SPIS_1.c **** *  When this function is called it initializes all of the necessary parameters
  59:.\Generated_Source\PSoC5/SPIS_1.c **** *  for execution. i.e. setting the initial interrupt mask, configuring the
  60:.\Generated_Source\PSoC5/SPIS_1.c **** *  interrupt service routine, configuring the bit-counter parameters and
  61:.\Generated_Source\PSoC5/SPIS_1.c **** *  clearing the FIFO and Status Register.
  62:.\Generated_Source\PSoC5/SPIS_1.c **** *
  63:.\Generated_Source\PSoC5/SPIS_1.c **** * Reentrant:
  64:.\Generated_Source\PSoC5/SPIS_1.c **** *  No.
  65:.\Generated_Source\PSoC5/SPIS_1.c **** *
  66:.\Generated_Source\PSoC5/SPIS_1.c **** *******************************************************************************/
  67:.\Generated_Source\PSoC5/SPIS_1.c **** void SPIS_1_Init(void) 
  68:.\Generated_Source\PSoC5/SPIS_1.c **** {
  69:.\Generated_Source\PSoC5/SPIS_1.c ****     /*Initialize the Bit counter */
  70:.\Generated_Source\PSoC5/SPIS_1.c ****     SPIS_1_COUNTER_PERIOD_REG = SPIS_1_BITCTR_INIT;
  71:.\Generated_Source\PSoC5/SPIS_1.c **** 
  72:.\Generated_Source\PSoC5/SPIS_1.c ****     /* ISR initialization */
  73:.\Generated_Source\PSoC5/SPIS_1.c ****     #if(SPIS_1_INTERNAL_TX_INT_ENABLED)
  74:.\Generated_Source\PSoC5/SPIS_1.c **** 
  75:.\Generated_Source\PSoC5/SPIS_1.c ****         CyIntDisable(SPIS_1_TX_ISR_NUMBER);
  76:.\Generated_Source\PSoC5/SPIS_1.c **** 
  77:.\Generated_Source\PSoC5/SPIS_1.c ****         /* Set the ISR to point to the SPIS_1_isr Interrupt. */
  78:.\Generated_Source\PSoC5/SPIS_1.c ****         (void)CyIntSetVector(SPIS_1_TX_ISR_NUMBER, &SPIS_1_TX_ISR);
  79:.\Generated_Source\PSoC5/SPIS_1.c **** 
  80:.\Generated_Source\PSoC5/SPIS_1.c ****         /* Set the priority. */
  81:.\Generated_Source\PSoC5/SPIS_1.c ****         CyIntSetPriority(SPIS_1_TX_ISR_NUMBER, SPIS_1_TX_ISR_PRIORITY);
  82:.\Generated_Source\PSoC5/SPIS_1.c **** 
  83:.\Generated_Source\PSoC5/SPIS_1.c ****     #endif /* SPIS_1_INTERNAL_TX_INT_ENABLED */
  84:.\Generated_Source\PSoC5/SPIS_1.c **** 
  85:.\Generated_Source\PSoC5/SPIS_1.c ****     #if(SPIS_1_INTERNAL_RX_INT_ENABLED)
  86:.\Generated_Source\PSoC5/SPIS_1.c **** 
  87:.\Generated_Source\PSoC5/SPIS_1.c ****         CyIntDisable(SPIS_1_RX_ISR_NUMBER);
  88:.\Generated_Source\PSoC5/SPIS_1.c **** 
ARM GAS  C:\Users\DGILLI~1\AppData\Local\Temp\ccZqqpmp.s 			page 3


  89:.\Generated_Source\PSoC5/SPIS_1.c ****         /* Set the ISR to point to the SPIS_1_isr Interrupt. */
  90:.\Generated_Source\PSoC5/SPIS_1.c ****         (void)CyIntSetVector(SPIS_1_RX_ISR_NUMBER, &SPIS_1_RX_ISR);
  91:.\Generated_Source\PSoC5/SPIS_1.c **** 
  92:.\Generated_Source\PSoC5/SPIS_1.c ****         /* Set the priority. */
  93:.\Generated_Source\PSoC5/SPIS_1.c ****         CyIntSetPriority(SPIS_1_RX_ISR_NUMBER, SPIS_1_RX_ISR_PRIORITY);
  94:.\Generated_Source\PSoC5/SPIS_1.c **** 
  95:.\Generated_Source\PSoC5/SPIS_1.c ****     #endif /* SPIS_1_INTERNAL_RX_INT_ENABLED */
  96:.\Generated_Source\PSoC5/SPIS_1.c **** 
  97:.\Generated_Source\PSoC5/SPIS_1.c ****     /* Clear any stray data from the RX and TX FIFO */
  98:.\Generated_Source\PSoC5/SPIS_1.c ****     SPIS_1_ClearFIFO();
  99:.\Generated_Source\PSoC5/SPIS_1.c **** 
 100:.\Generated_Source\PSoC5/SPIS_1.c ****     #if(SPIS_1_RX_SOFTWARE_BUF_ENABLED)
 101:.\Generated_Source\PSoC5/SPIS_1.c ****         SPIS_1_rxBufferFull = 0u;
 102:.\Generated_Source\PSoC5/SPIS_1.c ****         SPIS_1_rxBufferRead = 0u;
 103:.\Generated_Source\PSoC5/SPIS_1.c ****         SPIS_1_rxBufferWrite = 0u;
 104:.\Generated_Source\PSoC5/SPIS_1.c ****     #endif /* SPIS_1_RX_SOFTWARE_BUF_ENABLED */
 105:.\Generated_Source\PSoC5/SPIS_1.c **** 
 106:.\Generated_Source\PSoC5/SPIS_1.c ****     #if(SPIS_1_TX_SOFTWARE_BUF_ENABLED)
 107:.\Generated_Source\PSoC5/SPIS_1.c ****         SPIS_1_txBufferFull = 0u;
 108:.\Generated_Source\PSoC5/SPIS_1.c ****         SPIS_1_txBufferRead = 0u;
 109:.\Generated_Source\PSoC5/SPIS_1.c ****         SPIS_1_txBufferWrite = 0u;
 110:.\Generated_Source\PSoC5/SPIS_1.c ****     #endif /* SPIS_1_TX_SOFTWARE_BUF_ENABLED */
 111:.\Generated_Source\PSoC5/SPIS_1.c **** 
 112:.\Generated_Source\PSoC5/SPIS_1.c ****     (void) SPIS_1_ReadTxStatus(); /* Clear any pending status bits */
 113:.\Generated_Source\PSoC5/SPIS_1.c ****     (void) SPIS_1_ReadRxStatus(); /* Clear any pending status bits */
 114:.\Generated_Source\PSoC5/SPIS_1.c **** 
 115:.\Generated_Source\PSoC5/SPIS_1.c **** 
 116:.\Generated_Source\PSoC5/SPIS_1.c ****     /* Configure the Initial interrupt mask */
 117:.\Generated_Source\PSoC5/SPIS_1.c ****     #if (SPIS_1_TX_SOFTWARE_BUF_ENABLED)
 118:.\Generated_Source\PSoC5/SPIS_1.c ****         SPIS_1_TX_STATUS_MASK_REG  = (SPIS_1_TX_INIT_INTERRUPTS_MASK &
 119:.\Generated_Source\PSoC5/SPIS_1.c ****                                                 (uint8)~SPIS_1_STS_TX_FIFO_NOT_FULL);
 120:.\Generated_Source\PSoC5/SPIS_1.c ****     #else /* SPIS_1_TX_SOFTWARE_BUF_ENABLED */
 121:.\Generated_Source\PSoC5/SPIS_1.c ****         SPIS_1_TX_STATUS_MASK_REG  = SPIS_1_TX_INIT_INTERRUPTS_MASK;
 122:.\Generated_Source\PSoC5/SPIS_1.c ****     #endif /* SPIS_1_TX_SOFTWARE_BUF_ENABLED */
 123:.\Generated_Source\PSoC5/SPIS_1.c **** 
 124:.\Generated_Source\PSoC5/SPIS_1.c ****     SPIS_1_RX_STATUS_MASK_REG  = SPIS_1_RX_INIT_INTERRUPTS_MASK;
 125:.\Generated_Source\PSoC5/SPIS_1.c **** }
 126:.\Generated_Source\PSoC5/SPIS_1.c **** 
 127:.\Generated_Source\PSoC5/SPIS_1.c **** 
 128:.\Generated_Source\PSoC5/SPIS_1.c **** /*******************************************************************************
 129:.\Generated_Source\PSoC5/SPIS_1.c **** * Function Name: SPIS_1_Enable
 130:.\Generated_Source\PSoC5/SPIS_1.c **** ********************************************************************************
 131:.\Generated_Source\PSoC5/SPIS_1.c **** *
 132:.\Generated_Source\PSoC5/SPIS_1.c **** * Summary:
 133:.\Generated_Source\PSoC5/SPIS_1.c **** *  Enable SPIS component.
 134:.\Generated_Source\PSoC5/SPIS_1.c **** *
 135:.\Generated_Source\PSoC5/SPIS_1.c **** * Parameters:
 136:.\Generated_Source\PSoC5/SPIS_1.c **** *  None.
 137:.\Generated_Source\PSoC5/SPIS_1.c **** *
 138:.\Generated_Source\PSoC5/SPIS_1.c **** * Return:
 139:.\Generated_Source\PSoC5/SPIS_1.c **** *  None.
 140:.\Generated_Source\PSoC5/SPIS_1.c **** *
 141:.\Generated_Source\PSoC5/SPIS_1.c **** *******************************************************************************/
 142:.\Generated_Source\PSoC5/SPIS_1.c **** void SPIS_1_Enable(void) 
 143:.\Generated_Source\PSoC5/SPIS_1.c **** {
  27              		.loc 1 143 0
  28              		.cfi_startproc
ARM GAS  C:\Users\DGILLI~1\AppData\Local\Temp\ccZqqpmp.s 			page 4


  29              		@ args = 0, pretend = 0, frame = 0
  30              		@ frame_needed = 0, uses_anonymous_args = 0
  31 0000 08B5     		push	{r3, lr}
  32              		.cfi_def_cfa_offset 8
  33              		.cfi_offset 3, -8
  34              		.cfi_offset 14, -4
 144:.\Generated_Source\PSoC5/SPIS_1.c ****     uint8 enableInterrupts;
 145:.\Generated_Source\PSoC5/SPIS_1.c ****     enableInterrupts = CyEnterCriticalSection();
  35              		.loc 1 145 0
  36 0002 FFF7FEFF 		bl	CyEnterCriticalSection
  37              	.LVL0:
 146:.\Generated_Source\PSoC5/SPIS_1.c **** 
 147:.\Generated_Source\PSoC5/SPIS_1.c ****     SPIS_1_COUNTER_CONTROL_REG |= SPIS_1_CNTR_ENABLE;
  38              		.loc 1 147 0
  39 0006 094A     		ldr	r2, .L3
  40 0008 1378     		ldrb	r3, [r2]	@ zero_extendqisi2
  41 000a 43F02003 		orr	r3, r3, #32
  42 000e 1370     		strb	r3, [r2]
 148:.\Generated_Source\PSoC5/SPIS_1.c ****     SPIS_1_TX_STATUS_ACTL_REG |= SPIS_1_INT_ENABLE;
  43              		.loc 1 148 0
  44 0010 0132     		adds	r2, r2, #1
  45 0012 1378     		ldrb	r3, [r2]	@ zero_extendqisi2
  46 0014 43F01003 		orr	r3, r3, #16
  47 0018 1370     		strb	r3, [r2]
 149:.\Generated_Source\PSoC5/SPIS_1.c ****     SPIS_1_RX_STATUS_ACTL_REG |= SPIS_1_INT_ENABLE;
  48              		.loc 1 149 0
  49 001a A2F20112 		subw	r2, r2, #257
  50 001e 1378     		ldrb	r3, [r2]	@ zero_extendqisi2
  51 0020 43F01003 		orr	r3, r3, #16
  52 0024 1370     		strb	r3, [r2]
 150:.\Generated_Source\PSoC5/SPIS_1.c **** 
 151:.\Generated_Source\PSoC5/SPIS_1.c ****     CyExitCriticalSection(enableInterrupts);
  53              		.loc 1 151 0
  54 0026 FFF7FEFF 		bl	CyExitCriticalSection
  55              	.LVL1:
  56 002a 08BD     		pop	{r3, pc}
  57              	.L4:
  58              		.align	2
  59              	.L3:
  60 002c 96650040 		.word	1073767830
  61              		.cfi_endproc
  62              	.LFE1:
  63              		.size	SPIS_1_Enable, .-SPIS_1_Enable
  64              		.section	.text.SPIS_1_Stop,"ax",%progbits
  65              		.align	2
  66              		.global	SPIS_1_Stop
  67              		.thumb
  68              		.thumb_func
  69              		.type	SPIS_1_Stop, %function
  70              	SPIS_1_Stop:
  71              	.LFB3:
 152:.\Generated_Source\PSoC5/SPIS_1.c **** 
 153:.\Generated_Source\PSoC5/SPIS_1.c ****     #if(SPIS_1_INTERNAL_TX_INT_ENABLED)
 154:.\Generated_Source\PSoC5/SPIS_1.c ****         CyIntEnable(SPIS_1_TX_ISR_NUMBER);
 155:.\Generated_Source\PSoC5/SPIS_1.c ****     #endif /* SPIS_1_INTERNAL_TX_INT_ENABLED */
 156:.\Generated_Source\PSoC5/SPIS_1.c **** 
 157:.\Generated_Source\PSoC5/SPIS_1.c ****     #if(SPIS_1_INTERNAL_RX_INT_ENABLED)
ARM GAS  C:\Users\DGILLI~1\AppData\Local\Temp\ccZqqpmp.s 			page 5


 158:.\Generated_Source\PSoC5/SPIS_1.c ****         CyIntEnable(SPIS_1_RX_ISR_NUMBER);
 159:.\Generated_Source\PSoC5/SPIS_1.c ****     #endif /* SPIS_1_INTERNAL_RX_INT_ENABLED */
 160:.\Generated_Source\PSoC5/SPIS_1.c **** }
 161:.\Generated_Source\PSoC5/SPIS_1.c **** 
 162:.\Generated_Source\PSoC5/SPIS_1.c **** 
 163:.\Generated_Source\PSoC5/SPIS_1.c **** /*******************************************************************************
 164:.\Generated_Source\PSoC5/SPIS_1.c **** * Function Name: SPIS_1_Start
 165:.\Generated_Source\PSoC5/SPIS_1.c **** ********************************************************************************
 166:.\Generated_Source\PSoC5/SPIS_1.c **** *
 167:.\Generated_Source\PSoC5/SPIS_1.c **** * Summary:
 168:.\Generated_Source\PSoC5/SPIS_1.c **** *  Initialize and Enable the SPI Slave component.
 169:.\Generated_Source\PSoC5/SPIS_1.c **** *
 170:.\Generated_Source\PSoC5/SPIS_1.c **** * Parameters:
 171:.\Generated_Source\PSoC5/SPIS_1.c **** *  None.
 172:.\Generated_Source\PSoC5/SPIS_1.c **** *
 173:.\Generated_Source\PSoC5/SPIS_1.c **** * Return:
 174:.\Generated_Source\PSoC5/SPIS_1.c **** *  None.
 175:.\Generated_Source\PSoC5/SPIS_1.c **** *
 176:.\Generated_Source\PSoC5/SPIS_1.c **** * Global variables:
 177:.\Generated_Source\PSoC5/SPIS_1.c **** *  SPIS_1_initVar - used to check initial configuration, modified on
 178:.\Generated_Source\PSoC5/SPIS_1.c **** *  first function call.
 179:.\Generated_Source\PSoC5/SPIS_1.c **** *
 180:.\Generated_Source\PSoC5/SPIS_1.c **** * Theory:
 181:.\Generated_Source\PSoC5/SPIS_1.c **** *  Enable the clock input to enable operation.
 182:.\Generated_Source\PSoC5/SPIS_1.c **** *
 183:.\Generated_Source\PSoC5/SPIS_1.c **** * Reentrant:
 184:.\Generated_Source\PSoC5/SPIS_1.c **** *  No.
 185:.\Generated_Source\PSoC5/SPIS_1.c **** *
 186:.\Generated_Source\PSoC5/SPIS_1.c **** *******************************************************************************/
 187:.\Generated_Source\PSoC5/SPIS_1.c **** void SPIS_1_Start(void) 
 188:.\Generated_Source\PSoC5/SPIS_1.c **** {
 189:.\Generated_Source\PSoC5/SPIS_1.c ****     if(SPIS_1_initVar == 0u)
 190:.\Generated_Source\PSoC5/SPIS_1.c ****     {
 191:.\Generated_Source\PSoC5/SPIS_1.c ****         SPIS_1_Init();
 192:.\Generated_Source\PSoC5/SPIS_1.c ****         SPIS_1_initVar = 1u;
 193:.\Generated_Source\PSoC5/SPIS_1.c ****     }
 194:.\Generated_Source\PSoC5/SPIS_1.c **** 
 195:.\Generated_Source\PSoC5/SPIS_1.c ****     SPIS_1_Enable();
 196:.\Generated_Source\PSoC5/SPIS_1.c **** }
 197:.\Generated_Source\PSoC5/SPIS_1.c **** 
 198:.\Generated_Source\PSoC5/SPIS_1.c **** 
 199:.\Generated_Source\PSoC5/SPIS_1.c **** /*******************************************************************************
 200:.\Generated_Source\PSoC5/SPIS_1.c **** * Function Name: SPIS_1_Stop
 201:.\Generated_Source\PSoC5/SPIS_1.c **** ********************************************************************************
 202:.\Generated_Source\PSoC5/SPIS_1.c **** *
 203:.\Generated_Source\PSoC5/SPIS_1.c **** * Summary:
 204:.\Generated_Source\PSoC5/SPIS_1.c **** *  Disable the SPI Slave component.
 205:.\Generated_Source\PSoC5/SPIS_1.c **** *
 206:.\Generated_Source\PSoC5/SPIS_1.c **** * Parameters:
 207:.\Generated_Source\PSoC5/SPIS_1.c **** *  None.
 208:.\Generated_Source\PSoC5/SPIS_1.c **** *
 209:.\Generated_Source\PSoC5/SPIS_1.c **** * Return:
 210:.\Generated_Source\PSoC5/SPIS_1.c **** *  None.
 211:.\Generated_Source\PSoC5/SPIS_1.c **** *
 212:.\Generated_Source\PSoC5/SPIS_1.c **** * Theory:
 213:.\Generated_Source\PSoC5/SPIS_1.c **** *  Disable the internal interrupt if one is used.
 214:.\Generated_Source\PSoC5/SPIS_1.c **** *
ARM GAS  C:\Users\DGILLI~1\AppData\Local\Temp\ccZqqpmp.s 			page 6


 215:.\Generated_Source\PSoC5/SPIS_1.c **** *******************************************************************************/
 216:.\Generated_Source\PSoC5/SPIS_1.c **** void SPIS_1_Stop(void) 
 217:.\Generated_Source\PSoC5/SPIS_1.c **** {
  72              		.loc 1 217 0
  73              		.cfi_startproc
  74              		@ args = 0, pretend = 0, frame = 0
  75              		@ frame_needed = 0, uses_anonymous_args = 0
  76 0000 08B5     		push	{r3, lr}
  77              		.cfi_def_cfa_offset 8
  78              		.cfi_offset 3, -8
  79              		.cfi_offset 14, -4
 218:.\Generated_Source\PSoC5/SPIS_1.c ****     uint8 enableInterrupts;
 219:.\Generated_Source\PSoC5/SPIS_1.c ****     enableInterrupts = CyEnterCriticalSection();
  80              		.loc 1 219 0
  81 0002 FFF7FEFF 		bl	CyEnterCriticalSection
  82              	.LVL2:
 220:.\Generated_Source\PSoC5/SPIS_1.c **** 
 221:.\Generated_Source\PSoC5/SPIS_1.c ****     SPIS_1_TX_STATUS_ACTL_REG &= (uint8)~SPIS_1_INT_ENABLE;
  83              		.loc 1 221 0
  84 0006 074A     		ldr	r2, .L7
  85 0008 1378     		ldrb	r3, [r2]	@ zero_extendqisi2
  86 000a 03F0EF03 		and	r3, r3, #239
  87 000e 1370     		strb	r3, [r2]
 222:.\Generated_Source\PSoC5/SPIS_1.c ****     SPIS_1_RX_STATUS_ACTL_REG &= (uint8)~SPIS_1_INT_ENABLE;
  88              		.loc 1 222 0
  89 0010 A2F20112 		subw	r2, r2, #257
  90 0014 1378     		ldrb	r3, [r2]	@ zero_extendqisi2
  91 0016 03F0EF03 		and	r3, r3, #239
  92 001a 1370     		strb	r3, [r2]
 223:.\Generated_Source\PSoC5/SPIS_1.c **** 
 224:.\Generated_Source\PSoC5/SPIS_1.c ****     CyExitCriticalSection(enableInterrupts);
  93              		.loc 1 224 0
  94 001c FFF7FEFF 		bl	CyExitCriticalSection
  95              	.LVL3:
  96 0020 08BD     		pop	{r3, pc}
  97              	.L8:
  98 0022 00BF     		.align	2
  99              	.L7:
 100 0024 97650040 		.word	1073767831
 101              		.cfi_endproc
 102              	.LFE3:
 103              		.size	SPIS_1_Stop, .-SPIS_1_Stop
 104              		.section	.text.SPIS_1_EnableTxInt,"ax",%progbits
 105              		.align	2
 106              		.global	SPIS_1_EnableTxInt
 107              		.thumb
 108              		.thumb_func
 109              		.type	SPIS_1_EnableTxInt, %function
 110              	SPIS_1_EnableTxInt:
 111              	.LFB4:
 225:.\Generated_Source\PSoC5/SPIS_1.c **** 
 226:.\Generated_Source\PSoC5/SPIS_1.c ****     #if(SPIS_1_INTERNAL_TX_INT_ENABLED)
 227:.\Generated_Source\PSoC5/SPIS_1.c ****         CyIntDisable(SPIS_1_TX_ISR_NUMBER);
 228:.\Generated_Source\PSoC5/SPIS_1.c ****     #endif /* SPIS_1_INTERNAL_TX_INT_ENABLED */
 229:.\Generated_Source\PSoC5/SPIS_1.c **** 
 230:.\Generated_Source\PSoC5/SPIS_1.c ****     #if(SPIS_1_INTERNAL_RX_INT_ENABLED)
 231:.\Generated_Source\PSoC5/SPIS_1.c ****         CyIntDisable(SPIS_1_RX_ISR_NUMBER);
ARM GAS  C:\Users\DGILLI~1\AppData\Local\Temp\ccZqqpmp.s 			page 7


 232:.\Generated_Source\PSoC5/SPIS_1.c ****     #endif /* SPIS_1_INTERNAL_RX_INT_ENABLED */
 233:.\Generated_Source\PSoC5/SPIS_1.c **** }
 234:.\Generated_Source\PSoC5/SPIS_1.c **** 
 235:.\Generated_Source\PSoC5/SPIS_1.c **** 
 236:.\Generated_Source\PSoC5/SPIS_1.c **** /*******************************************************************************
 237:.\Generated_Source\PSoC5/SPIS_1.c **** * Function Name: SPIS_1_EnableTxInt
 238:.\Generated_Source\PSoC5/SPIS_1.c **** ********************************************************************************
 239:.\Generated_Source\PSoC5/SPIS_1.c **** *
 240:.\Generated_Source\PSoC5/SPIS_1.c **** * Summary:
 241:.\Generated_Source\PSoC5/SPIS_1.c **** *  Enable internal Tx interrupt generation.
 242:.\Generated_Source\PSoC5/SPIS_1.c **** *
 243:.\Generated_Source\PSoC5/SPIS_1.c **** * Parameters:
 244:.\Generated_Source\PSoC5/SPIS_1.c **** *  None.
 245:.\Generated_Source\PSoC5/SPIS_1.c **** *
 246:.\Generated_Source\PSoC5/SPIS_1.c **** * Return:
 247:.\Generated_Source\PSoC5/SPIS_1.c **** *  None.
 248:.\Generated_Source\PSoC5/SPIS_1.c **** *
 249:.\Generated_Source\PSoC5/SPIS_1.c **** * Theory:
 250:.\Generated_Source\PSoC5/SPIS_1.c **** *  Enable the internal Tx interrupt output -or- the interrupt component itself.
 251:.\Generated_Source\PSoC5/SPIS_1.c **** *
 252:.\Generated_Source\PSoC5/SPIS_1.c **** *******************************************************************************/
 253:.\Generated_Source\PSoC5/SPIS_1.c **** void SPIS_1_EnableTxInt(void) 
 254:.\Generated_Source\PSoC5/SPIS_1.c **** {
 112              		.loc 1 254 0
 113              		.cfi_startproc
 114              		@ args = 0, pretend = 0, frame = 0
 115              		@ frame_needed = 0, uses_anonymous_args = 0
 116              		@ link register save eliminated.
 117 0000 7047     		bx	lr
 118              		.cfi_endproc
 119              	.LFE4:
 120              		.size	SPIS_1_EnableTxInt, .-SPIS_1_EnableTxInt
 121 0002 00BF     		.section	.text.SPIS_1_EnableRxInt,"ax",%progbits
 122              		.align	2
 123              		.global	SPIS_1_EnableRxInt
 124              		.thumb
 125              		.thumb_func
 126              		.type	SPIS_1_EnableRxInt, %function
 127              	SPIS_1_EnableRxInt:
 128              	.LFB5:
 255:.\Generated_Source\PSoC5/SPIS_1.c ****     #if(SPIS_1_INTERNAL_TX_INT_ENABLED)
 256:.\Generated_Source\PSoC5/SPIS_1.c ****         CyIntEnable(SPIS_1_TX_ISR_NUMBER);
 257:.\Generated_Source\PSoC5/SPIS_1.c ****     #endif /* SPIS_1_INTERNAL_TX_INT_ENABLED */
 258:.\Generated_Source\PSoC5/SPIS_1.c **** }
 259:.\Generated_Source\PSoC5/SPIS_1.c **** 
 260:.\Generated_Source\PSoC5/SPIS_1.c **** 
 261:.\Generated_Source\PSoC5/SPIS_1.c **** /*******************************************************************************
 262:.\Generated_Source\PSoC5/SPIS_1.c **** * Function Name: SPIS_1_EnableRxInt
 263:.\Generated_Source\PSoC5/SPIS_1.c **** ********************************************************************************
 264:.\Generated_Source\PSoC5/SPIS_1.c **** *
 265:.\Generated_Source\PSoC5/SPIS_1.c **** * Summary:
 266:.\Generated_Source\PSoC5/SPIS_1.c **** *  Enable internal Rx interrupt generation.
 267:.\Generated_Source\PSoC5/SPIS_1.c **** *
 268:.\Generated_Source\PSoC5/SPIS_1.c **** * Parameters:
 269:.\Generated_Source\PSoC5/SPIS_1.c **** *  None.
 270:.\Generated_Source\PSoC5/SPIS_1.c **** *
 271:.\Generated_Source\PSoC5/SPIS_1.c **** * Return:
ARM GAS  C:\Users\DGILLI~1\AppData\Local\Temp\ccZqqpmp.s 			page 8


 272:.\Generated_Source\PSoC5/SPIS_1.c **** *  None.
 273:.\Generated_Source\PSoC5/SPIS_1.c **** *
 274:.\Generated_Source\PSoC5/SPIS_1.c **** * Theory:
 275:.\Generated_Source\PSoC5/SPIS_1.c **** *  Enable the internal Rx interrupt output -or- the interrupt component itself.
 276:.\Generated_Source\PSoC5/SPIS_1.c **** *
 277:.\Generated_Source\PSoC5/SPIS_1.c **** *******************************************************************************/
 278:.\Generated_Source\PSoC5/SPIS_1.c **** void SPIS_1_EnableRxInt(void) 
 279:.\Generated_Source\PSoC5/SPIS_1.c **** {
 129              		.loc 1 279 0
 130              		.cfi_startproc
 131              		@ args = 0, pretend = 0, frame = 0
 132              		@ frame_needed = 0, uses_anonymous_args = 0
 133              		@ link register save eliminated.
 134 0000 7047     		bx	lr
 135              		.cfi_endproc
 136              	.LFE5:
 137              		.size	SPIS_1_EnableRxInt, .-SPIS_1_EnableRxInt
 138 0002 00BF     		.section	.text.SPIS_1_DisableTxInt,"ax",%progbits
 139              		.align	2
 140              		.global	SPIS_1_DisableTxInt
 141              		.thumb
 142              		.thumb_func
 143              		.type	SPIS_1_DisableTxInt, %function
 144              	SPIS_1_DisableTxInt:
 145              	.LFB6:
 280:.\Generated_Source\PSoC5/SPIS_1.c ****     #if(SPIS_1_INTERNAL_RX_INT_ENABLED)
 281:.\Generated_Source\PSoC5/SPIS_1.c ****         CyIntEnable(SPIS_1_RX_ISR_NUMBER);
 282:.\Generated_Source\PSoC5/SPIS_1.c ****     #endif /* SPIS_1_INTERNAL_RX_INT_ENABLED */
 283:.\Generated_Source\PSoC5/SPIS_1.c **** }
 284:.\Generated_Source\PSoC5/SPIS_1.c **** 
 285:.\Generated_Source\PSoC5/SPIS_1.c **** 
 286:.\Generated_Source\PSoC5/SPIS_1.c **** /*******************************************************************************
 287:.\Generated_Source\PSoC5/SPIS_1.c **** * Function Name: SPIS_1_DisableTxInt
 288:.\Generated_Source\PSoC5/SPIS_1.c **** ********************************************************************************
 289:.\Generated_Source\PSoC5/SPIS_1.c **** *
 290:.\Generated_Source\PSoC5/SPIS_1.c **** * Summary:
 291:.\Generated_Source\PSoC5/SPIS_1.c **** *  Disable internal Tx interrupt generation.
 292:.\Generated_Source\PSoC5/SPIS_1.c **** *
 293:.\Generated_Source\PSoC5/SPIS_1.c **** * Parameters:
 294:.\Generated_Source\PSoC5/SPIS_1.c **** *  None.
 295:.\Generated_Source\PSoC5/SPIS_1.c **** *
 296:.\Generated_Source\PSoC5/SPIS_1.c **** * Return:
 297:.\Generated_Source\PSoC5/SPIS_1.c **** *  None.
 298:.\Generated_Source\PSoC5/SPIS_1.c **** *
 299:.\Generated_Source\PSoC5/SPIS_1.c **** * Theory:
 300:.\Generated_Source\PSoC5/SPIS_1.c **** *  Disable the internal Tx interrupt output -or- the interrupt component itself.
 301:.\Generated_Source\PSoC5/SPIS_1.c **** *
 302:.\Generated_Source\PSoC5/SPIS_1.c **** *******************************************************************************/
 303:.\Generated_Source\PSoC5/SPIS_1.c **** void SPIS_1_DisableTxInt(void) 
 304:.\Generated_Source\PSoC5/SPIS_1.c **** {
 146              		.loc 1 304 0
 147              		.cfi_startproc
 148              		@ args = 0, pretend = 0, frame = 0
 149              		@ frame_needed = 0, uses_anonymous_args = 0
 150              		@ link register save eliminated.
 151 0000 7047     		bx	lr
 152              		.cfi_endproc
ARM GAS  C:\Users\DGILLI~1\AppData\Local\Temp\ccZqqpmp.s 			page 9


 153              	.LFE6:
 154              		.size	SPIS_1_DisableTxInt, .-SPIS_1_DisableTxInt
 155 0002 00BF     		.section	.text.SPIS_1_DisableRxInt,"ax",%progbits
 156              		.align	2
 157              		.global	SPIS_1_DisableRxInt
 158              		.thumb
 159              		.thumb_func
 160              		.type	SPIS_1_DisableRxInt, %function
 161              	SPIS_1_DisableRxInt:
 162              	.LFB7:
 305:.\Generated_Source\PSoC5/SPIS_1.c ****     #if(SPIS_1_INTERNAL_TX_INT_ENABLED)
 306:.\Generated_Source\PSoC5/SPIS_1.c ****         CyIntDisable(SPIS_1_TX_ISR_NUMBER);
 307:.\Generated_Source\PSoC5/SPIS_1.c ****     #endif /* SPIS_1_INTERNAL_TX_INT_ENABLED */
 308:.\Generated_Source\PSoC5/SPIS_1.c **** }
 309:.\Generated_Source\PSoC5/SPIS_1.c **** 
 310:.\Generated_Source\PSoC5/SPIS_1.c **** 
 311:.\Generated_Source\PSoC5/SPIS_1.c **** /*******************************************************************************
 312:.\Generated_Source\PSoC5/SPIS_1.c **** * Function Name: SPIS_1_DisableRxInt
 313:.\Generated_Source\PSoC5/SPIS_1.c **** ********************************************************************************
 314:.\Generated_Source\PSoC5/SPIS_1.c **** *
 315:.\Generated_Source\PSoC5/SPIS_1.c **** * Summary:
 316:.\Generated_Source\PSoC5/SPIS_1.c **** *  Disable internal Rx interrupt generation.
 317:.\Generated_Source\PSoC5/SPIS_1.c **** *
 318:.\Generated_Source\PSoC5/SPIS_1.c **** * Parameters:
 319:.\Generated_Source\PSoC5/SPIS_1.c **** *  None.
 320:.\Generated_Source\PSoC5/SPIS_1.c **** *
 321:.\Generated_Source\PSoC5/SPIS_1.c **** * Return:
 322:.\Generated_Source\PSoC5/SPIS_1.c **** *  None.
 323:.\Generated_Source\PSoC5/SPIS_1.c **** *
 324:.\Generated_Source\PSoC5/SPIS_1.c **** * Theory:
 325:.\Generated_Source\PSoC5/SPIS_1.c **** *  Disable the internal Rx interrupt output -or- the interrupt component itself.
 326:.\Generated_Source\PSoC5/SPIS_1.c **** *
 327:.\Generated_Source\PSoC5/SPIS_1.c **** *******************************************************************************/
 328:.\Generated_Source\PSoC5/SPIS_1.c **** void SPIS_1_DisableRxInt(void) 
 329:.\Generated_Source\PSoC5/SPIS_1.c **** {
 163              		.loc 1 329 0
 164              		.cfi_startproc
 165              		@ args = 0, pretend = 0, frame = 0
 166              		@ frame_needed = 0, uses_anonymous_args = 0
 167              		@ link register save eliminated.
 168 0000 7047     		bx	lr
 169              		.cfi_endproc
 170              	.LFE7:
 171              		.size	SPIS_1_DisableRxInt, .-SPIS_1_DisableRxInt
 172 0002 00BF     		.section	.text.SPIS_1_SetTxInterruptMode,"ax",%progbits
 173              		.align	2
 174              		.global	SPIS_1_SetTxInterruptMode
 175              		.thumb
 176              		.thumb_func
 177              		.type	SPIS_1_SetTxInterruptMode, %function
 178              	SPIS_1_SetTxInterruptMode:
 179              	.LFB8:
 330:.\Generated_Source\PSoC5/SPIS_1.c ****     #if(SPIS_1_INTERNAL_RX_INT_ENABLED)
 331:.\Generated_Source\PSoC5/SPIS_1.c ****         CyIntDisable(SPIS_1_RX_ISR_NUMBER);
 332:.\Generated_Source\PSoC5/SPIS_1.c ****     #endif /* SPIS_1_INTERNAL_RX_INT_ENABLED */
 333:.\Generated_Source\PSoC5/SPIS_1.c **** }
 334:.\Generated_Source\PSoC5/SPIS_1.c **** 
ARM GAS  C:\Users\DGILLI~1\AppData\Local\Temp\ccZqqpmp.s 			page 10


 335:.\Generated_Source\PSoC5/SPIS_1.c **** 
 336:.\Generated_Source\PSoC5/SPIS_1.c **** /*******************************************************************************
 337:.\Generated_Source\PSoC5/SPIS_1.c **** * Function Name: SPIS_1_SetTxInterruptMode
 338:.\Generated_Source\PSoC5/SPIS_1.c **** ********************************************************************************
 339:.\Generated_Source\PSoC5/SPIS_1.c **** *
 340:.\Generated_Source\PSoC5/SPIS_1.c **** * Summary:
 341:.\Generated_Source\PSoC5/SPIS_1.c **** *  Configure which status bits trigger an interrupt event.
 342:.\Generated_Source\PSoC5/SPIS_1.c **** *
 343:.\Generated_Source\PSoC5/SPIS_1.c **** * Parameters:
 344:.\Generated_Source\PSoC5/SPIS_1.c **** *  intSrc: An or'd combination of the desired status bit masks (defined in the
 345:.\Generated_Source\PSoC5/SPIS_1.c **** *  header file).
 346:.\Generated_Source\PSoC5/SPIS_1.c **** *
 347:.\Generated_Source\PSoC5/SPIS_1.c **** * Return:
 348:.\Generated_Source\PSoC5/SPIS_1.c **** *  None.
 349:.\Generated_Source\PSoC5/SPIS_1.c **** *
 350:.\Generated_Source\PSoC5/SPIS_1.c **** * Theory:
 351:.\Generated_Source\PSoC5/SPIS_1.c **** *  Enables the output of specific status bits to the interrupt controller.
 352:.\Generated_Source\PSoC5/SPIS_1.c **** *
 353:.\Generated_Source\PSoC5/SPIS_1.c **** *******************************************************************************/
 354:.\Generated_Source\PSoC5/SPIS_1.c **** void SPIS_1_SetTxInterruptMode(uint8 intSrc) 
 355:.\Generated_Source\PSoC5/SPIS_1.c **** {
 180              		.loc 1 355 0
 181              		.cfi_startproc
 182              		@ args = 0, pretend = 0, frame = 0
 183              		@ frame_needed = 0, uses_anonymous_args = 0
 184              		@ link register save eliminated.
 185              	.LVL4:
 356:.\Generated_Source\PSoC5/SPIS_1.c ****     SPIS_1_TX_STATUS_MASK_REG  = intSrc;
 186              		.loc 1 356 0
 187 0000 014B     		ldr	r3, .L14
 188 0002 1870     		strb	r0, [r3]
 189 0004 7047     		bx	lr
 190              	.L15:
 191 0006 00BF     		.align	2
 192              	.L14:
 193 0008 87650040 		.word	1073767815
 194              		.cfi_endproc
 195              	.LFE8:
 196              		.size	SPIS_1_SetTxInterruptMode, .-SPIS_1_SetTxInterruptMode
 197              		.section	.text.SPIS_1_SetRxInterruptMode,"ax",%progbits
 198              		.align	2
 199              		.global	SPIS_1_SetRxInterruptMode
 200              		.thumb
 201              		.thumb_func
 202              		.type	SPIS_1_SetRxInterruptMode, %function
 203              	SPIS_1_SetRxInterruptMode:
 204              	.LFB9:
 357:.\Generated_Source\PSoC5/SPIS_1.c **** }
 358:.\Generated_Source\PSoC5/SPIS_1.c **** 
 359:.\Generated_Source\PSoC5/SPIS_1.c **** 
 360:.\Generated_Source\PSoC5/SPIS_1.c **** /*******************************************************************************
 361:.\Generated_Source\PSoC5/SPIS_1.c **** * Function Name: SPIS_1_SetRxInterruptMode
 362:.\Generated_Source\PSoC5/SPIS_1.c **** ********************************************************************************
 363:.\Generated_Source\PSoC5/SPIS_1.c **** *
 364:.\Generated_Source\PSoC5/SPIS_1.c **** * Summary:
 365:.\Generated_Source\PSoC5/SPIS_1.c **** *  Configure which status bits trigger an interrupt event.
 366:.\Generated_Source\PSoC5/SPIS_1.c **** *
ARM GAS  C:\Users\DGILLI~1\AppData\Local\Temp\ccZqqpmp.s 			page 11


 367:.\Generated_Source\PSoC5/SPIS_1.c **** * Parameters:
 368:.\Generated_Source\PSoC5/SPIS_1.c **** *  intSrc: An or'd combination of the desired status bit masks (defined in the
 369:.\Generated_Source\PSoC5/SPIS_1.c **** *  header file).
 370:.\Generated_Source\PSoC5/SPIS_1.c **** *
 371:.\Generated_Source\PSoC5/SPIS_1.c **** * Return:
 372:.\Generated_Source\PSoC5/SPIS_1.c **** *  None.
 373:.\Generated_Source\PSoC5/SPIS_1.c **** *
 374:.\Generated_Source\PSoC5/SPIS_1.c **** * Theory:
 375:.\Generated_Source\PSoC5/SPIS_1.c **** *  Enables the output of specific status bits to the interrupt controller.
 376:.\Generated_Source\PSoC5/SPIS_1.c **** *
 377:.\Generated_Source\PSoC5/SPIS_1.c **** *******************************************************************************/
 378:.\Generated_Source\PSoC5/SPIS_1.c **** void SPIS_1_SetRxInterruptMode(uint8 intSrc) 
 379:.\Generated_Source\PSoC5/SPIS_1.c **** {
 205              		.loc 1 379 0
 206              		.cfi_startproc
 207              		@ args = 0, pretend = 0, frame = 0
 208              		@ frame_needed = 0, uses_anonymous_args = 0
 209              		@ link register save eliminated.
 210              	.LVL5:
 380:.\Generated_Source\PSoC5/SPIS_1.c ****     SPIS_1_RX_STATUS_MASK_REG  = intSrc;
 211              		.loc 1 380 0
 212 0000 014B     		ldr	r3, .L17
 213 0002 1870     		strb	r0, [r3]
 214 0004 7047     		bx	lr
 215              	.L18:
 216 0006 00BF     		.align	2
 217              	.L17:
 218 0008 86640040 		.word	1073767558
 219              		.cfi_endproc
 220              	.LFE9:
 221              		.size	SPIS_1_SetRxInterruptMode, .-SPIS_1_SetRxInterruptMode
 222              		.section	.text.SPIS_1_ReadTxStatus,"ax",%progbits
 223              		.align	2
 224              		.global	SPIS_1_ReadTxStatus
 225              		.thumb
 226              		.thumb_func
 227              		.type	SPIS_1_ReadTxStatus, %function
 228              	SPIS_1_ReadTxStatus:
 229              	.LFB10:
 381:.\Generated_Source\PSoC5/SPIS_1.c **** }
 382:.\Generated_Source\PSoC5/SPIS_1.c **** 
 383:.\Generated_Source\PSoC5/SPIS_1.c **** 
 384:.\Generated_Source\PSoC5/SPIS_1.c **** /*******************************************************************************
 385:.\Generated_Source\PSoC5/SPIS_1.c **** * Function Name: SPIS_1_ReadTxStatus
 386:.\Generated_Source\PSoC5/SPIS_1.c **** ********************************************************************************
 387:.\Generated_Source\PSoC5/SPIS_1.c **** *
 388:.\Generated_Source\PSoC5/SPIS_1.c **** * Summary:
 389:.\Generated_Source\PSoC5/SPIS_1.c **** *  Read the Tx status register for the component.
 390:.\Generated_Source\PSoC5/SPIS_1.c **** *
 391:.\Generated_Source\PSoC5/SPIS_1.c **** * Parameters:
 392:.\Generated_Source\PSoC5/SPIS_1.c **** *  None.
 393:.\Generated_Source\PSoC5/SPIS_1.c **** *
 394:.\Generated_Source\PSoC5/SPIS_1.c **** * Return:
 395:.\Generated_Source\PSoC5/SPIS_1.c **** *  Contents of the Tx status register.
 396:.\Generated_Source\PSoC5/SPIS_1.c **** *
 397:.\Generated_Source\PSoC5/SPIS_1.c **** * Global variables:
 398:.\Generated_Source\PSoC5/SPIS_1.c **** *  SPIS_1_swStatusTx - used to store in software status register,
ARM GAS  C:\Users\DGILLI~1\AppData\Local\Temp\ccZqqpmp.s 			page 12


 399:.\Generated_Source\PSoC5/SPIS_1.c **** *  modified every function call - resets to zero.
 400:.\Generated_Source\PSoC5/SPIS_1.c **** *
 401:.\Generated_Source\PSoC5/SPIS_1.c **** * Theory:
 402:.\Generated_Source\PSoC5/SPIS_1.c **** *  Allows the user and the API to read the Tx status register for error
 403:.\Generated_Source\PSoC5/SPIS_1.c **** *  detection and flow control.
 404:.\Generated_Source\PSoC5/SPIS_1.c **** *
 405:.\Generated_Source\PSoC5/SPIS_1.c **** * Side Effects:
 406:.\Generated_Source\PSoC5/SPIS_1.c **** *  Clear Tx status register of the component.
 407:.\Generated_Source\PSoC5/SPIS_1.c **** *
 408:.\Generated_Source\PSoC5/SPIS_1.c **** * Reentrant:
 409:.\Generated_Source\PSoC5/SPIS_1.c **** *  No.
 410:.\Generated_Source\PSoC5/SPIS_1.c **** *
 411:.\Generated_Source\PSoC5/SPIS_1.c **** *******************************************************************************/
 412:.\Generated_Source\PSoC5/SPIS_1.c **** uint8 SPIS_1_ReadTxStatus(void) 
 413:.\Generated_Source\PSoC5/SPIS_1.c **** {
 230              		.loc 1 413 0
 231              		.cfi_startproc
 232              		@ args = 0, pretend = 0, frame = 0
 233              		@ frame_needed = 0, uses_anonymous_args = 0
 234              		@ link register save eliminated.
 414:.\Generated_Source\PSoC5/SPIS_1.c ****     uint8 tmpStatus;
 415:.\Generated_Source\PSoC5/SPIS_1.c **** 
 416:.\Generated_Source\PSoC5/SPIS_1.c ****     #if (SPIS_1_TX_SOFTWARE_BUF_ENABLED)
 417:.\Generated_Source\PSoC5/SPIS_1.c **** 
 418:.\Generated_Source\PSoC5/SPIS_1.c ****         SPIS_1_DisableTxInt();
 419:.\Generated_Source\PSoC5/SPIS_1.c **** 
 420:.\Generated_Source\PSoC5/SPIS_1.c ****         tmpStatus = SPIS_1_GET_STATUS_TX(SPIS_1_swStatusTx);
 421:.\Generated_Source\PSoC5/SPIS_1.c **** 
 422:.\Generated_Source\PSoC5/SPIS_1.c ****         SPIS_1_swStatusTx = 0u;
 423:.\Generated_Source\PSoC5/SPIS_1.c **** 
 424:.\Generated_Source\PSoC5/SPIS_1.c ****         /* Enable Interrupts */
 425:.\Generated_Source\PSoC5/SPIS_1.c ****         SPIS_1_EnableTxInt();
 426:.\Generated_Source\PSoC5/SPIS_1.c **** 
 427:.\Generated_Source\PSoC5/SPIS_1.c ****     #else /* !SPIS_1_TX_SOFTWARE_BUF_ENABLED */
 428:.\Generated_Source\PSoC5/SPIS_1.c **** 
 429:.\Generated_Source\PSoC5/SPIS_1.c ****         tmpStatus = SPIS_1_TX_STATUS_REG;
 235              		.loc 1 429 0
 236 0000 014B     		ldr	r3, .L20
 237 0002 1878     		ldrb	r0, [r3]	@ zero_extendqisi2
 238              	.LVL6:
 430:.\Generated_Source\PSoC5/SPIS_1.c **** 
 431:.\Generated_Source\PSoC5/SPIS_1.c ****     #endif /* SPIS_1_TX_SOFTWARE_BUF_ENABLED */
 432:.\Generated_Source\PSoC5/SPIS_1.c **** 
 433:.\Generated_Source\PSoC5/SPIS_1.c ****     return(tmpStatus);
 434:.\Generated_Source\PSoC5/SPIS_1.c **** }
 239              		.loc 1 434 0
 240 0004 7047     		bx	lr
 241              	.L21:
 242 0006 00BF     		.align	2
 243              	.L20:
 244 0008 67650040 		.word	1073767783
 245              		.cfi_endproc
 246              	.LFE10:
 247              		.size	SPIS_1_ReadTxStatus, .-SPIS_1_ReadTxStatus
 248              		.section	.text.SPIS_1_ReadRxStatus,"ax",%progbits
 249              		.align	2
 250              		.global	SPIS_1_ReadRxStatus
ARM GAS  C:\Users\DGILLI~1\AppData\Local\Temp\ccZqqpmp.s 			page 13


 251              		.thumb
 252              		.thumb_func
 253              		.type	SPIS_1_ReadRxStatus, %function
 254              	SPIS_1_ReadRxStatus:
 255              	.LFB11:
 435:.\Generated_Source\PSoC5/SPIS_1.c **** 
 436:.\Generated_Source\PSoC5/SPIS_1.c **** 
 437:.\Generated_Source\PSoC5/SPIS_1.c **** /*******************************************************************************
 438:.\Generated_Source\PSoC5/SPIS_1.c **** * Function Name: SPIS_1_ReadRxStatus
 439:.\Generated_Source\PSoC5/SPIS_1.c **** ********************************************************************************
 440:.\Generated_Source\PSoC5/SPIS_1.c **** *
 441:.\Generated_Source\PSoC5/SPIS_1.c **** * Summary:
 442:.\Generated_Source\PSoC5/SPIS_1.c **** *  Read the Rx status register for the component.
 443:.\Generated_Source\PSoC5/SPIS_1.c **** *
 444:.\Generated_Source\PSoC5/SPIS_1.c **** * Parameters:
 445:.\Generated_Source\PSoC5/SPIS_1.c **** *  None.
 446:.\Generated_Source\PSoC5/SPIS_1.c **** *
 447:.\Generated_Source\PSoC5/SPIS_1.c **** * Return:
 448:.\Generated_Source\PSoC5/SPIS_1.c **** *  Contents of the Rx status register.
 449:.\Generated_Source\PSoC5/SPIS_1.c **** *
 450:.\Generated_Source\PSoC5/SPIS_1.c **** * Global variables:
 451:.\Generated_Source\PSoC5/SPIS_1.c **** *  SPIS_1_swStatusRx - used to store in software Rx status register,
 452:.\Generated_Source\PSoC5/SPIS_1.c **** *  modified every function call - resets to zero.
 453:.\Generated_Source\PSoC5/SPIS_1.c **** *
 454:.\Generated_Source\PSoC5/SPIS_1.c **** * Theory:
 455:.\Generated_Source\PSoC5/SPIS_1.c **** *  Allows the user and the API to read the Rx status register for error
 456:.\Generated_Source\PSoC5/SPIS_1.c **** *  detection and flow control.
 457:.\Generated_Source\PSoC5/SPIS_1.c **** *
 458:.\Generated_Source\PSoC5/SPIS_1.c **** * Side Effects:
 459:.\Generated_Source\PSoC5/SPIS_1.c **** *  Clear Rx status register of the component.
 460:.\Generated_Source\PSoC5/SPIS_1.c **** *
 461:.\Generated_Source\PSoC5/SPIS_1.c **** * Reentrant:
 462:.\Generated_Source\PSoC5/SPIS_1.c **** *  No.
 463:.\Generated_Source\PSoC5/SPIS_1.c **** *
 464:.\Generated_Source\PSoC5/SPIS_1.c **** *******************************************************************************/
 465:.\Generated_Source\PSoC5/SPIS_1.c **** uint8 SPIS_1_ReadRxStatus(void) 
 466:.\Generated_Source\PSoC5/SPIS_1.c **** {
 256              		.loc 1 466 0
 257              		.cfi_startproc
 258              		@ args = 0, pretend = 0, frame = 0
 259              		@ frame_needed = 0, uses_anonymous_args = 0
 260              		@ link register save eliminated.
 467:.\Generated_Source\PSoC5/SPIS_1.c ****     uint8 tmpStatus;
 468:.\Generated_Source\PSoC5/SPIS_1.c **** 
 469:.\Generated_Source\PSoC5/SPIS_1.c ****     #if (SPIS_1_RX_SOFTWARE_BUF_ENABLED)
 470:.\Generated_Source\PSoC5/SPIS_1.c **** 
 471:.\Generated_Source\PSoC5/SPIS_1.c ****         SPIS_1_DisableRxInt();
 472:.\Generated_Source\PSoC5/SPIS_1.c **** 
 473:.\Generated_Source\PSoC5/SPIS_1.c ****         tmpStatus = SPIS_1_GET_STATUS_RX(SPIS_1_swStatusRx);
 474:.\Generated_Source\PSoC5/SPIS_1.c **** 
 475:.\Generated_Source\PSoC5/SPIS_1.c ****         SPIS_1_swStatusRx = 0u;
 476:.\Generated_Source\PSoC5/SPIS_1.c **** 
 477:.\Generated_Source\PSoC5/SPIS_1.c ****         /* Enable Interrupts */
 478:.\Generated_Source\PSoC5/SPIS_1.c ****         SPIS_1_EnableRxInt();
 479:.\Generated_Source\PSoC5/SPIS_1.c **** 
 480:.\Generated_Source\PSoC5/SPIS_1.c ****     #else /* !SPIS_1_RX_SOFTWARE_BUF_ENABLED */
 481:.\Generated_Source\PSoC5/SPIS_1.c **** 
ARM GAS  C:\Users\DGILLI~1\AppData\Local\Temp\ccZqqpmp.s 			page 14


 482:.\Generated_Source\PSoC5/SPIS_1.c ****         tmpStatus = SPIS_1_RX_STATUS_REG;
 261              		.loc 1 482 0
 262 0000 014B     		ldr	r3, .L23
 263 0002 1878     		ldrb	r0, [r3]	@ zero_extendqisi2
 264              	.LVL7:
 483:.\Generated_Source\PSoC5/SPIS_1.c **** 
 484:.\Generated_Source\PSoC5/SPIS_1.c ****     #endif /* SPIS_1_RX_SOFTWARE_BUF_ENABLED */
 485:.\Generated_Source\PSoC5/SPIS_1.c **** 
 486:.\Generated_Source\PSoC5/SPIS_1.c ****     return(tmpStatus);
 487:.\Generated_Source\PSoC5/SPIS_1.c **** }
 265              		.loc 1 487 0
 266 0004 7047     		bx	lr
 267              	.L24:
 268 0006 00BF     		.align	2
 269              	.L23:
 270 0008 66640040 		.word	1073767526
 271              		.cfi_endproc
 272              	.LFE11:
 273              		.size	SPIS_1_ReadRxStatus, .-SPIS_1_ReadRxStatus
 274              		.section	.text.SPIS_1_WriteTxData,"ax",%progbits
 275              		.align	2
 276              		.global	SPIS_1_WriteTxData
 277              		.thumb
 278              		.thumb_func
 279              		.type	SPIS_1_WriteTxData, %function
 280              	SPIS_1_WriteTxData:
 281              	.LFB12:
 488:.\Generated_Source\PSoC5/SPIS_1.c **** 
 489:.\Generated_Source\PSoC5/SPIS_1.c **** 
 490:.\Generated_Source\PSoC5/SPIS_1.c **** /*******************************************************************************
 491:.\Generated_Source\PSoC5/SPIS_1.c **** * Function Name: SPIS_1_WriteTxData
 492:.\Generated_Source\PSoC5/SPIS_1.c **** ********************************************************************************
 493:.\Generated_Source\PSoC5/SPIS_1.c **** *
 494:.\Generated_Source\PSoC5/SPIS_1.c **** * Summary:
 495:.\Generated_Source\PSoC5/SPIS_1.c **** *  Write a byte of data to be sent across the SPI.
 496:.\Generated_Source\PSoC5/SPIS_1.c **** *
 497:.\Generated_Source\PSoC5/SPIS_1.c **** * Parameters:
 498:.\Generated_Source\PSoC5/SPIS_1.c **** *  txDataByte: The data value to send across the SPI.
 499:.\Generated_Source\PSoC5/SPIS_1.c **** *
 500:.\Generated_Source\PSoC5/SPIS_1.c **** * Return:
 501:.\Generated_Source\PSoC5/SPIS_1.c **** *  None.
 502:.\Generated_Source\PSoC5/SPIS_1.c **** *
 503:.\Generated_Source\PSoC5/SPIS_1.c **** * Global variables:
 504:.\Generated_Source\PSoC5/SPIS_1.c **** *  SPIS_1_txBufferWrite - used for the account of the bytes which
 505:.\Generated_Source\PSoC5/SPIS_1.c **** *  have been written down in the TX software buffer, modified every function
 506:.\Generated_Source\PSoC5/SPIS_1.c **** *  call if TX Software Buffer is used.
 507:.\Generated_Source\PSoC5/SPIS_1.c **** *  SPIS_1_txBufferRead - used for the account of the bytes which
 508:.\Generated_Source\PSoC5/SPIS_1.c **** *  have been read from the TX software buffer.
 509:.\Generated_Source\PSoC5/SPIS_1.c **** *  SPIS_1_txBuffer[SPIS_1_TX_BUFFER_SIZE] - used to store
 510:.\Generated_Source\PSoC5/SPIS_1.c **** *  data to sending, modified every function call if TX Software Buffer is used.
 511:.\Generated_Source\PSoC5/SPIS_1.c **** *
 512:.\Generated_Source\PSoC5/SPIS_1.c **** * Theory:
 513:.\Generated_Source\PSoC5/SPIS_1.c **** *  Allows the user to transmit any byte of data in a single transfer.
 514:.\Generated_Source\PSoC5/SPIS_1.c **** *
 515:.\Generated_Source\PSoC5/SPIS_1.c **** * Side Effects:
 516:.\Generated_Source\PSoC5/SPIS_1.c **** *  If this function is called again before the previous byte is finished then
 517:.\Generated_Source\PSoC5/SPIS_1.c **** *  the next byte will be appended to the transfer with no time between
ARM GAS  C:\Users\DGILLI~1\AppData\Local\Temp\ccZqqpmp.s 			page 15


 518:.\Generated_Source\PSoC5/SPIS_1.c **** *  the byte transfers. Clear Tx status register of the component.
 519:.\Generated_Source\PSoC5/SPIS_1.c **** *
 520:.\Generated_Source\PSoC5/SPIS_1.c **** * Reentrant:
 521:.\Generated_Source\PSoC5/SPIS_1.c **** *  No.
 522:.\Generated_Source\PSoC5/SPIS_1.c **** *
 523:.\Generated_Source\PSoC5/SPIS_1.c **** *******************************************************************************/
 524:.\Generated_Source\PSoC5/SPIS_1.c **** void SPIS_1_WriteTxData(uint8 txData) 
 525:.\Generated_Source\PSoC5/SPIS_1.c **** {
 282              		.loc 1 525 0
 283              		.cfi_startproc
 284              		@ args = 0, pretend = 0, frame = 0
 285              		@ frame_needed = 0, uses_anonymous_args = 0
 286              		@ link register save eliminated.
 287              	.LVL8:
 288              	.L26:
 526:.\Generated_Source\PSoC5/SPIS_1.c ****     #if(SPIS_1_TX_SOFTWARE_BUF_ENABLED)
 527:.\Generated_Source\PSoC5/SPIS_1.c **** 
 528:.\Generated_Source\PSoC5/SPIS_1.c ****         uint8 tempStatus;
 529:.\Generated_Source\PSoC5/SPIS_1.c ****         uint8 tmpTxBufferRead;
 530:.\Generated_Source\PSoC5/SPIS_1.c **** 
 531:.\Generated_Source\PSoC5/SPIS_1.c ****         /* Block if buffer is full, so we don't overwrite. */
 532:.\Generated_Source\PSoC5/SPIS_1.c ****         do
 533:.\Generated_Source\PSoC5/SPIS_1.c ****         {
 534:.\Generated_Source\PSoC5/SPIS_1.c ****             tmpTxBufferRead = SPIS_1_txBufferRead;
 535:.\Generated_Source\PSoC5/SPIS_1.c ****             if (0u == tmpTxBufferRead)
 536:.\Generated_Source\PSoC5/SPIS_1.c ****             {
 537:.\Generated_Source\PSoC5/SPIS_1.c ****                 tmpTxBufferRead = SPIS_1_TX_BUFFER_SIZE - 1u;
 538:.\Generated_Source\PSoC5/SPIS_1.c ****             }
 539:.\Generated_Source\PSoC5/SPIS_1.c ****             else
 540:.\Generated_Source\PSoC5/SPIS_1.c ****             {
 541:.\Generated_Source\PSoC5/SPIS_1.c ****                 tmpTxBufferRead--;
 542:.\Generated_Source\PSoC5/SPIS_1.c ****             }
 543:.\Generated_Source\PSoC5/SPIS_1.c **** 
 544:.\Generated_Source\PSoC5/SPIS_1.c ****         }
 545:.\Generated_Source\PSoC5/SPIS_1.c ****         while(tmpTxBufferRead == SPIS_1_txBufferWrite);
 546:.\Generated_Source\PSoC5/SPIS_1.c **** 
 547:.\Generated_Source\PSoC5/SPIS_1.c ****         /* Disable Interrupt to protect variables that could change on interrupt. */
 548:.\Generated_Source\PSoC5/SPIS_1.c ****         SPIS_1_DisableTxInt();
 549:.\Generated_Source\PSoC5/SPIS_1.c **** 
 550:.\Generated_Source\PSoC5/SPIS_1.c ****         tempStatus = SPIS_1_GET_STATUS_TX(SPIS_1_swStatusTx);
 551:.\Generated_Source\PSoC5/SPIS_1.c ****         SPIS_1_swStatusTx = tempStatus;
 552:.\Generated_Source\PSoC5/SPIS_1.c **** 
 553:.\Generated_Source\PSoC5/SPIS_1.c ****         if((SPIS_1_txBufferRead == SPIS_1_txBufferWrite) &&
 554:.\Generated_Source\PSoC5/SPIS_1.c ****             (0u != (SPIS_1_swStatusTx & SPIS_1_STS_TX_FIFO_NOT_FULL)))
 555:.\Generated_Source\PSoC5/SPIS_1.c ****         {
 556:.\Generated_Source\PSoC5/SPIS_1.c ****             /* Put data element into the TX FIFO */
 557:.\Generated_Source\PSoC5/SPIS_1.c ****             CY_SET_REG8(SPIS_1_TXDATA_PTR, txData);
 558:.\Generated_Source\PSoC5/SPIS_1.c ****         }
 559:.\Generated_Source\PSoC5/SPIS_1.c ****         else
 560:.\Generated_Source\PSoC5/SPIS_1.c ****         {
 561:.\Generated_Source\PSoC5/SPIS_1.c ****             /* Put data element into the software buffer */
 562:.\Generated_Source\PSoC5/SPIS_1.c ****             SPIS_1_txBufferWrite++;
 563:.\Generated_Source\PSoC5/SPIS_1.c ****             if(SPIS_1_txBufferWrite >= SPIS_1_TX_BUFFER_SIZE)
 564:.\Generated_Source\PSoC5/SPIS_1.c ****             {
 565:.\Generated_Source\PSoC5/SPIS_1.c ****                 SPIS_1_txBufferWrite = 0u;
 566:.\Generated_Source\PSoC5/SPIS_1.c ****             }
 567:.\Generated_Source\PSoC5/SPIS_1.c **** 
ARM GAS  C:\Users\DGILLI~1\AppData\Local\Temp\ccZqqpmp.s 			page 16


 568:.\Generated_Source\PSoC5/SPIS_1.c ****             if(SPIS_1_txBufferWrite == SPIS_1_txBufferRead)
 569:.\Generated_Source\PSoC5/SPIS_1.c ****             {
 570:.\Generated_Source\PSoC5/SPIS_1.c ****                 SPIS_1_txBufferRead++;
 571:.\Generated_Source\PSoC5/SPIS_1.c ****                 if(SPIS_1_txBufferRead >= SPIS_1_RX_BUFFER_SIZE)
 572:.\Generated_Source\PSoC5/SPIS_1.c ****                 {
 573:.\Generated_Source\PSoC5/SPIS_1.c ****                     SPIS_1_txBufferRead = 0u;
 574:.\Generated_Source\PSoC5/SPIS_1.c ****                 }
 575:.\Generated_Source\PSoC5/SPIS_1.c ****                 SPIS_1_txBufferFull = 1u;
 576:.\Generated_Source\PSoC5/SPIS_1.c ****             }
 577:.\Generated_Source\PSoC5/SPIS_1.c **** 
 578:.\Generated_Source\PSoC5/SPIS_1.c ****             SPIS_1_txBuffer[SPIS_1_txBufferWrite] = txData;
 579:.\Generated_Source\PSoC5/SPIS_1.c **** 
 580:.\Generated_Source\PSoC5/SPIS_1.c ****             SPIS_1_TX_STATUS_MASK_REG |= SPIS_1_STS_TX_FIFO_NOT_FULL;
 581:.\Generated_Source\PSoC5/SPIS_1.c ****         }
 582:.\Generated_Source\PSoC5/SPIS_1.c **** 
 583:.\Generated_Source\PSoC5/SPIS_1.c ****         /* Enable Interrupt. */
 584:.\Generated_Source\PSoC5/SPIS_1.c ****         SPIS_1_EnableTxInt();
 585:.\Generated_Source\PSoC5/SPIS_1.c **** 
 586:.\Generated_Source\PSoC5/SPIS_1.c ****     #else /* !SPIS_1_TX_SOFTWARE_BUF_ENABLED */
 587:.\Generated_Source\PSoC5/SPIS_1.c ****         /* Wait until TX FIFO has a place */
 588:.\Generated_Source\PSoC5/SPIS_1.c ****         while(0u == (SPIS_1_TX_STATUS_REG & SPIS_1_STS_TX_FIFO_NOT_FULL))
 289              		.loc 1 588 0 discriminator 1
 290 0000 034B     		ldr	r3, .L27
 291 0002 1B78     		ldrb	r3, [r3]	@ zero_extendqisi2
 292 0004 13F0020F 		tst	r3, #2
 293 0008 FAD0     		beq	.L26
 589:.\Generated_Source\PSoC5/SPIS_1.c ****         {
 590:.\Generated_Source\PSoC5/SPIS_1.c ****         }
 591:.\Generated_Source\PSoC5/SPIS_1.c **** 
 592:.\Generated_Source\PSoC5/SPIS_1.c ****         /* Put data element into the TX FIFO */
 593:.\Generated_Source\PSoC5/SPIS_1.c ****         CY_SET_REG8(SPIS_1_TXDATA_PTR, txData);
 294              		.loc 1 593 0
 295 000a 024B     		ldr	r3, .L27+4
 296 000c 1870     		strb	r0, [r3]
 297 000e 7047     		bx	lr
 298              	.L28:
 299              		.align	2
 300              	.L27:
 301 0010 67650040 		.word	1073767783
 302 0014 46650040 		.word	1073767750
 303              		.cfi_endproc
 304              	.LFE12:
 305              		.size	SPIS_1_WriteTxData, .-SPIS_1_WriteTxData
 306              		.section	.text.SPIS_1_WriteTxDataZero,"ax",%progbits
 307              		.align	2
 308              		.global	SPIS_1_WriteTxDataZero
 309              		.thumb
 310              		.thumb_func
 311              		.type	SPIS_1_WriteTxDataZero, %function
 312              	SPIS_1_WriteTxDataZero:
 313              	.LFB13:
 594:.\Generated_Source\PSoC5/SPIS_1.c ****         
 595:.\Generated_Source\PSoC5/SPIS_1.c ****     #endif /* SPIS_1_TX_SOFTWARE_BUF_ENABLED */
 596:.\Generated_Source\PSoC5/SPIS_1.c **** }
 597:.\Generated_Source\PSoC5/SPIS_1.c **** 
 598:.\Generated_Source\PSoC5/SPIS_1.c **** #if(SPIS_1_MODE_USE_ZERO != 0u)
 599:.\Generated_Source\PSoC5/SPIS_1.c **** 
ARM GAS  C:\Users\DGILLI~1\AppData\Local\Temp\ccZqqpmp.s 			page 17


 600:.\Generated_Source\PSoC5/SPIS_1.c ****     /*******************************************************************************
 601:.\Generated_Source\PSoC5/SPIS_1.c ****     * Function Name: SPIS_1_WriteTxDataZero
 602:.\Generated_Source\PSoC5/SPIS_1.c ****     ********************************************************************************
 603:.\Generated_Source\PSoC5/SPIS_1.c ****     *
 604:.\Generated_Source\PSoC5/SPIS_1.c ****     * Summary:
 605:.\Generated_Source\PSoC5/SPIS_1.c ****     *  Write a byte zero of data to be sent across the SPI. This must be used in
 606:.\Generated_Source\PSoC5/SPIS_1.c ****     *  Mode 00 and 01 if the FIFO is empty and data is not being sent.
 607:.\Generated_Source\PSoC5/SPIS_1.c ****     *
 608:.\Generated_Source\PSoC5/SPIS_1.c ****     * Parameters:
 609:.\Generated_Source\PSoC5/SPIS_1.c ****     *  txDataByte: The data value to send across the SPI.
 610:.\Generated_Source\PSoC5/SPIS_1.c ****     *
 611:.\Generated_Source\PSoC5/SPIS_1.c ****     * Return:
 612:.\Generated_Source\PSoC5/SPIS_1.c ****     *  None.
 613:.\Generated_Source\PSoC5/SPIS_1.c ****     *
 614:.\Generated_Source\PSoC5/SPIS_1.c ****     * Theory:
 615:.\Generated_Source\PSoC5/SPIS_1.c ****     *  Allows the user to transmit any byte of data in a single transfer. Clear
 616:.\Generated_Source\PSoC5/SPIS_1.c ****     *  status register of the component.
 617:.\Generated_Source\PSoC5/SPIS_1.c ****     *
 618:.\Generated_Source\PSoC5/SPIS_1.c ****     *******************************************************************************/
 619:.\Generated_Source\PSoC5/SPIS_1.c ****     void SPIS_1_WriteTxDataZero(uint8 txDataByte)
 620:.\Generated_Source\PSoC5/SPIS_1.c ****                                         
 621:.\Generated_Source\PSoC5/SPIS_1.c ****     {
 314              		.loc 1 621 0
 315              		.cfi_startproc
 316              		@ args = 0, pretend = 0, frame = 0
 317              		@ frame_needed = 0, uses_anonymous_args = 0
 318              		@ link register save eliminated.
 319              	.LVL9:
 622:.\Generated_Source\PSoC5/SPIS_1.c ****         CY_SET_REG8(SPIS_1_TXDATA_ZERO_PTR, txDataByte);
 320              		.loc 1 622 0
 321 0000 014B     		ldr	r3, .L30
 322 0002 1870     		strb	r0, [r3]
 323 0004 7047     		bx	lr
 324              	.L31:
 325 0006 00BF     		.align	2
 326              	.L30:
 327 0008 06650040 		.word	1073767686
 328              		.cfi_endproc
 329              	.LFE13:
 330              		.size	SPIS_1_WriteTxDataZero, .-SPIS_1_WriteTxDataZero
 331              		.section	.text.SPIS_1_ReadRxData,"ax",%progbits
 332              		.align	2
 333              		.global	SPIS_1_ReadRxData
 334              		.thumb
 335              		.thumb_func
 336              		.type	SPIS_1_ReadRxData, %function
 337              	SPIS_1_ReadRxData:
 338              	.LFB14:
 623:.\Generated_Source\PSoC5/SPIS_1.c ****     }
 624:.\Generated_Source\PSoC5/SPIS_1.c **** 
 625:.\Generated_Source\PSoC5/SPIS_1.c **** #endif /* (SPIS_1_MODE_USE_ZERO != 0u) */
 626:.\Generated_Source\PSoC5/SPIS_1.c **** 
 627:.\Generated_Source\PSoC5/SPIS_1.c **** 
 628:.\Generated_Source\PSoC5/SPIS_1.c **** /*******************************************************************************
 629:.\Generated_Source\PSoC5/SPIS_1.c **** * Function Name: SPIS_1_ReadRxData
 630:.\Generated_Source\PSoC5/SPIS_1.c **** ********************************************************************************
 631:.\Generated_Source\PSoC5/SPIS_1.c **** *
ARM GAS  C:\Users\DGILLI~1\AppData\Local\Temp\ccZqqpmp.s 			page 18


 632:.\Generated_Source\PSoC5/SPIS_1.c **** * Summary:
 633:.\Generated_Source\PSoC5/SPIS_1.c **** *  Read the next byte of data received across the SPI.
 634:.\Generated_Source\PSoC5/SPIS_1.c **** *
 635:.\Generated_Source\PSoC5/SPIS_1.c **** * Parameters:
 636:.\Generated_Source\PSoC5/SPIS_1.c **** *  None.
 637:.\Generated_Source\PSoC5/SPIS_1.c **** *
 638:.\Generated_Source\PSoC5/SPIS_1.c **** * Return:
 639:.\Generated_Source\PSoC5/SPIS_1.c **** *  The next byte of data read from the FIFO.
 640:.\Generated_Source\PSoC5/SPIS_1.c **** *
 641:.\Generated_Source\PSoC5/SPIS_1.c **** * Global variables:
 642:.\Generated_Source\PSoC5/SPIS_1.c **** *  SPIS_1_rxBufferWrite - used for the account of the bytes which
 643:.\Generated_Source\PSoC5/SPIS_1.c **** *  have been written down in the RX software buffer.
 644:.\Generated_Source\PSoC5/SPIS_1.c **** *  SPIS_1_rxBufferRead - used for the account of the bytes which
 645:.\Generated_Source\PSoC5/SPIS_1.c **** *  have been read from the RX software buffer, modified every function
 646:.\Generated_Source\PSoC5/SPIS_1.c **** *  call if RX Software Buffer is used.
 647:.\Generated_Source\PSoC5/SPIS_1.c **** *  SPIS_1_rxBuffer[SPIS_1_RX_BUFFER_SIZE] - used to store
 648:.\Generated_Source\PSoC5/SPIS_1.c **** *  received data.
 649:.\Generated_Source\PSoC5/SPIS_1.c **** *
 650:.\Generated_Source\PSoC5/SPIS_1.c **** * Theory:
 651:.\Generated_Source\PSoC5/SPIS_1.c **** *  Allows the user to read a byte of data received.
 652:.\Generated_Source\PSoC5/SPIS_1.c **** *
 653:.\Generated_Source\PSoC5/SPIS_1.c **** * Side Effects:
 654:.\Generated_Source\PSoC5/SPIS_1.c **** *  Will return invalid data if the FIFO is empty.  User should poll for FIFO
 655:.\Generated_Source\PSoC5/SPIS_1.c **** *  empty status before calling Read function.
 656:.\Generated_Source\PSoC5/SPIS_1.c **** *
 657:.\Generated_Source\PSoC5/SPIS_1.c **** * Reentrant:
 658:.\Generated_Source\PSoC5/SPIS_1.c **** *  No.
 659:.\Generated_Source\PSoC5/SPIS_1.c **** *
 660:.\Generated_Source\PSoC5/SPIS_1.c **** *******************************************************************************/
 661:.\Generated_Source\PSoC5/SPIS_1.c **** uint8 SPIS_1_ReadRxData(void) 
 662:.\Generated_Source\PSoC5/SPIS_1.c **** {
 339              		.loc 1 662 0
 340              		.cfi_startproc
 341              		@ args = 0, pretend = 0, frame = 0
 342              		@ frame_needed = 0, uses_anonymous_args = 0
 343              		@ link register save eliminated.
 663:.\Generated_Source\PSoC5/SPIS_1.c ****     uint8 rxData;
 664:.\Generated_Source\PSoC5/SPIS_1.c **** 
 665:.\Generated_Source\PSoC5/SPIS_1.c ****     #if(SPIS_1_RX_SOFTWARE_BUF_ENABLED)
 666:.\Generated_Source\PSoC5/SPIS_1.c **** 
 667:.\Generated_Source\PSoC5/SPIS_1.c ****         /* Disable Interrupt to protect variables that could change on interrupt. */
 668:.\Generated_Source\PSoC5/SPIS_1.c ****         SPIS_1_DisableRxInt();
 669:.\Generated_Source\PSoC5/SPIS_1.c **** 
 670:.\Generated_Source\PSoC5/SPIS_1.c ****         if(SPIS_1_rxBufferRead != SPIS_1_rxBufferWrite)
 671:.\Generated_Source\PSoC5/SPIS_1.c ****         {
 672:.\Generated_Source\PSoC5/SPIS_1.c ****             if(SPIS_1_rxBufferFull == 0u)
 673:.\Generated_Source\PSoC5/SPIS_1.c ****             {
 674:.\Generated_Source\PSoC5/SPIS_1.c ****                 SPIS_1_rxBufferRead++;
 675:.\Generated_Source\PSoC5/SPIS_1.c ****                 if(SPIS_1_rxBufferRead >= SPIS_1_RX_BUFFER_SIZE)
 676:.\Generated_Source\PSoC5/SPIS_1.c ****                 {
 677:.\Generated_Source\PSoC5/SPIS_1.c ****                     SPIS_1_rxBufferRead = 0u;
 678:.\Generated_Source\PSoC5/SPIS_1.c ****                 }
 679:.\Generated_Source\PSoC5/SPIS_1.c ****             }
 680:.\Generated_Source\PSoC5/SPIS_1.c ****             else
 681:.\Generated_Source\PSoC5/SPIS_1.c ****             {
 682:.\Generated_Source\PSoC5/SPIS_1.c ****                 SPIS_1_rxBufferFull = 0u;
 683:.\Generated_Source\PSoC5/SPIS_1.c ****             }
ARM GAS  C:\Users\DGILLI~1\AppData\Local\Temp\ccZqqpmp.s 			page 19


 684:.\Generated_Source\PSoC5/SPIS_1.c ****         }
 685:.\Generated_Source\PSoC5/SPIS_1.c **** 
 686:.\Generated_Source\PSoC5/SPIS_1.c ****         rxData = SPIS_1_rxBuffer[SPIS_1_rxBufferRead];
 687:.\Generated_Source\PSoC5/SPIS_1.c **** 
 688:.\Generated_Source\PSoC5/SPIS_1.c ****         /* Enable Interrupt. */
 689:.\Generated_Source\PSoC5/SPIS_1.c ****         SPIS_1_EnableRxInt();
 690:.\Generated_Source\PSoC5/SPIS_1.c **** 
 691:.\Generated_Source\PSoC5/SPIS_1.c ****     #else /* !SPIS_1_RX_SOFTWARE_BUF_ENABLED */
 692:.\Generated_Source\PSoC5/SPIS_1.c **** 
 693:.\Generated_Source\PSoC5/SPIS_1.c ****         rxData = CY_GET_REG8(SPIS_1_RXDATA_PTR);
 344              		.loc 1 693 0
 345 0000 014B     		ldr	r3, .L33
 346 0002 1878     		ldrb	r0, [r3]	@ zero_extendqisi2
 347              	.LVL10:
 694:.\Generated_Source\PSoC5/SPIS_1.c **** 
 695:.\Generated_Source\PSoC5/SPIS_1.c ****     #endif /* SPIS_1_RX_SOFTWARE_BUF_ENABLED */
 696:.\Generated_Source\PSoC5/SPIS_1.c **** 
 697:.\Generated_Source\PSoC5/SPIS_1.c ****     return (rxData);
 698:.\Generated_Source\PSoC5/SPIS_1.c **** 
 699:.\Generated_Source\PSoC5/SPIS_1.c **** }
 348              		.loc 1 699 0
 349 0004 7047     		bx	lr
 350              	.L34:
 351 0006 00BF     		.align	2
 352              	.L33:
 353 0008 56650040 		.word	1073767766
 354              		.cfi_endproc
 355              	.LFE14:
 356              		.size	SPIS_1_ReadRxData, .-SPIS_1_ReadRxData
 357              		.section	.text.SPIS_1_GetRxBufferSize,"ax",%progbits
 358              		.align	2
 359              		.global	SPIS_1_GetRxBufferSize
 360              		.thumb
 361              		.thumb_func
 362              		.type	SPIS_1_GetRxBufferSize, %function
 363              	SPIS_1_GetRxBufferSize:
 364              	.LFB15:
 700:.\Generated_Source\PSoC5/SPIS_1.c **** 
 701:.\Generated_Source\PSoC5/SPIS_1.c **** 
 702:.\Generated_Source\PSoC5/SPIS_1.c **** /*******************************************************************************
 703:.\Generated_Source\PSoC5/SPIS_1.c **** * Function Name: SPIS_1_GetRxBufferSize
 704:.\Generated_Source\PSoC5/SPIS_1.c **** ********************************************************************************
 705:.\Generated_Source\PSoC5/SPIS_1.c **** *
 706:.\Generated_Source\PSoC5/SPIS_1.c **** * Summary:
 707:.\Generated_Source\PSoC5/SPIS_1.c **** *  Returns the number of bytes/words of data currently held in the RX buffer.
 708:.\Generated_Source\PSoC5/SPIS_1.c **** *  If RX Software Buffer not used then function return 0 if FIFO empty or 1 if
 709:.\Generated_Source\PSoC5/SPIS_1.c **** *  FIFO not empty. In another case function return size of RX Software Buffer.
 710:.\Generated_Source\PSoC5/SPIS_1.c **** *
 711:.\Generated_Source\PSoC5/SPIS_1.c **** * Parameters:
 712:.\Generated_Source\PSoC5/SPIS_1.c **** *  None.
 713:.\Generated_Source\PSoC5/SPIS_1.c **** *
 714:.\Generated_Source\PSoC5/SPIS_1.c **** * Return:
 715:.\Generated_Source\PSoC5/SPIS_1.c **** *  Integer count of the number of bytes/words in the RX buffer.
 716:.\Generated_Source\PSoC5/SPIS_1.c **** *
 717:.\Generated_Source\PSoC5/SPIS_1.c **** * Global variables:
 718:.\Generated_Source\PSoC5/SPIS_1.c **** *  SPIS_1_rxBufferWrite - used for the account of the bytes which
 719:.\Generated_Source\PSoC5/SPIS_1.c **** *  have been written down in the RX software buffer.
ARM GAS  C:\Users\DGILLI~1\AppData\Local\Temp\ccZqqpmp.s 			page 20


 720:.\Generated_Source\PSoC5/SPIS_1.c **** *  SPIS_1_rxBufferRead - used for the account of the bytes which
 721:.\Generated_Source\PSoC5/SPIS_1.c **** *  have been read from the RX software buffer.
 722:.\Generated_Source\PSoC5/SPIS_1.c **** *
 723:.\Generated_Source\PSoC5/SPIS_1.c **** * Theory:
 724:.\Generated_Source\PSoC5/SPIS_1.c **** *  Allows the user to find out how full the RX Buffer is.
 725:.\Generated_Source\PSoC5/SPIS_1.c **** *
 726:.\Generated_Source\PSoC5/SPIS_1.c **** *******************************************************************************/
 727:.\Generated_Source\PSoC5/SPIS_1.c **** uint8 SPIS_1_GetRxBufferSize(void) 
 728:.\Generated_Source\PSoC5/SPIS_1.c **** {
 365              		.loc 1 728 0
 366              		.cfi_startproc
 367              		@ args = 0, pretend = 0, frame = 0
 368              		@ frame_needed = 0, uses_anonymous_args = 0
 369              		@ link register save eliminated.
 729:.\Generated_Source\PSoC5/SPIS_1.c ****     uint8 size;
 730:.\Generated_Source\PSoC5/SPIS_1.c **** 
 731:.\Generated_Source\PSoC5/SPIS_1.c ****     #if(SPIS_1_RX_SOFTWARE_BUF_ENABLED)
 732:.\Generated_Source\PSoC5/SPIS_1.c **** 
 733:.\Generated_Source\PSoC5/SPIS_1.c ****         /* Disable Interrupt to protect variables that could change on interrupt. */
 734:.\Generated_Source\PSoC5/SPIS_1.c ****         SPIS_1_DisableRxInt();
 735:.\Generated_Source\PSoC5/SPIS_1.c **** 
 736:.\Generated_Source\PSoC5/SPIS_1.c ****         if(SPIS_1_rxBufferRead == SPIS_1_rxBufferWrite)
 737:.\Generated_Source\PSoC5/SPIS_1.c ****         {
 738:.\Generated_Source\PSoC5/SPIS_1.c ****             size = 0u; /* No data in RX buffer */
 739:.\Generated_Source\PSoC5/SPIS_1.c ****         }
 740:.\Generated_Source\PSoC5/SPIS_1.c ****         else if(SPIS_1_rxBufferRead < SPIS_1_rxBufferWrite)
 741:.\Generated_Source\PSoC5/SPIS_1.c ****         {
 742:.\Generated_Source\PSoC5/SPIS_1.c ****             size = (SPIS_1_rxBufferWrite - SPIS_1_rxBufferRead);
 743:.\Generated_Source\PSoC5/SPIS_1.c ****         }
 744:.\Generated_Source\PSoC5/SPIS_1.c ****         else
 745:.\Generated_Source\PSoC5/SPIS_1.c ****         {
 746:.\Generated_Source\PSoC5/SPIS_1.c ****             size = (SPIS_1_RX_BUFFER_SIZE - SPIS_1_rxBufferRead) + SPIS_1_rxBufferWrite;
 747:.\Generated_Source\PSoC5/SPIS_1.c ****         }
 748:.\Generated_Source\PSoC5/SPIS_1.c **** 
 749:.\Generated_Source\PSoC5/SPIS_1.c ****         /* Enable interrupt. */
 750:.\Generated_Source\PSoC5/SPIS_1.c ****         SPIS_1_EnableRxInt();
 751:.\Generated_Source\PSoC5/SPIS_1.c **** 
 752:.\Generated_Source\PSoC5/SPIS_1.c ****     #else /* !SPIS_1_RX_SOFTWARE_BUF_ENABLED*/
 753:.\Generated_Source\PSoC5/SPIS_1.c **** 
 754:.\Generated_Source\PSoC5/SPIS_1.c ****         /* We can only know if there is data in the fifo. */
 755:.\Generated_Source\PSoC5/SPIS_1.c ****         size = ((SPIS_1_RX_STATUS_REG & SPIS_1_STS_RX_FIFO_NOT_EMPTY) != 0u) ? 1u : 0u;
 370              		.loc 1 755 0
 371 0000 044B     		ldr	r3, .L38
 372 0002 1B78     		ldrb	r3, [r3]	@ zero_extendqisi2
 373 0004 13F0080F 		tst	r3, #8
 374 0008 01D0     		beq	.L37
 375 000a 0120     		movs	r0, #1
 376 000c 7047     		bx	lr
 377              	.L37:
 378 000e 0020     		movs	r0, #0
 379              	.LVL11:
 756:.\Generated_Source\PSoC5/SPIS_1.c **** 
 757:.\Generated_Source\PSoC5/SPIS_1.c ****     #endif /* SPIS_1_RX_SOFTWARE_BUF_ENABLED */
 758:.\Generated_Source\PSoC5/SPIS_1.c **** 
 759:.\Generated_Source\PSoC5/SPIS_1.c ****     return (size);
 760:.\Generated_Source\PSoC5/SPIS_1.c **** }
 380              		.loc 1 760 0
ARM GAS  C:\Users\DGILLI~1\AppData\Local\Temp\ccZqqpmp.s 			page 21


 381 0010 7047     		bx	lr
 382              	.L39:
 383 0012 00BF     		.align	2
 384              	.L38:
 385 0014 66640040 		.word	1073767526
 386              		.cfi_endproc
 387              	.LFE15:
 388              		.size	SPIS_1_GetRxBufferSize, .-SPIS_1_GetRxBufferSize
 389              		.section	.text.SPIS_1_GetTxBufferSize,"ax",%progbits
 390              		.align	2
 391              		.global	SPIS_1_GetTxBufferSize
 392              		.thumb
 393              		.thumb_func
 394              		.type	SPIS_1_GetTxBufferSize, %function
 395              	SPIS_1_GetTxBufferSize:
 396              	.LFB16:
 761:.\Generated_Source\PSoC5/SPIS_1.c **** 
 762:.\Generated_Source\PSoC5/SPIS_1.c **** 
 763:.\Generated_Source\PSoC5/SPIS_1.c **** /*******************************************************************************
 764:.\Generated_Source\PSoC5/SPIS_1.c **** * Function Name: SPIS_1_GetTxBufferSize
 765:.\Generated_Source\PSoC5/SPIS_1.c **** ********************************************************************************
 766:.\Generated_Source\PSoC5/SPIS_1.c **** *
 767:.\Generated_Source\PSoC5/SPIS_1.c **** * Summary:
 768:.\Generated_Source\PSoC5/SPIS_1.c **** *  Returns the number of bytes/words of data currently held in the TX buffer.
 769:.\Generated_Source\PSoC5/SPIS_1.c **** *  If TX Software Buffer not used then function return 0 - if FIFO empty, 1 - if
 770:.\Generated_Source\PSoC5/SPIS_1.c **** *  FIFO not full, 4 - if FIFO full. In another case function return size of TX
 771:.\Generated_Source\PSoC5/SPIS_1.c **** *  Software Buffer.
 772:.\Generated_Source\PSoC5/SPIS_1.c **** *
 773:.\Generated_Source\PSoC5/SPIS_1.c **** * Parameters:
 774:.\Generated_Source\PSoC5/SPIS_1.c **** *  None.
 775:.\Generated_Source\PSoC5/SPIS_1.c **** *
 776:.\Generated_Source\PSoC5/SPIS_1.c **** * Return:
 777:.\Generated_Source\PSoC5/SPIS_1.c **** *  Integer count of the number of bytes/words in the TX buffer.
 778:.\Generated_Source\PSoC5/SPIS_1.c **** *
 779:.\Generated_Source\PSoC5/SPIS_1.c **** * Global variables:
 780:.\Generated_Source\PSoC5/SPIS_1.c **** *  SPIS_1_txBufferWrite - used for the account of the bytes which
 781:.\Generated_Source\PSoC5/SPIS_1.c **** *  have been written down in the TX software buffer.
 782:.\Generated_Source\PSoC5/SPIS_1.c **** *  SPIS_1_txBufferRead - used for the account of the bytes which
 783:.\Generated_Source\PSoC5/SPIS_1.c **** *  have been read from the TX software buffer.
 784:.\Generated_Source\PSoC5/SPIS_1.c **** *
 785:.\Generated_Source\PSoC5/SPIS_1.c **** * Theory:
 786:.\Generated_Source\PSoC5/SPIS_1.c **** *  Allows the user to find out how full the TX Buffer is.
 787:.\Generated_Source\PSoC5/SPIS_1.c **** *
 788:.\Generated_Source\PSoC5/SPIS_1.c **** * Side Effects:
 789:.\Generated_Source\PSoC5/SPIS_1.c **** *  Clear status register of the component.
 790:.\Generated_Source\PSoC5/SPIS_1.c **** *
 791:.\Generated_Source\PSoC5/SPIS_1.c **** *******************************************************************************/
 792:.\Generated_Source\PSoC5/SPIS_1.c **** uint8  SPIS_1_GetTxBufferSize(void) 
 793:.\Generated_Source\PSoC5/SPIS_1.c **** {
 397              		.loc 1 793 0
 398              		.cfi_startproc
 399              		@ args = 0, pretend = 0, frame = 0
 400              		@ frame_needed = 0, uses_anonymous_args = 0
 401              		@ link register save eliminated.
 794:.\Generated_Source\PSoC5/SPIS_1.c ****     uint8 size;
 795:.\Generated_Source\PSoC5/SPIS_1.c **** 
 796:.\Generated_Source\PSoC5/SPIS_1.c ****     #if(SPIS_1_TX_SOFTWARE_BUF_ENABLED)
ARM GAS  C:\Users\DGILLI~1\AppData\Local\Temp\ccZqqpmp.s 			page 22


 797:.\Generated_Source\PSoC5/SPIS_1.c **** 
 798:.\Generated_Source\PSoC5/SPIS_1.c ****         /* Disable Interrupt to protect variables that could change on interrupt. */
 799:.\Generated_Source\PSoC5/SPIS_1.c ****         SPIS_1_DisableTxInt();
 800:.\Generated_Source\PSoC5/SPIS_1.c **** 
 801:.\Generated_Source\PSoC5/SPIS_1.c ****         if(SPIS_1_txBufferRead == SPIS_1_txBufferWrite)
 802:.\Generated_Source\PSoC5/SPIS_1.c ****         {
 803:.\Generated_Source\PSoC5/SPIS_1.c ****             size = 0u;
 804:.\Generated_Source\PSoC5/SPIS_1.c ****         }
 805:.\Generated_Source\PSoC5/SPIS_1.c ****         else if(SPIS_1_txBufferRead < SPIS_1_txBufferWrite)
 806:.\Generated_Source\PSoC5/SPIS_1.c ****         {
 807:.\Generated_Source\PSoC5/SPIS_1.c ****             size = (SPIS_1_txBufferWrite - SPIS_1_txBufferRead);
 808:.\Generated_Source\PSoC5/SPIS_1.c ****         }
 809:.\Generated_Source\PSoC5/SPIS_1.c ****         else
 810:.\Generated_Source\PSoC5/SPIS_1.c ****         {
 811:.\Generated_Source\PSoC5/SPIS_1.c ****             size = (SPIS_1_TX_BUFFER_SIZE - SPIS_1_txBufferRead) + SPIS_1_txBufferWrite;
 812:.\Generated_Source\PSoC5/SPIS_1.c ****         }
 813:.\Generated_Source\PSoC5/SPIS_1.c **** 
 814:.\Generated_Source\PSoC5/SPIS_1.c ****         /* Enable Interrupt. */
 815:.\Generated_Source\PSoC5/SPIS_1.c ****         SPIS_1_EnableTxInt();
 816:.\Generated_Source\PSoC5/SPIS_1.c **** 
 817:.\Generated_Source\PSoC5/SPIS_1.c ****     #else /* !SPIS_1_TX_SOFTWARE_BUF_ENABLED */
 818:.\Generated_Source\PSoC5/SPIS_1.c **** 
 819:.\Generated_Source\PSoC5/SPIS_1.c ****         size = SPIS_1_TX_STATUS_REG;
 402              		.loc 1 819 0
 403 0000 074B     		ldr	r3, .L44
 404 0002 1B78     		ldrb	r3, [r3]	@ zero_extendqisi2
 405 0004 DBB2     		uxtb	r3, r3
 406              	.LVL12:
 820:.\Generated_Source\PSoC5/SPIS_1.c **** 
 821:.\Generated_Source\PSoC5/SPIS_1.c ****         /* Is the fifo is full. */
 822:.\Generated_Source\PSoC5/SPIS_1.c ****         if((size & SPIS_1_STS_TX_FIFO_EMPTY) != 0u)
 407              		.loc 1 822 0
 408 0006 13F0040F 		tst	r3, #4
 409 000a 04D1     		bne	.L42
 823:.\Generated_Source\PSoC5/SPIS_1.c ****         {
 824:.\Generated_Source\PSoC5/SPIS_1.c ****             size = 0u;
 825:.\Generated_Source\PSoC5/SPIS_1.c ****         }
 826:.\Generated_Source\PSoC5/SPIS_1.c ****         else if((size & SPIS_1_STS_TX_FIFO_NOT_FULL) != 0u)
 410              		.loc 1 826 0
 411 000c 13F0020F 		tst	r3, #2
 412 0010 03D0     		beq	.L43
 827:.\Generated_Source\PSoC5/SPIS_1.c ****         {
 828:.\Generated_Source\PSoC5/SPIS_1.c ****             size = 1u;
 413              		.loc 1 828 0
 414 0012 0120     		movs	r0, #1
 415 0014 7047     		bx	lr
 416              	.L42:
 824:.\Generated_Source\PSoC5/SPIS_1.c ****         }
 417              		.loc 1 824 0
 418 0016 0020     		movs	r0, #0
 419 0018 7047     		bx	lr
 420              	.L43:
 829:.\Generated_Source\PSoC5/SPIS_1.c ****         }
 830:.\Generated_Source\PSoC5/SPIS_1.c ****         else
 831:.\Generated_Source\PSoC5/SPIS_1.c ****         {
 832:.\Generated_Source\PSoC5/SPIS_1.c ****             size = 4u;
 421              		.loc 1 832 0
ARM GAS  C:\Users\DGILLI~1\AppData\Local\Temp\ccZqqpmp.s 			page 23


 422 001a 0420     		movs	r0, #4
 423              	.LVL13:
 833:.\Generated_Source\PSoC5/SPIS_1.c ****         }
 834:.\Generated_Source\PSoC5/SPIS_1.c **** 
 835:.\Generated_Source\PSoC5/SPIS_1.c ****     #endif /* SPIS_1_TX_SOFTWARE_BUF_ENABLED */
 836:.\Generated_Source\PSoC5/SPIS_1.c **** 
 837:.\Generated_Source\PSoC5/SPIS_1.c ****     return (size);
 838:.\Generated_Source\PSoC5/SPIS_1.c **** }
 424              		.loc 1 838 0
 425 001c 7047     		bx	lr
 426              	.L45:
 427 001e 00BF     		.align	2
 428              	.L44:
 429 0020 67650040 		.word	1073767783
 430              		.cfi_endproc
 431              	.LFE16:
 432              		.size	SPIS_1_GetTxBufferSize, .-SPIS_1_GetTxBufferSize
 433              		.section	.text.SPIS_1_ClearRxBuffer,"ax",%progbits
 434              		.align	2
 435              		.global	SPIS_1_ClearRxBuffer
 436              		.thumb
 437              		.thumb_func
 438              		.type	SPIS_1_ClearRxBuffer, %function
 439              	SPIS_1_ClearRxBuffer:
 440              	.LFB17:
 839:.\Generated_Source\PSoC5/SPIS_1.c **** 
 840:.\Generated_Source\PSoC5/SPIS_1.c **** 
 841:.\Generated_Source\PSoC5/SPIS_1.c **** /*******************************************************************************
 842:.\Generated_Source\PSoC5/SPIS_1.c **** * Function Name: SPIS_1_ClearRxBuffer
 843:.\Generated_Source\PSoC5/SPIS_1.c **** ********************************************************************************
 844:.\Generated_Source\PSoC5/SPIS_1.c **** *
 845:.\Generated_Source\PSoC5/SPIS_1.c **** * Summary:
 846:.\Generated_Source\PSoC5/SPIS_1.c **** *  Clear the RX RAM buffer by setting the read and write pointers both to zero.
 847:.\Generated_Source\PSoC5/SPIS_1.c **** *
 848:.\Generated_Source\PSoC5/SPIS_1.c **** * Parameters:
 849:.\Generated_Source\PSoC5/SPIS_1.c **** *  None.
 850:.\Generated_Source\PSoC5/SPIS_1.c **** *
 851:.\Generated_Source\PSoC5/SPIS_1.c **** * Return:
 852:.\Generated_Source\PSoC5/SPIS_1.c **** *  None.
 853:.\Generated_Source\PSoC5/SPIS_1.c **** *
 854:.\Generated_Source\PSoC5/SPIS_1.c **** * Global variables:
 855:.\Generated_Source\PSoC5/SPIS_1.c **** *  SPIS_1_rxBufferWrite - used for the account of the bytes which
 856:.\Generated_Source\PSoC5/SPIS_1.c **** *  have been written down in the RX software buffer, modified every function
 857:.\Generated_Source\PSoC5/SPIS_1.c **** *  call - resets to zero.
 858:.\Generated_Source\PSoC5/SPIS_1.c **** *  SPIS_1_rxBufferRead - used for the account of the bytes which
 859:.\Generated_Source\PSoC5/SPIS_1.c **** *  have been read from the RX software buffer, modified every function call -
 860:.\Generated_Source\PSoC5/SPIS_1.c **** *  resets to zero.
 861:.\Generated_Source\PSoC5/SPIS_1.c **** *
 862:.\Generated_Source\PSoC5/SPIS_1.c **** * Theory:
 863:.\Generated_Source\PSoC5/SPIS_1.c **** *  Setting the pointers to zero makes the system believe there is no data to
 864:.\Generated_Source\PSoC5/SPIS_1.c **** *  read and writing will resume at address 0 overwriting any data that may have
 865:.\Generated_Source\PSoC5/SPIS_1.c **** *  remained in the RAM.
 866:.\Generated_Source\PSoC5/SPIS_1.c **** *
 867:.\Generated_Source\PSoC5/SPIS_1.c **** * Side Effects:
 868:.\Generated_Source\PSoC5/SPIS_1.c **** *  Any received data not read from the RAM buffer will be lost when overwritten.
 869:.\Generated_Source\PSoC5/SPIS_1.c **** *
 870:.\Generated_Source\PSoC5/SPIS_1.c **** * Reentrant:
ARM GAS  C:\Users\DGILLI~1\AppData\Local\Temp\ccZqqpmp.s 			page 24


 871:.\Generated_Source\PSoC5/SPIS_1.c **** *  No.
 872:.\Generated_Source\PSoC5/SPIS_1.c **** *
 873:.\Generated_Source\PSoC5/SPIS_1.c **** *******************************************************************************/
 874:.\Generated_Source\PSoC5/SPIS_1.c **** void SPIS_1_ClearRxBuffer(void) 
 875:.\Generated_Source\PSoC5/SPIS_1.c **** {
 441              		.loc 1 875 0
 442              		.cfi_startproc
 443              		@ args = 0, pretend = 0, frame = 0
 444              		@ frame_needed = 0, uses_anonymous_args = 0
 445              		@ link register save eliminated.
 876:.\Generated_Source\PSoC5/SPIS_1.c ****     /* Clear Hardware RX FIFO */
 877:.\Generated_Source\PSoC5/SPIS_1.c ****     while((SPIS_1_RX_STATUS_REG & SPIS_1_STS_RX_FIFO_NOT_EMPTY) != 0u)
 446              		.loc 1 877 0
 447 0000 01E0     		b	.L47
 448              	.L48:
 878:.\Generated_Source\PSoC5/SPIS_1.c ****     {
 879:.\Generated_Source\PSoC5/SPIS_1.c ****         CY_GET_REG8(SPIS_1_RXDATA_PTR);
 449              		.loc 1 879 0
 450 0002 044B     		ldr	r3, .L49
 451 0004 1B78     		ldrb	r3, [r3]	@ zero_extendqisi2
 452              	.L47:
 877:.\Generated_Source\PSoC5/SPIS_1.c ****     {
 453              		.loc 1 877 0
 454 0006 044B     		ldr	r3, .L49+4
 455 0008 1B78     		ldrb	r3, [r3]	@ zero_extendqisi2
 456 000a 13F0080F 		tst	r3, #8
 457 000e F8D1     		bne	.L48
 880:.\Generated_Source\PSoC5/SPIS_1.c ****     }
 881:.\Generated_Source\PSoC5/SPIS_1.c **** 
 882:.\Generated_Source\PSoC5/SPIS_1.c ****     #if(SPIS_1_RX_SOFTWARE_BUF_ENABLED)
 883:.\Generated_Source\PSoC5/SPIS_1.c **** 
 884:.\Generated_Source\PSoC5/SPIS_1.c ****         /* Disable interrupt to protect variables that could change on interrupt. */
 885:.\Generated_Source\PSoC5/SPIS_1.c ****         SPIS_1_DisableRxInt();
 886:.\Generated_Source\PSoC5/SPIS_1.c **** 
 887:.\Generated_Source\PSoC5/SPIS_1.c ****         SPIS_1_rxBufferRead  = 0u;
 888:.\Generated_Source\PSoC5/SPIS_1.c ****         SPIS_1_rxBufferWrite = 0u;
 889:.\Generated_Source\PSoC5/SPIS_1.c **** 		SPIS_1_rxBufferFull  = 0u;
 890:.\Generated_Source\PSoC5/SPIS_1.c ****         /* Enable interrupt. */
 891:.\Generated_Source\PSoC5/SPIS_1.c ****         SPIS_1_EnableRxInt();
 892:.\Generated_Source\PSoC5/SPIS_1.c **** 
 893:.\Generated_Source\PSoC5/SPIS_1.c ****     #endif /* SPIS_1_RX_SOFTWARE_BUF_ENABLED */
 894:.\Generated_Source\PSoC5/SPIS_1.c **** }
 458              		.loc 1 894 0
 459 0010 7047     		bx	lr
 460              	.L50:
 461 0012 00BF     		.align	2
 462              	.L49:
 463 0014 56650040 		.word	1073767766
 464 0018 66640040 		.word	1073767526
 465              		.cfi_endproc
 466              	.LFE17:
 467              		.size	SPIS_1_ClearRxBuffer, .-SPIS_1_ClearRxBuffer
 468              		.section	.text.SPIS_1_ClearTxBuffer,"ax",%progbits
 469              		.align	2
 470              		.global	SPIS_1_ClearTxBuffer
 471              		.thumb
 472              		.thumb_func
ARM GAS  C:\Users\DGILLI~1\AppData\Local\Temp\ccZqqpmp.s 			page 25


 473              		.type	SPIS_1_ClearTxBuffer, %function
 474              	SPIS_1_ClearTxBuffer:
 475              	.LFB18:
 895:.\Generated_Source\PSoC5/SPIS_1.c **** 
 896:.\Generated_Source\PSoC5/SPIS_1.c **** 
 897:.\Generated_Source\PSoC5/SPIS_1.c **** /*******************************************************************************
 898:.\Generated_Source\PSoC5/SPIS_1.c **** * Function Name: SPIS_1_ClearTxBuffer
 899:.\Generated_Source\PSoC5/SPIS_1.c **** ********************************************************************************
 900:.\Generated_Source\PSoC5/SPIS_1.c **** *
 901:.\Generated_Source\PSoC5/SPIS_1.c **** * Summary:
 902:.\Generated_Source\PSoC5/SPIS_1.c **** *  Clear the TX RAM buffer by setting the read and write pointers both to zero.
 903:.\Generated_Source\PSoC5/SPIS_1.c **** *
 904:.\Generated_Source\PSoC5/SPIS_1.c **** * Parameters:
 905:.\Generated_Source\PSoC5/SPIS_1.c **** *  None.
 906:.\Generated_Source\PSoC5/SPIS_1.c **** *
 907:.\Generated_Source\PSoC5/SPIS_1.c **** * Return:
 908:.\Generated_Source\PSoC5/SPIS_1.c **** *  None.
 909:.\Generated_Source\PSoC5/SPIS_1.c **** *
 910:.\Generated_Source\PSoC5/SPIS_1.c **** * Global variables:
 911:.\Generated_Source\PSoC5/SPIS_1.c **** *  SPIS_1_txBufferWrite - used for the account of the bytes which
 912:.\Generated_Source\PSoC5/SPIS_1.c **** *  have been written down in the TX software buffer, modified every function
 913:.\Generated_Source\PSoC5/SPIS_1.c **** *  call - resets to zero.
 914:.\Generated_Source\PSoC5/SPIS_1.c **** *  SPIS_1_txBufferRead - used for the account of the bytes which
 915:.\Generated_Source\PSoC5/SPIS_1.c **** *  have been read from the TX software buffer, modified every function call -
 916:.\Generated_Source\PSoC5/SPIS_1.c **** *  resets to zero.
 917:.\Generated_Source\PSoC5/SPIS_1.c **** *
 918:.\Generated_Source\PSoC5/SPIS_1.c **** * Theory:
 919:.\Generated_Source\PSoC5/SPIS_1.c **** *  Setting the pointers to zero makes the system believe there is no data to
 920:.\Generated_Source\PSoC5/SPIS_1.c **** *  read and writing will resume at address 0 overwriting any data that may have
 921:.\Generated_Source\PSoC5/SPIS_1.c **** *  remained in the RAM.
 922:.\Generated_Source\PSoC5/SPIS_1.c **** *
 923:.\Generated_Source\PSoC5/SPIS_1.c **** * Side Effects:
 924:.\Generated_Source\PSoC5/SPIS_1.c **** *  Any data not yet transmitted from the RAM buffer will be lost when
 925:.\Generated_Source\PSoC5/SPIS_1.c **** *  overwritten.
 926:.\Generated_Source\PSoC5/SPIS_1.c **** *
 927:.\Generated_Source\PSoC5/SPIS_1.c **** * Reentrant:
 928:.\Generated_Source\PSoC5/SPIS_1.c **** *  No.
 929:.\Generated_Source\PSoC5/SPIS_1.c **** *
 930:.\Generated_Source\PSoC5/SPIS_1.c **** *******************************************************************************/
 931:.\Generated_Source\PSoC5/SPIS_1.c **** void SPIS_1_ClearTxBuffer(void) 
 932:.\Generated_Source\PSoC5/SPIS_1.c **** {
 476              		.loc 1 932 0
 477              		.cfi_startproc
 478              		@ args = 0, pretend = 0, frame = 0
 479              		@ frame_needed = 0, uses_anonymous_args = 0
 480 0000 08B5     		push	{r3, lr}
 481              		.cfi_def_cfa_offset 8
 482              		.cfi_offset 3, -8
 483              		.cfi_offset 14, -4
 933:.\Generated_Source\PSoC5/SPIS_1.c ****     uint8 enableInterrupts;
 934:.\Generated_Source\PSoC5/SPIS_1.c **** 
 935:.\Generated_Source\PSoC5/SPIS_1.c ****     /* Clear Hardware TX FIFO */
 936:.\Generated_Source\PSoC5/SPIS_1.c ****     enableInterrupts = CyEnterCriticalSection();
 484              		.loc 1 936 0
 485 0002 FFF7FEFF 		bl	CyEnterCriticalSection
 486              	.LVL14:
 937:.\Generated_Source\PSoC5/SPIS_1.c **** 
ARM GAS  C:\Users\DGILLI~1\AppData\Local\Temp\ccZqqpmp.s 			page 26


 938:.\Generated_Source\PSoC5/SPIS_1.c ****     #if(SPIS_1_DATA_WIDTH <= 8u)
 939:.\Generated_Source\PSoC5/SPIS_1.c **** 
 940:.\Generated_Source\PSoC5/SPIS_1.c ****         /* Clear TX FIFO */
 941:.\Generated_Source\PSoC5/SPIS_1.c ****         SPIS_1_TX_AUX_CONTROL_DP0_REG |= (uint8)SPIS_1_FIFO_CLR;
 487              		.loc 1 941 0
 488 0006 064B     		ldr	r3, .L53
 489 0008 1A78     		ldrb	r2, [r3]	@ zero_extendqisi2
 490 000a 42F00302 		orr	r2, r2, #3
 491 000e 1A70     		strb	r2, [r3]
 942:.\Generated_Source\PSoC5/SPIS_1.c ****         SPIS_1_TX_AUX_CONTROL_DP0_REG &= (uint8)~SPIS_1_FIFO_CLR;
 492              		.loc 1 942 0
 493 0010 1A78     		ldrb	r2, [r3]	@ zero_extendqisi2
 494 0012 02F0FC02 		and	r2, r2, #252
 495 0016 1A70     		strb	r2, [r3]
 943:.\Generated_Source\PSoC5/SPIS_1.c **** 
 944:.\Generated_Source\PSoC5/SPIS_1.c ****     #else
 945:.\Generated_Source\PSoC5/SPIS_1.c **** 
 946:.\Generated_Source\PSoC5/SPIS_1.c ****         /* Clear TX FIFO */
 947:.\Generated_Source\PSoC5/SPIS_1.c ****         SPIS_1_TX_AUX_CONTROL_DP0_REG |= (uint8)SPIS_1_FIFO_CLR;
 948:.\Generated_Source\PSoC5/SPIS_1.c ****         SPIS_1_TX_AUX_CONTROL_DP0_REG &= (uint8)~SPIS_1_FIFO_CLR;
 949:.\Generated_Source\PSoC5/SPIS_1.c ****         SPIS_1_TX_AUX_CONTROL_DP1_REG |= (uint8)SPIS_1_FIFO_CLR;
 950:.\Generated_Source\PSoC5/SPIS_1.c ****         SPIS_1_TX_AUX_CONTROL_DP1_REG &= (uint8)~SPIS_1_FIFO_CLR;
 951:.\Generated_Source\PSoC5/SPIS_1.c **** 
 952:.\Generated_Source\PSoC5/SPIS_1.c ****     #endif /* SPIS_1_DATA_WIDTH > 8u */
 953:.\Generated_Source\PSoC5/SPIS_1.c **** 
 954:.\Generated_Source\PSoC5/SPIS_1.c ****     CyExitCriticalSection(enableInterrupts);
 496              		.loc 1 954 0
 497 0018 FFF7FEFF 		bl	CyExitCriticalSection
 498              	.LVL15:
 499 001c 08BD     		pop	{r3, pc}
 500              	.L54:
 501 001e 00BF     		.align	2
 502              	.L53:
 503 0020 96650040 		.word	1073767830
 504              		.cfi_endproc
 505              	.LFE18:
 506              		.size	SPIS_1_ClearTxBuffer, .-SPIS_1_ClearTxBuffer
 507              		.section	.text.SPIS_1_PutArray,"ax",%progbits
 508              		.align	2
 509              		.global	SPIS_1_PutArray
 510              		.thumb
 511              		.thumb_func
 512              		.type	SPIS_1_PutArray, %function
 513              	SPIS_1_PutArray:
 514              	.LFB19:
 955:.\Generated_Source\PSoC5/SPIS_1.c **** 
 956:.\Generated_Source\PSoC5/SPIS_1.c ****     #if(SPIS_1_TX_SOFTWARE_BUF_ENABLED)
 957:.\Generated_Source\PSoC5/SPIS_1.c **** 
 958:.\Generated_Source\PSoC5/SPIS_1.c ****         /* Disable Interrupt to protect variables that could change on interrupt. */
 959:.\Generated_Source\PSoC5/SPIS_1.c ****         SPIS_1_DisableTxInt();
 960:.\Generated_Source\PSoC5/SPIS_1.c **** 
 961:.\Generated_Source\PSoC5/SPIS_1.c ****         SPIS_1_txBufferRead  = 0u;
 962:.\Generated_Source\PSoC5/SPIS_1.c ****         SPIS_1_txBufferWrite = 0u;
 963:.\Generated_Source\PSoC5/SPIS_1.c **** 		SPIS_1_txBufferFull  = 0u;
 964:.\Generated_Source\PSoC5/SPIS_1.c **** 		
 965:.\Generated_Source\PSoC5/SPIS_1.c ****         /* If Buffer is empty then disable TX FIFO status interrupt */
 966:.\Generated_Source\PSoC5/SPIS_1.c ****         SPIS_1_TX_STATUS_MASK_REG &= (uint8)~SPIS_1_STS_TX_FIFO_NOT_FULL;
ARM GAS  C:\Users\DGILLI~1\AppData\Local\Temp\ccZqqpmp.s 			page 27


 967:.\Generated_Source\PSoC5/SPIS_1.c **** 
 968:.\Generated_Source\PSoC5/SPIS_1.c ****         /* Enable Interrupt. */
 969:.\Generated_Source\PSoC5/SPIS_1.c ****         SPIS_1_EnableTxInt();
 970:.\Generated_Source\PSoC5/SPIS_1.c **** 
 971:.\Generated_Source\PSoC5/SPIS_1.c ****     #endif /* SPIS_1_TX_SOFTWARE_BUF_ENABLED */
 972:.\Generated_Source\PSoC5/SPIS_1.c **** }
 973:.\Generated_Source\PSoC5/SPIS_1.c **** 
 974:.\Generated_Source\PSoC5/SPIS_1.c **** 
 975:.\Generated_Source\PSoC5/SPIS_1.c **** #if (SPIS_1_BIDIRECTIONAL_MODE != 0u)
 976:.\Generated_Source\PSoC5/SPIS_1.c **** 
 977:.\Generated_Source\PSoC5/SPIS_1.c ****     /*******************************************************************************
 978:.\Generated_Source\PSoC5/SPIS_1.c ****     * Function Name: SPIS_1_TxEnable
 979:.\Generated_Source\PSoC5/SPIS_1.c ****     ********************************************************************************
 980:.\Generated_Source\PSoC5/SPIS_1.c ****     *
 981:.\Generated_Source\PSoC5/SPIS_1.c ****     * Summary:
 982:.\Generated_Source\PSoC5/SPIS_1.c ****     *  If the SPI Slave is configured to use a single bi-directional pin then this
 983:.\Generated_Source\PSoC5/SPIS_1.c ****     *  will set the bi-directional pin to transmit.
 984:.\Generated_Source\PSoC5/SPIS_1.c ****     *
 985:.\Generated_Source\PSoC5/SPIS_1.c ****     * Parameters:
 986:.\Generated_Source\PSoC5/SPIS_1.c ****     *  None.
 987:.\Generated_Source\PSoC5/SPIS_1.c ****     *
 988:.\Generated_Source\PSoC5/SPIS_1.c ****     * Return:
 989:.\Generated_Source\PSoC5/SPIS_1.c ****     *  None.
 990:.\Generated_Source\PSoC5/SPIS_1.c ****     *
 991:.\Generated_Source\PSoC5/SPIS_1.c ****     *******************************************************************************/
 992:.\Generated_Source\PSoC5/SPIS_1.c ****     void SPIS_1_TxEnable(void) 
 993:.\Generated_Source\PSoC5/SPIS_1.c ****     {
 994:.\Generated_Source\PSoC5/SPIS_1.c ****             SPIS_1_CONTROL_REG |= SPIS_1_CTRL_TX_SIGNAL_EN;
 995:.\Generated_Source\PSoC5/SPIS_1.c ****     }
 996:.\Generated_Source\PSoC5/SPIS_1.c **** 
 997:.\Generated_Source\PSoC5/SPIS_1.c **** 
 998:.\Generated_Source\PSoC5/SPIS_1.c ****     /*******************************************************************************
 999:.\Generated_Source\PSoC5/SPIS_1.c ****     * Function Name: SPIS_1_TxDisable
1000:.\Generated_Source\PSoC5/SPIS_1.c ****     ********************************************************************************
1001:.\Generated_Source\PSoC5/SPIS_1.c ****     *
1002:.\Generated_Source\PSoC5/SPIS_1.c ****     * Summary:
1003:.\Generated_Source\PSoC5/SPIS_1.c ****     *  If the SPI Slave is configured to use a single bi-directional pin then this
1004:.\Generated_Source\PSoC5/SPIS_1.c ****     *  will set the bi-directional pin to receive.
1005:.\Generated_Source\PSoC5/SPIS_1.c ****     *
1006:.\Generated_Source\PSoC5/SPIS_1.c ****     * Parameters:
1007:.\Generated_Source\PSoC5/SPIS_1.c ****     *  None.
1008:.\Generated_Source\PSoC5/SPIS_1.c ****     *
1009:.\Generated_Source\PSoC5/SPIS_1.c ****     * Return:
1010:.\Generated_Source\PSoC5/SPIS_1.c ****     *  None.
1011:.\Generated_Source\PSoC5/SPIS_1.c ****     *
1012:.\Generated_Source\PSoC5/SPIS_1.c ****     *******************************************************************************/
1013:.\Generated_Source\PSoC5/SPIS_1.c ****     void SPIS_1_TxDisable(void) 
1014:.\Generated_Source\PSoC5/SPIS_1.c ****     {
1015:.\Generated_Source\PSoC5/SPIS_1.c ****             SPIS_1_CONTROL_REG &= (uint8)~SPIS_1_CTRL_TX_SIGNAL_EN;
1016:.\Generated_Source\PSoC5/SPIS_1.c ****     }
1017:.\Generated_Source\PSoC5/SPIS_1.c **** 
1018:.\Generated_Source\PSoC5/SPIS_1.c **** #endif /* SPIS_1_BIDIRECTIONAL_MODE != 0u */
1019:.\Generated_Source\PSoC5/SPIS_1.c **** 
1020:.\Generated_Source\PSoC5/SPIS_1.c **** 
1021:.\Generated_Source\PSoC5/SPIS_1.c **** /*******************************************************************************
1022:.\Generated_Source\PSoC5/SPIS_1.c **** * Function Name: SPIS_1_PutArray
1023:.\Generated_Source\PSoC5/SPIS_1.c **** ********************************************************************************
ARM GAS  C:\Users\DGILLI~1\AppData\Local\Temp\ccZqqpmp.s 			page 28


1024:.\Generated_Source\PSoC5/SPIS_1.c **** *
1025:.\Generated_Source\PSoC5/SPIS_1.c **** * Summary:
1026:.\Generated_Source\PSoC5/SPIS_1.c **** *  Write available data from RAM/ROM to the TX buffer while space is available
1027:.\Generated_Source\PSoC5/SPIS_1.c **** *  in the TX buffer. Keep trying until all data is passed to the TX buffer. If
1028:.\Generated_Source\PSoC5/SPIS_1.c **** *  used Mode 00 or 01 before PutArray() function should be called
1029:.\Generated_Source\PSoC5/SPIS_1.c **** *  WriteTxDataZero() function.
1030:.\Generated_Source\PSoC5/SPIS_1.c **** *
1031:.\Generated_Source\PSoC5/SPIS_1.c **** * Parameters:
1032:.\Generated_Source\PSoC5/SPIS_1.c **** *  *buffer: Pointer to the location in RAM containing the data to send
1033:.\Generated_Source\PSoC5/SPIS_1.c **** *  byteCount: The number of bytes to move to the transmit buffer.
1034:.\Generated_Source\PSoC5/SPIS_1.c **** *
1035:.\Generated_Source\PSoC5/SPIS_1.c **** * Return:
1036:.\Generated_Source\PSoC5/SPIS_1.c **** *  None.
1037:.\Generated_Source\PSoC5/SPIS_1.c **** *
1038:.\Generated_Source\PSoC5/SPIS_1.c **** * Side Effects:
1039:.\Generated_Source\PSoC5/SPIS_1.c **** *  Will stay in this routine until all data has been sent.  May get locked in
1040:.\Generated_Source\PSoC5/SPIS_1.c **** *  this loop if data is not being initiated by the master if there is not
1041:.\Generated_Source\PSoC5/SPIS_1.c **** *  enough room in the TX FIFO.
1042:.\Generated_Source\PSoC5/SPIS_1.c **** *
1043:.\Generated_Source\PSoC5/SPIS_1.c **** * Reentrant:
1044:.\Generated_Source\PSoC5/SPIS_1.c **** *  No.
1045:.\Generated_Source\PSoC5/SPIS_1.c **** *
1046:.\Generated_Source\PSoC5/SPIS_1.c **** *******************************************************************************/
1047:.\Generated_Source\PSoC5/SPIS_1.c **** void SPIS_1_PutArray(const uint8 buffer[], uint8 byteCount)
1048:.\Generated_Source\PSoC5/SPIS_1.c ****                                                                     
1049:.\Generated_Source\PSoC5/SPIS_1.c **** {
 515              		.loc 1 1049 0
 516              		.cfi_startproc
 517              		@ args = 0, pretend = 0, frame = 0
 518              		@ frame_needed = 0, uses_anonymous_args = 0
 519              	.LVL16:
 520 0000 70B5     		push	{r4, r5, r6, lr}
 521              		.cfi_def_cfa_offset 16
 522              		.cfi_offset 4, -16
 523              		.cfi_offset 5, -12
 524              		.cfi_offset 6, -8
 525              		.cfi_offset 14, -4
 526 0002 0646     		mov	r6, r0
 527 0004 0C46     		mov	r4, r1
 528              	.LVL17:
1050:.\Generated_Source\PSoC5/SPIS_1.c ****     uint8 bufIndex;
1051:.\Generated_Source\PSoC5/SPIS_1.c ****     bufIndex = 0u;
 529              		.loc 1 1051 0
 530 0006 0025     		movs	r5, #0
1052:.\Generated_Source\PSoC5/SPIS_1.c **** 
1053:.\Generated_Source\PSoC5/SPIS_1.c ****     while(byteCount > 0u)
 531              		.loc 1 1053 0
 532 0008 06E0     		b	.L56
 533              	.LVL18:
 534              	.L57:
1054:.\Generated_Source\PSoC5/SPIS_1.c ****     {
1055:.\Generated_Source\PSoC5/SPIS_1.c ****         SPIS_1_WriteTxData(buffer[bufIndex]);
 535              		.loc 1 1055 0
 536 000a 705D     		ldrb	r0, [r6, r5]	@ zero_extendqisi2
 537 000c FFF7FEFF 		bl	SPIS_1_WriteTxData
 538              	.LVL19:
1056:.\Generated_Source\PSoC5/SPIS_1.c ****         bufIndex++;
ARM GAS  C:\Users\DGILLI~1\AppData\Local\Temp\ccZqqpmp.s 			page 29


 539              		.loc 1 1056 0
 540 0010 0135     		adds	r5, r5, #1
 541              	.LVL20:
 542 0012 EDB2     		uxtb	r5, r5
 543              	.LVL21:
1057:.\Generated_Source\PSoC5/SPIS_1.c ****         byteCount--;
 544              		.loc 1 1057 0
 545 0014 013C     		subs	r4, r4, #1
 546              	.LVL22:
 547 0016 E4B2     		uxtb	r4, r4
 548              	.LVL23:
 549              	.L56:
1053:.\Generated_Source\PSoC5/SPIS_1.c ****     {
 550              		.loc 1 1053 0
 551 0018 002C     		cmp	r4, #0
 552 001a F6D1     		bne	.L57
1058:.\Generated_Source\PSoC5/SPIS_1.c ****     }
1059:.\Generated_Source\PSoC5/SPIS_1.c **** }
 553              		.loc 1 1059 0
 554 001c 70BD     		pop	{r4, r5, r6, pc}
 555              		.cfi_endproc
 556              	.LFE19:
 557              		.size	SPIS_1_PutArray, .-SPIS_1_PutArray
 558 001e 00BF     		.section	.text.SPIS_1_ClearFIFO,"ax",%progbits
 559              		.align	2
 560              		.global	SPIS_1_ClearFIFO
 561              		.thumb
 562              		.thumb_func
 563              		.type	SPIS_1_ClearFIFO, %function
 564              	SPIS_1_ClearFIFO:
 565              	.LFB20:
1060:.\Generated_Source\PSoC5/SPIS_1.c **** 
1061:.\Generated_Source\PSoC5/SPIS_1.c **** 
1062:.\Generated_Source\PSoC5/SPIS_1.c **** /*******************************************************************************
1063:.\Generated_Source\PSoC5/SPIS_1.c **** * Function Name: SPIS_1_ClearFIFO
1064:.\Generated_Source\PSoC5/SPIS_1.c **** ********************************************************************************
1065:.\Generated_Source\PSoC5/SPIS_1.c **** *
1066:.\Generated_Source\PSoC5/SPIS_1.c **** * Summary:
1067:.\Generated_Source\PSoC5/SPIS_1.c **** *  Clear the RX and TX FIFO's of all data for a fresh start.
1068:.\Generated_Source\PSoC5/SPIS_1.c **** *
1069:.\Generated_Source\PSoC5/SPIS_1.c **** * Parameters:
1070:.\Generated_Source\PSoC5/SPIS_1.c **** *  None.
1071:.\Generated_Source\PSoC5/SPIS_1.c **** *
1072:.\Generated_Source\PSoC5/SPIS_1.c **** * Return:
1073:.\Generated_Source\PSoC5/SPIS_1.c **** *  None.
1074:.\Generated_Source\PSoC5/SPIS_1.c **** *
1075:.\Generated_Source\PSoC5/SPIS_1.c **** * Side Effects:
1076:.\Generated_Source\PSoC5/SPIS_1.c **** *  Clear status register of the component.
1077:.\Generated_Source\PSoC5/SPIS_1.c **** *
1078:.\Generated_Source\PSoC5/SPIS_1.c **** *******************************************************************************/
1079:.\Generated_Source\PSoC5/SPIS_1.c **** void SPIS_1_ClearFIFO(void) 
1080:.\Generated_Source\PSoC5/SPIS_1.c **** {
 566              		.loc 1 1080 0
 567              		.cfi_startproc
 568              		@ args = 0, pretend = 0, frame = 0
 569              		@ frame_needed = 0, uses_anonymous_args = 0
 570 0000 08B5     		push	{r3, lr}
ARM GAS  C:\Users\DGILLI~1\AppData\Local\Temp\ccZqqpmp.s 			page 30


 571              		.cfi_def_cfa_offset 8
 572              		.cfi_offset 3, -8
 573              		.cfi_offset 14, -4
1081:.\Generated_Source\PSoC5/SPIS_1.c ****     uint8 enableInterrupts;
1082:.\Generated_Source\PSoC5/SPIS_1.c **** 
1083:.\Generated_Source\PSoC5/SPIS_1.c ****     while((SPIS_1_RX_STATUS_REG & SPIS_1_STS_RX_FIFO_NOT_EMPTY) != 0u)
 574              		.loc 1 1083 0
 575 0002 01E0     		b	.L60
 576              	.L61:
1084:.\Generated_Source\PSoC5/SPIS_1.c ****     {
1085:.\Generated_Source\PSoC5/SPIS_1.c ****         CY_GET_REG8(SPIS_1_RXDATA_PTR);
 577              		.loc 1 1085 0
 578 0004 0A4B     		ldr	r3, .L63
 579 0006 1B78     		ldrb	r3, [r3]	@ zero_extendqisi2
 580              	.L60:
1083:.\Generated_Source\PSoC5/SPIS_1.c ****     {
 581              		.loc 1 1083 0
 582 0008 0A4B     		ldr	r3, .L63+4
 583 000a 1B78     		ldrb	r3, [r3]	@ zero_extendqisi2
 584 000c 13F0080F 		tst	r3, #8
 585 0010 F8D1     		bne	.L61
1086:.\Generated_Source\PSoC5/SPIS_1.c ****     }
1087:.\Generated_Source\PSoC5/SPIS_1.c **** 
1088:.\Generated_Source\PSoC5/SPIS_1.c ****     enableInterrupts = CyEnterCriticalSection();
 586              		.loc 1 1088 0
 587 0012 FFF7FEFF 		bl	CyEnterCriticalSection
 588              	.LVL24:
1089:.\Generated_Source\PSoC5/SPIS_1.c **** 
1090:.\Generated_Source\PSoC5/SPIS_1.c ****     #if(SPIS_1_DATA_WIDTH <= 8u)
1091:.\Generated_Source\PSoC5/SPIS_1.c **** 
1092:.\Generated_Source\PSoC5/SPIS_1.c ****         /* Clear TX FIFO */
1093:.\Generated_Source\PSoC5/SPIS_1.c ****         SPIS_1_TX_AUX_CONTROL_DP0_REG |= (uint8)SPIS_1_FIFO_CLR;
 589              		.loc 1 1093 0
 590 0016 084B     		ldr	r3, .L63+8
 591 0018 1A78     		ldrb	r2, [r3]	@ zero_extendqisi2
 592 001a 42F00302 		orr	r2, r2, #3
 593 001e 1A70     		strb	r2, [r3]
1094:.\Generated_Source\PSoC5/SPIS_1.c ****         SPIS_1_TX_AUX_CONTROL_DP0_REG &= (uint8)~SPIS_1_FIFO_CLR;
 594              		.loc 1 1094 0
 595 0020 1A78     		ldrb	r2, [r3]	@ zero_extendqisi2
 596 0022 02F0FC02 		and	r2, r2, #252
 597 0026 1A70     		strb	r2, [r3]
1095:.\Generated_Source\PSoC5/SPIS_1.c **** 
1096:.\Generated_Source\PSoC5/SPIS_1.c ****     #else
1097:.\Generated_Source\PSoC5/SPIS_1.c **** 
1098:.\Generated_Source\PSoC5/SPIS_1.c ****         /* Clear TX FIFO */
1099:.\Generated_Source\PSoC5/SPIS_1.c ****         SPIS_1_TX_AUX_CONTROL_DP0_REG |= (uint8)SPIS_1_FIFO_CLR;
1100:.\Generated_Source\PSoC5/SPIS_1.c ****         SPIS_1_TX_AUX_CONTROL_DP0_REG &= (uint8)~SPIS_1_FIFO_CLR;
1101:.\Generated_Source\PSoC5/SPIS_1.c ****         SPIS_1_TX_AUX_CONTROL_DP1_REG |= (uint8)SPIS_1_FIFO_CLR;
1102:.\Generated_Source\PSoC5/SPIS_1.c ****         SPIS_1_TX_AUX_CONTROL_DP1_REG &= (uint8)~SPIS_1_FIFO_CLR;
1103:.\Generated_Source\PSoC5/SPIS_1.c **** 
1104:.\Generated_Source\PSoC5/SPIS_1.c ****     #endif /* SPIS_1_DATA_WIDTH <= 8u */
1105:.\Generated_Source\PSoC5/SPIS_1.c **** 
1106:.\Generated_Source\PSoC5/SPIS_1.c ****     CyExitCriticalSection(enableInterrupts);
 598              		.loc 1 1106 0
 599 0028 FFF7FEFF 		bl	CyExitCriticalSection
 600              	.LVL25:
ARM GAS  C:\Users\DGILLI~1\AppData\Local\Temp\ccZqqpmp.s 			page 31


 601 002c 08BD     		pop	{r3, pc}
 602              	.L64:
 603 002e 00BF     		.align	2
 604              	.L63:
 605 0030 56650040 		.word	1073767766
 606 0034 66640040 		.word	1073767526
 607 0038 96650040 		.word	1073767830
 608              		.cfi_endproc
 609              	.LFE20:
 610              		.size	SPIS_1_ClearFIFO, .-SPIS_1_ClearFIFO
 611              		.section	.text.SPIS_1_Init,"ax",%progbits
 612              		.align	2
 613              		.global	SPIS_1_Init
 614              		.thumb
 615              		.thumb_func
 616              		.type	SPIS_1_Init, %function
 617              	SPIS_1_Init:
 618              	.LFB0:
  68:.\Generated_Source\PSoC5/SPIS_1.c ****     /*Initialize the Bit counter */
 619              		.loc 1 68 0
 620              		.cfi_startproc
 621              		@ args = 0, pretend = 0, frame = 0
 622              		@ frame_needed = 0, uses_anonymous_args = 0
 623 0000 08B5     		push	{r3, lr}
 624              		.cfi_def_cfa_offset 8
 625              		.cfi_offset 3, -8
 626              		.cfi_offset 14, -4
  70:.\Generated_Source\PSoC5/SPIS_1.c **** 
 627              		.loc 1 70 0
 628 0002 0722     		movs	r2, #7
 629 0004 074B     		ldr	r3, .L67
 630 0006 1A70     		strb	r2, [r3]
  98:.\Generated_Source\PSoC5/SPIS_1.c **** 
 631              		.loc 1 98 0
 632 0008 FFF7FEFF 		bl	SPIS_1_ClearFIFO
 633              	.LVL26:
 112:.\Generated_Source\PSoC5/SPIS_1.c ****     (void) SPIS_1_ReadRxStatus(); /* Clear any pending status bits */
 634              		.loc 1 112 0
 635 000c FFF7FEFF 		bl	SPIS_1_ReadTxStatus
 636              	.LVL27:
 113:.\Generated_Source\PSoC5/SPIS_1.c **** 
 637              		.loc 1 113 0
 638 0010 FFF7FEFF 		bl	SPIS_1_ReadRxStatus
 639              	.LVL28:
 121:.\Generated_Source\PSoC5/SPIS_1.c ****     #endif /* SPIS_1_TX_SOFTWARE_BUF_ENABLED */
 640              		.loc 1 121 0
 641 0014 0023     		movs	r3, #0
 642 0016 044A     		ldr	r2, .L67+4
 643 0018 1370     		strb	r3, [r2]
 124:.\Generated_Source\PSoC5/SPIS_1.c **** }
 644              		.loc 1 124 0
 645 001a A2F20112 		subw	r2, r2, #257
 646 001e 1370     		strb	r3, [r2]
 647 0020 08BD     		pop	{r3, pc}
 648              	.L68:
 649 0022 00BF     		.align	2
 650              	.L67:
ARM GAS  C:\Users\DGILLI~1\AppData\Local\Temp\ccZqqpmp.s 			page 32


 651 0024 86650040 		.word	1073767814
 652 0028 87650040 		.word	1073767815
 653              		.cfi_endproc
 654              	.LFE0:
 655              		.size	SPIS_1_Init, .-SPIS_1_Init
 656              		.section	.text.SPIS_1_Start,"ax",%progbits
 657              		.align	2
 658              		.global	SPIS_1_Start
 659              		.thumb
 660              		.thumb_func
 661              		.type	SPIS_1_Start, %function
 662              	SPIS_1_Start:
 663              	.LFB2:
 188:.\Generated_Source\PSoC5/SPIS_1.c ****     if(SPIS_1_initVar == 0u)
 664              		.loc 1 188 0
 665              		.cfi_startproc
 666              		@ args = 0, pretend = 0, frame = 0
 667              		@ frame_needed = 0, uses_anonymous_args = 0
 668 0000 08B5     		push	{r3, lr}
 669              		.cfi_def_cfa_offset 8
 670              		.cfi_offset 3, -8
 671              		.cfi_offset 14, -4
 189:.\Generated_Source\PSoC5/SPIS_1.c ****     {
 672              		.loc 1 189 0
 673 0002 054B     		ldr	r3, .L72
 674 0004 1B78     		ldrb	r3, [r3]	@ zero_extendqisi2
 675 0006 23B9     		cbnz	r3, .L70
 191:.\Generated_Source\PSoC5/SPIS_1.c ****         SPIS_1_initVar = 1u;
 676              		.loc 1 191 0
 677 0008 FFF7FEFF 		bl	SPIS_1_Init
 678              	.LVL29:
 192:.\Generated_Source\PSoC5/SPIS_1.c ****     }
 679              		.loc 1 192 0
 680 000c 0122     		movs	r2, #1
 681 000e 024B     		ldr	r3, .L72
 682 0010 1A70     		strb	r2, [r3]
 683              	.L70:
 195:.\Generated_Source\PSoC5/SPIS_1.c **** }
 684              		.loc 1 195 0
 685 0012 FFF7FEFF 		bl	SPIS_1_Enable
 686              	.LVL30:
 687 0016 08BD     		pop	{r3, pc}
 688              	.L73:
 689              		.align	2
 690              	.L72:
 691 0018 00000000 		.word	.LANCHOR0
 692              		.cfi_endproc
 693              	.LFE2:
 694              		.size	SPIS_1_Start, .-SPIS_1_Start
 695              		.section	.text.SPIS_1_EnableInt,"ax",%progbits
 696              		.align	2
 697              		.global	SPIS_1_EnableInt
 698              		.thumb
 699              		.thumb_func
 700              		.type	SPIS_1_EnableInt, %function
 701              	SPIS_1_EnableInt:
 702              	.LFB21:
ARM GAS  C:\Users\DGILLI~1\AppData\Local\Temp\ccZqqpmp.s 			page 33


1107:.\Generated_Source\PSoC5/SPIS_1.c **** }
1108:.\Generated_Source\PSoC5/SPIS_1.c **** 
1109:.\Generated_Source\PSoC5/SPIS_1.c **** 
1110:.\Generated_Source\PSoC5/SPIS_1.c **** /* Following functions are for version Compatibility, they are obsolete.
1111:.\Generated_Source\PSoC5/SPIS_1.c **** *  Please do not use it in new projects.
1112:.\Generated_Source\PSoC5/SPIS_1.c **** */
1113:.\Generated_Source\PSoC5/SPIS_1.c **** 
1114:.\Generated_Source\PSoC5/SPIS_1.c **** 
1115:.\Generated_Source\PSoC5/SPIS_1.c **** /*******************************************************************************
1116:.\Generated_Source\PSoC5/SPIS_1.c **** * Function Name: SPIS_1_EnableInt
1117:.\Generated_Source\PSoC5/SPIS_1.c **** ********************************************************************************
1118:.\Generated_Source\PSoC5/SPIS_1.c **** *
1119:.\Generated_Source\PSoC5/SPIS_1.c **** * Summary:
1120:.\Generated_Source\PSoC5/SPIS_1.c **** *  Enable internal interrupt generation.
1121:.\Generated_Source\PSoC5/SPIS_1.c **** *
1122:.\Generated_Source\PSoC5/SPIS_1.c **** * Parameters:
1123:.\Generated_Source\PSoC5/SPIS_1.c **** *  None.
1124:.\Generated_Source\PSoC5/SPIS_1.c **** *
1125:.\Generated_Source\PSoC5/SPIS_1.c **** * Return:
1126:.\Generated_Source\PSoC5/SPIS_1.c **** *  None.
1127:.\Generated_Source\PSoC5/SPIS_1.c **** *
1128:.\Generated_Source\PSoC5/SPIS_1.c **** * Theory:
1129:.\Generated_Source\PSoC5/SPIS_1.c **** *  Enable the internal interrupt output -or- the interrupt component itself.
1130:.\Generated_Source\PSoC5/SPIS_1.c **** *
1131:.\Generated_Source\PSoC5/SPIS_1.c **** *******************************************************************************/
1132:.\Generated_Source\PSoC5/SPIS_1.c **** void SPIS_1_EnableInt(void) 
1133:.\Generated_Source\PSoC5/SPIS_1.c **** {
 703              		.loc 1 1133 0
 704              		.cfi_startproc
 705              		@ args = 0, pretend = 0, frame = 0
 706              		@ frame_needed = 0, uses_anonymous_args = 0
 707              		@ link register save eliminated.
 708 0000 7047     		bx	lr
 709              		.cfi_endproc
 710              	.LFE21:
 711              		.size	SPIS_1_EnableInt, .-SPIS_1_EnableInt
 712 0002 00BF     		.section	.text.SPIS_1_DisableInt,"ax",%progbits
 713              		.align	2
 714              		.global	SPIS_1_DisableInt
 715              		.thumb
 716              		.thumb_func
 717              		.type	SPIS_1_DisableInt, %function
 718              	SPIS_1_DisableInt:
 719              	.LFB22:
1134:.\Generated_Source\PSoC5/SPIS_1.c ****     #if(SPIS_1_INTERNAL_TX_INT_ENABLED)
1135:.\Generated_Source\PSoC5/SPIS_1.c ****         CyIntEnable(SPIS_1_TX_ISR_NUMBER);
1136:.\Generated_Source\PSoC5/SPIS_1.c ****     #endif /* SPIS_1_INTERNAL_TX_INT_ENABLED */
1137:.\Generated_Source\PSoC5/SPIS_1.c **** 
1138:.\Generated_Source\PSoC5/SPIS_1.c ****     #if(SPIS_1_INTERNAL_RX_INT_ENABLED)
1139:.\Generated_Source\PSoC5/SPIS_1.c ****         CyIntEnable(SPIS_1_RX_ISR_NUMBER);
1140:.\Generated_Source\PSoC5/SPIS_1.c ****     #endif /* SPIS_1_INTERNAL_RX_INT_ENABLED */
1141:.\Generated_Source\PSoC5/SPIS_1.c **** }
1142:.\Generated_Source\PSoC5/SPIS_1.c **** 
1143:.\Generated_Source\PSoC5/SPIS_1.c **** 
1144:.\Generated_Source\PSoC5/SPIS_1.c **** /*******************************************************************************
1145:.\Generated_Source\PSoC5/SPIS_1.c **** * Function Name: SPIS_1_DisableInt
1146:.\Generated_Source\PSoC5/SPIS_1.c **** ********************************************************************************
ARM GAS  C:\Users\DGILLI~1\AppData\Local\Temp\ccZqqpmp.s 			page 34


1147:.\Generated_Source\PSoC5/SPIS_1.c **** *
1148:.\Generated_Source\PSoC5/SPIS_1.c **** * Summary:
1149:.\Generated_Source\PSoC5/SPIS_1.c **** *  Disable internal interrupt generation.
1150:.\Generated_Source\PSoC5/SPIS_1.c **** *
1151:.\Generated_Source\PSoC5/SPIS_1.c **** * Parameters:
1152:.\Generated_Source\PSoC5/SPIS_1.c **** *  None.
1153:.\Generated_Source\PSoC5/SPIS_1.c **** *
1154:.\Generated_Source\PSoC5/SPIS_1.c **** * Return:
1155:.\Generated_Source\PSoC5/SPIS_1.c **** *  None.
1156:.\Generated_Source\PSoC5/SPIS_1.c **** *
1157:.\Generated_Source\PSoC5/SPIS_1.c **** * Theory:
1158:.\Generated_Source\PSoC5/SPIS_1.c **** *  Disable the internal interrupt output -or- the interrupt component itself.
1159:.\Generated_Source\PSoC5/SPIS_1.c **** *
1160:.\Generated_Source\PSoC5/SPIS_1.c **** *******************************************************************************/
1161:.\Generated_Source\PSoC5/SPIS_1.c **** void SPIS_1_DisableInt(void) 
1162:.\Generated_Source\PSoC5/SPIS_1.c **** {
 720              		.loc 1 1162 0
 721              		.cfi_startproc
 722              		@ args = 0, pretend = 0, frame = 0
 723              		@ frame_needed = 0, uses_anonymous_args = 0
 724              		@ link register save eliminated.
 725 0000 7047     		bx	lr
 726              		.cfi_endproc
 727              	.LFE22:
 728              		.size	SPIS_1_DisableInt, .-SPIS_1_DisableInt
 729 0002 00BF     		.section	.text.SPIS_1_SetInterruptMode,"ax",%progbits
 730              		.align	2
 731              		.global	SPIS_1_SetInterruptMode
 732              		.thumb
 733              		.thumb_func
 734              		.type	SPIS_1_SetInterruptMode, %function
 735              	SPIS_1_SetInterruptMode:
 736              	.LFB23:
1163:.\Generated_Source\PSoC5/SPIS_1.c ****     #if(SPIS_1_INTERNAL_TX_INT_ENABLED)
1164:.\Generated_Source\PSoC5/SPIS_1.c ****         CyIntDisable(SPIS_1_TX_ISR_NUMBER);
1165:.\Generated_Source\PSoC5/SPIS_1.c ****     #endif /* SPIS_1_INTERNAL_TX_INT_ENABLED */
1166:.\Generated_Source\PSoC5/SPIS_1.c **** 
1167:.\Generated_Source\PSoC5/SPIS_1.c ****     #if(SPIS_1_INTERNAL_RX_INT_ENABLED)
1168:.\Generated_Source\PSoC5/SPIS_1.c ****         CyIntDisable(SPIS_1_RX_ISR_NUMBER);
1169:.\Generated_Source\PSoC5/SPIS_1.c ****     #endif /* SPIS_1_INTERNAL_RX_INT_ENABLED */
1170:.\Generated_Source\PSoC5/SPIS_1.c **** }
1171:.\Generated_Source\PSoC5/SPIS_1.c **** 
1172:.\Generated_Source\PSoC5/SPIS_1.c **** 
1173:.\Generated_Source\PSoC5/SPIS_1.c **** /*******************************************************************************
1174:.\Generated_Source\PSoC5/SPIS_1.c **** * Function Name: SPIS_1_SetInterruptMode
1175:.\Generated_Source\PSoC5/SPIS_1.c **** ********************************************************************************
1176:.\Generated_Source\PSoC5/SPIS_1.c **** *
1177:.\Generated_Source\PSoC5/SPIS_1.c **** * Summary:
1178:.\Generated_Source\PSoC5/SPIS_1.c **** *  Configure which status bits trigger an interrupt event.
1179:.\Generated_Source\PSoC5/SPIS_1.c **** *
1180:.\Generated_Source\PSoC5/SPIS_1.c **** * Parameters:
1181:.\Generated_Source\PSoC5/SPIS_1.c **** *  intSrc: An or'd combination of the desired status bit masks (defined in the
1182:.\Generated_Source\PSoC5/SPIS_1.c **** *  header file).
1183:.\Generated_Source\PSoC5/SPIS_1.c **** *
1184:.\Generated_Source\PSoC5/SPIS_1.c **** * Return:
1185:.\Generated_Source\PSoC5/SPIS_1.c **** *  None.
1186:.\Generated_Source\PSoC5/SPIS_1.c **** *
ARM GAS  C:\Users\DGILLI~1\AppData\Local\Temp\ccZqqpmp.s 			page 35


1187:.\Generated_Source\PSoC5/SPIS_1.c **** * Theory:
1188:.\Generated_Source\PSoC5/SPIS_1.c **** *  Enables the output of specific status bits to the interrupt controller.
1189:.\Generated_Source\PSoC5/SPIS_1.c **** *
1190:.\Generated_Source\PSoC5/SPIS_1.c **** *******************************************************************************/
1191:.\Generated_Source\PSoC5/SPIS_1.c **** void SPIS_1_SetInterruptMode(uint8 intSrc) 
1192:.\Generated_Source\PSoC5/SPIS_1.c **** {
 737              		.loc 1 1192 0
 738              		.cfi_startproc
 739              		@ args = 0, pretend = 0, frame = 0
 740              		@ frame_needed = 0, uses_anonymous_args = 0
 741              		@ link register save eliminated.
 742              	.LVL31:
1193:.\Generated_Source\PSoC5/SPIS_1.c ****     SPIS_1_TX_STATUS_MASK_REG  = intSrc;
 743              		.loc 1 1193 0
 744 0000 024B     		ldr	r3, .L77
 745 0002 1870     		strb	r0, [r3]
1194:.\Generated_Source\PSoC5/SPIS_1.c ****     SPIS_1_RX_STATUS_MASK_REG  = intSrc;
 746              		.loc 1 1194 0
 747 0004 A3F20113 		subw	r3, r3, #257
 748 0008 1870     		strb	r0, [r3]
 749 000a 7047     		bx	lr
 750              	.L78:
 751              		.align	2
 752              	.L77:
 753 000c 87650040 		.word	1073767815
 754              		.cfi_endproc
 755              	.LFE23:
 756              		.size	SPIS_1_SetInterruptMode, .-SPIS_1_SetInterruptMode
 757              		.section	.text.SPIS_1_ReadStatus,"ax",%progbits
 758              		.align	2
 759              		.global	SPIS_1_ReadStatus
 760              		.thumb
 761              		.thumb_func
 762              		.type	SPIS_1_ReadStatus, %function
 763              	SPIS_1_ReadStatus:
 764              	.LFB24:
1195:.\Generated_Source\PSoC5/SPIS_1.c **** }
1196:.\Generated_Source\PSoC5/SPIS_1.c **** 
1197:.\Generated_Source\PSoC5/SPIS_1.c **** 
1198:.\Generated_Source\PSoC5/SPIS_1.c **** /*******************************************************************************
1199:.\Generated_Source\PSoC5/SPIS_1.c **** * Function Name: SPIS_1_ReadStatus
1200:.\Generated_Source\PSoC5/SPIS_1.c **** ********************************************************************************
1201:.\Generated_Source\PSoC5/SPIS_1.c **** *
1202:.\Generated_Source\PSoC5/SPIS_1.c **** * Summary:
1203:.\Generated_Source\PSoC5/SPIS_1.c **** *  Read the status register for the component.
1204:.\Generated_Source\PSoC5/SPIS_1.c **** *
1205:.\Generated_Source\PSoC5/SPIS_1.c **** * Parameters:
1206:.\Generated_Source\PSoC5/SPIS_1.c **** *  None.
1207:.\Generated_Source\PSoC5/SPIS_1.c **** *
1208:.\Generated_Source\PSoC5/SPIS_1.c **** * Return:
1209:.\Generated_Source\PSoC5/SPIS_1.c **** *  Contents of the status register.
1210:.\Generated_Source\PSoC5/SPIS_1.c **** *
1211:.\Generated_Source\PSoC5/SPIS_1.c **** * Global variables:
1212:.\Generated_Source\PSoC5/SPIS_1.c **** *  SPIS_1_swStatus - used to store in software status register,
1213:.\Generated_Source\PSoC5/SPIS_1.c **** *  modified every function call - resets to zero.
1214:.\Generated_Source\PSoC5/SPIS_1.c **** *
1215:.\Generated_Source\PSoC5/SPIS_1.c **** * Theory:
ARM GAS  C:\Users\DGILLI~1\AppData\Local\Temp\ccZqqpmp.s 			page 36


1216:.\Generated_Source\PSoC5/SPIS_1.c **** *  Allows the user and the API to read the status register for error detection
1217:.\Generated_Source\PSoC5/SPIS_1.c **** *  and flow control.
1218:.\Generated_Source\PSoC5/SPIS_1.c **** *
1219:.\Generated_Source\PSoC5/SPIS_1.c **** * Side Effects:
1220:.\Generated_Source\PSoC5/SPIS_1.c **** *  Clear status register of the component.
1221:.\Generated_Source\PSoC5/SPIS_1.c **** *
1222:.\Generated_Source\PSoC5/SPIS_1.c **** * Reentrant:
1223:.\Generated_Source\PSoC5/SPIS_1.c **** *  No.
1224:.\Generated_Source\PSoC5/SPIS_1.c **** *
1225:.\Generated_Source\PSoC5/SPIS_1.c **** *******************************************************************************/
1226:.\Generated_Source\PSoC5/SPIS_1.c **** uint8 SPIS_1_ReadStatus(void) 
1227:.\Generated_Source\PSoC5/SPIS_1.c **** {
 765              		.loc 1 1227 0
 766              		.cfi_startproc
 767              		@ args = 0, pretend = 0, frame = 0
 768              		@ frame_needed = 0, uses_anonymous_args = 0
 769              		@ link register save eliminated.
1228:.\Generated_Source\PSoC5/SPIS_1.c ****     uint8 tmpStatus;
1229:.\Generated_Source\PSoC5/SPIS_1.c **** 
1230:.\Generated_Source\PSoC5/SPIS_1.c ****     #if ((SPIS_1_TX_SOFTWARE_BUF_ENABLED) || (SPIS_1_RX_SOFTWARE_BUF_ENABLED))
1231:.\Generated_Source\PSoC5/SPIS_1.c **** 
1232:.\Generated_Source\PSoC5/SPIS_1.c ****         SPIS_1_DisableInt();
1233:.\Generated_Source\PSoC5/SPIS_1.c **** 
1234:.\Generated_Source\PSoC5/SPIS_1.c ****         tmpStatus = SPIS_1_GET_STATUS_TX(SPIS_1_swStatusTx) |
1235:.\Generated_Source\PSoC5/SPIS_1.c ****               (SPIS_1_GET_STATUS_RX(SPIS_1_swStatusRx) & (uint8)~SPIS_1_STS_RX_FIFO_FULL);
1236:.\Generated_Source\PSoC5/SPIS_1.c **** 
1237:.\Generated_Source\PSoC5/SPIS_1.c ****         SPIS_1_swStatusTx = 0u;
1238:.\Generated_Source\PSoC5/SPIS_1.c ****         SPIS_1_swStatusRx = 0u;
1239:.\Generated_Source\PSoC5/SPIS_1.c **** 
1240:.\Generated_Source\PSoC5/SPIS_1.c ****         /* Enable Interrupts */
1241:.\Generated_Source\PSoC5/SPIS_1.c ****         SPIS_1_EnableInt();
1242:.\Generated_Source\PSoC5/SPIS_1.c **** 
1243:.\Generated_Source\PSoC5/SPIS_1.c ****     #else /* !((SPIS_1_TX_SOFTWARE_BUF_ENABLED) || (SPIS_1_RX_SOFTWARE_BUF_ENABLED)) */
1244:.\Generated_Source\PSoC5/SPIS_1.c **** 
1245:.\Generated_Source\PSoC5/SPIS_1.c ****         tmpStatus = SPIS_1_TX_STATUS_REG | (SPIS_1_RX_STATUS_REG &
 770              		.loc 1 1245 0
 771 0000 044B     		ldr	r3, .L80
 772 0002 1878     		ldrb	r0, [r3]	@ zero_extendqisi2
 773 0004 A3F20113 		subw	r3, r3, #257
 774 0008 1B78     		ldrb	r3, [r3]	@ zero_extendqisi2
 775 000a 03F0BF03 		and	r3, r3, #191
 776              	.LVL32:
1246:.\Generated_Source\PSoC5/SPIS_1.c ****                                                       (uint8)~SPIS_1_STS_RX_FIFO_FULL);
1247:.\Generated_Source\PSoC5/SPIS_1.c **** 
1248:.\Generated_Source\PSoC5/SPIS_1.c ****     #endif /* (SPIS_1_TX_SOFTWARE_BUF_ENABLED) || (SPIS_1_RX_SOFTWARE_BUF_ENABLED) */
1249:.\Generated_Source\PSoC5/SPIS_1.c **** 
1250:.\Generated_Source\PSoC5/SPIS_1.c ****     return(tmpStatus);
1251:.\Generated_Source\PSoC5/SPIS_1.c **** }
 777              		.loc 1 1251 0
 778 000e 1843     		orrs	r0, r0, r3
 779              	.LVL33:
 780 0010 7047     		bx	lr
 781              	.L81:
 782 0012 00BF     		.align	2
 783              	.L80:
 784 0014 67650040 		.word	1073767783
 785              		.cfi_endproc
ARM GAS  C:\Users\DGILLI~1\AppData\Local\Temp\ccZqqpmp.s 			page 37


 786              	.LFE24:
 787              		.size	SPIS_1_ReadStatus, .-SPIS_1_ReadStatus
 788              		.comm	SPIS_1_swStatusRx,1,1
 789              		.comm	SPIS_1_swStatusTx,1,1
 790              		.global	SPIS_1_initVar
 791              		.bss
 792              		.set	.LANCHOR0,. + 0
 793              		.type	SPIS_1_initVar, %object
 794              		.size	SPIS_1_initVar, 1
 795              	SPIS_1_initVar:
 796 0000 00       		.space	1
 797              		.text
 798              	.Letext0:
 799              		.file 2 ".\\Generated_Source\\PSoC5\\cytypes.h"
 800              		.file 3 ".\\Generated_Source\\PSoC5\\CyLib.h"