ARM GAS  C:\Users\HPz420\AppData\Local\Temp\ccz4K5YU.s 			page 1


   1              		.syntax unified
   2              		.cpu cortex-m0
   3              		.fpu softvfp
   4              		.eabi_attribute 20, 1
   5              		.eabi_attribute 21, 1
   6              		.eabi_attribute 23, 3
   7              		.eabi_attribute 24, 1
   8              		.eabi_attribute 25, 1
   9              		.eabi_attribute 26, 1
  10              		.eabi_attribute 30, 6
  11              		.eabi_attribute 34, 0
  12              		.eabi_attribute 18, 4
  13              		.thumb
  14              		.syntax unified
  15              		.file	"CyDMA.c"
  16              		.text
  17              	.Ltext0:
  18              		.cfi_sections	.debug_frame
  19              		.data
  20              		.align	2
  21              		.type	CyDmaInterruptCallback, %object
  22              		.size	CyDmaInterruptCallback, 128
  23              	CyDmaInterruptCallback:
  24 0000 00000000 		.word	CyDmaDefaultInterruptCallback
  25 0004 00000000 		.word	CyDmaDefaultInterruptCallback
  26 0008 00000000 		.word	CyDmaDefaultInterruptCallback
  27 000c 00000000 		.word	CyDmaDefaultInterruptCallback
  28 0010 00000000 		.word	CyDmaDefaultInterruptCallback
  29 0014 00000000 		.word	CyDmaDefaultInterruptCallback
  30 0018 00000000 		.word	CyDmaDefaultInterruptCallback
  31 001c 00000000 		.word	CyDmaDefaultInterruptCallback
  32 0020 00000000 		.word	CyDmaDefaultInterruptCallback
  33 0024 00000000 		.word	CyDmaDefaultInterruptCallback
  34 0028 00000000 		.word	CyDmaDefaultInterruptCallback
  35 002c 00000000 		.word	CyDmaDefaultInterruptCallback
  36 0030 00000000 		.word	CyDmaDefaultInterruptCallback
  37 0034 00000000 		.word	CyDmaDefaultInterruptCallback
  38 0038 00000000 		.word	CyDmaDefaultInterruptCallback
  39 003c 00000000 		.word	CyDmaDefaultInterruptCallback
  40 0040 00000000 		.word	CyDmaDefaultInterruptCallback
  41 0044 00000000 		.word	CyDmaDefaultInterruptCallback
  42 0048 00000000 		.word	CyDmaDefaultInterruptCallback
  43 004c 00000000 		.word	CyDmaDefaultInterruptCallback
  44 0050 00000000 		.word	CyDmaDefaultInterruptCallback
  45 0054 00000000 		.word	CyDmaDefaultInterruptCallback
  46 0058 00000000 		.word	CyDmaDefaultInterruptCallback
  47 005c 00000000 		.word	CyDmaDefaultInterruptCallback
  48 0060 00000000 		.word	CyDmaDefaultInterruptCallback
  49 0064 00000000 		.word	CyDmaDefaultInterruptCallback
  50 0068 00000000 		.word	CyDmaDefaultInterruptCallback
  51 006c 00000000 		.word	CyDmaDefaultInterruptCallback
  52 0070 00000000 		.word	CyDmaDefaultInterruptCallback
  53 0074 00000000 		.word	CyDmaDefaultInterruptCallback
  54 0078 00000000 		.word	CyDmaDefaultInterruptCallback
  55 007c 00000000 		.word	CyDmaDefaultInterruptCallback
  56              		.bss
  57              		.align	2
ARM GAS  C:\Users\HPz420\AppData\Local\Temp\ccz4K5YU.s 			page 2


  58              	CyDmaChannelUsedMask:
  59 0000 00000000 		.space	4
  60              		.section	.text.CyDmaEnable,"ax",%progbits
  61              		.align	2
  62              		.global	CyDmaEnable
  63              		.code	16
  64              		.thumb_func
  65              		.type	CyDmaEnable, %function
  66              	CyDmaEnable:
  67              	.LFB1:
  68              		.file 1 "Generated_Source\\PSoC4\\CyDMA.c"
   1:Generated_Source\PSoC4/CyDMA.c **** /*******************************************************************************
   2:Generated_Source\PSoC4/CyDMA.c **** * File Name: CyDMA.c
   3:Generated_Source\PSoC4/CyDMA.c **** * Version 1.10
   4:Generated_Source\PSoC4/CyDMA.c **** *
   5:Generated_Source\PSoC4/CyDMA.c **** * Description:
   6:Generated_Source\PSoC4/CyDMA.c **** *  This file contains all of the global DMA API functions.
   7:Generated_Source\PSoC4/CyDMA.c **** *
   8:Generated_Source\PSoC4/CyDMA.c **** ********************************************************************************
   9:Generated_Source\PSoC4/CyDMA.c **** * Copyright 2015, Cypress Semiconductor Corporation. All rights reserved.
  10:Generated_Source\PSoC4/CyDMA.c **** * You may use this file only in accordance with the license, terms, conditions,
  11:Generated_Source\PSoC4/CyDMA.c **** * disclaimers, and limitations in the end user license agreement accompanying
  12:Generated_Source\PSoC4/CyDMA.c **** * the software package with which this file was provided.
  13:Generated_Source\PSoC4/CyDMA.c **** *******************************************************************************/
  14:Generated_Source\PSoC4/CyDMA.c **** 
  15:Generated_Source\PSoC4/CyDMA.c **** #include "CyDMA.h"
  16:Generated_Source\PSoC4/CyDMA.c **** #include "CyLib.h"
  17:Generated_Source\PSoC4/CyDMA.c **** 
  18:Generated_Source\PSoC4/CyDMA.c **** /* Default callback function. It is invoked if the user callback function is
  19:Generated_Source\PSoC4/CyDMA.c **** * undefined.
  20:Generated_Source\PSoC4/CyDMA.c **** */
  21:Generated_Source\PSoC4/CyDMA.c **** static void CyDmaDefaultInterruptCallback(void);
  22:Generated_Source\PSoC4/CyDMA.c **** 
  23:Generated_Source\PSoC4/CyDMA.c **** /* Array of pointers to user defined callback functions to be called
  24:Generated_Source\PSoC4/CyDMA.c **** * from DMA interrupt.
  25:Generated_Source\PSoC4/CyDMA.c **** */
  26:Generated_Source\PSoC4/CyDMA.c **** static cydma_callback_t CyDmaInterruptCallback[CYDMA_CH_NR] = {
  27:Generated_Source\PSoC4/CyDMA.c ****     &CyDmaDefaultInterruptCallback, &CyDmaDefaultInterruptCallback,
  28:Generated_Source\PSoC4/CyDMA.c ****     &CyDmaDefaultInterruptCallback, &CyDmaDefaultInterruptCallback,
  29:Generated_Source\PSoC4/CyDMA.c ****     &CyDmaDefaultInterruptCallback, &CyDmaDefaultInterruptCallback,
  30:Generated_Source\PSoC4/CyDMA.c ****     &CyDmaDefaultInterruptCallback, &CyDmaDefaultInterruptCallback,
  31:Generated_Source\PSoC4/CyDMA.c ****     &CyDmaDefaultInterruptCallback, &CyDmaDefaultInterruptCallback,
  32:Generated_Source\PSoC4/CyDMA.c ****     &CyDmaDefaultInterruptCallback, &CyDmaDefaultInterruptCallback,
  33:Generated_Source\PSoC4/CyDMA.c ****     &CyDmaDefaultInterruptCallback, &CyDmaDefaultInterruptCallback,
  34:Generated_Source\PSoC4/CyDMA.c ****     &CyDmaDefaultInterruptCallback, &CyDmaDefaultInterruptCallback,
  35:Generated_Source\PSoC4/CyDMA.c ****     &CyDmaDefaultInterruptCallback, &CyDmaDefaultInterruptCallback,
  36:Generated_Source\PSoC4/CyDMA.c ****     &CyDmaDefaultInterruptCallback, &CyDmaDefaultInterruptCallback,
  37:Generated_Source\PSoC4/CyDMA.c ****     &CyDmaDefaultInterruptCallback, &CyDmaDefaultInterruptCallback,
  38:Generated_Source\PSoC4/CyDMA.c ****     &CyDmaDefaultInterruptCallback, &CyDmaDefaultInterruptCallback,
  39:Generated_Source\PSoC4/CyDMA.c ****     &CyDmaDefaultInterruptCallback, &CyDmaDefaultInterruptCallback,
  40:Generated_Source\PSoC4/CyDMA.c ****     &CyDmaDefaultInterruptCallback, &CyDmaDefaultInterruptCallback,
  41:Generated_Source\PSoC4/CyDMA.c ****     &CyDmaDefaultInterruptCallback, &CyDmaDefaultInterruptCallback,
  42:Generated_Source\PSoC4/CyDMA.c ****     &CyDmaDefaultInterruptCallback, &CyDmaDefaultInterruptCallback
  43:Generated_Source\PSoC4/CyDMA.c **** };
  44:Generated_Source\PSoC4/CyDMA.c **** 
  45:Generated_Source\PSoC4/CyDMA.c **** /* The live status of all DMA channels usage. Bit i is associated to channel i,
  46:Generated_Source\PSoC4/CyDMA.c **** * with i = 0..CYDMA_CH_NR-1. '0' - channel is free. '1' - channel is in use.
ARM GAS  C:\Users\HPz420\AppData\Local\Temp\ccz4K5YU.s 			page 3


  47:Generated_Source\PSoC4/CyDMA.c **** * All the channels allocated for DMA instances placed on a schematic are in use
  48:Generated_Source\PSoC4/CyDMA.c **** * by default and cannot be freed. 
  49:Generated_Source\PSoC4/CyDMA.c **** * DMA_CHANNELS_USED__MASK is generated during the build time and is a bit field
  50:Generated_Source\PSoC4/CyDMA.c **** * corresponding to the DMA channels placed on a design schematic.
  51:Generated_Source\PSoC4/CyDMA.c **** */
  52:Generated_Source\PSoC4/CyDMA.c **** static uint32 CyDmaChannelUsedMask = DMA_CHANNELS_USED__MASK;
  53:Generated_Source\PSoC4/CyDMA.c **** 
  54:Generated_Source\PSoC4/CyDMA.c **** 
  55:Generated_Source\PSoC4/CyDMA.c **** /*******************************************************************************
  56:Generated_Source\PSoC4/CyDMA.c **** * Function Name: CyDmaEnable
  57:Generated_Source\PSoC4/CyDMA.c **** ********************************************************************************
  58:Generated_Source\PSoC4/CyDMA.c **** *
  59:Generated_Source\PSoC4/CyDMA.c **** * Summary:
  60:Generated_Source\PSoC4/CyDMA.c **** *  Sets the default ISR to be called by the DMA interrupt and enables the DMA
  61:Generated_Source\PSoC4/CyDMA.c **** *  transfer engine.
  62:Generated_Source\PSoC4/CyDMA.c **** *
  63:Generated_Source\PSoC4/CyDMA.c **** * Parameters:
  64:Generated_Source\PSoC4/CyDMA.c **** *  None.
  65:Generated_Source\PSoC4/CyDMA.c **** *                   
  66:Generated_Source\PSoC4/CyDMA.c **** * Return:
  67:Generated_Source\PSoC4/CyDMA.c **** *  None.
  68:Generated_Source\PSoC4/CyDMA.c **** *
  69:Generated_Source\PSoC4/CyDMA.c **** * Side effect:
  70:Generated_Source\PSoC4/CyDMA.c **** *  Does not affect the channel enable status. Overrides the interrupt vector
  71:Generated_Source\PSoC4/CyDMA.c **** *  set prior the first time CyDmaEnable() is called.
  72:Generated_Source\PSoC4/CyDMA.c **** *
  73:Generated_Source\PSoC4/CyDMA.c **** *******************************************************************************/
  74:Generated_Source\PSoC4/CyDMA.c **** void CyDmaEnable(void)
  75:Generated_Source\PSoC4/CyDMA.c **** {
  69              		.loc 1 75 0
  70              		.cfi_startproc
  71              		@ args = 0, pretend = 0, frame = 0
  72              		@ frame_needed = 1, uses_anonymous_args = 0
  73 0000 80B5     		push	{r7, lr}
  74              		.cfi_def_cfa_offset 8
  75              		.cfi_offset 7, -8
  76              		.cfi_offset 14, -4
  77 0002 00AF     		add	r7, sp, #0
  78              		.cfi_def_cfa_register 7
  76:Generated_Source\PSoC4/CyDMA.c ****     static uint8 initIntrVector = 0u;
  77:Generated_Source\PSoC4/CyDMA.c **** 
  78:Generated_Source\PSoC4/CyDMA.c ****     if(0u == initIntrVector)
  79              		.loc 1 78 0
  80 0004 0A4B     		ldr	r3, .L3
  81 0006 1B78     		ldrb	r3, [r3]
  82 0008 002B     		cmp	r3, #0
  83 000a 0AD1     		bne	.L2
  79:Generated_Source\PSoC4/CyDMA.c ****     {
  80:Generated_Source\PSoC4/CyDMA.c ****         CyDmaSetInterruptVector(&CyDmaInterrupt);
  84              		.loc 1 80 0
  85 000c 094B     		ldr	r3, .L3+4
  86 000e 1800     		movs	r0, r3
  87 0010 FFF7FEFF 		bl	CyDmaSetInterruptVector
  81:Generated_Source\PSoC4/CyDMA.c ****         CyIntSetPriority(CYDMA_INTR_NUMBER, CYDMA_INTR_PRIO);
  88              		.loc 1 81 0
  89 0014 0321     		movs	r1, #3
  90 0016 0E20     		movs	r0, #14
ARM GAS  C:\Users\HPz420\AppData\Local\Temp\ccz4K5YU.s 			page 4


  91 0018 FFF7FEFF 		bl	CyIntSetPriority
  82:Generated_Source\PSoC4/CyDMA.c ****         initIntrVector = 1u;
  92              		.loc 1 82 0
  93 001c 044B     		ldr	r3, .L3
  94 001e 0122     		movs	r2, #1
  95 0020 1A70     		strb	r2, [r3]
  96              	.L2:
  83:Generated_Source\PSoC4/CyDMA.c ****     }
  84:Generated_Source\PSoC4/CyDMA.c ****     CYDMA_CTL_REG = CYDMA_ENABLED;
  97              		.loc 1 84 0
  98 0022 054B     		ldr	r3, .L3+8
  99 0024 8022     		movs	r2, #128
 100 0026 1206     		lsls	r2, r2, #24
 101 0028 1A60     		str	r2, [r3]
  85:Generated_Source\PSoC4/CyDMA.c **** }
 102              		.loc 1 85 0
 103 002a C046     		nop
 104 002c BD46     		mov	sp, r7
 105              		@ sp needed
 106 002e 80BD     		pop	{r7, pc}
 107              	.L4:
 108              		.align	2
 109              	.L3:
 110 0030 04000000 		.word	initIntrVector.5066
 111 0034 00000000 		.word	CyDmaInterrupt
 112 0038 00101040 		.word	1074794496
 113              		.cfi_endproc
 114              	.LFE1:
 115              		.size	CyDmaEnable, .-CyDmaEnable
 116              		.section	.text.CyDmaDisable,"ax",%progbits
 117              		.align	2
 118              		.global	CyDmaDisable
 119              		.code	16
 120              		.thumb_func
 121              		.type	CyDmaDisable, %function
 122              	CyDmaDisable:
 123              	.LFB2:
  86:Generated_Source\PSoC4/CyDMA.c **** 
  87:Generated_Source\PSoC4/CyDMA.c **** 
  88:Generated_Source\PSoC4/CyDMA.c **** /*******************************************************************************
  89:Generated_Source\PSoC4/CyDMA.c **** * Function Name: CyDmaDisable
  90:Generated_Source\PSoC4/CyDMA.c **** ********************************************************************************
  91:Generated_Source\PSoC4/CyDMA.c **** *
  92:Generated_Source\PSoC4/CyDMA.c **** * Summary:
  93:Generated_Source\PSoC4/CyDMA.c **** *  Disables the DMA transfer engine.
  94:Generated_Source\PSoC4/CyDMA.c **** *
  95:Generated_Source\PSoC4/CyDMA.c **** * Parameters:
  96:Generated_Source\PSoC4/CyDMA.c **** *  None.
  97:Generated_Source\PSoC4/CyDMA.c **** *                   
  98:Generated_Source\PSoC4/CyDMA.c **** * Return:
  99:Generated_Source\PSoC4/CyDMA.c **** *  None.
 100:Generated_Source\PSoC4/CyDMA.c **** *
 101:Generated_Source\PSoC4/CyDMA.c **** * Side effect:
 102:Generated_Source\PSoC4/CyDMA.c **** *  Does not affect the channel enable status.
 103:Generated_Source\PSoC4/CyDMA.c **** *
 104:Generated_Source\PSoC4/CyDMA.c **** *******************************************************************************/
 105:Generated_Source\PSoC4/CyDMA.c **** void CyDmaDisable(void)
ARM GAS  C:\Users\HPz420\AppData\Local\Temp\ccz4K5YU.s 			page 5


 106:Generated_Source\PSoC4/CyDMA.c **** {
 124              		.loc 1 106 0
 125              		.cfi_startproc
 126              		@ args = 0, pretend = 0, frame = 0
 127              		@ frame_needed = 1, uses_anonymous_args = 0
 128 0000 80B5     		push	{r7, lr}
 129              		.cfi_def_cfa_offset 8
 130              		.cfi_offset 7, -8
 131              		.cfi_offset 14, -4
 132 0002 00AF     		add	r7, sp, #0
 133              		.cfi_def_cfa_register 7
 107:Generated_Source\PSoC4/CyDMA.c ****     CYDMA_CTL_REG = (uint32)~CYDMA_ENABLED;
 134              		.loc 1 107 0
 135 0004 024B     		ldr	r3, .L6
 136 0006 034A     		ldr	r2, .L6+4
 137 0008 1A60     		str	r2, [r3]
 108:Generated_Source\PSoC4/CyDMA.c **** }
 138              		.loc 1 108 0
 139 000a C046     		nop
 140 000c BD46     		mov	sp, r7
 141              		@ sp needed
 142 000e 80BD     		pop	{r7, pc}
 143              	.L7:
 144              		.align	2
 145              	.L6:
 146 0010 00101040 		.word	1074794496
 147 0014 FFFFFF7F 		.word	2147483647
 148              		.cfi_endproc
 149              	.LFE2:
 150              		.size	CyDmaDisable, .-CyDmaDisable
 151              		.section	.text.CyDmaGetStatus,"ax",%progbits
 152              		.align	2
 153              		.global	CyDmaGetStatus
 154              		.code	16
 155              		.thumb_func
 156              		.type	CyDmaGetStatus, %function
 157              	CyDmaGetStatus:
 158              	.LFB3:
 109:Generated_Source\PSoC4/CyDMA.c **** 
 110:Generated_Source\PSoC4/CyDMA.c **** 
 111:Generated_Source\PSoC4/CyDMA.c **** /*******************************************************************************
 112:Generated_Source\PSoC4/CyDMA.c **** * Function Name: CyDmaGetStatus
 113:Generated_Source\PSoC4/CyDMA.c **** ********************************************************************************
 114:Generated_Source\PSoC4/CyDMA.c **** *
 115:Generated_Source\PSoC4/CyDMA.c **** * Summary:
 116:Generated_Source\PSoC4/CyDMA.c **** *  Returns the status of the DMA transfer engine.
 117:Generated_Source\PSoC4/CyDMA.c **** *
 118:Generated_Source\PSoC4/CyDMA.c **** * Parameters:
 119:Generated_Source\PSoC4/CyDMA.c **** *  None.
 120:Generated_Source\PSoC4/CyDMA.c **** *                   
 121:Generated_Source\PSoC4/CyDMA.c **** * Return:
 122:Generated_Source\PSoC4/CyDMA.c **** *  The contents of the DMA status register. Refer to the status register bit
 123:Generated_Source\PSoC4/CyDMA.c **** *  definitions in CyDMA_P4.h or the API description in the DMA channel
 124:Generated_Source\PSoC4/CyDMA.c **** *  datasheet.
 125:Generated_Source\PSoC4/CyDMA.c **** *
 126:Generated_Source\PSoC4/CyDMA.c **** * Side effect:
 127:Generated_Source\PSoC4/CyDMA.c **** *  The series of function calls CyDmaGetActiveSrcAddress(),
ARM GAS  C:\Users\HPz420\AppData\Local\Temp\ccz4K5YU.s 			page 6


 128:Generated_Source\PSoC4/CyDMA.c **** *  CyDmaGetActiveDstAddress(), CyDmaGetStatus() are not atomic, the DMA
 129:Generated_Source\PSoC4/CyDMA.c **** *  engine may have advanced after one or more of these function calls. Meaning
 130:Generated_Source\PSoC4/CyDMA.c **** *  the returns from these three functions may not be related to each other.
 131:Generated_Source\PSoC4/CyDMA.c **** *
 132:Generated_Source\PSoC4/CyDMA.c **** *******************************************************************************/
 133:Generated_Source\PSoC4/CyDMA.c **** uint32 CyDmaGetStatus(void)
 134:Generated_Source\PSoC4/CyDMA.c **** {
 159              		.loc 1 134 0
 160              		.cfi_startproc
 161              		@ args = 0, pretend = 0, frame = 0
 162              		@ frame_needed = 1, uses_anonymous_args = 0
 163 0000 80B5     		push	{r7, lr}
 164              		.cfi_def_cfa_offset 8
 165              		.cfi_offset 7, -8
 166              		.cfi_offset 14, -4
 167 0002 00AF     		add	r7, sp, #0
 168              		.cfi_def_cfa_register 7
 135:Generated_Source\PSoC4/CyDMA.c ****     return (CYDMA_STATUS_REG);
 169              		.loc 1 135 0
 170 0004 024B     		ldr	r3, .L10
 171 0006 1B68     		ldr	r3, [r3]
 136:Generated_Source\PSoC4/CyDMA.c **** }
 172              		.loc 1 136 0
 173 0008 1800     		movs	r0, r3
 174 000a BD46     		mov	sp, r7
 175              		@ sp needed
 176 000c 80BD     		pop	{r7, pc}
 177              	.L11:
 178 000e C046     		.align	2
 179              	.L10:
 180 0010 10101040 		.word	1074794512
 181              		.cfi_endproc
 182              	.LFE3:
 183              		.size	CyDmaGetStatus, .-CyDmaGetStatus
 184              		.section	.text.CyDmaGetActiveChannels,"ax",%progbits
 185              		.align	2
 186              		.global	CyDmaGetActiveChannels
 187              		.code	16
 188              		.thumb_func
 189              		.type	CyDmaGetActiveChannels, %function
 190              	CyDmaGetActiveChannels:
 191              	.LFB4:
 137:Generated_Source\PSoC4/CyDMA.c **** 
 138:Generated_Source\PSoC4/CyDMA.c **** 
 139:Generated_Source\PSoC4/CyDMA.c **** /*******************************************************************************
 140:Generated_Source\PSoC4/CyDMA.c **** * Function Name: CyDmaGetActiveChannels
 141:Generated_Source\PSoC4/CyDMA.c **** ********************************************************************************
 142:Generated_Source\PSoC4/CyDMA.c **** *
 143:Generated_Source\PSoC4/CyDMA.c **** * Summary:
 144:Generated_Source\PSoC4/CyDMA.c **** *  Returns a bit field of all the DMA channels that are either active or
 145:Generated_Source\PSoC4/CyDMA.c **** *  pending.
 146:Generated_Source\PSoC4/CyDMA.c **** *
 147:Generated_Source\PSoC4/CyDMA.c **** * Parameters:
 148:Generated_Source\PSoC4/CyDMA.c **** *  None.
 149:Generated_Source\PSoC4/CyDMA.c **** *                   
 150:Generated_Source\PSoC4/CyDMA.c **** * Return:
 151:Generated_Source\PSoC4/CyDMA.c **** *  Bit field of active and pending channels. 
ARM GAS  C:\Users\HPz420\AppData\Local\Temp\ccz4K5YU.s 			page 7


 152:Generated_Source\PSoC4/CyDMA.c **** *
 153:Generated_Source\PSoC4/CyDMA.c **** *******************************************************************************/
 154:Generated_Source\PSoC4/CyDMA.c **** uint32 CyDmaGetActiveChannels(void)
 155:Generated_Source\PSoC4/CyDMA.c **** {
 192              		.loc 1 155 0
 193              		.cfi_startproc
 194              		@ args = 0, pretend = 0, frame = 0
 195              		@ frame_needed = 1, uses_anonymous_args = 0
 196 0000 80B5     		push	{r7, lr}
 197              		.cfi_def_cfa_offset 8
 198              		.cfi_offset 7, -8
 199              		.cfi_offset 14, -4
 200 0002 00AF     		add	r7, sp, #0
 201              		.cfi_def_cfa_register 7
 156:Generated_Source\PSoC4/CyDMA.c ****     return (CYDMA_STATUS_CH_ACT_REG);
 202              		.loc 1 156 0
 203 0004 024B     		ldr	r3, .L14
 204 0006 1B68     		ldr	r3, [r3]
 157:Generated_Source\PSoC4/CyDMA.c **** }
 205              		.loc 1 157 0
 206 0008 1800     		movs	r0, r3
 207 000a BD46     		mov	sp, r7
 208              		@ sp needed
 209 000c 80BD     		pop	{r7, pc}
 210              	.L15:
 211 000e C046     		.align	2
 212              	.L14:
 213 0010 1C101040 		.word	1074794524
 214              		.cfi_endproc
 215              	.LFE4:
 216              		.size	CyDmaGetActiveChannels, .-CyDmaGetActiveChannels
 217              		.section	.text.CyDmaGetActiveSrcAddress,"ax",%progbits
 218              		.align	2
 219              		.global	CyDmaGetActiveSrcAddress
 220              		.code	16
 221              		.thumb_func
 222              		.type	CyDmaGetActiveSrcAddress, %function
 223              	CyDmaGetActiveSrcAddress:
 224              	.LFB5:
 158:Generated_Source\PSoC4/CyDMA.c **** 
 159:Generated_Source\PSoC4/CyDMA.c **** 
 160:Generated_Source\PSoC4/CyDMA.c **** /*******************************************************************************
 161:Generated_Source\PSoC4/CyDMA.c **** * Function Name: CyDmaGetActiveSrcAddress
 162:Generated_Source\PSoC4/CyDMA.c **** ********************************************************************************
 163:Generated_Source\PSoC4/CyDMA.c **** *
 164:Generated_Source\PSoC4/CyDMA.c **** * Summary:
 165:Generated_Source\PSoC4/CyDMA.c **** *  Returns the source address currently being used by the DMA transfer engine.
 166:Generated_Source\PSoC4/CyDMA.c **** *  This function can be used to debug the DMA, or observe where it is at in a
 167:Generated_Source\PSoC4/CyDMA.c **** *  transfer. It will not be used in normal DMA operation.
 168:Generated_Source\PSoC4/CyDMA.c **** *
 169:Generated_Source\PSoC4/CyDMA.c **** * Parameters:
 170:Generated_Source\PSoC4/CyDMA.c **** *  None.
 171:Generated_Source\PSoC4/CyDMA.c **** *                   
 172:Generated_Source\PSoC4/CyDMA.c **** * Return:
 173:Generated_Source\PSoC4/CyDMA.c **** *  Source address currently being used by the DMA transfer engine.
 174:Generated_Source\PSoC4/CyDMA.c **** *
 175:Generated_Source\PSoC4/CyDMA.c **** * Side effect:
ARM GAS  C:\Users\HPz420\AppData\Local\Temp\ccz4K5YU.s 			page 8


 176:Generated_Source\PSoC4/CyDMA.c **** *  The series of function calls CyDmaGetActiveSrcAddress(),
 177:Generated_Source\PSoC4/CyDMA.c **** *  CyDmaGetActiveDstAddress(), CyDmaGetStatus() are not atomic, the DMA
 178:Generated_Source\PSoC4/CyDMA.c **** *  engine may have advanced after one or more of these function calls. Meaning
 179:Generated_Source\PSoC4/CyDMA.c **** *  the returns from these three functions may not be related to each other.
 180:Generated_Source\PSoC4/CyDMA.c **** *
 181:Generated_Source\PSoC4/CyDMA.c **** *******************************************************************************/
 182:Generated_Source\PSoC4/CyDMA.c **** void * CyDmaGetActiveSrcAddress(void)
 183:Generated_Source\PSoC4/CyDMA.c **** {
 225              		.loc 1 183 0
 226              		.cfi_startproc
 227              		@ args = 0, pretend = 0, frame = 0
 228              		@ frame_needed = 1, uses_anonymous_args = 0
 229 0000 80B5     		push	{r7, lr}
 230              		.cfi_def_cfa_offset 8
 231              		.cfi_offset 7, -8
 232              		.cfi_offset 14, -4
 233 0002 00AF     		add	r7, sp, #0
 234              		.cfi_def_cfa_register 7
 184:Generated_Source\PSoC4/CyDMA.c ****     return ((void *)CYDMA_STATUS_SRC_ADDR_REG);
 235              		.loc 1 184 0
 236 0004 024B     		ldr	r3, .L18
 237 0006 1B68     		ldr	r3, [r3]
 185:Generated_Source\PSoC4/CyDMA.c **** }
 238              		.loc 1 185 0
 239 0008 1800     		movs	r0, r3
 240 000a BD46     		mov	sp, r7
 241              		@ sp needed
 242 000c 80BD     		pop	{r7, pc}
 243              	.L19:
 244 000e C046     		.align	2
 245              	.L18:
 246 0010 14101040 		.word	1074794516
 247              		.cfi_endproc
 248              	.LFE5:
 249              		.size	CyDmaGetActiveSrcAddress, .-CyDmaGetActiveSrcAddress
 250              		.section	.text.CyDmaGetActiveDstAddress,"ax",%progbits
 251              		.align	2
 252              		.global	CyDmaGetActiveDstAddress
 253              		.code	16
 254              		.thumb_func
 255              		.type	CyDmaGetActiveDstAddress, %function
 256              	CyDmaGetActiveDstAddress:
 257              	.LFB6:
 186:Generated_Source\PSoC4/CyDMA.c **** 
 187:Generated_Source\PSoC4/CyDMA.c **** 
 188:Generated_Source\PSoC4/CyDMA.c **** /*******************************************************************************
 189:Generated_Source\PSoC4/CyDMA.c **** * Function Name: CyDmaGetActiveDstAddress
 190:Generated_Source\PSoC4/CyDMA.c **** ********************************************************************************
 191:Generated_Source\PSoC4/CyDMA.c **** *
 192:Generated_Source\PSoC4/CyDMA.c **** * Summary:
 193:Generated_Source\PSoC4/CyDMA.c **** *  Returns the destination address currently being used by the DMA transfer
 194:Generated_Source\PSoC4/CyDMA.c **** *  engine. This function can be used to debug the DMA, or observe where it is at
 195:Generated_Source\PSoC4/CyDMA.c **** *  in a transfer. It will not be used in normal DMA operation.
 196:Generated_Source\PSoC4/CyDMA.c **** *
 197:Generated_Source\PSoC4/CyDMA.c **** * Parameters:
 198:Generated_Source\PSoC4/CyDMA.c **** *  None.
 199:Generated_Source\PSoC4/CyDMA.c **** *                   
ARM GAS  C:\Users\HPz420\AppData\Local\Temp\ccz4K5YU.s 			page 9


 200:Generated_Source\PSoC4/CyDMA.c **** * Return:
 201:Generated_Source\PSoC4/CyDMA.c **** *  Destination address currently being used by the DMA transfer engine.
 202:Generated_Source\PSoC4/CyDMA.c **** *
 203:Generated_Source\PSoC4/CyDMA.c **** * Side effect:
 204:Generated_Source\PSoC4/CyDMA.c **** *  The series of function calls CyDmaGetActiveSrcAddress(),
 205:Generated_Source\PSoC4/CyDMA.c **** *  CyDmaGetActiveDstAddress(), CyDmaGetStatus() are not atomic, the DMA
 206:Generated_Source\PSoC4/CyDMA.c **** *  engine may have advanced after one or more of these function calls. Meaning
 207:Generated_Source\PSoC4/CyDMA.c **** *  the returns from these three functions may not be related to each other.
 208:Generated_Source\PSoC4/CyDMA.c **** *
 209:Generated_Source\PSoC4/CyDMA.c **** *******************************************************************************/
 210:Generated_Source\PSoC4/CyDMA.c **** void * CyDmaGetActiveDstAddress(void)
 211:Generated_Source\PSoC4/CyDMA.c **** {
 258              		.loc 1 211 0
 259              		.cfi_startproc
 260              		@ args = 0, pretend = 0, frame = 0
 261              		@ frame_needed = 1, uses_anonymous_args = 0
 262 0000 80B5     		push	{r7, lr}
 263              		.cfi_def_cfa_offset 8
 264              		.cfi_offset 7, -8
 265              		.cfi_offset 14, -4
 266 0002 00AF     		add	r7, sp, #0
 267              		.cfi_def_cfa_register 7
 212:Generated_Source\PSoC4/CyDMA.c ****     return ((void *)CYDMA_STATUS_DST_ADDR_REG);
 268              		.loc 1 212 0
 269 0004 024B     		ldr	r3, .L22
 270 0006 1B68     		ldr	r3, [r3]
 213:Generated_Source\PSoC4/CyDMA.c **** }
 271              		.loc 1 213 0
 272 0008 1800     		movs	r0, r3
 273 000a BD46     		mov	sp, r7
 274              		@ sp needed
 275 000c 80BD     		pop	{r7, pc}
 276              	.L23:
 277 000e C046     		.align	2
 278              	.L22:
 279 0010 18101040 		.word	1074794520
 280              		.cfi_endproc
 281              	.LFE6:
 282              		.size	CyDmaGetActiveDstAddress, .-CyDmaGetActiveDstAddress
 283              		.section	.text.CyDmaSetInterruptVector,"ax",%progbits
 284              		.align	2
 285              		.global	CyDmaSetInterruptVector
 286              		.code	16
 287              		.thumb_func
 288              		.type	CyDmaSetInterruptVector, %function
 289              	CyDmaSetInterruptVector:
 290              	.LFB7:
 214:Generated_Source\PSoC4/CyDMA.c **** 
 215:Generated_Source\PSoC4/CyDMA.c **** 
 216:Generated_Source\PSoC4/CyDMA.c **** /*******************************************************************************
 217:Generated_Source\PSoC4/CyDMA.c **** * Function Name: CyDmaSetInterruptVector
 218:Generated_Source\PSoC4/CyDMA.c **** ********************************************************************************
 219:Generated_Source\PSoC4/CyDMA.c **** *
 220:Generated_Source\PSoC4/CyDMA.c **** * Summary:
 221:Generated_Source\PSoC4/CyDMA.c **** *  Sets the function that will be called by the DMA interrupt. Note, calling
 222:Generated_Source\PSoC4/CyDMA.c **** *  CyDmaEnable() for the first time overrides any effect this API could have.
 223:Generated_Source\PSoC4/CyDMA.c **** *  Call CyDmaSetInterruptVector() after calling CyDmaEnable() to change
ARM GAS  C:\Users\HPz420\AppData\Local\Temp\ccz4K5YU.s 			page 10


 224:Generated_Source\PSoC4/CyDMA.c **** *  the default ISR.
 225:Generated_Source\PSoC4/CyDMA.c **** *
 226:Generated_Source\PSoC4/CyDMA.c **** * Parameters:
 227:Generated_Source\PSoC4/CyDMA.c **** *  interruptVector: Address of the function that will be called by the DMA
 228:Generated_Source\PSoC4/CyDMA.c **** *                   interrupt.
 229:Generated_Source\PSoC4/CyDMA.c **** * Return:
 230:Generated_Source\PSoC4/CyDMA.c **** *  None.
 231:Generated_Source\PSoC4/CyDMA.c **** *
 232:Generated_Source\PSoC4/CyDMA.c **** * Side effect:
 233:Generated_Source\PSoC4/CyDMA.c **** *  Other components that use DMA may register their callback functions to be
 234:Generated_Source\PSoC4/CyDMA.c **** *  called from the default DMA ISR. Therefore, changing the DMA ISR to a user
 235:Generated_Source\PSoC4/CyDMA.c **** *  defined ISR using this API may prevent these other components from
 236:Generated_Source\PSoC4/CyDMA.c **** *  functioning correctly.
 237:Generated_Source\PSoC4/CyDMA.c **** *
 238:Generated_Source\PSoC4/CyDMA.c **** *******************************************************************************/
 239:Generated_Source\PSoC4/CyDMA.c **** void CyDmaSetInterruptVector(cyisraddress interruptVector)
 240:Generated_Source\PSoC4/CyDMA.c **** {
 291              		.loc 1 240 0
 292              		.cfi_startproc
 293              		@ args = 0, pretend = 0, frame = 8
 294              		@ frame_needed = 1, uses_anonymous_args = 0
 295 0000 80B5     		push	{r7, lr}
 296              		.cfi_def_cfa_offset 8
 297              		.cfi_offset 7, -8
 298              		.cfi_offset 14, -4
 299 0002 82B0     		sub	sp, sp, #8
 300              		.cfi_def_cfa_offset 16
 301 0004 00AF     		add	r7, sp, #0
 302              		.cfi_def_cfa_register 7
 303 0006 7860     		str	r0, [r7, #4]
 241:Generated_Source\PSoC4/CyDMA.c ****     (void)CyIntSetVector(CYDMA_INTR_NUMBER, interruptVector);
 304              		.loc 1 241 0
 305 0008 7B68     		ldr	r3, [r7, #4]
 306 000a 1900     		movs	r1, r3
 307 000c 0E20     		movs	r0, #14
 308 000e FFF7FEFF 		bl	CyIntSetVector
 242:Generated_Source\PSoC4/CyDMA.c **** }
 309              		.loc 1 242 0
 310 0012 C046     		nop
 311 0014 BD46     		mov	sp, r7
 312 0016 02B0     		add	sp, sp, #8
 313              		@ sp needed
 314 0018 80BD     		pop	{r7, pc}
 315              		.cfi_endproc
 316              	.LFE7:
 317              		.size	CyDmaSetInterruptVector, .-CyDmaSetInterruptVector
 318 001a C046     		.section	.text.CyDmaGetInterruptSource,"ax",%progbits
 319              		.align	2
 320              		.global	CyDmaGetInterruptSource
 321              		.code	16
 322              		.thumb_func
 323              		.type	CyDmaGetInterruptSource, %function
 324              	CyDmaGetInterruptSource:
 325              	.LFB8:
 243:Generated_Source\PSoC4/CyDMA.c **** 
 244:Generated_Source\PSoC4/CyDMA.c **** 
 245:Generated_Source\PSoC4/CyDMA.c **** /*******************************************************************************
ARM GAS  C:\Users\HPz420\AppData\Local\Temp\ccz4K5YU.s 			page 11


 246:Generated_Source\PSoC4/CyDMA.c **** * Function Name: CyDmaGetInterruptSource
 247:Generated_Source\PSoC4/CyDMA.c **** ********************************************************************************
 248:Generated_Source\PSoC4/CyDMA.c **** *
 249:Generated_Source\PSoC4/CyDMA.c **** * Summary:
 250:Generated_Source\PSoC4/CyDMA.c **** *  Returns the bit field of which channels generated an interrupt request.
 251:Generated_Source\PSoC4/CyDMA.c **** *
 252:Generated_Source\PSoC4/CyDMA.c **** * Parameters:
 253:Generated_Source\PSoC4/CyDMA.c **** *  None.
 254:Generated_Source\PSoC4/CyDMA.c **** *                   
 255:Generated_Source\PSoC4/CyDMA.c **** * Return:
 256:Generated_Source\PSoC4/CyDMA.c **** *  Bit filed of which channels generated an interrupt request.
 257:Generated_Source\PSoC4/CyDMA.c **** *
 258:Generated_Source\PSoC4/CyDMA.c **** *******************************************************************************/
 259:Generated_Source\PSoC4/CyDMA.c **** uint32 CyDmaGetInterruptSource(void)
 260:Generated_Source\PSoC4/CyDMA.c **** {
 326              		.loc 1 260 0
 327              		.cfi_startproc
 328              		@ args = 0, pretend = 0, frame = 0
 329              		@ frame_needed = 1, uses_anonymous_args = 0
 330 0000 80B5     		push	{r7, lr}
 331              		.cfi_def_cfa_offset 8
 332              		.cfi_offset 7, -8
 333              		.cfi_offset 14, -4
 334 0002 00AF     		add	r7, sp, #0
 335              		.cfi_def_cfa_register 7
 261:Generated_Source\PSoC4/CyDMA.c ****     return (CYDMA_INTR_REG);
 336              		.loc 1 261 0
 337 0004 024B     		ldr	r3, .L27
 338 0006 1B68     		ldr	r3, [r3]
 262:Generated_Source\PSoC4/CyDMA.c **** }
 339              		.loc 1 262 0
 340 0008 1800     		movs	r0, r3
 341 000a BD46     		mov	sp, r7
 342              		@ sp needed
 343 000c 80BD     		pop	{r7, pc}
 344              	.L28:
 345 000e C046     		.align	2
 346              	.L27:
 347 0010 F0171040 		.word	1074796528
 348              		.cfi_endproc
 349              	.LFE8:
 350              		.size	CyDmaGetInterruptSource, .-CyDmaGetInterruptSource
 351              		.section	.text.CyDmaClearInterruptSource,"ax",%progbits
 352              		.align	2
 353              		.global	CyDmaClearInterruptSource
 354              		.code	16
 355              		.thumb_func
 356              		.type	CyDmaClearInterruptSource, %function
 357              	CyDmaClearInterruptSource:
 358              	.LFB9:
 263:Generated_Source\PSoC4/CyDMA.c **** 
 264:Generated_Source\PSoC4/CyDMA.c **** 
 265:Generated_Source\PSoC4/CyDMA.c **** /*******************************************************************************
 266:Generated_Source\PSoC4/CyDMA.c **** * Function Name: CyDmaClearInterruptSource
 267:Generated_Source\PSoC4/CyDMA.c **** ********************************************************************************
 268:Generated_Source\PSoC4/CyDMA.c **** *
 269:Generated_Source\PSoC4/CyDMA.c **** * Summary:
ARM GAS  C:\Users\HPz420\AppData\Local\Temp\ccz4K5YU.s 			page 12


 270:Generated_Source\PSoC4/CyDMA.c **** *  Clears the pending interrupts.
 271:Generated_Source\PSoC4/CyDMA.c **** *
 272:Generated_Source\PSoC4/CyDMA.c **** * Parameters:
 273:Generated_Source\PSoC4/CyDMA.c **** *  interruptMask: Bit field of interrupts to clear.
 274:Generated_Source\PSoC4/CyDMA.c **** *                   
 275:Generated_Source\PSoC4/CyDMA.c **** * Return:
 276:Generated_Source\PSoC4/CyDMA.c **** *  None.
 277:Generated_Source\PSoC4/CyDMA.c **** *
 278:Generated_Source\PSoC4/CyDMA.c **** *******************************************************************************/
 279:Generated_Source\PSoC4/CyDMA.c **** void CyDmaClearInterruptSource(uint32 interruptMask)
 280:Generated_Source\PSoC4/CyDMA.c **** {
 359              		.loc 1 280 0
 360              		.cfi_startproc
 361              		@ args = 0, pretend = 0, frame = 8
 362              		@ frame_needed = 1, uses_anonymous_args = 0
 363 0000 80B5     		push	{r7, lr}
 364              		.cfi_def_cfa_offset 8
 365              		.cfi_offset 7, -8
 366              		.cfi_offset 14, -4
 367 0002 82B0     		sub	sp, sp, #8
 368              		.cfi_def_cfa_offset 16
 369 0004 00AF     		add	r7, sp, #0
 370              		.cfi_def_cfa_register 7
 371 0006 7860     		str	r0, [r7, #4]
 281:Generated_Source\PSoC4/CyDMA.c ****     CYDMA_INTR_REG = interruptMask;
 372              		.loc 1 281 0
 373 0008 034B     		ldr	r3, .L30
 374 000a 7A68     		ldr	r2, [r7, #4]
 375 000c 1A60     		str	r2, [r3]
 282:Generated_Source\PSoC4/CyDMA.c **** }
 376              		.loc 1 282 0
 377 000e C046     		nop
 378 0010 BD46     		mov	sp, r7
 379 0012 02B0     		add	sp, sp, #8
 380              		@ sp needed
 381 0014 80BD     		pop	{r7, pc}
 382              	.L31:
 383 0016 C046     		.align	2
 384              	.L30:
 385 0018 F0171040 		.word	1074796528
 386              		.cfi_endproc
 387              	.LFE9:
 388              		.size	CyDmaClearInterruptSource, .-CyDmaClearInterruptSource
 389              		.section	.text.CyDmaSetInterruptSourceMask,"ax",%progbits
 390              		.align	2
 391              		.global	CyDmaSetInterruptSourceMask
 392              		.code	16
 393              		.thumb_func
 394              		.type	CyDmaSetInterruptSourceMask, %function
 395              	CyDmaSetInterruptSourceMask:
 396              	.LFB10:
 283:Generated_Source\PSoC4/CyDMA.c **** 
 284:Generated_Source\PSoC4/CyDMA.c **** 
 285:Generated_Source\PSoC4/CyDMA.c **** /*******************************************************************************
 286:Generated_Source\PSoC4/CyDMA.c **** * Function Name: CyDmaSetInterruptSourceMask
 287:Generated_Source\PSoC4/CyDMA.c **** ********************************************************************************
 288:Generated_Source\PSoC4/CyDMA.c **** *
ARM GAS  C:\Users\HPz420\AppData\Local\Temp\ccz4K5YU.s 			page 13


 289:Generated_Source\PSoC4/CyDMA.c **** * Summary:
 290:Generated_Source\PSoC4/CyDMA.c **** *  Sets mask for interrupt source.
 291:Generated_Source\PSoC4/CyDMA.c **** *
 292:Generated_Source\PSoC4/CyDMA.c **** * Parameters:
 293:Generated_Source\PSoC4/CyDMA.c **** *  interruptmask: Mask corresponding to interrupt bit field.
 294:Generated_Source\PSoC4/CyDMA.c **** *                   
 295:Generated_Source\PSoC4/CyDMA.c **** * Return:
 296:Generated_Source\PSoC4/CyDMA.c **** *  None.
 297:Generated_Source\PSoC4/CyDMA.c **** *
 298:Generated_Source\PSoC4/CyDMA.c **** *******************************************************************************/
 299:Generated_Source\PSoC4/CyDMA.c **** void CyDmaSetInterruptSourceMask(uint32 interruptMask)
 300:Generated_Source\PSoC4/CyDMA.c **** {
 397              		.loc 1 300 0
 398              		.cfi_startproc
 399              		@ args = 0, pretend = 0, frame = 8
 400              		@ frame_needed = 1, uses_anonymous_args = 0
 401 0000 80B5     		push	{r7, lr}
 402              		.cfi_def_cfa_offset 8
 403              		.cfi_offset 7, -8
 404              		.cfi_offset 14, -4
 405 0002 82B0     		sub	sp, sp, #8
 406              		.cfi_def_cfa_offset 16
 407 0004 00AF     		add	r7, sp, #0
 408              		.cfi_def_cfa_register 7
 409 0006 7860     		str	r0, [r7, #4]
 301:Generated_Source\PSoC4/CyDMA.c ****     CYDMA_INTR_MASK_REG = interruptMask;
 410              		.loc 1 301 0
 411 0008 034B     		ldr	r3, .L33
 412 000a 7A68     		ldr	r2, [r7, #4]
 413 000c 1A60     		str	r2, [r3]
 302:Generated_Source\PSoC4/CyDMA.c **** }
 414              		.loc 1 302 0
 415 000e C046     		nop
 416 0010 BD46     		mov	sp, r7
 417 0012 02B0     		add	sp, sp, #8
 418              		@ sp needed
 419 0014 80BD     		pop	{r7, pc}
 420              	.L34:
 421 0016 C046     		.align	2
 422              	.L33:
 423 0018 F8171040 		.word	1074796536
 424              		.cfi_endproc
 425              	.LFE10:
 426              		.size	CyDmaSetInterruptSourceMask, .-CyDmaSetInterruptSourceMask
 427              		.section	.text.CyDmaGetInterruptSourceMask,"ax",%progbits
 428              		.align	2
 429              		.global	CyDmaGetInterruptSourceMask
 430              		.code	16
 431              		.thumb_func
 432              		.type	CyDmaGetInterruptSourceMask, %function
 433              	CyDmaGetInterruptSourceMask:
 434              	.LFB11:
 303:Generated_Source\PSoC4/CyDMA.c **** 
 304:Generated_Source\PSoC4/CyDMA.c **** 
 305:Generated_Source\PSoC4/CyDMA.c **** /*******************************************************************************
 306:Generated_Source\PSoC4/CyDMA.c **** * Function Name: CyDmaGetInterruptSourceMask
 307:Generated_Source\PSoC4/CyDMA.c **** ********************************************************************************
ARM GAS  C:\Users\HPz420\AppData\Local\Temp\ccz4K5YU.s 			page 14


 308:Generated_Source\PSoC4/CyDMA.c **** *
 309:Generated_Source\PSoC4/CyDMA.c **** * Summary:
 310:Generated_Source\PSoC4/CyDMA.c **** *  Returns mask for interrupt source.
 311:Generated_Source\PSoC4/CyDMA.c **** *
 312:Generated_Source\PSoC4/CyDMA.c **** * Parameters:
 313:Generated_Source\PSoC4/CyDMA.c **** *  None.
 314:Generated_Source\PSoC4/CyDMA.c **** *                   
 315:Generated_Source\PSoC4/CyDMA.c **** * Return:
 316:Generated_Source\PSoC4/CyDMA.c **** *  Mask corresponding to interrupt bit field.
 317:Generated_Source\PSoC4/CyDMA.c **** *
 318:Generated_Source\PSoC4/CyDMA.c **** *******************************************************************************/
 319:Generated_Source\PSoC4/CyDMA.c **** uint32 CyDmaGetInterruptSourceMask(void)
 320:Generated_Source\PSoC4/CyDMA.c **** {
 435              		.loc 1 320 0
 436              		.cfi_startproc
 437              		@ args = 0, pretend = 0, frame = 0
 438              		@ frame_needed = 1, uses_anonymous_args = 0
 439 0000 80B5     		push	{r7, lr}
 440              		.cfi_def_cfa_offset 8
 441              		.cfi_offset 7, -8
 442              		.cfi_offset 14, -4
 443 0002 00AF     		add	r7, sp, #0
 444              		.cfi_def_cfa_register 7
 321:Generated_Source\PSoC4/CyDMA.c ****     return (CYDMA_INTR_MASK_REG);
 445              		.loc 1 321 0
 446 0004 024B     		ldr	r3, .L37
 447 0006 1B68     		ldr	r3, [r3]
 322:Generated_Source\PSoC4/CyDMA.c **** }
 448              		.loc 1 322 0
 449 0008 1800     		movs	r0, r3
 450 000a BD46     		mov	sp, r7
 451              		@ sp needed
 452 000c 80BD     		pop	{r7, pc}
 453              	.L38:
 454 000e C046     		.align	2
 455              	.L37:
 456 0010 F8171040 		.word	1074796536
 457              		.cfi_endproc
 458              	.LFE11:
 459              		.size	CyDmaGetInterruptSourceMask, .-CyDmaGetInterruptSourceMask
 460              		.section	.text.CyDmaGetInterruptSourceMasked,"ax",%progbits
 461              		.align	2
 462              		.global	CyDmaGetInterruptSourceMasked
 463              		.code	16
 464              		.thumb_func
 465              		.type	CyDmaGetInterruptSourceMasked, %function
 466              	CyDmaGetInterruptSourceMasked:
 467              	.LFB12:
 323:Generated_Source\PSoC4/CyDMA.c **** 
 324:Generated_Source\PSoC4/CyDMA.c **** 
 325:Generated_Source\PSoC4/CyDMA.c **** /*******************************************************************************
 326:Generated_Source\PSoC4/CyDMA.c **** * Function Name: CyDmaGetInterruptSourceMasked
 327:Generated_Source\PSoC4/CyDMA.c **** ********************************************************************************
 328:Generated_Source\PSoC4/CyDMA.c **** *
 329:Generated_Source\PSoC4/CyDMA.c **** * Summary:
 330:Generated_Source\PSoC4/CyDMA.c **** *  Returns the bitwise AND of the interrupt source and the interrupt mask.
 331:Generated_Source\PSoC4/CyDMA.c **** *
ARM GAS  C:\Users\HPz420\AppData\Local\Temp\ccz4K5YU.s 			page 15


 332:Generated_Source\PSoC4/CyDMA.c **** * Parameters:
 333:Generated_Source\PSoC4/CyDMA.c **** *  None.
 334:Generated_Source\PSoC4/CyDMA.c **** *                   
 335:Generated_Source\PSoC4/CyDMA.c **** * Return:
 336:Generated_Source\PSoC4/CyDMA.c **** *  Bitwise AND of the interrupt source and the interrupt mask.
 337:Generated_Source\PSoC4/CyDMA.c **** *
 338:Generated_Source\PSoC4/CyDMA.c **** *******************************************************************************/
 339:Generated_Source\PSoC4/CyDMA.c **** uint32 CyDmaGetInterruptSourceMasked(void)
 340:Generated_Source\PSoC4/CyDMA.c **** {
 468              		.loc 1 340 0
 469              		.cfi_startproc
 470              		@ args = 0, pretend = 0, frame = 0
 471              		@ frame_needed = 1, uses_anonymous_args = 0
 472 0000 80B5     		push	{r7, lr}
 473              		.cfi_def_cfa_offset 8
 474              		.cfi_offset 7, -8
 475              		.cfi_offset 14, -4
 476 0002 00AF     		add	r7, sp, #0
 477              		.cfi_def_cfa_register 7
 341:Generated_Source\PSoC4/CyDMA.c ****     return (CYDMA_INTR_MASKED_REG);
 478              		.loc 1 341 0
 479 0004 024B     		ldr	r3, .L41
 480 0006 1B68     		ldr	r3, [r3]
 342:Generated_Source\PSoC4/CyDMA.c **** }
 481              		.loc 1 342 0
 482 0008 1800     		movs	r0, r3
 483 000a BD46     		mov	sp, r7
 484              		@ sp needed
 485 000c 80BD     		pop	{r7, pc}
 486              	.L42:
 487 000e C046     		.align	2
 488              	.L41:
 489 0010 FC171040 		.word	1074796540
 490              		.cfi_endproc
 491              	.LFE12:
 492              		.size	CyDmaGetInterruptSourceMasked, .-CyDmaGetInterruptSourceMasked
 493              		.section	.text.CyDmaSetInterruptCallback,"ax",%progbits
 494              		.align	2
 495              		.global	CyDmaSetInterruptCallback
 496              		.code	16
 497              		.thumb_func
 498              		.type	CyDmaSetInterruptCallback, %function
 499              	CyDmaSetInterruptCallback:
 500              	.LFB13:
 343:Generated_Source\PSoC4/CyDMA.c **** 
 344:Generated_Source\PSoC4/CyDMA.c **** 
 345:Generated_Source\PSoC4/CyDMA.c **** /*******************************************************************************
 346:Generated_Source\PSoC4/CyDMA.c **** * Function Name: CyDmaSetInterruptCallback
 347:Generated_Source\PSoC4/CyDMA.c **** ********************************************************************************
 348:Generated_Source\PSoC4/CyDMA.c **** *
 349:Generated_Source\PSoC4/CyDMA.c **** * Summary:
 350:Generated_Source\PSoC4/CyDMA.c **** *  Sets a user defined callback function to be called by the DMA interrupt. The
 351:Generated_Source\PSoC4/CyDMA.c **** *  function should contain code to process the interrupt request for the 
 352:Generated_Source\PSoC4/CyDMA.c **** *  associated DMA channel.
 353:Generated_Source\PSoC4/CyDMA.c **** *
 354:Generated_Source\PSoC4/CyDMA.c **** * Parameters:
 355:Generated_Source\PSoC4/CyDMA.c **** *  channel:  Channel used by this function.
ARM GAS  C:\Users\HPz420\AppData\Local\Temp\ccz4K5YU.s 			page 16


 356:Generated_Source\PSoC4/CyDMA.c **** *  callback: Pointer to the user defined callback function.
 357:Generated_Source\PSoC4/CyDMA.c **** *
 358:Generated_Source\PSoC4/CyDMA.c **** * Return:
 359:Generated_Source\PSoC4/CyDMA.c **** *  Pointer to the function previously set for the specified channel. 
 360:Generated_Source\PSoC4/CyDMA.c **** *
 361:Generated_Source\PSoC4/CyDMA.c **** *******************************************************************************/
 362:Generated_Source\PSoC4/CyDMA.c **** cydma_callback_t CyDmaSetInterruptCallback(int32 channel, cydma_callback_t callback)
 363:Generated_Source\PSoC4/CyDMA.c **** {
 501              		.loc 1 363 0
 502              		.cfi_startproc
 503              		@ args = 0, pretend = 0, frame = 16
 504              		@ frame_needed = 1, uses_anonymous_args = 0
 505 0000 80B5     		push	{r7, lr}
 506              		.cfi_def_cfa_offset 8
 507              		.cfi_offset 7, -8
 508              		.cfi_offset 14, -4
 509 0002 84B0     		sub	sp, sp, #16
 510              		.cfi_def_cfa_offset 24
 511 0004 00AF     		add	r7, sp, #0
 512              		.cfi_def_cfa_register 7
 513 0006 7860     		str	r0, [r7, #4]
 514 0008 3960     		str	r1, [r7]
 364:Generated_Source\PSoC4/CyDMA.c ****     cydma_callback_t prevCallback;
 365:Generated_Source\PSoC4/CyDMA.c **** 
 366:Generated_Source\PSoC4/CyDMA.c ****     CYASSERT((channel >= 0) && (channel < CYDMA_CH_NR));
 515              		.loc 1 366 0
 516 000a 7B68     		ldr	r3, [r7, #4]
 517 000c 002B     		cmp	r3, #0
 518 000e 04DB     		blt	.L44
 519              		.loc 1 366 0 is_stmt 0 discriminator 1
 520 0010 7B68     		ldr	r3, [r7, #4]
 521 0012 1F2B     		cmp	r3, #31
 522 0014 01DC     		bgt	.L44
 523              		.loc 1 366 0 discriminator 3
 524 0016 0123     		movs	r3, #1
 525 0018 00E0     		b	.L45
 526              	.L44:
 527              		.loc 1 366 0 discriminator 4
 528 001a 0023     		movs	r3, #0
 529              	.L45:
 530              		.loc 1 366 0 discriminator 6
 531 001c 002B     		cmp	r3, #0
 532 001e 02D1     		bne	.L46
 533              		.loc 1 366 0 discriminator 7
 534 0020 0020     		movs	r0, #0
 535 0022 FFF7FEFF 		bl	CyHalt
 536              	.L46:
 367:Generated_Source\PSoC4/CyDMA.c **** 
 368:Generated_Source\PSoC4/CyDMA.c ****     prevCallback = CyDmaInterruptCallback[channel];
 537              		.loc 1 368 0 is_stmt 1
 538 0026 074B     		ldr	r3, .L48
 539 0028 7A68     		ldr	r2, [r7, #4]
 540 002a 9200     		lsls	r2, r2, #2
 541 002c D358     		ldr	r3, [r2, r3]
 542 002e FB60     		str	r3, [r7, #12]
 369:Generated_Source\PSoC4/CyDMA.c ****     CyDmaInterruptCallback[channel] = callback;
 543              		.loc 1 369 0
ARM GAS  C:\Users\HPz420\AppData\Local\Temp\ccz4K5YU.s 			page 17


 544 0030 044B     		ldr	r3, .L48
 545 0032 7A68     		ldr	r2, [r7, #4]
 546 0034 9200     		lsls	r2, r2, #2
 547 0036 3968     		ldr	r1, [r7]
 548 0038 D150     		str	r1, [r2, r3]
 370:Generated_Source\PSoC4/CyDMA.c ****     return (prevCallback);
 549              		.loc 1 370 0
 550 003a FB68     		ldr	r3, [r7, #12]
 371:Generated_Source\PSoC4/CyDMA.c **** }
 551              		.loc 1 371 0
 552 003c 1800     		movs	r0, r3
 553 003e BD46     		mov	sp, r7
 554 0040 04B0     		add	sp, sp, #16
 555              		@ sp needed
 556 0042 80BD     		pop	{r7, pc}
 557              	.L49:
 558              		.align	2
 559              	.L48:
 560 0044 00000000 		.word	CyDmaInterruptCallback
 561              		.cfi_endproc
 562              	.LFE13:
 563              		.size	CyDmaSetInterruptCallback, .-CyDmaSetInterruptCallback
 564              		.section	.text.CyDmaGetInterruptCallback,"ax",%progbits
 565              		.align	2
 566              		.global	CyDmaGetInterruptCallback
 567              		.code	16
 568              		.thumb_func
 569              		.type	CyDmaGetInterruptCallback, %function
 570              	CyDmaGetInterruptCallback:
 571              	.LFB14:
 372:Generated_Source\PSoC4/CyDMA.c **** 
 373:Generated_Source\PSoC4/CyDMA.c **** 
 374:Generated_Source\PSoC4/CyDMA.c **** /*******************************************************************************
 375:Generated_Source\PSoC4/CyDMA.c **** * Function Name: CyDmaGetInterruptCallback
 376:Generated_Source\PSoC4/CyDMA.c **** ********************************************************************************
 377:Generated_Source\PSoC4/CyDMA.c **** *
 378:Generated_Source\PSoC4/CyDMA.c **** * Summary:
 379:Generated_Source\PSoC4/CyDMA.c **** *  Returns the pointer to the interrupt callback function for the specified DMA
 380:Generated_Source\PSoC4/CyDMA.c **** *  channel.
 381:Generated_Source\PSoC4/CyDMA.c **** *
 382:Generated_Source\PSoC4/CyDMA.c **** * Parameters:
 383:Generated_Source\PSoC4/CyDMA.c **** *  channel: Channel used by this function.
 384:Generated_Source\PSoC4/CyDMA.c **** *
 385:Generated_Source\PSoC4/CyDMA.c **** * Return:
 386:Generated_Source\PSoC4/CyDMA.c **** *  Callback function pointer for the specified channel.
 387:Generated_Source\PSoC4/CyDMA.c **** *
 388:Generated_Source\PSoC4/CyDMA.c **** *******************************************************************************/
 389:Generated_Source\PSoC4/CyDMA.c **** cydma_callback_t CyDmaGetInterruptCallback(int32 channel)
 390:Generated_Source\PSoC4/CyDMA.c **** {
 572              		.loc 1 390 0
 573              		.cfi_startproc
 574              		@ args = 0, pretend = 0, frame = 8
 575              		@ frame_needed = 1, uses_anonymous_args = 0
 576 0000 80B5     		push	{r7, lr}
 577              		.cfi_def_cfa_offset 8
 578              		.cfi_offset 7, -8
 579              		.cfi_offset 14, -4
ARM GAS  C:\Users\HPz420\AppData\Local\Temp\ccz4K5YU.s 			page 18


 580 0002 82B0     		sub	sp, sp, #8
 581              		.cfi_def_cfa_offset 16
 582 0004 00AF     		add	r7, sp, #0
 583              		.cfi_def_cfa_register 7
 584 0006 7860     		str	r0, [r7, #4]
 391:Generated_Source\PSoC4/CyDMA.c ****     CYASSERT((channel >= 0) && (channel < CYDMA_CH_NR));
 585              		.loc 1 391 0
 586 0008 7B68     		ldr	r3, [r7, #4]
 587 000a 002B     		cmp	r3, #0
 588 000c 04DB     		blt	.L51
 589              		.loc 1 391 0 is_stmt 0 discriminator 1
 590 000e 7B68     		ldr	r3, [r7, #4]
 591 0010 1F2B     		cmp	r3, #31
 592 0012 01DC     		bgt	.L51
 593              		.loc 1 391 0 discriminator 3
 594 0014 0123     		movs	r3, #1
 595 0016 00E0     		b	.L52
 596              	.L51:
 597              		.loc 1 391 0 discriminator 4
 598 0018 0023     		movs	r3, #0
 599              	.L52:
 600              		.loc 1 391 0 discriminator 6
 601 001a 002B     		cmp	r3, #0
 602 001c 02D1     		bne	.L53
 603              		.loc 1 391 0 discriminator 7
 604 001e 0020     		movs	r0, #0
 605 0020 FFF7FEFF 		bl	CyHalt
 606              	.L53:
 392:Generated_Source\PSoC4/CyDMA.c ****     
 393:Generated_Source\PSoC4/CyDMA.c ****     return (CyDmaInterruptCallback[channel]);
 607              		.loc 1 393 0 is_stmt 1
 608 0024 034B     		ldr	r3, .L55
 609 0026 7A68     		ldr	r2, [r7, #4]
 610 0028 9200     		lsls	r2, r2, #2
 611 002a D358     		ldr	r3, [r2, r3]
 394:Generated_Source\PSoC4/CyDMA.c **** }
 612              		.loc 1 394 0
 613 002c 1800     		movs	r0, r3
 614 002e BD46     		mov	sp, r7
 615 0030 02B0     		add	sp, sp, #8
 616              		@ sp needed
 617 0032 80BD     		pop	{r7, pc}
 618              	.L56:
 619              		.align	2
 620              	.L55:
 621 0034 00000000 		.word	CyDmaInterruptCallback
 622              		.cfi_endproc
 623              	.LFE14:
 624              		.size	CyDmaGetInterruptCallback, .-CyDmaGetInterruptCallback
 625              		.section	.text.CyDmaInterrupt,"ax",%progbits
 626              		.align	2
 627              		.global	CyDmaInterrupt
 628              		.code	16
 629              		.thumb_func
 630              		.type	CyDmaInterrupt, %function
 631              	CyDmaInterrupt:
 632              	.LFB15:
ARM GAS  C:\Users\HPz420\AppData\Local\Temp\ccz4K5YU.s 			page 19


 395:Generated_Source\PSoC4/CyDMA.c **** 
 396:Generated_Source\PSoC4/CyDMA.c **** 
 397:Generated_Source\PSoC4/CyDMA.c **** /*******************************************************************************
 398:Generated_Source\PSoC4/CyDMA.c **** * Function Name: CyDmaInterrupt
 399:Generated_Source\PSoC4/CyDMA.c **** ********************************************************************************
 400:Generated_Source\PSoC4/CyDMA.c **** *
 401:Generated_Source\PSoC4/CyDMA.c **** * Summary:
 402:Generated_Source\PSoC4/CyDMA.c **** *  The default ISR for DMA interrupts. The handler checks which DMA channel has
 403:Generated_Source\PSoC4/CyDMA.c **** *  triggered the interrupt and calls the user defined callback function.
 404:Generated_Source\PSoC4/CyDMA.c **** *  The callback function is set using CyDmaSetInteruptCallback() API.
 405:Generated_Source\PSoC4/CyDMA.c **** *
 406:Generated_Source\PSoC4/CyDMA.c **** * Parameters:
 407:Generated_Source\PSoC4/CyDMA.c **** *  None.
 408:Generated_Source\PSoC4/CyDMA.c **** *
 409:Generated_Source\PSoC4/CyDMA.c **** * Return:
 410:Generated_Source\PSoC4/CyDMA.c **** *  None.
 411:Generated_Source\PSoC4/CyDMA.c **** *
 412:Generated_Source\PSoC4/CyDMA.c **** * Side Effects:
 413:Generated_Source\PSoC4/CyDMA.c **** *  This function clears the pending interrupts.
 414:Generated_Source\PSoC4/CyDMA.c **** *
 415:Generated_Source\PSoC4/CyDMA.c **** *******************************************************************************/
 416:Generated_Source\PSoC4/CyDMA.c **** CY_ISR(CyDmaInterrupt)
 417:Generated_Source\PSoC4/CyDMA.c **** {
 633              		.loc 1 417 0
 634              		.cfi_startproc
 635              		@ args = 0, pretend = 0, frame = 8
 636              		@ frame_needed = 1, uses_anonymous_args = 0
 637 0000 80B5     		push	{r7, lr}
 638              		.cfi_def_cfa_offset 8
 639              		.cfi_offset 7, -8
 640              		.cfi_offset 14, -4
 641 0002 82B0     		sub	sp, sp, #8
 642              		.cfi_def_cfa_offset 16
 643 0004 00AF     		add	r7, sp, #0
 644              		.cfi_def_cfa_register 7
 418:Generated_Source\PSoC4/CyDMA.c ****     uint32 intr;
 419:Generated_Source\PSoC4/CyDMA.c ****     uint32 cbIdx = 0u;
 645              		.loc 1 419 0
 646 0006 0023     		movs	r3, #0
 647 0008 3B60     		str	r3, [r7]
 420:Generated_Source\PSoC4/CyDMA.c **** 
 421:Generated_Source\PSoC4/CyDMA.c ****     /* Get interrupt source. */
 422:Generated_Source\PSoC4/CyDMA.c ****     intr = CYDMA_INTR_MASKED_REG;
 648              		.loc 1 422 0
 649 000a 0E4B     		ldr	r3, .L61
 650 000c 1B68     		ldr	r3, [r3]
 651 000e 7B60     		str	r3, [r7, #4]
 423:Generated_Source\PSoC4/CyDMA.c **** 
 424:Generated_Source\PSoC4/CyDMA.c ****     /* Clear pending interrupts. */
 425:Generated_Source\PSoC4/CyDMA.c ****     CYDMA_INTR_REG = intr;
 652              		.loc 1 425 0
 653 0010 0D4B     		ldr	r3, .L61+4
 654 0012 7A68     		ldr	r2, [r7, #4]
 655 0014 1A60     		str	r2, [r3]
 426:Generated_Source\PSoC4/CyDMA.c **** 
 427:Generated_Source\PSoC4/CyDMA.c ****     /* Call user defined callback functions for triggered interrupt sources. */
 428:Generated_Source\PSoC4/CyDMA.c ****     while(0u != intr)
ARM GAS  C:\Users\HPz420\AppData\Local\Temp\ccz4K5YU.s 			page 20


 656              		.loc 1 428 0
 657 0016 0EE0     		b	.L58
 658              	.L60:
 429:Generated_Source\PSoC4/CyDMA.c ****     {
 430:Generated_Source\PSoC4/CyDMA.c ****         if(0u != (intr & 0x1u))
 659              		.loc 1 430 0
 660 0018 7B68     		ldr	r3, [r7, #4]
 661 001a 0122     		movs	r2, #1
 662 001c 1340     		ands	r3, r2
 663 001e 04D0     		beq	.L59
 431:Generated_Source\PSoC4/CyDMA.c ****         {
 432:Generated_Source\PSoC4/CyDMA.c ****             CyDmaInterruptCallback[cbIdx]();
 664              		.loc 1 432 0
 665 0020 0A4B     		ldr	r3, .L61+8
 666 0022 3A68     		ldr	r2, [r7]
 667 0024 9200     		lsls	r2, r2, #2
 668 0026 D358     		ldr	r3, [r2, r3]
 669 0028 9847     		blx	r3
 670              	.L59:
 433:Generated_Source\PSoC4/CyDMA.c ****         }
 434:Generated_Source\PSoC4/CyDMA.c ****         intr >>= 1;
 671              		.loc 1 434 0
 672 002a 7B68     		ldr	r3, [r7, #4]
 673 002c 5B08     		lsrs	r3, r3, #1
 674 002e 7B60     		str	r3, [r7, #4]
 435:Generated_Source\PSoC4/CyDMA.c ****         ++cbIdx;
 675              		.loc 1 435 0
 676 0030 3B68     		ldr	r3, [r7]
 677 0032 0133     		adds	r3, r3, #1
 678 0034 3B60     		str	r3, [r7]
 679              	.L58:
 428:Generated_Source\PSoC4/CyDMA.c ****     {
 680              		.loc 1 428 0
 681 0036 7B68     		ldr	r3, [r7, #4]
 682 0038 002B     		cmp	r3, #0
 683 003a EDD1     		bne	.L60
 436:Generated_Source\PSoC4/CyDMA.c ****     }
 437:Generated_Source\PSoC4/CyDMA.c **** }
 684              		.loc 1 437 0
 685 003c C046     		nop
 686 003e BD46     		mov	sp, r7
 687 0040 02B0     		add	sp, sp, #8
 688              		@ sp needed
 689 0042 80BD     		pop	{r7, pc}
 690              	.L62:
 691              		.align	2
 692              	.L61:
 693 0044 FC171040 		.word	1074796540
 694 0048 F0171040 		.word	1074796528
 695 004c 00000000 		.word	CyDmaInterruptCallback
 696              		.cfi_endproc
 697              	.LFE15:
 698              		.size	CyDmaInterrupt, .-CyDmaInterrupt
 699              		.section	.text.CyDmaDefaultInterruptCallback,"ax",%progbits
 700              		.align	2
 701              		.code	16
 702              		.thumb_func
ARM GAS  C:\Users\HPz420\AppData\Local\Temp\ccz4K5YU.s 			page 21


 703              		.type	CyDmaDefaultInterruptCallback, %function
 704              	CyDmaDefaultInterruptCallback:
 705              	.LFB16:
 438:Generated_Source\PSoC4/CyDMA.c **** 
 439:Generated_Source\PSoC4/CyDMA.c **** 
 440:Generated_Source\PSoC4/CyDMA.c **** /*******************************************************************************
 441:Generated_Source\PSoC4/CyDMA.c **** * Function Name: CyDmaDefaultInterruptCallback
 442:Generated_Source\PSoC4/CyDMA.c **** ********************************************************************************
 443:Generated_Source\PSoC4/CyDMA.c **** *
 444:Generated_Source\PSoC4/CyDMA.c **** * Summary:
 445:Generated_Source\PSoC4/CyDMA.c **** *  This function is invoked when the user defined callback function is undefined
 446:Generated_Source\PSoC4/CyDMA.c **** *  for the interrupt source.
 447:Generated_Source\PSoC4/CyDMA.c **** *
 448:Generated_Source\PSoC4/CyDMA.c **** * Parameters:
 449:Generated_Source\PSoC4/CyDMA.c **** *  None.
 450:Generated_Source\PSoC4/CyDMA.c **** *
 451:Generated_Source\PSoC4/CyDMA.c **** * Return:
 452:Generated_Source\PSoC4/CyDMA.c **** *  None.
 453:Generated_Source\PSoC4/CyDMA.c **** *
 454:Generated_Source\PSoC4/CyDMA.c **** *******************************************************************************/
 455:Generated_Source\PSoC4/CyDMA.c **** static void CyDmaDefaultInterruptCallback(void)
 456:Generated_Source\PSoC4/CyDMA.c **** {
 706              		.loc 1 456 0
 707              		.cfi_startproc
 708              		@ args = 0, pretend = 0, frame = 0
 709              		@ frame_needed = 1, uses_anonymous_args = 0
 710 0000 80B5     		push	{r7, lr}
 711              		.cfi_def_cfa_offset 8
 712              		.cfi_offset 7, -8
 713              		.cfi_offset 14, -4
 714 0002 00AF     		add	r7, sp, #0
 715              		.cfi_def_cfa_register 7
 457:Generated_Source\PSoC4/CyDMA.c ****     /* Halt CPU in debug mode. We get here because there is no user defined
 458:Generated_Source\PSoC4/CyDMA.c ****     * callback function for the interrupt source. You should either set a
 459:Generated_Source\PSoC4/CyDMA.c ****     * callback function or disable generating an interrupt from this
 460:Generated_Source\PSoC4/CyDMA.c ****     * interrupt source.
 461:Generated_Source\PSoC4/CyDMA.c ****     * To set a callback, use the CyDmaSetInterruptCallback() API function.
 462:Generated_Source\PSoC4/CyDMA.c ****     * To disable interrupt generation, write '0' to the corresponding bit
 463:Generated_Source\PSoC4/CyDMA.c ****     * in the interrupt mask by calling CyDmaSetInterruptSourceMask().
 464:Generated_Source\PSoC4/CyDMA.c ****     */
 465:Generated_Source\PSoC4/CyDMA.c ****     CYASSERT(0 != 0);
 716              		.loc 1 465 0
 717 0004 0020     		movs	r0, #0
 718 0006 FFF7FEFF 		bl	CyHalt
 466:Generated_Source\PSoC4/CyDMA.c **** }
 719              		.loc 1 466 0
 720 000a C046     		nop
 721 000c BD46     		mov	sp, r7
 722              		@ sp needed
 723 000e 80BD     		pop	{r7, pc}
 724              		.cfi_endproc
 725              	.LFE16:
 726              		.size	CyDmaDefaultInterruptCallback, .-CyDmaDefaultInterruptCallback
 727              		.section	.text.CyDmaChAlloc,"ax",%progbits
 728              		.align	2
 729              		.global	CyDmaChAlloc
 730              		.code	16
ARM GAS  C:\Users\HPz420\AppData\Local\Temp\ccz4K5YU.s 			page 22


 731              		.thumb_func
 732              		.type	CyDmaChAlloc, %function
 733              	CyDmaChAlloc:
 734              	.LFB17:
 467:Generated_Source\PSoC4/CyDMA.c **** 
 468:Generated_Source\PSoC4/CyDMA.c **** 
 469:Generated_Source\PSoC4/CyDMA.c **** /*******************************************************************************
 470:Generated_Source\PSoC4/CyDMA.c **** * Function Name: CyDmaChAlloc
 471:Generated_Source\PSoC4/CyDMA.c **** ********************************************************************************
 472:Generated_Source\PSoC4/CyDMA.c **** *
 473:Generated_Source\PSoC4/CyDMA.c **** * Summary:
 474:Generated_Source\PSoC4/CyDMA.c **** *  Allocates a channel number to use with later DMA functions.
 475:Generated_Source\PSoC4/CyDMA.c **** *
 476:Generated_Source\PSoC4/CyDMA.c **** * Parameters:
 477:Generated_Source\PSoC4/CyDMA.c **** *  None.
 478:Generated_Source\PSoC4/CyDMA.c **** *                   
 479:Generated_Source\PSoC4/CyDMA.c **** * Return:
 480:Generated_Source\PSoC4/CyDMA.c **** *  The allocated channel number. Zero is a valid channel number.
 481:Generated_Source\PSoC4/CyDMA.c **** *  CYDMA_INVALID_CHANNEL is returned if there are no channels available.
 482:Generated_Source\PSoC4/CyDMA.c **** *
 483:Generated_Source\PSoC4/CyDMA.c **** *******************************************************************************/
 484:Generated_Source\PSoC4/CyDMA.c **** int32 CyDmaChAlloc(void)
 485:Generated_Source\PSoC4/CyDMA.c **** {
 735              		.loc 1 485 0
 736              		.cfi_startproc
 737              		@ args = 0, pretend = 0, frame = 8
 738              		@ frame_needed = 1, uses_anonymous_args = 0
 739 0000 80B5     		push	{r7, lr}
 740              		.cfi_def_cfa_offset 8
 741              		.cfi_offset 7, -8
 742              		.cfi_offset 14, -4
 743 0002 82B0     		sub	sp, sp, #8
 744              		.cfi_def_cfa_offset 16
 745 0004 00AF     		add	r7, sp, #0
 746              		.cfi_def_cfa_register 7
 486:Generated_Source\PSoC4/CyDMA.c ****     int32  channel = CYDMA_CH_NR-1;
 747              		.loc 1 486 0
 748 0006 1F23     		movs	r3, #31
 749 0008 7B60     		str	r3, [r7, #4]
 487:Generated_Source\PSoC4/CyDMA.c ****     uint32 channelMask = (uint32)(1UL << (CYDMA_CH_NR-1));
 750              		.loc 1 487 0
 751 000a 8023     		movs	r3, #128
 752 000c 1B06     		lsls	r3, r3, #24
 753 000e 3B60     		str	r3, [r7]
 488:Generated_Source\PSoC4/CyDMA.c ****     
 489:Generated_Source\PSoC4/CyDMA.c ****     while (channel >= 0)
 754              		.loc 1 489 0
 755 0010 11E0     		b	.L65
 756              	.L68:
 490:Generated_Source\PSoC4/CyDMA.c ****     {
 491:Generated_Source\PSoC4/CyDMA.c ****         if(0u == (CyDmaChannelUsedMask & channelMask))
 757              		.loc 1 491 0
 758 0012 0D4B     		ldr	r3, .L70
 759 0014 1B68     		ldr	r3, [r3]
 760 0016 3A68     		ldr	r2, [r7]
 761 0018 1340     		ands	r3, r2
 762 001a 06D1     		bne	.L66
ARM GAS  C:\Users\HPz420\AppData\Local\Temp\ccz4K5YU.s 			page 23


 492:Generated_Source\PSoC4/CyDMA.c ****         {
 493:Generated_Source\PSoC4/CyDMA.c ****             /* Mark channel as used and exit loop. */ 
 494:Generated_Source\PSoC4/CyDMA.c ****             CyDmaChannelUsedMask |= channelMask;
 763              		.loc 1 494 0
 764 001c 0A4B     		ldr	r3, .L70
 765 001e 1A68     		ldr	r2, [r3]
 766 0020 3B68     		ldr	r3, [r7]
 767 0022 1A43     		orrs	r2, r3
 768 0024 084B     		ldr	r3, .L70
 769 0026 1A60     		str	r2, [r3]
 495:Generated_Source\PSoC4/CyDMA.c ****             break;
 770              		.loc 1 495 0
 771 0028 08E0     		b	.L67
 772              	.L66:
 496:Generated_Source\PSoC4/CyDMA.c ****         }
 497:Generated_Source\PSoC4/CyDMA.c ****         channelMask >>= 1;
 773              		.loc 1 497 0
 774 002a 3B68     		ldr	r3, [r7]
 775 002c 5B08     		lsrs	r3, r3, #1
 776 002e 3B60     		str	r3, [r7]
 498:Generated_Source\PSoC4/CyDMA.c ****         --channel;
 777              		.loc 1 498 0
 778 0030 7B68     		ldr	r3, [r7, #4]
 779 0032 013B     		subs	r3, r3, #1
 780 0034 7B60     		str	r3, [r7, #4]
 781              	.L65:
 489:Generated_Source\PSoC4/CyDMA.c ****     {
 782              		.loc 1 489 0
 783 0036 7B68     		ldr	r3, [r7, #4]
 784 0038 002B     		cmp	r3, #0
 785 003a EADA     		bge	.L68
 786              	.L67:
 499:Generated_Source\PSoC4/CyDMA.c ****     }
 500:Generated_Source\PSoC4/CyDMA.c ****     return (channel);
 787              		.loc 1 500 0
 788 003c 7B68     		ldr	r3, [r7, #4]
 501:Generated_Source\PSoC4/CyDMA.c **** }
 789              		.loc 1 501 0
 790 003e 1800     		movs	r0, r3
 791 0040 BD46     		mov	sp, r7
 792 0042 02B0     		add	sp, sp, #8
 793              		@ sp needed
 794 0044 80BD     		pop	{r7, pc}
 795              	.L71:
 796 0046 C046     		.align	2
 797              	.L70:
 798 0048 00000000 		.word	CyDmaChannelUsedMask
 799              		.cfi_endproc
 800              	.LFE17:
 801              		.size	CyDmaChAlloc, .-CyDmaChAlloc
 802              		.section	.text.CyDmaChFree,"ax",%progbits
 803              		.align	2
 804              		.global	CyDmaChFree
 805              		.code	16
 806              		.thumb_func
 807              		.type	CyDmaChFree, %function
 808              	CyDmaChFree:
ARM GAS  C:\Users\HPz420\AppData\Local\Temp\ccz4K5YU.s 			page 24


 809              	.LFB18:
 502:Generated_Source\PSoC4/CyDMA.c **** 
 503:Generated_Source\PSoC4/CyDMA.c **** 
 504:Generated_Source\PSoC4/CyDMA.c **** /*******************************************************************************
 505:Generated_Source\PSoC4/CyDMA.c **** * Function Name: CyDmaChFree
 506:Generated_Source\PSoC4/CyDMA.c **** ********************************************************************************
 507:Generated_Source\PSoC4/CyDMA.c **** *
 508:Generated_Source\PSoC4/CyDMA.c **** * Summary:
 509:Generated_Source\PSoC4/CyDMA.c **** *  Frees a channel handle allocated by CyDmaChAlloc(). Channels allocated for
 510:Generated_Source\PSoC4/CyDMA.c **** *  DMA instances placed on a schematic cannot be freed.
 511:Generated_Source\PSoC4/CyDMA.c **** *
 512:Generated_Source\PSoC4/CyDMA.c **** * Parameters:
 513:Generated_Source\PSoC4/CyDMA.c **** *  channel: The handle previously returned by CyDmaChAlloc().
 514:Generated_Source\PSoC4/CyDMA.c **** *                   
 515:Generated_Source\PSoC4/CyDMA.c **** * Return:
 516:Generated_Source\PSoC4/CyDMA.c **** *  CYRET_SUCCESS if successful.
 517:Generated_Source\PSoC4/CyDMA.c **** *  CYRET_BAD_PARAM if channel is invalid.
 518:Generated_Source\PSoC4/CyDMA.c **** *
 519:Generated_Source\PSoC4/CyDMA.c **** *******************************************************************************/
 520:Generated_Source\PSoC4/CyDMA.c **** cystatus CyDmaChFree(int32 channel)
 521:Generated_Source\PSoC4/CyDMA.c **** {
 810              		.loc 1 521 0
 811              		.cfi_startproc
 812              		@ args = 0, pretend = 0, frame = 16
 813              		@ frame_needed = 1, uses_anonymous_args = 0
 814 0000 80B5     		push	{r7, lr}
 815              		.cfi_def_cfa_offset 8
 816              		.cfi_offset 7, -8
 817              		.cfi_offset 14, -4
 818 0002 84B0     		sub	sp, sp, #16
 819              		.cfi_def_cfa_offset 24
 820 0004 00AF     		add	r7, sp, #0
 821              		.cfi_def_cfa_register 7
 822 0006 7860     		str	r0, [r7, #4]
 522:Generated_Source\PSoC4/CyDMA.c ****     uint32   channelMask;
 523:Generated_Source\PSoC4/CyDMA.c ****     cystatus result = CYRET_BAD_PARAM;
 823              		.loc 1 523 0
 824 0008 0123     		movs	r3, #1
 825 000a FB60     		str	r3, [r7, #12]
 524:Generated_Source\PSoC4/CyDMA.c **** 
 525:Generated_Source\PSoC4/CyDMA.c ****     CYASSERT((channel >= 0) && (channel < CYDMA_CH_NR));
 826              		.loc 1 525 0
 827 000c 7B68     		ldr	r3, [r7, #4]
 828 000e 002B     		cmp	r3, #0
 829 0010 04DB     		blt	.L73
 830              		.loc 1 525 0 is_stmt 0 discriminator 1
 831 0012 7B68     		ldr	r3, [r7, #4]
 832 0014 1F2B     		cmp	r3, #31
 833 0016 01DC     		bgt	.L73
 834              		.loc 1 525 0 discriminator 3
 835 0018 0123     		movs	r3, #1
 836 001a 00E0     		b	.L74
 837              	.L73:
 838              		.loc 1 525 0 discriminator 4
 839 001c 0023     		movs	r3, #0
 840              	.L74:
 841              		.loc 1 525 0 discriminator 6
ARM GAS  C:\Users\HPz420\AppData\Local\Temp\ccz4K5YU.s 			page 25


 842 001e 002B     		cmp	r3, #0
 843 0020 02D1     		bne	.L75
 844              		.loc 1 525 0 discriminator 7
 845 0022 0020     		movs	r0, #0
 846 0024 FFF7FEFF 		bl	CyHalt
 847              	.L75:
 526:Generated_Source\PSoC4/CyDMA.c ****     
 527:Generated_Source\PSoC4/CyDMA.c ****     channelMask = (uint32)(1UL << channel);
 848              		.loc 1 527 0 is_stmt 1
 849 0028 0122     		movs	r2, #1
 850 002a 7B68     		ldr	r3, [r7, #4]
 851 002c 9A40     		lsls	r2, r2, r3
 852 002e 1300     		movs	r3, r2
 853 0030 BB60     		str	r3, [r7, #8]
 528:Generated_Source\PSoC4/CyDMA.c **** 
 529:Generated_Source\PSoC4/CyDMA.c ****     /* Check against attempt to free channel allocated for DMA instance
 530:Generated_Source\PSoC4/CyDMA.c ****     * placed on schematic.
 531:Generated_Source\PSoC4/CyDMA.c ****     */
 532:Generated_Source\PSoC4/CyDMA.c ****     if(0u == (channelMask & DMA_CHANNELS_USED__MASK))
 533:Generated_Source\PSoC4/CyDMA.c ****     {
 534:Generated_Source\PSoC4/CyDMA.c ****         CyDmaChannelUsedMask &= (uint32)~channelMask;
 854              		.loc 1 534 0
 855 0032 BB68     		ldr	r3, [r7, #8]
 856 0034 DA43     		mvns	r2, r3
 857 0036 064B     		ldr	r3, .L77
 858 0038 1B68     		ldr	r3, [r3]
 859 003a 1A40     		ands	r2, r3
 860 003c 044B     		ldr	r3, .L77
 861 003e 1A60     		str	r2, [r3]
 535:Generated_Source\PSoC4/CyDMA.c ****         result = CYRET_SUCCESS;
 862              		.loc 1 535 0
 863 0040 0023     		movs	r3, #0
 864 0042 FB60     		str	r3, [r7, #12]
 536:Generated_Source\PSoC4/CyDMA.c ****     }
 537:Generated_Source\PSoC4/CyDMA.c ****     
 538:Generated_Source\PSoC4/CyDMA.c ****     return (result);
 865              		.loc 1 538 0
 866 0044 FB68     		ldr	r3, [r7, #12]
 539:Generated_Source\PSoC4/CyDMA.c **** }
 867              		.loc 1 539 0
 868 0046 1800     		movs	r0, r3
 869 0048 BD46     		mov	sp, r7
 870 004a 04B0     		add	sp, sp, #16
 871              		@ sp needed
 872 004c 80BD     		pop	{r7, pc}
 873              	.L78:
 874 004e C046     		.align	2
 875              	.L77:
 876 0050 00000000 		.word	CyDmaChannelUsedMask
 877              		.cfi_endproc
 878              	.LFE18:
 879              		.size	CyDmaChFree, .-CyDmaChFree
 880              		.section	.text.CyDmaChEnable,"ax",%progbits
 881              		.align	2
 882              		.global	CyDmaChEnable
 883              		.code	16
 884              		.thumb_func
ARM GAS  C:\Users\HPz420\AppData\Local\Temp\ccz4K5YU.s 			page 26


 885              		.type	CyDmaChEnable, %function
 886              	CyDmaChEnable:
 887              	.LFB19:
 540:Generated_Source\PSoC4/CyDMA.c **** 
 541:Generated_Source\PSoC4/CyDMA.c **** 
 542:Generated_Source\PSoC4/CyDMA.c **** /*******************************************************************************
 543:Generated_Source\PSoC4/CyDMA.c **** * Function Name: CyDmaChEnable
 544:Generated_Source\PSoC4/CyDMA.c **** ********************************************************************************
 545:Generated_Source\PSoC4/CyDMA.c **** *
 546:Generated_Source\PSoC4/CyDMA.c **** * Summary:
 547:Generated_Source\PSoC4/CyDMA.c **** *  Enables the DMA channel.
 548:Generated_Source\PSoC4/CyDMA.c **** *
 549:Generated_Source\PSoC4/CyDMA.c **** * Parameters:
 550:Generated_Source\PSoC4/CyDMA.c **** *  channel: Channel used by this function.
 551:Generated_Source\PSoC4/CyDMA.c **** *                   
 552:Generated_Source\PSoC4/CyDMA.c **** * Return:
 553:Generated_Source\PSoC4/CyDMA.c **** *  None.
 554:Generated_Source\PSoC4/CyDMA.c **** *
 555:Generated_Source\PSoC4/CyDMA.c **** * Side effect:
 556:Generated_Source\PSoC4/CyDMA.c **** *  If this function is called before CyDmaSetConfiguration(), and
 557:Generated_Source\PSoC4/CyDMA.c **** *  CyDmaSetSrcAddress() and CyDmaSetDstAddress(), the operation of
 558:Generated_Source\PSoC4/CyDMA.c **** *  the DMA is undefined and could result in system data corruption. 
 559:Generated_Source\PSoC4/CyDMA.c **** *
 560:Generated_Source\PSoC4/CyDMA.c **** *******************************************************************************/
 561:Generated_Source\PSoC4/CyDMA.c **** void CyDmaChEnable(int32 channel)
 562:Generated_Source\PSoC4/CyDMA.c **** {
 888              		.loc 1 562 0
 889              		.cfi_startproc
 890              		@ args = 0, pretend = 0, frame = 8
 891              		@ frame_needed = 1, uses_anonymous_args = 0
 892 0000 80B5     		push	{r7, lr}
 893              		.cfi_def_cfa_offset 8
 894              		.cfi_offset 7, -8
 895              		.cfi_offset 14, -4
 896 0002 82B0     		sub	sp, sp, #8
 897              		.cfi_def_cfa_offset 16
 898 0004 00AF     		add	r7, sp, #0
 899              		.cfi_def_cfa_register 7
 900 0006 7860     		str	r0, [r7, #4]
 563:Generated_Source\PSoC4/CyDMA.c ****     CYASSERT((channel >= 0) && (channel < CYDMA_CH_NR));
 901              		.loc 1 563 0
 902 0008 7B68     		ldr	r3, [r7, #4]
 903 000a 002B     		cmp	r3, #0
 904 000c 04DB     		blt	.L80
 905              		.loc 1 563 0 is_stmt 0 discriminator 1
 906 000e 7B68     		ldr	r3, [r7, #4]
 907 0010 1F2B     		cmp	r3, #31
 908 0012 01DC     		bgt	.L80
 909              		.loc 1 563 0 discriminator 3
 910 0014 0123     		movs	r3, #1
 911 0016 00E0     		b	.L81
 912              	.L80:
 913              		.loc 1 563 0 discriminator 4
 914 0018 0023     		movs	r3, #0
 915              	.L81:
 916              		.loc 1 563 0 discriminator 6
 917 001a 002B     		cmp	r3, #0
ARM GAS  C:\Users\HPz420\AppData\Local\Temp\ccz4K5YU.s 			page 27


 918 001c 02D1     		bne	.L82
 919              		.loc 1 563 0 discriminator 7
 920 001e 0020     		movs	r0, #0
 921 0020 FFF7FEFF 		bl	CyHalt
 922              	.L82:
 564:Generated_Source\PSoC4/CyDMA.c **** 
 565:Generated_Source\PSoC4/CyDMA.c ****     CYDMA_CH_CTL_BASE.ctl[channel] |= CYDMA_ENABLED;
 923              		.loc 1 565 0 is_stmt 1
 924 0024 0749     		ldr	r1, .L83
 925 0026 074A     		ldr	r2, .L83
 926 0028 7B68     		ldr	r3, [r7, #4]
 927 002a 9B00     		lsls	r3, r3, #2
 928 002c 9B58     		ldr	r3, [r3, r2]
 929 002e 8022     		movs	r2, #128
 930 0030 1206     		lsls	r2, r2, #24
 931 0032 1A43     		orrs	r2, r3
 932 0034 7B68     		ldr	r3, [r7, #4]
 933 0036 9B00     		lsls	r3, r3, #2
 934 0038 5A50     		str	r2, [r3, r1]
 566:Generated_Source\PSoC4/CyDMA.c **** }
 935              		.loc 1 566 0
 936 003a C046     		nop
 937 003c BD46     		mov	sp, r7
 938 003e 02B0     		add	sp, sp, #8
 939              		@ sp needed
 940 0040 80BD     		pop	{r7, pc}
 941              	.L84:
 942 0042 C046     		.align	2
 943              	.L83:
 944 0044 80101040 		.word	1074794624
 945              		.cfi_endproc
 946              	.LFE19:
 947              		.size	CyDmaChEnable, .-CyDmaChEnable
 948              		.section	.text.CyDmaChDisable,"ax",%progbits
 949              		.align	2
 950              		.global	CyDmaChDisable
 951              		.code	16
 952              		.thumb_func
 953              		.type	CyDmaChDisable, %function
 954              	CyDmaChDisable:
 955              	.LFB20:
 567:Generated_Source\PSoC4/CyDMA.c **** 
 568:Generated_Source\PSoC4/CyDMA.c **** 
 569:Generated_Source\PSoC4/CyDMA.c **** /*******************************************************************************
 570:Generated_Source\PSoC4/CyDMA.c **** * Function Name: CyDmaChDisable
 571:Generated_Source\PSoC4/CyDMA.c **** ********************************************************************************
 572:Generated_Source\PSoC4/CyDMA.c **** *
 573:Generated_Source\PSoC4/CyDMA.c **** * Summary:
 574:Generated_Source\PSoC4/CyDMA.c **** *  Disables the DMA channel.
 575:Generated_Source\PSoC4/CyDMA.c **** *
 576:Generated_Source\PSoC4/CyDMA.c **** * Parameters:
 577:Generated_Source\PSoC4/CyDMA.c **** *  channel: Channel used by this function.
 578:Generated_Source\PSoC4/CyDMA.c **** *                   
 579:Generated_Source\PSoC4/CyDMA.c **** * Return:
 580:Generated_Source\PSoC4/CyDMA.c **** *  None.
 581:Generated_Source\PSoC4/CyDMA.c **** *
 582:Generated_Source\PSoC4/CyDMA.c **** * Side effect:
ARM GAS  C:\Users\HPz420\AppData\Local\Temp\ccz4K5YU.s 			page 28


 583:Generated_Source\PSoC4/CyDMA.c **** *  If this function is called during a DMA transfer the transfer is aborted. 
 584:Generated_Source\PSoC4/CyDMA.c **** *
 585:Generated_Source\PSoC4/CyDMA.c **** *******************************************************************************/
 586:Generated_Source\PSoC4/CyDMA.c **** void CyDmaChDisable(int32 channel)
 587:Generated_Source\PSoC4/CyDMA.c **** {
 956              		.loc 1 587 0
 957              		.cfi_startproc
 958              		@ args = 0, pretend = 0, frame = 8
 959              		@ frame_needed = 1, uses_anonymous_args = 0
 960 0000 80B5     		push	{r7, lr}
 961              		.cfi_def_cfa_offset 8
 962              		.cfi_offset 7, -8
 963              		.cfi_offset 14, -4
 964 0002 82B0     		sub	sp, sp, #8
 965              		.cfi_def_cfa_offset 16
 966 0004 00AF     		add	r7, sp, #0
 967              		.cfi_def_cfa_register 7
 968 0006 7860     		str	r0, [r7, #4]
 588:Generated_Source\PSoC4/CyDMA.c ****     CYASSERT((channel >= 0) && (channel < CYDMA_CH_NR));
 969              		.loc 1 588 0
 970 0008 7B68     		ldr	r3, [r7, #4]
 971 000a 002B     		cmp	r3, #0
 972 000c 04DB     		blt	.L86
 973              		.loc 1 588 0 is_stmt 0 discriminator 1
 974 000e 7B68     		ldr	r3, [r7, #4]
 975 0010 1F2B     		cmp	r3, #31
 976 0012 01DC     		bgt	.L86
 977              		.loc 1 588 0 discriminator 3
 978 0014 0123     		movs	r3, #1
 979 0016 00E0     		b	.L87
 980              	.L86:
 981              		.loc 1 588 0 discriminator 4
 982 0018 0023     		movs	r3, #0
 983              	.L87:
 984              		.loc 1 588 0 discriminator 6
 985 001a 002B     		cmp	r3, #0
 986 001c 02D1     		bne	.L88
 987              		.loc 1 588 0 discriminator 7
 988 001e 0020     		movs	r0, #0
 989 0020 FFF7FEFF 		bl	CyHalt
 990              	.L88:
 589:Generated_Source\PSoC4/CyDMA.c **** 
 590:Generated_Source\PSoC4/CyDMA.c ****     CYDMA_CH_CTL_BASE.ctl[channel] &= (uint32)~CYDMA_ENABLED;
 991              		.loc 1 590 0 is_stmt 1
 992 0024 0649     		ldr	r1, .L89
 993 0026 064A     		ldr	r2, .L89
 994 0028 7B68     		ldr	r3, [r7, #4]
 995 002a 9B00     		lsls	r3, r3, #2
 996 002c 9B58     		ldr	r3, [r3, r2]
 997 002e 5B00     		lsls	r3, r3, #1
 998 0030 5A08     		lsrs	r2, r3, #1
 999 0032 7B68     		ldr	r3, [r7, #4]
 1000 0034 9B00     		lsls	r3, r3, #2
 1001 0036 5A50     		str	r2, [r3, r1]
 591:Generated_Source\PSoC4/CyDMA.c **** }
 1002              		.loc 1 591 0
 1003 0038 C046     		nop
ARM GAS  C:\Users\HPz420\AppData\Local\Temp\ccz4K5YU.s 			page 29


 1004 003a BD46     		mov	sp, r7
 1005 003c 02B0     		add	sp, sp, #8
 1006              		@ sp needed
 1007 003e 80BD     		pop	{r7, pc}
 1008              	.L90:
 1009              		.align	2
 1010              	.L89:
 1011 0040 80101040 		.word	1074794624
 1012              		.cfi_endproc
 1013              	.LFE20:
 1014              		.size	CyDmaChDisable, .-CyDmaChDisable
 1015              		.section	.text.CyDmaTrigger,"ax",%progbits
 1016              		.align	2
 1017              		.global	CyDmaTrigger
 1018              		.code	16
 1019              		.thumb_func
 1020              		.type	CyDmaTrigger, %function
 1021              	CyDmaTrigger:
 1022              	.LFB21:
 592:Generated_Source\PSoC4/CyDMA.c **** 
 593:Generated_Source\PSoC4/CyDMA.c **** 
 594:Generated_Source\PSoC4/CyDMA.c **** /*******************************************************************************
 595:Generated_Source\PSoC4/CyDMA.c **** * Function Name: CyDmaTrigger
 596:Generated_Source\PSoC4/CyDMA.c **** ********************************************************************************
 597:Generated_Source\PSoC4/CyDMA.c **** *
 598:Generated_Source\PSoC4/CyDMA.c **** * Summary:
 599:Generated_Source\PSoC4/CyDMA.c **** *  Triggers the DMA channel, this is useful only for software triggers. This is
 600:Generated_Source\PSoC4/CyDMA.c **** *  not needed when hardware triggers are used.
 601:Generated_Source\PSoC4/CyDMA.c **** *
 602:Generated_Source\PSoC4/CyDMA.c **** * Parameters:
 603:Generated_Source\PSoC4/CyDMA.c **** *  channel: Channel used by this function.
 604:Generated_Source\PSoC4/CyDMA.c **** *                   
 605:Generated_Source\PSoC4/CyDMA.c **** * Return:
 606:Generated_Source\PSoC4/CyDMA.c **** *  None. 
 607:Generated_Source\PSoC4/CyDMA.c **** *
 608:Generated_Source\PSoC4/CyDMA.c **** *******************************************************************************/
 609:Generated_Source\PSoC4/CyDMA.c **** void CyDmaTrigger(int32 channel)
 610:Generated_Source\PSoC4/CyDMA.c **** {
 1023              		.loc 1 610 0
 1024              		.cfi_startproc
 1025              		@ args = 0, pretend = 0, frame = 8
 1026              		@ frame_needed = 1, uses_anonymous_args = 0
 1027 0000 80B5     		push	{r7, lr}
 1028              		.cfi_def_cfa_offset 8
 1029              		.cfi_offset 7, -8
 1030              		.cfi_offset 14, -4
 1031 0002 82B0     		sub	sp, sp, #8
 1032              		.cfi_def_cfa_offset 16
 1033 0004 00AF     		add	r7, sp, #0
 1034              		.cfi_def_cfa_register 7
 1035 0006 7860     		str	r0, [r7, #4]
 611:Generated_Source\PSoC4/CyDMA.c ****     /* The LUT is device-dependent, thus it is generated during the build process. */
 612:Generated_Source\PSoC4/CyDMA.c ****     static const uint32 trCtlLut[] = {0xC0020000U, 0xC0020100U, 0xC0020200U, 0xC0020208U};
 613:Generated_Source\PSoC4/CyDMA.c **** 
 614:Generated_Source\PSoC4/CyDMA.c ****     CYASSERT((channel >= 0) && (channel < CYDMA_CH_NR));
 1036              		.loc 1 614 0
 1037 0008 7B68     		ldr	r3, [r7, #4]
ARM GAS  C:\Users\HPz420\AppData\Local\Temp\ccz4K5YU.s 			page 30


 1038 000a 002B     		cmp	r3, #0
 1039 000c 04DB     		blt	.L92
 1040              		.loc 1 614 0 is_stmt 0 discriminator 1
 1041 000e 7B68     		ldr	r3, [r7, #4]
 1042 0010 1F2B     		cmp	r3, #31
 1043 0012 01DC     		bgt	.L92
 1044              		.loc 1 614 0 discriminator 3
 1045 0014 0123     		movs	r3, #1
 1046 0016 00E0     		b	.L93
 1047              	.L92:
 1048              		.loc 1 614 0 discriminator 4
 1049 0018 0023     		movs	r3, #0
 1050              	.L93:
 1051              		.loc 1 614 0 discriminator 6
 1052 001a 002B     		cmp	r3, #0
 1053 001c 02D1     		bne	.L94
 1054              		.loc 1 614 0 discriminator 7
 1055 001e 0020     		movs	r0, #0
 1056 0020 FFF7FEFF 		bl	CyHalt
 1057              	.L94:
 615:Generated_Source\PSoC4/CyDMA.c **** 
 616:Generated_Source\PSoC4/CyDMA.c ****     CYDMA_TR_CTL_REG = trCtlLut[(uint32)channel >> CYDMA_TR_GROUP_SHR] | ((uint32)channel & CYDMA_T
 1058              		.loc 1 616 0 is_stmt 1
 1059 0024 074B     		ldr	r3, .L95
 1060 0026 7A68     		ldr	r2, [r7, #4]
 1061 0028 D108     		lsrs	r1, r2, #3
 1062 002a 074A     		ldr	r2, .L95+4
 1063 002c 8900     		lsls	r1, r1, #2
 1064 002e 8958     		ldr	r1, [r1, r2]
 1065 0030 7A68     		ldr	r2, [r7, #4]
 1066 0032 0720     		movs	r0, #7
 1067 0034 0240     		ands	r2, r0
 1068 0036 0A43     		orrs	r2, r1
 1069 0038 1A60     		str	r2, [r3]
 617:Generated_Source\PSoC4/CyDMA.c **** }
 1070              		.loc 1 617 0
 1071 003a C046     		nop
 1072 003c BD46     		mov	sp, r7
 1073 003e 02B0     		add	sp, sp, #8
 1074              		@ sp needed
 1075 0040 80BD     		pop	{r7, pc}
 1076              	.L96:
 1077 0042 C046     		.align	2
 1078              	.L95:
 1079 0044 00060140 		.word	1073808896
 1080 0048 00000000 		.word	trCtlLut.5141
 1081              		.cfi_endproc
 1082              	.LFE21:
 1083              		.size	CyDmaTrigger, .-CyDmaTrigger
 1084              		.section	.text.CyDmaSetPriority,"ax",%progbits
 1085              		.align	2
 1086              		.global	CyDmaSetPriority
 1087              		.code	16
 1088              		.thumb_func
 1089              		.type	CyDmaSetPriority, %function
 1090              	CyDmaSetPriority:
 1091              	.LFB22:
ARM GAS  C:\Users\HPz420\AppData\Local\Temp\ccz4K5YU.s 			page 31


 618:Generated_Source\PSoC4/CyDMA.c **** 
 619:Generated_Source\PSoC4/CyDMA.c **** 
 620:Generated_Source\PSoC4/CyDMA.c **** /*******************************************************************************
 621:Generated_Source\PSoC4/CyDMA.c **** * Function Name: CyDmaSetPriority
 622:Generated_Source\PSoC4/CyDMA.c **** ********************************************************************************
 623:Generated_Source\PSoC4/CyDMA.c **** *
 624:Generated_Source\PSoC4/CyDMA.c **** * Summary:
 625:Generated_Source\PSoC4/CyDMA.c **** *  Sets the priority for the channel.
 626:Generated_Source\PSoC4/CyDMA.c **** *
 627:Generated_Source\PSoC4/CyDMA.c **** * Parameters:
 628:Generated_Source\PSoC4/CyDMA.c **** *  channel:  Channel used by this function
 629:Generated_Source\PSoC4/CyDMA.c **** *  priority: Priority for channel. Priority can be 0,1,2, or 3.
 630:Generated_Source\PSoC4/CyDMA.c **** *            0 is the highest priority.
 631:Generated_Source\PSoC4/CyDMA.c **** *                   
 632:Generated_Source\PSoC4/CyDMA.c **** * Return:
 633:Generated_Source\PSoC4/CyDMA.c **** *  None.
 634:Generated_Source\PSoC4/CyDMA.c **** *
 635:Generated_Source\PSoC4/CyDMA.c **** * Side effect:
 636:Generated_Source\PSoC4/CyDMA.c **** *  This function should not be called while the channel is enabled.
 637:Generated_Source\PSoC4/CyDMA.c **** *
 638:Generated_Source\PSoC4/CyDMA.c **** *******************************************************************************/
 639:Generated_Source\PSoC4/CyDMA.c **** void CyDmaSetPriority(int32 channel, int32 priority)
 640:Generated_Source\PSoC4/CyDMA.c **** {
 1092              		.loc 1 640 0
 1093              		.cfi_startproc
 1094              		@ args = 0, pretend = 0, frame = 16
 1095              		@ frame_needed = 1, uses_anonymous_args = 0
 1096 0000 80B5     		push	{r7, lr}
 1097              		.cfi_def_cfa_offset 8
 1098              		.cfi_offset 7, -8
 1099              		.cfi_offset 14, -4
 1100 0002 84B0     		sub	sp, sp, #16
 1101              		.cfi_def_cfa_offset 24
 1102 0004 00AF     		add	r7, sp, #0
 1103              		.cfi_def_cfa_register 7
 1104 0006 7860     		str	r0, [r7, #4]
 1105 0008 3960     		str	r1, [r7]
 641:Generated_Source\PSoC4/CyDMA.c ****     uint32 regValue;
 642:Generated_Source\PSoC4/CyDMA.c **** 
 643:Generated_Source\PSoC4/CyDMA.c ****     CYASSERT((channel  >= 0) && (channel  <  CYDMA_CH_NR));
 1106              		.loc 1 643 0
 1107 000a 7B68     		ldr	r3, [r7, #4]
 1108 000c 002B     		cmp	r3, #0
 1109 000e 04DB     		blt	.L98
 1110              		.loc 1 643 0 is_stmt 0 discriminator 1
 1111 0010 7B68     		ldr	r3, [r7, #4]
 1112 0012 1F2B     		cmp	r3, #31
 1113 0014 01DC     		bgt	.L98
 1114              		.loc 1 643 0 discriminator 3
 1115 0016 0123     		movs	r3, #1
 1116 0018 00E0     		b	.L99
 1117              	.L98:
 1118              		.loc 1 643 0 discriminator 4
 1119 001a 0023     		movs	r3, #0
 1120              	.L99:
 1121              		.loc 1 643 0 discriminator 6
 1122 001c 002B     		cmp	r3, #0
ARM GAS  C:\Users\HPz420\AppData\Local\Temp\ccz4K5YU.s 			page 32


 1123 001e 02D1     		bne	.L100
 1124              		.loc 1 643 0 discriminator 7
 1125 0020 0020     		movs	r0, #0
 1126 0022 FFF7FEFF 		bl	CyHalt
 1127              	.L100:
 644:Generated_Source\PSoC4/CyDMA.c ****     CYASSERT((priority >= 0) && (priority <= CY_DMA_MAX_PRIO));
 1128              		.loc 1 644 0 is_stmt 1
 1129 0026 3B68     		ldr	r3, [r7]
 1130 0028 002B     		cmp	r3, #0
 1131 002a 04DB     		blt	.L101
 1132              		.loc 1 644 0 is_stmt 0 discriminator 1
 1133 002c 3B68     		ldr	r3, [r7]
 1134 002e 032B     		cmp	r3, #3
 1135 0030 01DC     		bgt	.L101
 1136              		.loc 1 644 0 discriminator 3
 1137 0032 0123     		movs	r3, #1
 1138 0034 00E0     		b	.L102
 1139              	.L101:
 1140              		.loc 1 644 0 discriminator 4
 1141 0036 0023     		movs	r3, #0
 1142              	.L102:
 1143              		.loc 1 644 0 discriminator 6
 1144 0038 002B     		cmp	r3, #0
 1145 003a 02D1     		bne	.L103
 1146              		.loc 1 644 0 discriminator 7
 1147 003c 0020     		movs	r0, #0
 1148 003e FFF7FEFF 		bl	CyHalt
 1149              	.L103:
 645:Generated_Source\PSoC4/CyDMA.c **** 
 646:Generated_Source\PSoC4/CyDMA.c ****     regValue = CYDMA_CH_CTL_BASE.ctl[channel] & (uint32)~CYDMA_PRIO;
 1150              		.loc 1 646 0 is_stmt 1
 1151 0042 094A     		ldr	r2, .L104
 1152 0044 7B68     		ldr	r3, [r7, #4]
 1153 0046 9B00     		lsls	r3, r3, #2
 1154 0048 9B58     		ldr	r3, [r3, r2]
 1155 004a 084A     		ldr	r2, .L104+4
 1156 004c 1340     		ands	r3, r2
 1157 004e FB60     		str	r3, [r7, #12]
 647:Generated_Source\PSoC4/CyDMA.c ****     CYDMA_CH_CTL_BASE.ctl[channel] = regValue | (uint32)((uint32)priority << CYDMA_PRIO_POS);
 1158              		.loc 1 647 0
 1159 0050 0549     		ldr	r1, .L104
 1160 0052 3B68     		ldr	r3, [r7]
 1161 0054 1A07     		lsls	r2, r3, #28
 1162 0056 FB68     		ldr	r3, [r7, #12]
 1163 0058 1A43     		orrs	r2, r3
 1164 005a 7B68     		ldr	r3, [r7, #4]
 1165 005c 9B00     		lsls	r3, r3, #2
 1166 005e 5A50     		str	r2, [r3, r1]
 648:Generated_Source\PSoC4/CyDMA.c **** }
 1167              		.loc 1 648 0
 1168 0060 C046     		nop
 1169 0062 BD46     		mov	sp, r7
 1170 0064 04B0     		add	sp, sp, #16
 1171              		@ sp needed
 1172 0066 80BD     		pop	{r7, pc}
 1173              	.L105:
 1174              		.align	2
ARM GAS  C:\Users\HPz420\AppData\Local\Temp\ccz4K5YU.s 			page 33


 1175              	.L104:
 1176 0068 80101040 		.word	1074794624
 1177 006c FFFFFFCF 		.word	-805306369
 1178              		.cfi_endproc
 1179              	.LFE22:
 1180              		.size	CyDmaSetPriority, .-CyDmaSetPriority
 1181              		.section	.text.CyDmaGetPriority,"ax",%progbits
 1182              		.align	2
 1183              		.global	CyDmaGetPriority
 1184              		.code	16
 1185              		.thumb_func
 1186              		.type	CyDmaGetPriority, %function
 1187              	CyDmaGetPriority:
 1188              	.LFB23:
 649:Generated_Source\PSoC4/CyDMA.c **** 
 650:Generated_Source\PSoC4/CyDMA.c **** 
 651:Generated_Source\PSoC4/CyDMA.c **** /*******************************************************************************
 652:Generated_Source\PSoC4/CyDMA.c **** * Function Name: CyDmaGetPriority
 653:Generated_Source\PSoC4/CyDMA.c **** ********************************************************************************
 654:Generated_Source\PSoC4/CyDMA.c **** *
 655:Generated_Source\PSoC4/CyDMA.c **** * Summary:
 656:Generated_Source\PSoC4/CyDMA.c **** *  Gets the priority for the channel.
 657:Generated_Source\PSoC4/CyDMA.c **** *
 658:Generated_Source\PSoC4/CyDMA.c **** * Parameters:
 659:Generated_Source\PSoC4/CyDMA.c **** *  channel: Channel used by this function.
 660:Generated_Source\PSoC4/CyDMA.c **** *                   
 661:Generated_Source\PSoC4/CyDMA.c **** * Return:
 662:Generated_Source\PSoC4/CyDMA.c **** *  Priority for channel. Priority can be 0,1,2, or 3. 0 is the highest priority.
 663:Generated_Source\PSoC4/CyDMA.c **** *
 664:Generated_Source\PSoC4/CyDMA.c **** *******************************************************************************/
 665:Generated_Source\PSoC4/CyDMA.c **** int32 CyDmaGetPriority(int32 channel)
 666:Generated_Source\PSoC4/CyDMA.c **** {
 1189              		.loc 1 666 0
 1190              		.cfi_startproc
 1191              		@ args = 0, pretend = 0, frame = 16
 1192              		@ frame_needed = 1, uses_anonymous_args = 0
 1193 0000 80B5     		push	{r7, lr}
 1194              		.cfi_def_cfa_offset 8
 1195              		.cfi_offset 7, -8
 1196              		.cfi_offset 14, -4
 1197 0002 84B0     		sub	sp, sp, #16
 1198              		.cfi_def_cfa_offset 24
 1199 0004 00AF     		add	r7, sp, #0
 1200              		.cfi_def_cfa_register 7
 1201 0006 7860     		str	r0, [r7, #4]
 667:Generated_Source\PSoC4/CyDMA.c ****     uint32 priority;
 668:Generated_Source\PSoC4/CyDMA.c **** 
 669:Generated_Source\PSoC4/CyDMA.c ****     CYASSERT((channel >= 0) && (channel < CYDMA_CH_NR));
 1202              		.loc 1 669 0
 1203 0008 7B68     		ldr	r3, [r7, #4]
 1204 000a 002B     		cmp	r3, #0
 1205 000c 04DB     		blt	.L107
 1206              		.loc 1 669 0 is_stmt 0 discriminator 1
 1207 000e 7B68     		ldr	r3, [r7, #4]
 1208 0010 1F2B     		cmp	r3, #31
 1209 0012 01DC     		bgt	.L107
 1210              		.loc 1 669 0 discriminator 3
ARM GAS  C:\Users\HPz420\AppData\Local\Temp\ccz4K5YU.s 			page 34


 1211 0014 0123     		movs	r3, #1
 1212 0016 00E0     		b	.L108
 1213              	.L107:
 1214              		.loc 1 669 0 discriminator 4
 1215 0018 0023     		movs	r3, #0
 1216              	.L108:
 1217              		.loc 1 669 0 discriminator 6
 1218 001a 002B     		cmp	r3, #0
 1219 001c 02D1     		bne	.L109
 1220              		.loc 1 669 0 discriminator 7
 1221 001e 0020     		movs	r0, #0
 1222 0020 FFF7FEFF 		bl	CyHalt
 1223              	.L109:
 670:Generated_Source\PSoC4/CyDMA.c **** 
 671:Generated_Source\PSoC4/CyDMA.c ****     priority = (CYDMA_CH_CTL_BASE.ctl[channel] & CYDMA_PRIO) >> CYDMA_PRIO_POS;
 1224              		.loc 1 671 0 is_stmt 1
 1225 0024 064A     		ldr	r2, .L111
 1226 0026 7B68     		ldr	r3, [r7, #4]
 1227 0028 9B00     		lsls	r3, r3, #2
 1228 002a 9A58     		ldr	r2, [r3, r2]
 1229 002c C023     		movs	r3, #192
 1230 002e 9B05     		lsls	r3, r3, #22
 1231 0030 1340     		ands	r3, r2
 1232 0032 1B0F     		lsrs	r3, r3, #28
 1233 0034 FB60     		str	r3, [r7, #12]
 672:Generated_Source\PSoC4/CyDMA.c ****     return ((int32)priority);
 1234              		.loc 1 672 0
 1235 0036 FB68     		ldr	r3, [r7, #12]
 673:Generated_Source\PSoC4/CyDMA.c **** }
 1236              		.loc 1 673 0
 1237 0038 1800     		movs	r0, r3
 1238 003a BD46     		mov	sp, r7
 1239 003c 04B0     		add	sp, sp, #16
 1240              		@ sp needed
 1241 003e 80BD     		pop	{r7, pc}
 1242              	.L112:
 1243              		.align	2
 1244              	.L111:
 1245 0040 80101040 		.word	1074794624
 1246              		.cfi_endproc
 1247              	.LFE23:
 1248              		.size	CyDmaGetPriority, .-CyDmaGetPriority
 1249              		.section	.text.CyDmaSetNextDescriptor,"ax",%progbits
 1250              		.align	2
 1251              		.global	CyDmaSetNextDescriptor
 1252              		.code	16
 1253              		.thumb_func
 1254              		.type	CyDmaSetNextDescriptor, %function
 1255              	CyDmaSetNextDescriptor:
 1256              	.LFB24:
 674:Generated_Source\PSoC4/CyDMA.c **** 
 675:Generated_Source\PSoC4/CyDMA.c **** 
 676:Generated_Source\PSoC4/CyDMA.c **** /*******************************************************************************
 677:Generated_Source\PSoC4/CyDMA.c **** * Function Name: CyDmaSetNextDescriptor
 678:Generated_Source\PSoC4/CyDMA.c **** ********************************************************************************
 679:Generated_Source\PSoC4/CyDMA.c **** *
 680:Generated_Source\PSoC4/CyDMA.c **** * Summary:
ARM GAS  C:\Users\HPz420\AppData\Local\Temp\ccz4K5YU.s 			page 35


 681:Generated_Source\PSoC4/CyDMA.c **** *  Sets the descriptor that should be run the next time the channel is
 682:Generated_Source\PSoC4/CyDMA.c **** *  triggered.
 683:Generated_Source\PSoC4/CyDMA.c **** *
 684:Generated_Source\PSoC4/CyDMA.c **** * Parameters:
 685:Generated_Source\PSoC4/CyDMA.c **** *  channel:    Channel used by this function.
 686:Generated_Source\PSoC4/CyDMA.c **** *  descriptor: Next Descriptor to run (0 or 1).
 687:Generated_Source\PSoC4/CyDMA.c **** *
 688:Generated_Source\PSoC4/CyDMA.c **** * Return:
 689:Generated_Source\PSoC4/CyDMA.c **** *  None.
 690:Generated_Source\PSoC4/CyDMA.c **** *                   
 691:Generated_Source\PSoC4/CyDMA.c **** * Side effect:
 692:Generated_Source\PSoC4/CyDMA.c **** *  This function should not be called while the channel is enabled.
 693:Generated_Source\PSoC4/CyDMA.c **** *
 694:Generated_Source\PSoC4/CyDMA.c **** *******************************************************************************/
 695:Generated_Source\PSoC4/CyDMA.c **** void CyDmaSetNextDescriptor(int32 channel, int32 descriptor)
 696:Generated_Source\PSoC4/CyDMA.c **** {
 1257              		.loc 1 696 0
 1258              		.cfi_startproc
 1259              		@ args = 0, pretend = 0, frame = 16
 1260              		@ frame_needed = 1, uses_anonymous_args = 0
 1261 0000 80B5     		push	{r7, lr}
 1262              		.cfi_def_cfa_offset 8
 1263              		.cfi_offset 7, -8
 1264              		.cfi_offset 14, -4
 1265 0002 84B0     		sub	sp, sp, #16
 1266              		.cfi_def_cfa_offset 24
 1267 0004 00AF     		add	r7, sp, #0
 1268              		.cfi_def_cfa_register 7
 1269 0006 7860     		str	r0, [r7, #4]
 1270 0008 3960     		str	r1, [r7]
 697:Generated_Source\PSoC4/CyDMA.c ****     uint32 regValue;
 698:Generated_Source\PSoC4/CyDMA.c **** 
 699:Generated_Source\PSoC4/CyDMA.c ****     CYASSERT((channel    >= 0) && (channel    < CYDMA_CH_NR));
 1271              		.loc 1 699 0
 1272 000a 7B68     		ldr	r3, [r7, #4]
 1273 000c 002B     		cmp	r3, #0
 1274 000e 04DB     		blt	.L114
 1275              		.loc 1 699 0 is_stmt 0 discriminator 1
 1276 0010 7B68     		ldr	r3, [r7, #4]
 1277 0012 1F2B     		cmp	r3, #31
 1278 0014 01DC     		bgt	.L114
 1279              		.loc 1 699 0 discriminator 3
 1280 0016 0123     		movs	r3, #1
 1281 0018 00E0     		b	.L115
 1282              	.L114:
 1283              		.loc 1 699 0 discriminator 4
 1284 001a 0023     		movs	r3, #0
 1285              	.L115:
 1286              		.loc 1 699 0 discriminator 6
 1287 001c 002B     		cmp	r3, #0
 1288 001e 02D1     		bne	.L116
 1289              		.loc 1 699 0 discriminator 7
 1290 0020 0020     		movs	r0, #0
 1291 0022 FFF7FEFF 		bl	CyHalt
 1292              	.L116:
 700:Generated_Source\PSoC4/CyDMA.c ****     CYASSERT((descriptor >= 0) && (descriptor < CYDMA_DESCR_NR));
 1293              		.loc 1 700 0 is_stmt 1
ARM GAS  C:\Users\HPz420\AppData\Local\Temp\ccz4K5YU.s 			page 36


 1294 0026 3B68     		ldr	r3, [r7]
 1295 0028 002B     		cmp	r3, #0
 1296 002a 04DB     		blt	.L117
 1297              		.loc 1 700 0 is_stmt 0 discriminator 1
 1298 002c 3B68     		ldr	r3, [r7]
 1299 002e 012B     		cmp	r3, #1
 1300 0030 01DC     		bgt	.L117
 1301              		.loc 1 700 0 discriminator 3
 1302 0032 0123     		movs	r3, #1
 1303 0034 00E0     		b	.L118
 1304              	.L117:
 1305              		.loc 1 700 0 discriminator 4
 1306 0036 0023     		movs	r3, #0
 1307              	.L118:
 1308              		.loc 1 700 0 discriminator 6
 1309 0038 002B     		cmp	r3, #0
 1310 003a 02D1     		bne	.L119
 1311              		.loc 1 700 0 discriminator 7
 1312 003c 0020     		movs	r0, #0
 1313 003e FFF7FEFF 		bl	CyHalt
 1314              	.L119:
 701:Generated_Source\PSoC4/CyDMA.c **** 
 702:Generated_Source\PSoC4/CyDMA.c ****     regValue = CYDMA_CH_CTL_BASE.ctl[channel] & (uint32)~CYDMA_DESCRIPTOR;
 1315              		.loc 1 702 0 is_stmt 1
 1316 0042 094A     		ldr	r2, .L120
 1317 0044 7B68     		ldr	r3, [r7, #4]
 1318 0046 9B00     		lsls	r3, r3, #2
 1319 0048 9B58     		ldr	r3, [r3, r2]
 1320 004a 084A     		ldr	r2, .L120+4
 1321 004c 1340     		ands	r3, r2
 1322 004e FB60     		str	r3, [r7, #12]
 703:Generated_Source\PSoC4/CyDMA.c ****     CYDMA_CH_CTL_BASE.ctl[channel] = regValue | (uint32)((uint32)descriptor << CYDMA_DESCRIPTOR_POS
 1323              		.loc 1 703 0
 1324 0050 0549     		ldr	r1, .L120
 1325 0052 3B68     		ldr	r3, [r7]
 1326 0054 9A07     		lsls	r2, r3, #30
 1327 0056 FB68     		ldr	r3, [r7, #12]
 1328 0058 1A43     		orrs	r2, r3
 1329 005a 7B68     		ldr	r3, [r7, #4]
 1330 005c 9B00     		lsls	r3, r3, #2
 1331 005e 5A50     		str	r2, [r3, r1]
 704:Generated_Source\PSoC4/CyDMA.c **** }
 1332              		.loc 1 704 0
 1333 0060 C046     		nop
 1334 0062 BD46     		mov	sp, r7
 1335 0064 04B0     		add	sp, sp, #16
 1336              		@ sp needed
 1337 0066 80BD     		pop	{r7, pc}
 1338              	.L121:
 1339              		.align	2
 1340              	.L120:
 1341 0068 80101040 		.word	1074794624
 1342 006c FFFFFFBF 		.word	-1073741825
 1343              		.cfi_endproc
 1344              	.LFE24:
 1345              		.size	CyDmaSetNextDescriptor, .-CyDmaSetNextDescriptor
 1346              		.section	.text.CyDmaGetNextDescriptor,"ax",%progbits
ARM GAS  C:\Users\HPz420\AppData\Local\Temp\ccz4K5YU.s 			page 37


 1347              		.align	2
 1348              		.global	CyDmaGetNextDescriptor
 1349              		.code	16
 1350              		.thumb_func
 1351              		.type	CyDmaGetNextDescriptor, %function
 1352              	CyDmaGetNextDescriptor:
 1353              	.LFB25:
 705:Generated_Source\PSoC4/CyDMA.c **** 
 706:Generated_Source\PSoC4/CyDMA.c **** 
 707:Generated_Source\PSoC4/CyDMA.c **** /*******************************************************************************
 708:Generated_Source\PSoC4/CyDMA.c **** * Function Name: CyDmaGetNextDescriptor
 709:Generated_Source\PSoC4/CyDMA.c **** ********************************************************************************
 710:Generated_Source\PSoC4/CyDMA.c **** *
 711:Generated_Source\PSoC4/CyDMA.c **** * Summary:
 712:Generated_Source\PSoC4/CyDMA.c **** *  Returns the next descriptor that should be run, as set by 
 713:Generated_Source\PSoC4/CyDMA.c **** *  CyDmaSetNextDescriptor().
 714:Generated_Source\PSoC4/CyDMA.c **** *
 715:Generated_Source\PSoC4/CyDMA.c **** * Parameters:
 716:Generated_Source\PSoC4/CyDMA.c **** *  channel: channel used by this function.
 717:Generated_Source\PSoC4/CyDMA.c **** *                   
 718:Generated_Source\PSoC4/CyDMA.c **** * Return:
 719:Generated_Source\PSoC4/CyDMA.c **** *  Next Descriptor to run (0 or 1).
 720:Generated_Source\PSoC4/CyDMA.c **** *
 721:Generated_Source\PSoC4/CyDMA.c **** *******************************************************************************/
 722:Generated_Source\PSoC4/CyDMA.c **** int32 CyDmaGetNextDescriptor(int32 channel)
 723:Generated_Source\PSoC4/CyDMA.c **** {
 1354              		.loc 1 723 0
 1355              		.cfi_startproc
 1356              		@ args = 0, pretend = 0, frame = 16
 1357              		@ frame_needed = 1, uses_anonymous_args = 0
 1358 0000 80B5     		push	{r7, lr}
 1359              		.cfi_def_cfa_offset 8
 1360              		.cfi_offset 7, -8
 1361              		.cfi_offset 14, -4
 1362 0002 84B0     		sub	sp, sp, #16
 1363              		.cfi_def_cfa_offset 24
 1364 0004 00AF     		add	r7, sp, #0
 1365              		.cfi_def_cfa_register 7
 1366 0006 7860     		str	r0, [r7, #4]
 724:Generated_Source\PSoC4/CyDMA.c ****     uint32 nextDescriptor;
 725:Generated_Source\PSoC4/CyDMA.c **** 
 726:Generated_Source\PSoC4/CyDMA.c ****     CYASSERT((channel >= 0) && (channel < CYDMA_CH_NR));
 1367              		.loc 1 726 0
 1368 0008 7B68     		ldr	r3, [r7, #4]
 1369 000a 002B     		cmp	r3, #0
 1370 000c 04DB     		blt	.L123
 1371              		.loc 1 726 0 is_stmt 0 discriminator 1
 1372 000e 7B68     		ldr	r3, [r7, #4]
 1373 0010 1F2B     		cmp	r3, #31
 1374 0012 01DC     		bgt	.L123
 1375              		.loc 1 726 0 discriminator 3
 1376 0014 0123     		movs	r3, #1
 1377 0016 00E0     		b	.L124
 1378              	.L123:
 1379              		.loc 1 726 0 discriminator 4
 1380 0018 0023     		movs	r3, #0
 1381              	.L124:
ARM GAS  C:\Users\HPz420\AppData\Local\Temp\ccz4K5YU.s 			page 38


 1382              		.loc 1 726 0 discriminator 6
 1383 001a 002B     		cmp	r3, #0
 1384 001c 02D1     		bne	.L125
 1385              		.loc 1 726 0 discriminator 7
 1386 001e 0020     		movs	r0, #0
 1387 0020 FFF7FEFF 		bl	CyHalt
 1388              	.L125:
 727:Generated_Source\PSoC4/CyDMA.c **** 
 728:Generated_Source\PSoC4/CyDMA.c ****     nextDescriptor = (CYDMA_CH_CTL_BASE.ctl[channel] & CYDMA_DESCRIPTOR) >> CYDMA_DESCRIPTOR_POS;
 1389              		.loc 1 728 0 is_stmt 1
 1390 0024 064A     		ldr	r2, .L127
 1391 0026 7B68     		ldr	r3, [r7, #4]
 1392 0028 9B00     		lsls	r3, r3, #2
 1393 002a 9A58     		ldr	r2, [r3, r2]
 1394 002c 8023     		movs	r3, #128
 1395 002e DB05     		lsls	r3, r3, #23
 1396 0030 1340     		ands	r3, r2
 1397 0032 9B0F     		lsrs	r3, r3, #30
 1398 0034 FB60     		str	r3, [r7, #12]
 729:Generated_Source\PSoC4/CyDMA.c ****     return ((int32)nextDescriptor);
 1399              		.loc 1 729 0
 1400 0036 FB68     		ldr	r3, [r7, #12]
 730:Generated_Source\PSoC4/CyDMA.c **** }
 1401              		.loc 1 730 0
 1402 0038 1800     		movs	r0, r3
 1403 003a BD46     		mov	sp, r7
 1404 003c 04B0     		add	sp, sp, #16
 1405              		@ sp needed
 1406 003e 80BD     		pop	{r7, pc}
 1407              	.L128:
 1408              		.align	2
 1409              	.L127:
 1410 0040 80101040 		.word	1074794624
 1411              		.cfi_endproc
 1412              	.LFE25:
 1413              		.size	CyDmaGetNextDescriptor, .-CyDmaGetNextDescriptor
 1414              		.section	.text.CyDmaSetConfiguration,"ax",%progbits
 1415              		.align	2
 1416              		.global	CyDmaSetConfiguration
 1417              		.code	16
 1418              		.thumb_func
 1419              		.type	CyDmaSetConfiguration, %function
 1420              	CyDmaSetConfiguration:
 1421              	.LFB26:
 731:Generated_Source\PSoC4/CyDMA.c **** 
 732:Generated_Source\PSoC4/CyDMA.c **** 
 733:Generated_Source\PSoC4/CyDMA.c **** /*******************************************************************************
 734:Generated_Source\PSoC4/CyDMA.c **** * Function Name: CyDmaSetConfiguration
 735:Generated_Source\PSoC4/CyDMA.c **** ********************************************************************************
 736:Generated_Source\PSoC4/CyDMA.c **** *
 737:Generated_Source\PSoC4/CyDMA.c **** * Summary:
 738:Generated_Source\PSoC4/CyDMA.c **** *  Sets configuration information for the specified descriptor.
 739:Generated_Source\PSoC4/CyDMA.c **** *
 740:Generated_Source\PSoC4/CyDMA.c **** * Parameters:
 741:Generated_Source\PSoC4/CyDMA.c **** *  channel:    DMA channel modified by this function.
 742:Generated_Source\PSoC4/CyDMA.c **** *  descriptor: Descriptor (0 or 1) modified by this function.
 743:Generated_Source\PSoC4/CyDMA.c **** *  config:     Pointer to a configuration structure. Refer to cydma_init_struct
ARM GAS  C:\Users\HPz420\AppData\Local\Temp\ccz4K5YU.s 			page 39


 744:Generated_Source\PSoC4/CyDMA.c **** *              structure definition in CyDMA_P4.h and/or DMA channel datasheet
 745:Generated_Source\PSoC4/CyDMA.c **** *              for more information.
 746:Generated_Source\PSoC4/CyDMA.c **** *                   
 747:Generated_Source\PSoC4/CyDMA.c **** * Return:
 748:Generated_Source\PSoC4/CyDMA.c **** *  None.
 749:Generated_Source\PSoC4/CyDMA.c **** *
 750:Generated_Source\PSoC4/CyDMA.c **** * Side effect:
 751:Generated_Source\PSoC4/CyDMA.c **** *  The status register associated with the specified descriptor is reset to
 752:Generated_Source\PSoC4/CyDMA.c **** *  zero after this function call. This function also validates the descriptor.
 753:Generated_Source\PSoC4/CyDMA.c **** *  This function should not be called while the descriptor is active.
 754:Generated_Source\PSoC4/CyDMA.c **** *  This can be checked by calling CyDmaGetStatus().
 755:Generated_Source\PSoC4/CyDMA.c **** *
 756:Generated_Source\PSoC4/CyDMA.c **** *******************************************************************************/
 757:Generated_Source\PSoC4/CyDMA.c **** void CyDmaSetConfiguration(int32 channel, int32 descriptor, const cydma_init_struct * config)
 758:Generated_Source\PSoC4/CyDMA.c **** {  
 1422              		.loc 1 758 0
 1423              		.cfi_startproc
 1424              		@ args = 0, pretend = 0, frame = 16
 1425              		@ frame_needed = 1, uses_anonymous_args = 0
 1426 0000 80B5     		push	{r7, lr}
 1427              		.cfi_def_cfa_offset 8
 1428              		.cfi_offset 7, -8
 1429              		.cfi_offset 14, -4
 1430 0002 84B0     		sub	sp, sp, #16
 1431              		.cfi_def_cfa_offset 24
 1432 0004 00AF     		add	r7, sp, #0
 1433              		.cfi_def_cfa_register 7
 1434 0006 F860     		str	r0, [r7, #12]
 1435 0008 B960     		str	r1, [r7, #8]
 1436 000a 7A60     		str	r2, [r7, #4]
 759:Generated_Source\PSoC4/CyDMA.c ****     CYASSERT((channel        >= 0) && (channel         < CYDMA_CH_NR));
 1437              		.loc 1 759 0
 1438 000c FB68     		ldr	r3, [r7, #12]
 1439 000e 002B     		cmp	r3, #0
 1440 0010 04DB     		blt	.L130
 1441              		.loc 1 759 0 is_stmt 0 discriminator 1
 1442 0012 FB68     		ldr	r3, [r7, #12]
 1443 0014 1F2B     		cmp	r3, #31
 1444 0016 01DC     		bgt	.L130
 1445              		.loc 1 759 0 discriminator 3
 1446 0018 0123     		movs	r3, #1
 1447 001a 00E0     		b	.L131
 1448              	.L130:
 1449              		.loc 1 759 0 discriminator 4
 1450 001c 0023     		movs	r3, #0
 1451              	.L131:
 1452              		.loc 1 759 0 discriminator 6
 1453 001e 002B     		cmp	r3, #0
 1454 0020 02D1     		bne	.L132
 1455              		.loc 1 759 0 discriminator 7
 1456 0022 0020     		movs	r0, #0
 1457 0024 FFF7FEFF 		bl	CyHalt
 1458              	.L132:
 760:Generated_Source\PSoC4/CyDMA.c ****     CYASSERT((descriptor     >= 0) && (descriptor      < CYDMA_DESCR_NR));
 1459              		.loc 1 760 0 is_stmt 1
 1460 0028 BB68     		ldr	r3, [r7, #8]
 1461 002a 002B     		cmp	r3, #0
ARM GAS  C:\Users\HPz420\AppData\Local\Temp\ccz4K5YU.s 			page 40


 1462 002c 04DB     		blt	.L133
 1463              		.loc 1 760 0 is_stmt 0 discriminator 1
 1464 002e BB68     		ldr	r3, [r7, #8]
 1465 0030 012B     		cmp	r3, #1
 1466 0032 01DC     		bgt	.L133
 1467              		.loc 1 760 0 discriminator 3
 1468 0034 0123     		movs	r3, #1
 1469 0036 00E0     		b	.L134
 1470              	.L133:
 1471              		.loc 1 760 0 discriminator 4
 1472 0038 0023     		movs	r3, #0
 1473              	.L134:
 1474              		.loc 1 760 0 discriminator 6
 1475 003a 002B     		cmp	r3, #0
 1476 003c 02D1     		bne	.L135
 1477              		.loc 1 760 0 discriminator 7
 1478 003e 0020     		movs	r0, #0
 1479 0040 FFF7FEFF 		bl	CyHalt
 1480              	.L135:
 761:Generated_Source\PSoC4/CyDMA.c **** 
 762:Generated_Source\PSoC4/CyDMA.c ****     CYASSERT(0u == (config->dataElementSize     & (uint32)~CYDMA_DATA_SIZE));   
 1481              		.loc 1 762 0 is_stmt 1
 1482 0044 7B68     		ldr	r3, [r7, #4]
 1483 0046 1B68     		ldr	r3, [r3]
 1484 0048 3B4A     		ldr	r2, .L146
 1485 004a 1340     		ands	r3, r2
 1486 004c 02D0     		beq	.L136
 1487              		.loc 1 762 0 is_stmt 0 discriminator 1
 1488 004e 0020     		movs	r0, #0
 1489 0050 FFF7FEFF 		bl	CyHalt
 1490              	.L136:
 763:Generated_Source\PSoC4/CyDMA.c ****     CYASSERT((config->numDataElements > 0)     && (config->numDataElements <= CYDMA_MAX_DATA_NR));
 1491              		.loc 1 763 0 is_stmt 1
 1492 0054 7B68     		ldr	r3, [r7, #4]
 1493 0056 5B68     		ldr	r3, [r3, #4]
 1494 0058 002B     		cmp	r3, #0
 1495 005a 07DD     		ble	.L137
 1496              		.loc 1 763 0 is_stmt 0 discriminator 1
 1497 005c 7B68     		ldr	r3, [r7, #4]
 1498 005e 5A68     		ldr	r2, [r3, #4]
 1499 0060 8023     		movs	r3, #128
 1500 0062 5B02     		lsls	r3, r3, #9
 1501 0064 9A42     		cmp	r2, r3
 1502 0066 01DC     		bgt	.L137
 1503              		.loc 1 763 0 discriminator 3
 1504 0068 0123     		movs	r3, #1
 1505 006a 00E0     		b	.L138
 1506              	.L137:
 1507              		.loc 1 763 0 discriminator 4
 1508 006c 0023     		movs	r3, #0
 1509              	.L138:
 1510              		.loc 1 763 0 discriminator 6
 1511 006e 002B     		cmp	r3, #0
 1512 0070 02D1     		bne	.L139
 1513              		.loc 1 763 0 discriminator 7
 1514 0072 0020     		movs	r0, #0
 1515 0074 FFF7FEFF 		bl	CyHalt
ARM GAS  C:\Users\HPz420\AppData\Local\Temp\ccz4K5YU.s 			page 41


 1516              	.L139:
 764:Generated_Source\PSoC4/CyDMA.c ****     CYASSERT(0u == (config->srcDstTransferWidth & (uint32)~CYDMA_TRANSFER_WIDTH));
 1517              		.loc 1 764 0 is_stmt 1
 1518 0078 7B68     		ldr	r3, [r7, #4]
 1519 007a 9B68     		ldr	r3, [r3, #8]
 1520 007c 2F4A     		ldr	r2, .L146+4
 1521 007e 1340     		ands	r3, r2
 1522 0080 02D0     		beq	.L140
 1523              		.loc 1 764 0 is_stmt 0 discriminator 1
 1524 0082 0020     		movs	r0, #0
 1525 0084 FFF7FEFF 		bl	CyHalt
 1526              	.L140:
 765:Generated_Source\PSoC4/CyDMA.c ****     CYASSERT(0u == (config->addressIncrement    & (uint32)~CYDMA_ADDR_INCR));
 1527              		.loc 1 765 0 is_stmt 1
 1528 0088 7B68     		ldr	r3, [r7, #4]
 1529 008a DB68     		ldr	r3, [r3, #12]
 1530 008c 2C4A     		ldr	r2, .L146+8
 1531 008e 1340     		ands	r3, r2
 1532 0090 02D0     		beq	.L141
 1533              		.loc 1 765 0 is_stmt 0 discriminator 1
 1534 0092 0020     		movs	r0, #0
 1535 0094 FFF7FEFF 		bl	CyHalt
 1536              	.L141:
 766:Generated_Source\PSoC4/CyDMA.c ****     CYASSERT(0u == (config->triggerType         & (uint32)~CYDMA_TRIGGER_TYPE));
 1537              		.loc 1 766 0 is_stmt 1
 1538 0098 7B68     		ldr	r3, [r7, #4]
 1539 009a 1B69     		ldr	r3, [r3, #16]
 1540 009c 294A     		ldr	r2, .L146+12
 1541 009e 1340     		ands	r3, r2
 1542 00a0 02D0     		beq	.L142
 1543              		.loc 1 766 0 is_stmt 0 discriminator 1
 1544 00a2 0020     		movs	r0, #0
 1545 00a4 FFF7FEFF 		bl	CyHalt
 1546              	.L142:
 767:Generated_Source\PSoC4/CyDMA.c ****     CYASSERT(0u == (config->transferMode        & (uint32)~CYDMA_TRANSFER_MODE));
 1547              		.loc 1 767 0 is_stmt 1
 1548 00a8 7B68     		ldr	r3, [r7, #4]
 1549 00aa 5B69     		ldr	r3, [r3, #20]
 1550 00ac 9B00     		lsls	r3, r3, #2
 1551 00ae 9B08     		lsrs	r3, r3, #2
 1552 00b0 02D0     		beq	.L143
 1553              		.loc 1 767 0 is_stmt 0 discriminator 1
 1554 00b2 0020     		movs	r0, #0
 1555 00b4 FFF7FEFF 		bl	CyHalt
 1556              	.L143:
 768:Generated_Source\PSoC4/CyDMA.c ****     CYASSERT(0u == (config->preemptable         & (uint32)~CYDMA_PREEMPTABLE));
 1557              		.loc 1 768 0 is_stmt 1
 1558 00b8 7B68     		ldr	r3, [r7, #4]
 1559 00ba 9B69     		ldr	r3, [r3, #24]
 1560 00bc 224A     		ldr	r2, .L146+16
 1561 00be 1340     		ands	r3, r2
 1562 00c0 02D0     		beq	.L144
 1563              		.loc 1 768 0 is_stmt 0 discriminator 1
 1564 00c2 0020     		movs	r0, #0
 1565 00c4 FFF7FEFF 		bl	CyHalt
 1566              	.L144:
 769:Generated_Source\PSoC4/CyDMA.c ****     CYASSERT(0u == (config->actions             & (uint32)~CYDMA_POST_COMPLETE_ACTIONS));
ARM GAS  C:\Users\HPz420\AppData\Local\Temp\ccz4K5YU.s 			page 42


 1567              		.loc 1 769 0 is_stmt 1
 1568 00c8 7B68     		ldr	r3, [r7, #4]
 1569 00ca DB69     		ldr	r3, [r3, #28]
 1570 00cc 1F4A     		ldr	r2, .L146+20
 1571 00ce 1340     		ands	r3, r2
 1572 00d0 02D0     		beq	.L145
 1573              		.loc 1 769 0 is_stmt 0 discriminator 1
 1574 00d2 0020     		movs	r0, #0
 1575 00d4 FFF7FEFF 		bl	CyHalt
 1576              	.L145:
 770:Generated_Source\PSoC4/CyDMA.c ****     
 771:Generated_Source\PSoC4/CyDMA.c ****     CYDMA_DESCR_BASE.descriptor[channel][descriptor].ctl = config->dataElementSize     |
 1577              		.loc 1 771 0 is_stmt 1
 1578 00d8 1D48     		ldr	r0, .L146+24
 1579 00da 7B68     		ldr	r3, [r7, #4]
 1580 00dc 1A68     		ldr	r2, [r3]
 772:Generated_Source\PSoC4/CyDMA.c ****                                                   ((uint32)config->numDataElements-1u) |
 1581              		.loc 1 772 0
 1582 00de 7B68     		ldr	r3, [r7, #4]
 1583 00e0 5B68     		ldr	r3, [r3, #4]
 1584 00e2 013B     		subs	r3, r3, #1
 771:Generated_Source\PSoC4/CyDMA.c ****                                                   ((uint32)config->numDataElements-1u) |
 1585              		.loc 1 771 0
 1586 00e4 1A43     		orrs	r2, r3
 773:Generated_Source\PSoC4/CyDMA.c ****                                                            config->srcDstTransferWidth |
 1587              		.loc 1 773 0
 1588 00e6 7B68     		ldr	r3, [r7, #4]
 1589 00e8 9B68     		ldr	r3, [r3, #8]
 772:Generated_Source\PSoC4/CyDMA.c ****                                                   ((uint32)config->numDataElements-1u) |
 1590              		.loc 1 772 0
 1591 00ea 1A43     		orrs	r2, r3
 774:Generated_Source\PSoC4/CyDMA.c ****                                                            config->addressIncrement    |
 1592              		.loc 1 774 0
 1593 00ec 7B68     		ldr	r3, [r7, #4]
 1594 00ee DB68     		ldr	r3, [r3, #12]
 773:Generated_Source\PSoC4/CyDMA.c ****                                                            config->srcDstTransferWidth |
 1595              		.loc 1 773 0
 1596 00f0 1A43     		orrs	r2, r3
 775:Generated_Source\PSoC4/CyDMA.c ****                                                            config->triggerType         |
 1597              		.loc 1 775 0
 1598 00f2 7B68     		ldr	r3, [r7, #4]
 1599 00f4 1B69     		ldr	r3, [r3, #16]
 774:Generated_Source\PSoC4/CyDMA.c ****                                                            config->addressIncrement    |
 1600              		.loc 1 774 0
 1601 00f6 1A43     		orrs	r2, r3
 776:Generated_Source\PSoC4/CyDMA.c ****                                                            config->transferMode        |
 1602              		.loc 1 776 0
 1603 00f8 7B68     		ldr	r3, [r7, #4]
 1604 00fa 5B69     		ldr	r3, [r3, #20]
 775:Generated_Source\PSoC4/CyDMA.c ****                                                            config->triggerType         |
 1605              		.loc 1 775 0
 1606 00fc 1A43     		orrs	r2, r3
 777:Generated_Source\PSoC4/CyDMA.c ****                                                            config->preemptable         |
 1607              		.loc 1 777 0
 1608 00fe 7B68     		ldr	r3, [r7, #4]
 1609 0100 9B69     		ldr	r3, [r3, #24]
 776:Generated_Source\PSoC4/CyDMA.c ****                                                            config->transferMode        |
ARM GAS  C:\Users\HPz420\AppData\Local\Temp\ccz4K5YU.s 			page 43


 1610              		.loc 1 776 0
 1611 0102 1A43     		orrs	r2, r3
 778:Generated_Source\PSoC4/CyDMA.c ****                                                            config->actions;
 1612              		.loc 1 778 0
 1613 0104 7B68     		ldr	r3, [r7, #4]
 1614 0106 DB69     		ldr	r3, [r3, #28]
 777:Generated_Source\PSoC4/CyDMA.c ****                                                            config->preemptable         |
 1615              		.loc 1 777 0
 1616 0108 1A43     		orrs	r2, r3
 771:Generated_Source\PSoC4/CyDMA.c ****                                                   ((uint32)config->numDataElements-1u) |
 1617              		.loc 1 771 0
 1618 010a FB68     		ldr	r3, [r7, #12]
 1619 010c 5900     		lsls	r1, r3, #1
 1620 010e BB68     		ldr	r3, [r7, #8]
 1621 0110 CB18     		adds	r3, r1, r3
 1622 0112 1B01     		lsls	r3, r3, #4
 1623 0114 C318     		adds	r3, r0, r3
 1624 0116 0833     		adds	r3, r3, #8
 1625 0118 1A60     		str	r2, [r3]
 779:Generated_Source\PSoC4/CyDMA.c **** 
 780:Generated_Source\PSoC4/CyDMA.c ****     CYDMA_DESCR_BASE.descriptor[channel][descriptor].status = CYDMA_VALID;
 1626              		.loc 1 780 0
 1627 011a 0D49     		ldr	r1, .L146+24
 1628 011c FB68     		ldr	r3, [r7, #12]
 1629 011e 5A00     		lsls	r2, r3, #1
 1630 0120 BB68     		ldr	r3, [r7, #8]
 1631 0122 D318     		adds	r3, r2, r3
 1632 0124 1B01     		lsls	r3, r3, #4
 1633 0126 CB18     		adds	r3, r1, r3
 1634 0128 0C33     		adds	r3, r3, #12
 1635 012a 8022     		movs	r2, #128
 1636 012c 1206     		lsls	r2, r2, #24
 1637 012e 1A60     		str	r2, [r3]
 781:Generated_Source\PSoC4/CyDMA.c **** }
 1638              		.loc 1 781 0
 1639 0130 C046     		nop
 1640 0132 BD46     		mov	sp, r7
 1641 0134 04B0     		add	sp, sp, #16
 1642              		@ sp needed
 1643 0136 80BD     		pop	{r7, pc}
 1644              	.L147:
 1645              		.align	2
 1646              	.L146:
 1647 0138 FFFFFCFF 		.word	-196609
 1648 013c FFFFAFFF 		.word	-5242881
 1649 0140 FFFF5FFF 		.word	-10485761
 1650 0144 FFFFFFFC 		.word	-50331649
 1651 0148 FFFFFFEF 		.word	-268435457
 1652 014c FFFFFFD3 		.word	-738197505
 1653 0150 00181040 		.word	1074796544
 1654              		.cfi_endproc
 1655              	.LFE26:
 1656              		.size	CyDmaSetConfiguration, .-CyDmaSetConfiguration
 1657              		.section	.text.CyDmaValidateDescriptor,"ax",%progbits
 1658              		.align	2
 1659              		.global	CyDmaValidateDescriptor
 1660              		.code	16
ARM GAS  C:\Users\HPz420\AppData\Local\Temp\ccz4K5YU.s 			page 44


 1661              		.thumb_func
 1662              		.type	CyDmaValidateDescriptor, %function
 1663              	CyDmaValidateDescriptor:
 1664              	.LFB27:
 782:Generated_Source\PSoC4/CyDMA.c **** 
 783:Generated_Source\PSoC4/CyDMA.c **** 
 784:Generated_Source\PSoC4/CyDMA.c **** /*******************************************************************************
 785:Generated_Source\PSoC4/CyDMA.c **** * Function Name: CyDmaValidateDescriptor
 786:Generated_Source\PSoC4/CyDMA.c **** ********************************************************************************
 787:Generated_Source\PSoC4/CyDMA.c **** *
 788:Generated_Source\PSoC4/CyDMA.c **** * Summary:
 789:Generated_Source\PSoC4/CyDMA.c **** *  Validates the specified descriptor after it has been invalidated.
 790:Generated_Source\PSoC4/CyDMA.c **** *
 791:Generated_Source\PSoC4/CyDMA.c **** * Parameters:
 792:Generated_Source\PSoC4/CyDMA.c **** *  channel:    Channel used by this function.
 793:Generated_Source\PSoC4/CyDMA.c **** *  descriptor: Descriptor (0 or 1) modified by this function.
 794:Generated_Source\PSoC4/CyDMA.c **** *                   
 795:Generated_Source\PSoC4/CyDMA.c **** * Return:
 796:Generated_Source\PSoC4/CyDMA.c **** *  None. 
 797:Generated_Source\PSoC4/CyDMA.c **** *
 798:Generated_Source\PSoC4/CyDMA.c **** * Side effect:
 799:Generated_Source\PSoC4/CyDMA.c **** *  The status register associated with the specified descriptor is reset to
 800:Generated_Source\PSoC4/CyDMA.c **** *  zero after this function call.
 801:Generated_Source\PSoC4/CyDMA.c **** *  This function should not be called when the specified descriptor is active
 802:Generated_Source\PSoC4/CyDMA.c **** *  in the DMA transfer engine. This can be checked by calling CyDmaGetStatus().
 803:Generated_Source\PSoC4/CyDMA.c **** *
 804:Generated_Source\PSoC4/CyDMA.c **** *******************************************************************************/
 805:Generated_Source\PSoC4/CyDMA.c **** void CyDmaValidateDescriptor(int32 channel, int32 descriptor)
 806:Generated_Source\PSoC4/CyDMA.c **** {
 1665              		.loc 1 806 0
 1666              		.cfi_startproc
 1667              		@ args = 0, pretend = 0, frame = 8
 1668              		@ frame_needed = 1, uses_anonymous_args = 0
 1669 0000 80B5     		push	{r7, lr}
 1670              		.cfi_def_cfa_offset 8
 1671              		.cfi_offset 7, -8
 1672              		.cfi_offset 14, -4
 1673 0002 82B0     		sub	sp, sp, #8
 1674              		.cfi_def_cfa_offset 16
 1675 0004 00AF     		add	r7, sp, #0
 1676              		.cfi_def_cfa_register 7
 1677 0006 7860     		str	r0, [r7, #4]
 1678 0008 3960     		str	r1, [r7]
 807:Generated_Source\PSoC4/CyDMA.c ****     CYASSERT((channel    >= 0) && (channel    < CYDMA_CH_NR));
 1679              		.loc 1 807 0
 1680 000a 7B68     		ldr	r3, [r7, #4]
 1681 000c 002B     		cmp	r3, #0
 1682 000e 04DB     		blt	.L149
 1683              		.loc 1 807 0 is_stmt 0 discriminator 1
 1684 0010 7B68     		ldr	r3, [r7, #4]
 1685 0012 1F2B     		cmp	r3, #31
 1686 0014 01DC     		bgt	.L149
 1687              		.loc 1 807 0 discriminator 3
 1688 0016 0123     		movs	r3, #1
 1689 0018 00E0     		b	.L150
 1690              	.L149:
 1691              		.loc 1 807 0 discriminator 4
ARM GAS  C:\Users\HPz420\AppData\Local\Temp\ccz4K5YU.s 			page 45


 1692 001a 0023     		movs	r3, #0
 1693              	.L150:
 1694              		.loc 1 807 0 discriminator 6
 1695 001c 002B     		cmp	r3, #0
 1696 001e 02D1     		bne	.L151
 1697              		.loc 1 807 0 discriminator 7
 1698 0020 0020     		movs	r0, #0
 1699 0022 FFF7FEFF 		bl	CyHalt
 1700              	.L151:
 808:Generated_Source\PSoC4/CyDMA.c ****     CYASSERT((descriptor >= 0) && (descriptor < CYDMA_DESCR_NR));
 1701              		.loc 1 808 0 is_stmt 1
 1702 0026 3B68     		ldr	r3, [r7]
 1703 0028 002B     		cmp	r3, #0
 1704 002a 04DB     		blt	.L152
 1705              		.loc 1 808 0 is_stmt 0 discriminator 1
 1706 002c 3B68     		ldr	r3, [r7]
 1707 002e 012B     		cmp	r3, #1
 1708 0030 01DC     		bgt	.L152
 1709              		.loc 1 808 0 discriminator 3
 1710 0032 0123     		movs	r3, #1
 1711 0034 00E0     		b	.L153
 1712              	.L152:
 1713              		.loc 1 808 0 discriminator 4
 1714 0036 0023     		movs	r3, #0
 1715              	.L153:
 1716              		.loc 1 808 0 discriminator 6
 1717 0038 002B     		cmp	r3, #0
 1718 003a 02D1     		bne	.L154
 1719              		.loc 1 808 0 discriminator 7
 1720 003c 0020     		movs	r0, #0
 1721 003e FFF7FEFF 		bl	CyHalt
 1722              	.L154:
 809:Generated_Source\PSoC4/CyDMA.c **** 
 810:Generated_Source\PSoC4/CyDMA.c ****     CYDMA_DESCR_BASE.descriptor[channel][descriptor].status = CYDMA_VALID;
 1723              		.loc 1 810 0 is_stmt 1
 1724 0042 0749     		ldr	r1, .L155
 1725 0044 7B68     		ldr	r3, [r7, #4]
 1726 0046 5A00     		lsls	r2, r3, #1
 1727 0048 3B68     		ldr	r3, [r7]
 1728 004a D318     		adds	r3, r2, r3
 1729 004c 1B01     		lsls	r3, r3, #4
 1730 004e CB18     		adds	r3, r1, r3
 1731 0050 0C33     		adds	r3, r3, #12
 1732 0052 8022     		movs	r2, #128
 1733 0054 1206     		lsls	r2, r2, #24
 1734 0056 1A60     		str	r2, [r3]
 811:Generated_Source\PSoC4/CyDMA.c **** }
 1735              		.loc 1 811 0
 1736 0058 C046     		nop
 1737 005a BD46     		mov	sp, r7
 1738 005c 02B0     		add	sp, sp, #8
 1739              		@ sp needed
 1740 005e 80BD     		pop	{r7, pc}
 1741              	.L156:
 1742              		.align	2
 1743              	.L155:
 1744 0060 00181040 		.word	1074796544
ARM GAS  C:\Users\HPz420\AppData\Local\Temp\ccz4K5YU.s 			page 46


 1745              		.cfi_endproc
 1746              	.LFE27:
 1747              		.size	CyDmaValidateDescriptor, .-CyDmaValidateDescriptor
 1748              		.section	.text.CyDmaGetDescriptorStatus,"ax",%progbits
 1749              		.align	2
 1750              		.global	CyDmaGetDescriptorStatus
 1751              		.code	16
 1752              		.thumb_func
 1753              		.type	CyDmaGetDescriptorStatus, %function
 1754              	CyDmaGetDescriptorStatus:
 1755              	.LFB28:
 812:Generated_Source\PSoC4/CyDMA.c **** 
 813:Generated_Source\PSoC4/CyDMA.c **** 
 814:Generated_Source\PSoC4/CyDMA.c **** /*******************************************************************************
 815:Generated_Source\PSoC4/CyDMA.c **** * Function Name: CyDmaGetDescriptorStatus
 816:Generated_Source\PSoC4/CyDMA.c **** ********************************************************************************
 817:Generated_Source\PSoC4/CyDMA.c **** *
 818:Generated_Source\PSoC4/CyDMA.c **** * Summary:
 819:Generated_Source\PSoC4/CyDMA.c **** *  Returns the status of the specified descriptor.
 820:Generated_Source\PSoC4/CyDMA.c **** *
 821:Generated_Source\PSoC4/CyDMA.c **** * Parameters:
 822:Generated_Source\PSoC4/CyDMA.c **** *  channel:    Channel used by this function.
 823:Generated_Source\PSoC4/CyDMA.c **** *  descriptor: Descriptor (0 or 1) modified by this function.
 824:Generated_Source\PSoC4/CyDMA.c **** *                   
 825:Generated_Source\PSoC4/CyDMA.c **** * Return:
 826:Generated_Source\PSoC4/CyDMA.c **** *  Returns the contents of the specified descriptors status register. Refer to 
 827:Generated_Source\PSoC4/CyDMA.c **** *  descriptor status register bit definitions in CyDMA_P4.h or the API
 828:Generated_Source\PSoC4/CyDMA.c **** *  description in the DMA channel datasheet for more information.
 829:Generated_Source\PSoC4/CyDMA.c **** *
 830:Generated_Source\PSoC4/CyDMA.c **** *******************************************************************************/
 831:Generated_Source\PSoC4/CyDMA.c **** uint32 CyDmaGetDescriptorStatus(int32 channel, int32 descriptor)
 832:Generated_Source\PSoC4/CyDMA.c **** {
 1756              		.loc 1 832 0
 1757              		.cfi_startproc
 1758              		@ args = 0, pretend = 0, frame = 8
 1759              		@ frame_needed = 1, uses_anonymous_args = 0
 1760 0000 80B5     		push	{r7, lr}
 1761              		.cfi_def_cfa_offset 8
 1762              		.cfi_offset 7, -8
 1763              		.cfi_offset 14, -4
 1764 0002 82B0     		sub	sp, sp, #8
 1765              		.cfi_def_cfa_offset 16
 1766 0004 00AF     		add	r7, sp, #0
 1767              		.cfi_def_cfa_register 7
 1768 0006 7860     		str	r0, [r7, #4]
 1769 0008 3960     		str	r1, [r7]
 833:Generated_Source\PSoC4/CyDMA.c ****     CYASSERT((channel    >= 0) && (channel    < CYDMA_CH_NR));
 1770              		.loc 1 833 0
 1771 000a 7B68     		ldr	r3, [r7, #4]
 1772 000c 002B     		cmp	r3, #0
 1773 000e 04DB     		blt	.L158
 1774              		.loc 1 833 0 is_stmt 0 discriminator 1
 1775 0010 7B68     		ldr	r3, [r7, #4]
 1776 0012 1F2B     		cmp	r3, #31
 1777 0014 01DC     		bgt	.L158
 1778              		.loc 1 833 0 discriminator 3
 1779 0016 0123     		movs	r3, #1
ARM GAS  C:\Users\HPz420\AppData\Local\Temp\ccz4K5YU.s 			page 47


 1780 0018 00E0     		b	.L159
 1781              	.L158:
 1782              		.loc 1 833 0 discriminator 4
 1783 001a 0023     		movs	r3, #0
 1784              	.L159:
 1785              		.loc 1 833 0 discriminator 6
 1786 001c 002B     		cmp	r3, #0
 1787 001e 02D1     		bne	.L160
 1788              		.loc 1 833 0 discriminator 7
 1789 0020 0020     		movs	r0, #0
 1790 0022 FFF7FEFF 		bl	CyHalt
 1791              	.L160:
 834:Generated_Source\PSoC4/CyDMA.c ****     CYASSERT((descriptor >= 0) && (descriptor < CYDMA_DESCR_NR));
 1792              		.loc 1 834 0 is_stmt 1
 1793 0026 3B68     		ldr	r3, [r7]
 1794 0028 002B     		cmp	r3, #0
 1795 002a 04DB     		blt	.L161
 1796              		.loc 1 834 0 is_stmt 0 discriminator 1
 1797 002c 3B68     		ldr	r3, [r7]
 1798 002e 012B     		cmp	r3, #1
 1799 0030 01DC     		bgt	.L161
 1800              		.loc 1 834 0 discriminator 3
 1801 0032 0123     		movs	r3, #1
 1802 0034 00E0     		b	.L162
 1803              	.L161:
 1804              		.loc 1 834 0 discriminator 4
 1805 0036 0023     		movs	r3, #0
 1806              	.L162:
 1807              		.loc 1 834 0 discriminator 6
 1808 0038 002B     		cmp	r3, #0
 1809 003a 02D1     		bne	.L163
 1810              		.loc 1 834 0 discriminator 7
 1811 003c 0020     		movs	r0, #0
 1812 003e FFF7FEFF 		bl	CyHalt
 1813              	.L163:
 835:Generated_Source\PSoC4/CyDMA.c **** 
 836:Generated_Source\PSoC4/CyDMA.c ****     return (CYDMA_DESCR_BASE.descriptor[channel][descriptor].status);
 1814              		.loc 1 836 0 is_stmt 1
 1815 0042 0649     		ldr	r1, .L165
 1816 0044 7B68     		ldr	r3, [r7, #4]
 1817 0046 5A00     		lsls	r2, r3, #1
 1818 0048 3B68     		ldr	r3, [r7]
 1819 004a D318     		adds	r3, r2, r3
 1820 004c 1B01     		lsls	r3, r3, #4
 1821 004e CB18     		adds	r3, r1, r3
 1822 0050 0C33     		adds	r3, r3, #12
 1823 0052 1B68     		ldr	r3, [r3]
 837:Generated_Source\PSoC4/CyDMA.c **** }
 1824              		.loc 1 837 0
 1825 0054 1800     		movs	r0, r3
 1826 0056 BD46     		mov	sp, r7
 1827 0058 02B0     		add	sp, sp, #8
 1828              		@ sp needed
 1829 005a 80BD     		pop	{r7, pc}
 1830              	.L166:
 1831              		.align	2
 1832              	.L165:
ARM GAS  C:\Users\HPz420\AppData\Local\Temp\ccz4K5YU.s 			page 48


 1833 005c 00181040 		.word	1074796544
 1834              		.cfi_endproc
 1835              	.LFE28:
 1836              		.size	CyDmaGetDescriptorStatus, .-CyDmaGetDescriptorStatus
 1837              		.section	.text.CyDmaSetSrcAddress,"ax",%progbits
 1838              		.align	2
 1839              		.global	CyDmaSetSrcAddress
 1840              		.code	16
 1841              		.thumb_func
 1842              		.type	CyDmaSetSrcAddress, %function
 1843              	CyDmaSetSrcAddress:
 1844              	.LFB29:
 838:Generated_Source\PSoC4/CyDMA.c **** 
 839:Generated_Source\PSoC4/CyDMA.c **** 
 840:Generated_Source\PSoC4/CyDMA.c **** /*******************************************************************************
 841:Generated_Source\PSoC4/CyDMA.c **** * Function Name: CyDmaSetSrcAddress
 842:Generated_Source\PSoC4/CyDMA.c **** ********************************************************************************
 843:Generated_Source\PSoC4/CyDMA.c **** *
 844:Generated_Source\PSoC4/CyDMA.c **** * Summary:
 845:Generated_Source\PSoC4/CyDMA.c **** *  Configures the source address for the specified descriptor.
 846:Generated_Source\PSoC4/CyDMA.c **** *
 847:Generated_Source\PSoC4/CyDMA.c **** * Parameters:
 848:Generated_Source\PSoC4/CyDMA.c **** *  channel:    Channel used by this function.
 849:Generated_Source\PSoC4/CyDMA.c **** *  descriptor: Descriptor (0 or 1) modified by this function.
 850:Generated_Source\PSoC4/CyDMA.c **** *  srcAddress: Address of DMA transfer source.
 851:Generated_Source\PSoC4/CyDMA.c **** *                   
 852:Generated_Source\PSoC4/CyDMA.c **** * Return:
 853:Generated_Source\PSoC4/CyDMA.c **** *  None.
 854:Generated_Source\PSoC4/CyDMA.c **** *
 855:Generated_Source\PSoC4/CyDMA.c **** * Side effect:
 856:Generated_Source\PSoC4/CyDMA.c **** *  This function should not be called when the specified descriptor is active
 857:Generated_Source\PSoC4/CyDMA.c **** *  in the DMA transfer engine. This can be checked by calling CyDmaGetStatus(). 
 858:Generated_Source\PSoC4/CyDMA.c **** *
 859:Generated_Source\PSoC4/CyDMA.c **** *******************************************************************************/
 860:Generated_Source\PSoC4/CyDMA.c **** void CyDmaSetSrcAddress(int32 channel, int32 descriptor, void * srcAddress)
 861:Generated_Source\PSoC4/CyDMA.c **** {
 1845              		.loc 1 861 0
 1846              		.cfi_startproc
 1847              		@ args = 0, pretend = 0, frame = 16
 1848              		@ frame_needed = 1, uses_anonymous_args = 0
 1849 0000 80B5     		push	{r7, lr}
 1850              		.cfi_def_cfa_offset 8
 1851              		.cfi_offset 7, -8
 1852              		.cfi_offset 14, -4
 1853 0002 84B0     		sub	sp, sp, #16
 1854              		.cfi_def_cfa_offset 24
 1855 0004 00AF     		add	r7, sp, #0
 1856              		.cfi_def_cfa_register 7
 1857 0006 F860     		str	r0, [r7, #12]
 1858 0008 B960     		str	r1, [r7, #8]
 1859 000a 7A60     		str	r2, [r7, #4]
 862:Generated_Source\PSoC4/CyDMA.c ****     CYASSERT((channel    >= 0) && (channel    < CYDMA_CH_NR));
 1860              		.loc 1 862 0
 1861 000c FB68     		ldr	r3, [r7, #12]
 1862 000e 002B     		cmp	r3, #0
 1863 0010 04DB     		blt	.L168
 1864              		.loc 1 862 0 is_stmt 0 discriminator 1
ARM GAS  C:\Users\HPz420\AppData\Local\Temp\ccz4K5YU.s 			page 49


 1865 0012 FB68     		ldr	r3, [r7, #12]
 1866 0014 1F2B     		cmp	r3, #31
 1867 0016 01DC     		bgt	.L168
 1868              		.loc 1 862 0 discriminator 3
 1869 0018 0123     		movs	r3, #1
 1870 001a 00E0     		b	.L169
 1871              	.L168:
 1872              		.loc 1 862 0 discriminator 4
 1873 001c 0023     		movs	r3, #0
 1874              	.L169:
 1875              		.loc 1 862 0 discriminator 6
 1876 001e 002B     		cmp	r3, #0
 1877 0020 02D1     		bne	.L170
 1878              		.loc 1 862 0 discriminator 7
 1879 0022 0020     		movs	r0, #0
 1880 0024 FFF7FEFF 		bl	CyHalt
 1881              	.L170:
 863:Generated_Source\PSoC4/CyDMA.c ****     CYASSERT((descriptor >= 0) && (descriptor < CYDMA_DESCR_NR));
 1882              		.loc 1 863 0 is_stmt 1
 1883 0028 BB68     		ldr	r3, [r7, #8]
 1884 002a 002B     		cmp	r3, #0
 1885 002c 04DB     		blt	.L171
 1886              		.loc 1 863 0 is_stmt 0 discriminator 1
 1887 002e BB68     		ldr	r3, [r7, #8]
 1888 0030 012B     		cmp	r3, #1
 1889 0032 01DC     		bgt	.L171
 1890              		.loc 1 863 0 discriminator 3
 1891 0034 0123     		movs	r3, #1
 1892 0036 00E0     		b	.L172
 1893              	.L171:
 1894              		.loc 1 863 0 discriminator 4
 1895 0038 0023     		movs	r3, #0
 1896              	.L172:
 1897              		.loc 1 863 0 discriminator 6
 1898 003a 002B     		cmp	r3, #0
 1899 003c 02D1     		bne	.L173
 1900              		.loc 1 863 0 discriminator 7
 1901 003e 0020     		movs	r0, #0
 1902 0040 FFF7FEFF 		bl	CyHalt
 1903              	.L173:
 864:Generated_Source\PSoC4/CyDMA.c **** 
 865:Generated_Source\PSoC4/CyDMA.c ****     CYDMA_DESCR_BASE.descriptor[channel][descriptor].src = srcAddress;
 1904              		.loc 1 865 0 is_stmt 1
 1905 0044 0549     		ldr	r1, .L174
 1906 0046 FB68     		ldr	r3, [r7, #12]
 1907 0048 5A00     		lsls	r2, r3, #1
 1908 004a BB68     		ldr	r3, [r7, #8]
 1909 004c D318     		adds	r3, r2, r3
 1910 004e 1B01     		lsls	r3, r3, #4
 1911 0050 7A68     		ldr	r2, [r7, #4]
 1912 0052 5A50     		str	r2, [r3, r1]
 866:Generated_Source\PSoC4/CyDMA.c **** }
 1913              		.loc 1 866 0
 1914 0054 C046     		nop
 1915 0056 BD46     		mov	sp, r7
 1916 0058 04B0     		add	sp, sp, #16
 1917              		@ sp needed
ARM GAS  C:\Users\HPz420\AppData\Local\Temp\ccz4K5YU.s 			page 50


 1918 005a 80BD     		pop	{r7, pc}
 1919              	.L175:
 1920              		.align	2
 1921              	.L174:
 1922 005c 00181040 		.word	1074796544
 1923              		.cfi_endproc
 1924              	.LFE29:
 1925              		.size	CyDmaSetSrcAddress, .-CyDmaSetSrcAddress
 1926              		.section	.text.CyDmaGetSrcAddress,"ax",%progbits
 1927              		.align	2
 1928              		.global	CyDmaGetSrcAddress
 1929              		.code	16
 1930              		.thumb_func
 1931              		.type	CyDmaGetSrcAddress, %function
 1932              	CyDmaGetSrcAddress:
 1933              	.LFB30:
 867:Generated_Source\PSoC4/CyDMA.c **** 
 868:Generated_Source\PSoC4/CyDMA.c **** 
 869:Generated_Source\PSoC4/CyDMA.c **** /*******************************************************************************
 870:Generated_Source\PSoC4/CyDMA.c **** * Function Name: CyDmaGetSrcAddress
 871:Generated_Source\PSoC4/CyDMA.c **** ********************************************************************************
 872:Generated_Source\PSoC4/CyDMA.c **** *
 873:Generated_Source\PSoC4/CyDMA.c **** * Summary:
 874:Generated_Source\PSoC4/CyDMA.c **** *  Returns the source address for the specified descriptor, set by 
 875:Generated_Source\PSoC4/CyDMA.c **** *  CyDmaSetSrcAddress().
 876:Generated_Source\PSoC4/CyDMA.c **** *
 877:Generated_Source\PSoC4/CyDMA.c **** * Parameters:
 878:Generated_Source\PSoC4/CyDMA.c **** *  channel:    Channel used by this function.
 879:Generated_Source\PSoC4/CyDMA.c **** *  descriptor: Specifies descriptor (0 or 1) used by this function.
 880:Generated_Source\PSoC4/CyDMA.c **** *                   
 881:Generated_Source\PSoC4/CyDMA.c **** * Return:
 882:Generated_Source\PSoC4/CyDMA.c **** *  Source address written to specified descriptor.
 883:Generated_Source\PSoC4/CyDMA.c **** *
 884:Generated_Source\PSoC4/CyDMA.c **** *******************************************************************************/
 885:Generated_Source\PSoC4/CyDMA.c **** void * CyDmaGetSrcAddress(int32 channel, int32 descriptor)
 886:Generated_Source\PSoC4/CyDMA.c **** {
 1934              		.loc 1 886 0
 1935              		.cfi_startproc
 1936              		@ args = 0, pretend = 0, frame = 8
 1937              		@ frame_needed = 1, uses_anonymous_args = 0
 1938 0000 80B5     		push	{r7, lr}
 1939              		.cfi_def_cfa_offset 8
 1940              		.cfi_offset 7, -8
 1941              		.cfi_offset 14, -4
 1942 0002 82B0     		sub	sp, sp, #8
 1943              		.cfi_def_cfa_offset 16
 1944 0004 00AF     		add	r7, sp, #0
 1945              		.cfi_def_cfa_register 7
 1946 0006 7860     		str	r0, [r7, #4]
 1947 0008 3960     		str	r1, [r7]
 887:Generated_Source\PSoC4/CyDMA.c ****     CYASSERT((channel    >= 0) && (channel    < CYDMA_CH_NR));
 1948              		.loc 1 887 0
 1949 000a 7B68     		ldr	r3, [r7, #4]
 1950 000c 002B     		cmp	r3, #0
 1951 000e 04DB     		blt	.L177
 1952              		.loc 1 887 0 is_stmt 0 discriminator 1
 1953 0010 7B68     		ldr	r3, [r7, #4]
ARM GAS  C:\Users\HPz420\AppData\Local\Temp\ccz4K5YU.s 			page 51


 1954 0012 1F2B     		cmp	r3, #31
 1955 0014 01DC     		bgt	.L177
 1956              		.loc 1 887 0 discriminator 3
 1957 0016 0123     		movs	r3, #1
 1958 0018 00E0     		b	.L178
 1959              	.L177:
 1960              		.loc 1 887 0 discriminator 4
 1961 001a 0023     		movs	r3, #0
 1962              	.L178:
 1963              		.loc 1 887 0 discriminator 6
 1964 001c 002B     		cmp	r3, #0
 1965 001e 02D1     		bne	.L179
 1966              		.loc 1 887 0 discriminator 7
 1967 0020 0020     		movs	r0, #0
 1968 0022 FFF7FEFF 		bl	CyHalt
 1969              	.L179:
 888:Generated_Source\PSoC4/CyDMA.c ****     CYASSERT((descriptor >= 0) && (descriptor < CYDMA_DESCR_NR));
 1970              		.loc 1 888 0 is_stmt 1
 1971 0026 3B68     		ldr	r3, [r7]
 1972 0028 002B     		cmp	r3, #0
 1973 002a 04DB     		blt	.L180
 1974              		.loc 1 888 0 is_stmt 0 discriminator 1
 1975 002c 3B68     		ldr	r3, [r7]
 1976 002e 012B     		cmp	r3, #1
 1977 0030 01DC     		bgt	.L180
 1978              		.loc 1 888 0 discriminator 3
 1979 0032 0123     		movs	r3, #1
 1980 0034 00E0     		b	.L181
 1981              	.L180:
 1982              		.loc 1 888 0 discriminator 4
 1983 0036 0023     		movs	r3, #0
 1984              	.L181:
 1985              		.loc 1 888 0 discriminator 6
 1986 0038 002B     		cmp	r3, #0
 1987 003a 02D1     		bne	.L182
 1988              		.loc 1 888 0 discriminator 7
 1989 003c 0020     		movs	r0, #0
 1990 003e FFF7FEFF 		bl	CyHalt
 1991              	.L182:
 889:Generated_Source\PSoC4/CyDMA.c **** 
 890:Generated_Source\PSoC4/CyDMA.c ****     return (CYDMA_DESCR_BASE.descriptor[channel][descriptor].src);
 1992              		.loc 1 890 0 is_stmt 1
 1993 0042 0549     		ldr	r1, .L184
 1994 0044 7B68     		ldr	r3, [r7, #4]
 1995 0046 5A00     		lsls	r2, r3, #1
 1996 0048 3B68     		ldr	r3, [r7]
 1997 004a D318     		adds	r3, r2, r3
 1998 004c 1B01     		lsls	r3, r3, #4
 1999 004e 5B58     		ldr	r3, [r3, r1]
 891:Generated_Source\PSoC4/CyDMA.c **** }
 2000              		.loc 1 891 0
 2001 0050 1800     		movs	r0, r3
 2002 0052 BD46     		mov	sp, r7
 2003 0054 02B0     		add	sp, sp, #8
 2004              		@ sp needed
 2005 0056 80BD     		pop	{r7, pc}
 2006              	.L185:
ARM GAS  C:\Users\HPz420\AppData\Local\Temp\ccz4K5YU.s 			page 52


 2007              		.align	2
 2008              	.L184:
 2009 0058 00181040 		.word	1074796544
 2010              		.cfi_endproc
 2011              	.LFE30:
 2012              		.size	CyDmaGetSrcAddress, .-CyDmaGetSrcAddress
 2013              		.section	.text.CyDmaSetDstAddress,"ax",%progbits
 2014              		.align	2
 2015              		.global	CyDmaSetDstAddress
 2016              		.code	16
 2017              		.thumb_func
 2018              		.type	CyDmaSetDstAddress, %function
 2019              	CyDmaSetDstAddress:
 2020              	.LFB31:
 892:Generated_Source\PSoC4/CyDMA.c **** 
 893:Generated_Source\PSoC4/CyDMA.c **** 
 894:Generated_Source\PSoC4/CyDMA.c **** /*******************************************************************************
 895:Generated_Source\PSoC4/CyDMA.c **** * Function Name: CyDmaSetDstAddress
 896:Generated_Source\PSoC4/CyDMA.c **** ********************************************************************************
 897:Generated_Source\PSoC4/CyDMA.c **** *
 898:Generated_Source\PSoC4/CyDMA.c **** * Summary:
 899:Generated_Source\PSoC4/CyDMA.c **** *  Configures the destination address for the specified descriptor.
 900:Generated_Source\PSoC4/CyDMA.c **** *
 901:Generated_Source\PSoC4/CyDMA.c **** * Parameters:
 902:Generated_Source\PSoC4/CyDMA.c **** *  channel:    Channel used by this function.
 903:Generated_Source\PSoC4/CyDMA.c **** *  descriptor: Descriptor (0 or 1) modified by this function.
 904:Generated_Source\PSoC4/CyDMA.c **** *  dstAddress: Address of DMA transfer destination.
 905:Generated_Source\PSoC4/CyDMA.c **** *                   
 906:Generated_Source\PSoC4/CyDMA.c **** * Return:
 907:Generated_Source\PSoC4/CyDMA.c **** *  None.
 908:Generated_Source\PSoC4/CyDMA.c **** *
 909:Generated_Source\PSoC4/CyDMA.c **** * Side effect:
 910:Generated_Source\PSoC4/CyDMA.c **** *  This function should not be called when the specified descriptor is active
 911:Generated_Source\PSoC4/CyDMA.c **** *  in the DMA transfer engine. This can be checked by calling CyDmaGetStatus(). 
 912:Generated_Source\PSoC4/CyDMA.c **** *
 913:Generated_Source\PSoC4/CyDMA.c **** *******************************************************************************/
 914:Generated_Source\PSoC4/CyDMA.c **** void CyDmaSetDstAddress(int32 channel, int32 descriptor, void * dstAddress)
 915:Generated_Source\PSoC4/CyDMA.c **** {
 2021              		.loc 1 915 0
 2022              		.cfi_startproc
 2023              		@ args = 0, pretend = 0, frame = 16
 2024              		@ frame_needed = 1, uses_anonymous_args = 0
 2025 0000 80B5     		push	{r7, lr}
 2026              		.cfi_def_cfa_offset 8
 2027              		.cfi_offset 7, -8
 2028              		.cfi_offset 14, -4
 2029 0002 84B0     		sub	sp, sp, #16
 2030              		.cfi_def_cfa_offset 24
 2031 0004 00AF     		add	r7, sp, #0
 2032              		.cfi_def_cfa_register 7
 2033 0006 F860     		str	r0, [r7, #12]
 2034 0008 B960     		str	r1, [r7, #8]
 2035 000a 7A60     		str	r2, [r7, #4]
 916:Generated_Source\PSoC4/CyDMA.c ****     CYASSERT((channel    >= 0) && (channel    < CYDMA_CH_NR));
 2036              		.loc 1 916 0
 2037 000c FB68     		ldr	r3, [r7, #12]
 2038 000e 002B     		cmp	r3, #0
ARM GAS  C:\Users\HPz420\AppData\Local\Temp\ccz4K5YU.s 			page 53


 2039 0010 04DB     		blt	.L187
 2040              		.loc 1 916 0 is_stmt 0 discriminator 1
 2041 0012 FB68     		ldr	r3, [r7, #12]
 2042 0014 1F2B     		cmp	r3, #31
 2043 0016 01DC     		bgt	.L187
 2044              		.loc 1 916 0 discriminator 3
 2045 0018 0123     		movs	r3, #1
 2046 001a 00E0     		b	.L188
 2047              	.L187:
 2048              		.loc 1 916 0 discriminator 4
 2049 001c 0023     		movs	r3, #0
 2050              	.L188:
 2051              		.loc 1 916 0 discriminator 6
 2052 001e 002B     		cmp	r3, #0
 2053 0020 02D1     		bne	.L189
 2054              		.loc 1 916 0 discriminator 7
 2055 0022 0020     		movs	r0, #0
 2056 0024 FFF7FEFF 		bl	CyHalt
 2057              	.L189:
 917:Generated_Source\PSoC4/CyDMA.c ****     CYASSERT((descriptor >= 0) && (descriptor < CYDMA_DESCR_NR));
 2058              		.loc 1 917 0 is_stmt 1
 2059 0028 BB68     		ldr	r3, [r7, #8]
 2060 002a 002B     		cmp	r3, #0
 2061 002c 04DB     		blt	.L190
 2062              		.loc 1 917 0 is_stmt 0 discriminator 1
 2063 002e BB68     		ldr	r3, [r7, #8]
 2064 0030 012B     		cmp	r3, #1
 2065 0032 01DC     		bgt	.L190
 2066              		.loc 1 917 0 discriminator 3
 2067 0034 0123     		movs	r3, #1
 2068 0036 00E0     		b	.L191
 2069              	.L190:
 2070              		.loc 1 917 0 discriminator 4
 2071 0038 0023     		movs	r3, #0
 2072              	.L191:
 2073              		.loc 1 917 0 discriminator 6
 2074 003a 002B     		cmp	r3, #0
 2075 003c 02D1     		bne	.L192
 2076              		.loc 1 917 0 discriminator 7
 2077 003e 0020     		movs	r0, #0
 2078 0040 FFF7FEFF 		bl	CyHalt
 2079              	.L192:
 918:Generated_Source\PSoC4/CyDMA.c **** 
 919:Generated_Source\PSoC4/CyDMA.c ****     CYDMA_DESCR_BASE.descriptor[channel][descriptor].dst = dstAddress;
 2080              		.loc 1 919 0 is_stmt 1
 2081 0044 0649     		ldr	r1, .L193
 2082 0046 FB68     		ldr	r3, [r7, #12]
 2083 0048 5A00     		lsls	r2, r3, #1
 2084 004a BB68     		ldr	r3, [r7, #8]
 2085 004c D318     		adds	r3, r2, r3
 2086 004e 1B01     		lsls	r3, r3, #4
 2087 0050 CB18     		adds	r3, r1, r3
 2088 0052 0433     		adds	r3, r3, #4
 2089 0054 7A68     		ldr	r2, [r7, #4]
 2090 0056 1A60     		str	r2, [r3]
 920:Generated_Source\PSoC4/CyDMA.c **** }
 2091              		.loc 1 920 0
ARM GAS  C:\Users\HPz420\AppData\Local\Temp\ccz4K5YU.s 			page 54


 2092 0058 C046     		nop
 2093 005a BD46     		mov	sp, r7
 2094 005c 04B0     		add	sp, sp, #16
 2095              		@ sp needed
 2096 005e 80BD     		pop	{r7, pc}
 2097              	.L194:
 2098              		.align	2
 2099              	.L193:
 2100 0060 00181040 		.word	1074796544
 2101              		.cfi_endproc
 2102              	.LFE31:
 2103              		.size	CyDmaSetDstAddress, .-CyDmaSetDstAddress
 2104              		.section	.text.CyDmaGetDstAddress,"ax",%progbits
 2105              		.align	2
 2106              		.global	CyDmaGetDstAddress
 2107              		.code	16
 2108              		.thumb_func
 2109              		.type	CyDmaGetDstAddress, %function
 2110              	CyDmaGetDstAddress:
 2111              	.LFB32:
 921:Generated_Source\PSoC4/CyDMA.c **** 
 922:Generated_Source\PSoC4/CyDMA.c **** 
 923:Generated_Source\PSoC4/CyDMA.c **** /*******************************************************************************
 924:Generated_Source\PSoC4/CyDMA.c **** * Function Name: CyDmaGetDstAddress
 925:Generated_Source\PSoC4/CyDMA.c **** ********************************************************************************
 926:Generated_Source\PSoC4/CyDMA.c **** *
 927:Generated_Source\PSoC4/CyDMA.c **** * Summary:
 928:Generated_Source\PSoC4/CyDMA.c **** *  Returns the destination address for the specified descriptor, set by 
 929:Generated_Source\PSoC4/CyDMA.c **** *  CyDmaSetDstAddress().
 930:Generated_Source\PSoC4/CyDMA.c **** *
 931:Generated_Source\PSoC4/CyDMA.c **** * Parameters:
 932:Generated_Source\PSoC4/CyDMA.c **** *  channel:    Channel used by this function.
 933:Generated_Source\PSoC4/CyDMA.c **** *  descriptor: Specifies descriptor (0 or 1) used by this function.
 934:Generated_Source\PSoC4/CyDMA.c **** *                   
 935:Generated_Source\PSoC4/CyDMA.c **** * Return:
 936:Generated_Source\PSoC4/CyDMA.c **** *  Destination address written to specified descriptor.
 937:Generated_Source\PSoC4/CyDMA.c **** *
 938:Generated_Source\PSoC4/CyDMA.c **** *******************************************************************************/
 939:Generated_Source\PSoC4/CyDMA.c **** void * CyDmaGetDstAddress(int32 channel, int32 descriptor)
 940:Generated_Source\PSoC4/CyDMA.c **** {
 2112              		.loc 1 940 0
 2113              		.cfi_startproc
 2114              		@ args = 0, pretend = 0, frame = 8
 2115              		@ frame_needed = 1, uses_anonymous_args = 0
 2116 0000 80B5     		push	{r7, lr}
 2117              		.cfi_def_cfa_offset 8
 2118              		.cfi_offset 7, -8
 2119              		.cfi_offset 14, -4
 2120 0002 82B0     		sub	sp, sp, #8
 2121              		.cfi_def_cfa_offset 16
 2122 0004 00AF     		add	r7, sp, #0
 2123              		.cfi_def_cfa_register 7
 2124 0006 7860     		str	r0, [r7, #4]
 2125 0008 3960     		str	r1, [r7]
 941:Generated_Source\PSoC4/CyDMA.c ****     CYASSERT((channel    >= 0) && (channel    < CYDMA_CH_NR));
 2126              		.loc 1 941 0
 2127 000a 7B68     		ldr	r3, [r7, #4]
ARM GAS  C:\Users\HPz420\AppData\Local\Temp\ccz4K5YU.s 			page 55


 2128 000c 002B     		cmp	r3, #0
 2129 000e 04DB     		blt	.L196
 2130              		.loc 1 941 0 is_stmt 0 discriminator 1
 2131 0010 7B68     		ldr	r3, [r7, #4]
 2132 0012 1F2B     		cmp	r3, #31
 2133 0014 01DC     		bgt	.L196
 2134              		.loc 1 941 0 discriminator 3
 2135 0016 0123     		movs	r3, #1
 2136 0018 00E0     		b	.L197
 2137              	.L196:
 2138              		.loc 1 941 0 discriminator 4
 2139 001a 0023     		movs	r3, #0
 2140              	.L197:
 2141              		.loc 1 941 0 discriminator 6
 2142 001c 002B     		cmp	r3, #0
 2143 001e 02D1     		bne	.L198
 2144              		.loc 1 941 0 discriminator 7
 2145 0020 0020     		movs	r0, #0
 2146 0022 FFF7FEFF 		bl	CyHalt
 2147              	.L198:
 942:Generated_Source\PSoC4/CyDMA.c ****     CYASSERT((descriptor >= 0) && (descriptor < CYDMA_DESCR_NR));
 2148              		.loc 1 942 0 is_stmt 1
 2149 0026 3B68     		ldr	r3, [r7]
 2150 0028 002B     		cmp	r3, #0
 2151 002a 04DB     		blt	.L199
 2152              		.loc 1 942 0 is_stmt 0 discriminator 1
 2153 002c 3B68     		ldr	r3, [r7]
 2154 002e 012B     		cmp	r3, #1
 2155 0030 01DC     		bgt	.L199
 2156              		.loc 1 942 0 discriminator 3
 2157 0032 0123     		movs	r3, #1
 2158 0034 00E0     		b	.L200
 2159              	.L199:
 2160              		.loc 1 942 0 discriminator 4
 2161 0036 0023     		movs	r3, #0
 2162              	.L200:
 2163              		.loc 1 942 0 discriminator 6
 2164 0038 002B     		cmp	r3, #0
 2165 003a 02D1     		bne	.L201
 2166              		.loc 1 942 0 discriminator 7
 2167 003c 0020     		movs	r0, #0
 2168 003e FFF7FEFF 		bl	CyHalt
 2169              	.L201:
 943:Generated_Source\PSoC4/CyDMA.c **** 
 944:Generated_Source\PSoC4/CyDMA.c ****     return (CYDMA_DESCR_BASE.descriptor[channel][descriptor].dst);
 2170              		.loc 1 944 0 is_stmt 1
 2171 0042 0649     		ldr	r1, .L203
 2172 0044 7B68     		ldr	r3, [r7, #4]
 2173 0046 5A00     		lsls	r2, r3, #1
 2174 0048 3B68     		ldr	r3, [r7]
 2175 004a D318     		adds	r3, r2, r3
 2176 004c 1B01     		lsls	r3, r3, #4
 2177 004e CB18     		adds	r3, r1, r3
 2178 0050 0433     		adds	r3, r3, #4
 2179 0052 1B68     		ldr	r3, [r3]
 945:Generated_Source\PSoC4/CyDMA.c **** }
 2180              		.loc 1 945 0
ARM GAS  C:\Users\HPz420\AppData\Local\Temp\ccz4K5YU.s 			page 56


 2181 0054 1800     		movs	r0, r3
 2182 0056 BD46     		mov	sp, r7
 2183 0058 02B0     		add	sp, sp, #8
 2184              		@ sp needed
 2185 005a 80BD     		pop	{r7, pc}
 2186              	.L204:
 2187              		.align	2
 2188              	.L203:
 2189 005c 00181040 		.word	1074796544
 2190              		.cfi_endproc
 2191              	.LFE32:
 2192              		.size	CyDmaGetDstAddress, .-CyDmaGetDstAddress
 2193              		.section	.text.CyDmaSetDataElementSize,"ax",%progbits
 2194              		.align	2
 2195              		.global	CyDmaSetDataElementSize
 2196              		.code	16
 2197              		.thumb_func
 2198              		.type	CyDmaSetDataElementSize, %function
 2199              	CyDmaSetDataElementSize:
 2200              	.LFB33:
 946:Generated_Source\PSoC4/CyDMA.c **** 
 947:Generated_Source\PSoC4/CyDMA.c **** /*******************************************************************************
 948:Generated_Source\PSoC4/CyDMA.c **** * Function Name: CyDmaSetDataElementSize
 949:Generated_Source\PSoC4/CyDMA.c **** ********************************************************************************
 950:Generated_Source\PSoC4/CyDMA.c **** *
 951:Generated_Source\PSoC4/CyDMA.c **** * Summary:
 952:Generated_Source\PSoC4/CyDMA.c **** *  Sets the data element size for the specified descriptor.
 953:Generated_Source\PSoC4/CyDMA.c **** *
 954:Generated_Source\PSoC4/CyDMA.c **** * Parameters:
 955:Generated_Source\PSoC4/CyDMA.c **** *  channel:         Channel used by this function.
 956:Generated_Source\PSoC4/CyDMA.c **** *  descriptor:      Descriptor (0 or 1) modified by this function.
 957:Generated_Source\PSoC4/CyDMA.c **** *  dataElementSize: Specifies the size of the data element. The DMA transfer
 958:Generated_Source\PSoC4/CyDMA.c **** *                   engine transfers one data element at a time. How these
 959:Generated_Source\PSoC4/CyDMA.c **** *                   transfers occur is controlled by the transfer mode.
 960:Generated_Source\PSoC4/CyDMA.c **** *                   Refer to the API bit field definitions in CyDMA_P4.h
 961:Generated_Source\PSoC4/CyDMA.c **** *                   or API description in the DMA channel datasheet for the 
 962:Generated_Source\PSoC4/CyDMA.c **** *                   parameter options.
 963:Generated_Source\PSoC4/CyDMA.c **** *
 964:Generated_Source\PSoC4/CyDMA.c **** * Return:
 965:Generated_Source\PSoC4/CyDMA.c **** *  None.
 966:Generated_Source\PSoC4/CyDMA.c **** *
 967:Generated_Source\PSoC4/CyDMA.c **** * Side effect:
 968:Generated_Source\PSoC4/CyDMA.c **** *  This function should not be called when the specified descriptor is active
 969:Generated_Source\PSoC4/CyDMA.c **** *  in the DMA transfer engine. This can be checked by calling CyDmaGetStatus(). 
 970:Generated_Source\PSoC4/CyDMA.c **** *
 971:Generated_Source\PSoC4/CyDMA.c **** *******************************************************************************/
 972:Generated_Source\PSoC4/CyDMA.c **** void CyDmaSetDataElementSize(int32 channel, int32 descriptor, uint32 dataElementSize)
 973:Generated_Source\PSoC4/CyDMA.c **** {
 2201              		.loc 1 973 0
 2202              		.cfi_startproc
 2203              		@ args = 0, pretend = 0, frame = 24
 2204              		@ frame_needed = 1, uses_anonymous_args = 0
 2205 0000 80B5     		push	{r7, lr}
 2206              		.cfi_def_cfa_offset 8
 2207              		.cfi_offset 7, -8
 2208              		.cfi_offset 14, -4
 2209 0002 86B0     		sub	sp, sp, #24
ARM GAS  C:\Users\HPz420\AppData\Local\Temp\ccz4K5YU.s 			page 57


 2210              		.cfi_def_cfa_offset 32
 2211 0004 00AF     		add	r7, sp, #0
 2212              		.cfi_def_cfa_register 7
 2213 0006 F860     		str	r0, [r7, #12]
 2214 0008 B960     		str	r1, [r7, #8]
 2215 000a 7A60     		str	r2, [r7, #4]
 974:Generated_Source\PSoC4/CyDMA.c ****     uint32 regValue;
 975:Generated_Source\PSoC4/CyDMA.c ****     
 976:Generated_Source\PSoC4/CyDMA.c ****     CYASSERT((channel    >= 0) && (channel    < CYDMA_CH_NR));
 2216              		.loc 1 976 0
 2217 000c FB68     		ldr	r3, [r7, #12]
 2218 000e 002B     		cmp	r3, #0
 2219 0010 04DB     		blt	.L206
 2220              		.loc 1 976 0 is_stmt 0 discriminator 1
 2221 0012 FB68     		ldr	r3, [r7, #12]
 2222 0014 1F2B     		cmp	r3, #31
 2223 0016 01DC     		bgt	.L206
 2224              		.loc 1 976 0 discriminator 3
 2225 0018 0123     		movs	r3, #1
 2226 001a 00E0     		b	.L207
 2227              	.L206:
 2228              		.loc 1 976 0 discriminator 4
 2229 001c 0023     		movs	r3, #0
 2230              	.L207:
 2231              		.loc 1 976 0 discriminator 6
 2232 001e 002B     		cmp	r3, #0
 2233 0020 02D1     		bne	.L208
 2234              		.loc 1 976 0 discriminator 7
 2235 0022 0020     		movs	r0, #0
 2236 0024 FFF7FEFF 		bl	CyHalt
 2237              	.L208:
 977:Generated_Source\PSoC4/CyDMA.c ****     CYASSERT((descriptor >= 0) && (descriptor < CYDMA_DESCR_NR));
 2238              		.loc 1 977 0 is_stmt 1
 2239 0028 BB68     		ldr	r3, [r7, #8]
 2240 002a 002B     		cmp	r3, #0
 2241 002c 04DB     		blt	.L209
 2242              		.loc 1 977 0 is_stmt 0 discriminator 1
 2243 002e BB68     		ldr	r3, [r7, #8]
 2244 0030 012B     		cmp	r3, #1
 2245 0032 01DC     		bgt	.L209
 2246              		.loc 1 977 0 discriminator 3
 2247 0034 0123     		movs	r3, #1
 2248 0036 00E0     		b	.L210
 2249              	.L209:
 2250              		.loc 1 977 0 discriminator 4
 2251 0038 0023     		movs	r3, #0
 2252              	.L210:
 2253              		.loc 1 977 0 discriminator 6
 2254 003a 002B     		cmp	r3, #0
 2255 003c 02D1     		bne	.L211
 2256              		.loc 1 977 0 discriminator 7
 2257 003e 0020     		movs	r0, #0
 2258 0040 FFF7FEFF 		bl	CyHalt
 2259              	.L211:
 978:Generated_Source\PSoC4/CyDMA.c ****     CYASSERT(0u == (dataElementSize & (uint32)~CYDMA_DATA_SIZE));
 2260              		.loc 1 978 0 is_stmt 1
 2261 0044 7B68     		ldr	r3, [r7, #4]
ARM GAS  C:\Users\HPz420\AppData\Local\Temp\ccz4K5YU.s 			page 58


 2262 0046 114A     		ldr	r2, .L213
 2263 0048 1340     		ands	r3, r2
 2264 004a 02D0     		beq	.L212
 2265              		.loc 1 978 0 is_stmt 0 discriminator 1
 2266 004c 0020     		movs	r0, #0
 2267 004e FFF7FEFF 		bl	CyHalt
 2268              	.L212:
 979:Generated_Source\PSoC4/CyDMA.c **** 
 980:Generated_Source\PSoC4/CyDMA.c ****     regValue = CYDMA_DESCR_BASE.descriptor[channel][descriptor].ctl & (uint32)~CYDMA_DATA_SIZE;
 2269              		.loc 1 980 0 is_stmt 1
 2270 0052 0F49     		ldr	r1, .L213+4
 2271 0054 FB68     		ldr	r3, [r7, #12]
 2272 0056 5A00     		lsls	r2, r3, #1
 2273 0058 BB68     		ldr	r3, [r7, #8]
 2274 005a D318     		adds	r3, r2, r3
 2275 005c 1B01     		lsls	r3, r3, #4
 2276 005e CB18     		adds	r3, r1, r3
 2277 0060 0833     		adds	r3, r3, #8
 2278 0062 1B68     		ldr	r3, [r3]
 2279 0064 094A     		ldr	r2, .L213
 2280 0066 1340     		ands	r3, r2
 2281 0068 7B61     		str	r3, [r7, #20]
 981:Generated_Source\PSoC4/CyDMA.c ****     CYDMA_DESCR_BASE.descriptor[channel][descriptor].ctl = regValue | dataElementSize;
 2282              		.loc 1 981 0
 2283 006a 0948     		ldr	r0, .L213+4
 2284 006c 7A69     		ldr	r2, [r7, #20]
 2285 006e 7B68     		ldr	r3, [r7, #4]
 2286 0070 1A43     		orrs	r2, r3
 2287 0072 FB68     		ldr	r3, [r7, #12]
 2288 0074 5900     		lsls	r1, r3, #1
 2289 0076 BB68     		ldr	r3, [r7, #8]
 2290 0078 CB18     		adds	r3, r1, r3
 2291 007a 1B01     		lsls	r3, r3, #4
 2292 007c C318     		adds	r3, r0, r3
 2293 007e 0833     		adds	r3, r3, #8
 2294 0080 1A60     		str	r2, [r3]
 982:Generated_Source\PSoC4/CyDMA.c **** }
 2295              		.loc 1 982 0
 2296 0082 C046     		nop
 2297 0084 BD46     		mov	sp, r7
 2298 0086 06B0     		add	sp, sp, #24
 2299              		@ sp needed
 2300 0088 80BD     		pop	{r7, pc}
 2301              	.L214:
 2302 008a C046     		.align	2
 2303              	.L213:
 2304 008c FFFFFCFF 		.word	-196609
 2305 0090 00181040 		.word	1074796544
 2306              		.cfi_endproc
 2307              	.LFE33:
 2308              		.size	CyDmaSetDataElementSize, .-CyDmaSetDataElementSize
 2309              		.section	.text.CyDmaGetDataElementSize,"ax",%progbits
 2310              		.align	2
 2311              		.global	CyDmaGetDataElementSize
 2312              		.code	16
 2313              		.thumb_func
 2314              		.type	CyDmaGetDataElementSize, %function
ARM GAS  C:\Users\HPz420\AppData\Local\Temp\ccz4K5YU.s 			page 59


 2315              	CyDmaGetDataElementSize:
 2316              	.LFB34:
 983:Generated_Source\PSoC4/CyDMA.c **** 
 984:Generated_Source\PSoC4/CyDMA.c **** 
 985:Generated_Source\PSoC4/CyDMA.c **** /*******************************************************************************
 986:Generated_Source\PSoC4/CyDMA.c **** * Function Name: CyDmaGetDataElementSize
 987:Generated_Source\PSoC4/CyDMA.c **** ********************************************************************************
 988:Generated_Source\PSoC4/CyDMA.c **** *
 989:Generated_Source\PSoC4/CyDMA.c **** * Summary:
 990:Generated_Source\PSoC4/CyDMA.c **** *  Returns the data element size configured for the specified descriptor, set by
 991:Generated_Source\PSoC4/CyDMA.c **** *  CyDmaSetDataElementSize() or CyDmaSetConfiguration.
 992:Generated_Source\PSoC4/CyDMA.c **** *
 993:Generated_Source\PSoC4/CyDMA.c **** * Parameters:
 994:Generated_Source\PSoC4/CyDMA.c **** *  channel:    Channel used by this function.
 995:Generated_Source\PSoC4/CyDMA.c **** *  descriptor: Descriptor (0 or 1) modified by this function.
 996:Generated_Source\PSoC4/CyDMA.c **** *                   
 997:Generated_Source\PSoC4/CyDMA.c **** * Return:
 998:Generated_Source\PSoC4/CyDMA.c **** *  The size of the data element. The DMA transfer engine transfers one data
 999:Generated_Source\PSoC4/CyDMA.c **** *  element at a time. How these transfers occur is controlled by the transfer
1000:Generated_Source\PSoC4/CyDMA.c **** *  mode. Refer to the API bit field definitions in CyDMA_P4.h or the API 
1001:Generated_Source\PSoC4/CyDMA.c **** *  description in the DMA channel datasheet for more information.
1002:Generated_Source\PSoC4/CyDMA.c **** *
1003:Generated_Source\PSoC4/CyDMA.c **** * Note:
1004:Generated_Source\PSoC4/CyDMA.c **** *  The size of the source and destination can be configured to use the
1005:Generated_Source\PSoC4/CyDMA.c **** *  data element size, or a Word, this is set in CyDmaSetSrcDstTransferWidth().
1006:Generated_Source\PSoC4/CyDMA.c **** *
1007:Generated_Source\PSoC4/CyDMA.c **** *******************************************************************************/
1008:Generated_Source\PSoC4/CyDMA.c **** uint32 CyDmaGetDataElementSize(int32 channel, int32 descriptor)
1009:Generated_Source\PSoC4/CyDMA.c **** {
 2317              		.loc 1 1009 0
 2318              		.cfi_startproc
 2319              		@ args = 0, pretend = 0, frame = 8
 2320              		@ frame_needed = 1, uses_anonymous_args = 0
 2321 0000 80B5     		push	{r7, lr}
 2322              		.cfi_def_cfa_offset 8
 2323              		.cfi_offset 7, -8
 2324              		.cfi_offset 14, -4
 2325 0002 82B0     		sub	sp, sp, #8
 2326              		.cfi_def_cfa_offset 16
 2327 0004 00AF     		add	r7, sp, #0
 2328              		.cfi_def_cfa_register 7
 2329 0006 7860     		str	r0, [r7, #4]
 2330 0008 3960     		str	r1, [r7]
1010:Generated_Source\PSoC4/CyDMA.c ****     CYASSERT((channel    >= 0) && (channel    < CYDMA_CH_NR));
 2331              		.loc 1 1010 0
 2332 000a 7B68     		ldr	r3, [r7, #4]
 2333 000c 002B     		cmp	r3, #0
 2334 000e 04DB     		blt	.L216
 2335              		.loc 1 1010 0 is_stmt 0 discriminator 1
 2336 0010 7B68     		ldr	r3, [r7, #4]
 2337 0012 1F2B     		cmp	r3, #31
 2338 0014 01DC     		bgt	.L216
 2339              		.loc 1 1010 0 discriminator 3
 2340 0016 0123     		movs	r3, #1
 2341 0018 00E0     		b	.L217
 2342              	.L216:
 2343              		.loc 1 1010 0 discriminator 4
ARM GAS  C:\Users\HPz420\AppData\Local\Temp\ccz4K5YU.s 			page 60


 2344 001a 0023     		movs	r3, #0
 2345              	.L217:
 2346              		.loc 1 1010 0 discriminator 6
 2347 001c 002B     		cmp	r3, #0
 2348 001e 02D1     		bne	.L218
 2349              		.loc 1 1010 0 discriminator 7
 2350 0020 0020     		movs	r0, #0
 2351 0022 FFF7FEFF 		bl	CyHalt
 2352              	.L218:
1011:Generated_Source\PSoC4/CyDMA.c ****     CYASSERT((descriptor >= 0) && (descriptor < CYDMA_DESCR_NR));
 2353              		.loc 1 1011 0 is_stmt 1
 2354 0026 3B68     		ldr	r3, [r7]
 2355 0028 002B     		cmp	r3, #0
 2356 002a 04DB     		blt	.L219
 2357              		.loc 1 1011 0 is_stmt 0 discriminator 1
 2358 002c 3B68     		ldr	r3, [r7]
 2359 002e 012B     		cmp	r3, #1
 2360 0030 01DC     		bgt	.L219
 2361              		.loc 1 1011 0 discriminator 3
 2362 0032 0123     		movs	r3, #1
 2363 0034 00E0     		b	.L220
 2364              	.L219:
 2365              		.loc 1 1011 0 discriminator 4
 2366 0036 0023     		movs	r3, #0
 2367              	.L220:
 2368              		.loc 1 1011 0 discriminator 6
 2369 0038 002B     		cmp	r3, #0
 2370 003a 02D1     		bne	.L221
 2371              		.loc 1 1011 0 discriminator 7
 2372 003c 0020     		movs	r0, #0
 2373 003e FFF7FEFF 		bl	CyHalt
 2374              	.L221:
1012:Generated_Source\PSoC4/CyDMA.c **** 
1013:Generated_Source\PSoC4/CyDMA.c ****     return (CYDMA_DESCR_BASE.descriptor[channel][descriptor].ctl & CYDMA_DATA_SIZE);
 2375              		.loc 1 1013 0 is_stmt 1
 2376 0042 0849     		ldr	r1, .L223
 2377 0044 7B68     		ldr	r3, [r7, #4]
 2378 0046 5A00     		lsls	r2, r3, #1
 2379 0048 3B68     		ldr	r3, [r7]
 2380 004a D318     		adds	r3, r2, r3
 2381 004c 1B01     		lsls	r3, r3, #4
 2382 004e CB18     		adds	r3, r1, r3
 2383 0050 0833     		adds	r3, r3, #8
 2384 0052 1A68     		ldr	r2, [r3]
 2385 0054 C023     		movs	r3, #192
 2386 0056 9B02     		lsls	r3, r3, #10
 2387 0058 1340     		ands	r3, r2
1014:Generated_Source\PSoC4/CyDMA.c **** }
 2388              		.loc 1 1014 0
 2389 005a 1800     		movs	r0, r3
 2390 005c BD46     		mov	sp, r7
 2391 005e 02B0     		add	sp, sp, #8
 2392              		@ sp needed
 2393 0060 80BD     		pop	{r7, pc}
 2394              	.L224:
 2395 0062 C046     		.align	2
 2396              	.L223:
ARM GAS  C:\Users\HPz420\AppData\Local\Temp\ccz4K5YU.s 			page 61


 2397 0064 00181040 		.word	1074796544
 2398              		.cfi_endproc
 2399              	.LFE34:
 2400              		.size	CyDmaGetDataElementSize, .-CyDmaGetDataElementSize
 2401              		.section	.text.CyDmaSetNumDataElements,"ax",%progbits
 2402              		.align	2
 2403              		.global	CyDmaSetNumDataElements
 2404              		.code	16
 2405              		.thumb_func
 2406              		.type	CyDmaSetNumDataElements, %function
 2407              	CyDmaSetNumDataElements:
 2408              	.LFB35:
1015:Generated_Source\PSoC4/CyDMA.c **** 
1016:Generated_Source\PSoC4/CyDMA.c **** 
1017:Generated_Source\PSoC4/CyDMA.c **** /*******************************************************************************
1018:Generated_Source\PSoC4/CyDMA.c **** * Function Name: CyDmaSetNumDataElements
1019:Generated_Source\PSoC4/CyDMA.c **** ********************************************************************************
1020:Generated_Source\PSoC4/CyDMA.c **** *
1021:Generated_Source\PSoC4/CyDMA.c **** * Summary:
1022:Generated_Source\PSoC4/CyDMA.c **** *  Sets the number of data elements to transfer for specified descriptor.
1023:Generated_Source\PSoC4/CyDMA.c **** *
1024:Generated_Source\PSoC4/CyDMA.c **** * Parameters:
1025:Generated_Source\PSoC4/CyDMA.c **** *  channel:         Channel used by this function.
1026:Generated_Source\PSoC4/CyDMA.c **** *  descriptor:      Descriptor (0 or 1) modified by this function.
1027:Generated_Source\PSoC4/CyDMA.c **** *  numDataElements: Total number of data elements this descriptor transfers.
1028:Generated_Source\PSoC4/CyDMA.c **** *                   Valid ranges are 1 to 65536.
1029:Generated_Source\PSoC4/CyDMA.c **** *                   
1030:Generated_Source\PSoC4/CyDMA.c **** * Return:
1031:Generated_Source\PSoC4/CyDMA.c **** *  None.
1032:Generated_Source\PSoC4/CyDMA.c **** *
1033:Generated_Source\PSoC4/CyDMA.c **** * Side effect:
1034:Generated_Source\PSoC4/CyDMA.c **** *  This function should not be called when the specified descriptor is active
1035:Generated_Source\PSoC4/CyDMA.c **** *  in the DMA transfer engine. This can be checked by calling CyDmaGetStatus(). 
1036:Generated_Source\PSoC4/CyDMA.c **** *
1037:Generated_Source\PSoC4/CyDMA.c **** *******************************************************************************/
1038:Generated_Source\PSoC4/CyDMA.c **** void CyDmaSetNumDataElements(int32 channel, int32 descriptor, int32 numDataElements)
1039:Generated_Source\PSoC4/CyDMA.c **** {
 2409              		.loc 1 1039 0
 2410              		.cfi_startproc
 2411              		@ args = 0, pretend = 0, frame = 24
 2412              		@ frame_needed = 1, uses_anonymous_args = 0
 2413 0000 80B5     		push	{r7, lr}
 2414              		.cfi_def_cfa_offset 8
 2415              		.cfi_offset 7, -8
 2416              		.cfi_offset 14, -4
 2417 0002 86B0     		sub	sp, sp, #24
 2418              		.cfi_def_cfa_offset 32
 2419 0004 00AF     		add	r7, sp, #0
 2420              		.cfi_def_cfa_register 7
 2421 0006 F860     		str	r0, [r7, #12]
 2422 0008 B960     		str	r1, [r7, #8]
 2423 000a 7A60     		str	r2, [r7, #4]
1040:Generated_Source\PSoC4/CyDMA.c ****     uint32 regValue;
1041:Generated_Source\PSoC4/CyDMA.c ****     
1042:Generated_Source\PSoC4/CyDMA.c ****     CYASSERT((channel        >= 0) && (channel         <  CYDMA_CH_NR));
 2424              		.loc 1 1042 0
 2425 000c FB68     		ldr	r3, [r7, #12]
ARM GAS  C:\Users\HPz420\AppData\Local\Temp\ccz4K5YU.s 			page 62


 2426 000e 002B     		cmp	r3, #0
 2427 0010 04DB     		blt	.L226
 2428              		.loc 1 1042 0 is_stmt 0 discriminator 1
 2429 0012 FB68     		ldr	r3, [r7, #12]
 2430 0014 1F2B     		cmp	r3, #31
 2431 0016 01DC     		bgt	.L226
 2432              		.loc 1 1042 0 discriminator 3
 2433 0018 0123     		movs	r3, #1
 2434 001a 00E0     		b	.L227
 2435              	.L226:
 2436              		.loc 1 1042 0 discriminator 4
 2437 001c 0023     		movs	r3, #0
 2438              	.L227:
 2439              		.loc 1 1042 0 discriminator 6
 2440 001e 002B     		cmp	r3, #0
 2441 0020 02D1     		bne	.L228
 2442              		.loc 1 1042 0 discriminator 7
 2443 0022 0020     		movs	r0, #0
 2444 0024 FFF7FEFF 		bl	CyHalt
 2445              	.L228:
1043:Generated_Source\PSoC4/CyDMA.c ****     CYASSERT((descriptor     >= 0) && (descriptor      <  CYDMA_DESCR_NR));
 2446              		.loc 1 1043 0 is_stmt 1
 2447 0028 BB68     		ldr	r3, [r7, #8]
 2448 002a 002B     		cmp	r3, #0
 2449 002c 04DB     		blt	.L229
 2450              		.loc 1 1043 0 is_stmt 0 discriminator 1
 2451 002e BB68     		ldr	r3, [r7, #8]
 2452 0030 012B     		cmp	r3, #1
 2453 0032 01DC     		bgt	.L229
 2454              		.loc 1 1043 0 discriminator 3
 2455 0034 0123     		movs	r3, #1
 2456 0036 00E0     		b	.L230
 2457              	.L229:
 2458              		.loc 1 1043 0 discriminator 4
 2459 0038 0023     		movs	r3, #0
 2460              	.L230:
 2461              		.loc 1 1043 0 discriminator 6
 2462 003a 002B     		cmp	r3, #0
 2463 003c 02D1     		bne	.L231
 2464              		.loc 1 1043 0 discriminator 7
 2465 003e 0020     		movs	r0, #0
 2466 0040 FFF7FEFF 		bl	CyHalt
 2467              	.L231:
1044:Generated_Source\PSoC4/CyDMA.c ****     CYASSERT((numDataElements > 0) && (numDataElements <= CYDMA_MAX_DATA_NR));
 2468              		.loc 1 1044 0 is_stmt 1
 2469 0044 7B68     		ldr	r3, [r7, #4]
 2470 0046 002B     		cmp	r3, #0
 2471 0048 06DD     		ble	.L232
 2472              		.loc 1 1044 0 is_stmt 0 discriminator 1
 2473 004a 7A68     		ldr	r2, [r7, #4]
 2474 004c 8023     		movs	r3, #128
 2475 004e 5B02     		lsls	r3, r3, #9
 2476 0050 9A42     		cmp	r2, r3
 2477 0052 01DC     		bgt	.L232
 2478              		.loc 1 1044 0 discriminator 3
 2479 0054 0123     		movs	r3, #1
 2480 0056 00E0     		b	.L233
ARM GAS  C:\Users\HPz420\AppData\Local\Temp\ccz4K5YU.s 			page 63


 2481              	.L232:
 2482              		.loc 1 1044 0 discriminator 4
 2483 0058 0023     		movs	r3, #0
 2484              	.L233:
 2485              		.loc 1 1044 0 discriminator 6
 2486 005a 002B     		cmp	r3, #0
 2487 005c 02D1     		bne	.L234
 2488              		.loc 1 1044 0 discriminator 7
 2489 005e 0020     		movs	r0, #0
 2490 0060 FFF7FEFF 		bl	CyHalt
 2491              	.L234:
1045:Generated_Source\PSoC4/CyDMA.c ****     
1046:Generated_Source\PSoC4/CyDMA.c ****     --numDataElements;
 2492              		.loc 1 1046 0 is_stmt 1
 2493 0064 7B68     		ldr	r3, [r7, #4]
 2494 0066 013B     		subs	r3, r3, #1
 2495 0068 7B60     		str	r3, [r7, #4]
1047:Generated_Source\PSoC4/CyDMA.c ****     regValue = CYDMA_DESCR_BASE.descriptor[channel][descriptor].ctl & (uint32)~CYDMA_DATA_NR;
 2496              		.loc 1 1047 0
 2497 006a 0E49     		ldr	r1, .L235
 2498 006c FB68     		ldr	r3, [r7, #12]
 2499 006e 5A00     		lsls	r2, r3, #1
 2500 0070 BB68     		ldr	r3, [r7, #8]
 2501 0072 D318     		adds	r3, r2, r3
 2502 0074 1B01     		lsls	r3, r3, #4
 2503 0076 CB18     		adds	r3, r1, r3
 2504 0078 0833     		adds	r3, r3, #8
 2505 007a 1B68     		ldr	r3, [r3]
 2506 007c 1B0C     		lsrs	r3, r3, #16
 2507 007e 1B04     		lsls	r3, r3, #16
 2508 0080 7B61     		str	r3, [r7, #20]
1048:Generated_Source\PSoC4/CyDMA.c ****     CYDMA_DESCR_BASE.descriptor[channel][descriptor].ctl = regValue | (uint32)numDataElements;
 2509              		.loc 1 1048 0
 2510 0082 0848     		ldr	r0, .L235
 2511 0084 7A68     		ldr	r2, [r7, #4]
 2512 0086 7B69     		ldr	r3, [r7, #20]
 2513 0088 1A43     		orrs	r2, r3
 2514 008a FB68     		ldr	r3, [r7, #12]
 2515 008c 5900     		lsls	r1, r3, #1
 2516 008e BB68     		ldr	r3, [r7, #8]
 2517 0090 CB18     		adds	r3, r1, r3
 2518 0092 1B01     		lsls	r3, r3, #4
 2519 0094 C318     		adds	r3, r0, r3
 2520 0096 0833     		adds	r3, r3, #8
 2521 0098 1A60     		str	r2, [r3]
1049:Generated_Source\PSoC4/CyDMA.c **** }
 2522              		.loc 1 1049 0
 2523 009a C046     		nop
 2524 009c BD46     		mov	sp, r7
 2525 009e 06B0     		add	sp, sp, #24
 2526              		@ sp needed
 2527 00a0 80BD     		pop	{r7, pc}
 2528              	.L236:
 2529 00a2 C046     		.align	2
 2530              	.L235:
 2531 00a4 00181040 		.word	1074796544
 2532              		.cfi_endproc
ARM GAS  C:\Users\HPz420\AppData\Local\Temp\ccz4K5YU.s 			page 64


 2533              	.LFE35:
 2534              		.size	CyDmaSetNumDataElements, .-CyDmaSetNumDataElements
 2535              		.section	.text.CyDmaGetNumDataElements,"ax",%progbits
 2536              		.align	2
 2537              		.global	CyDmaGetNumDataElements
 2538              		.code	16
 2539              		.thumb_func
 2540              		.type	CyDmaGetNumDataElements, %function
 2541              	CyDmaGetNumDataElements:
 2542              	.LFB36:
1050:Generated_Source\PSoC4/CyDMA.c **** 
1051:Generated_Source\PSoC4/CyDMA.c **** 
1052:Generated_Source\PSoC4/CyDMA.c **** /*******************************************************************************
1053:Generated_Source\PSoC4/CyDMA.c **** * Function Name: CyDmaGetNumDataElements
1054:Generated_Source\PSoC4/CyDMA.c **** ********************************************************************************
1055:Generated_Source\PSoC4/CyDMA.c **** *
1056:Generated_Source\PSoC4/CyDMA.c **** * Summary:
1057:Generated_Source\PSoC4/CyDMA.c **** *  Returns the number of data elements to be transferred. Only reflects the
1058:Generated_Source\PSoC4/CyDMA.c **** *  value written by CyDmaSetNumDataElements() or CyDmaSetConfiguration(). This
1059:Generated_Source\PSoC4/CyDMA.c **** *  does not reflect how many elements have been transferred. For that
1060:Generated_Source\PSoC4/CyDMA.c **** *  information use the CyDmaGetDescriptorStatus() function.
1061:Generated_Source\PSoC4/CyDMA.c **** *
1062:Generated_Source\PSoC4/CyDMA.c **** * Parameters:
1063:Generated_Source\PSoC4/CyDMA.c **** *  channel:    Channel used by this function.
1064:Generated_Source\PSoC4/CyDMA.c **** *  descriptor: Descriptor (0 or 1) modified by this function.
1065:Generated_Source\PSoC4/CyDMA.c **** *                   
1066:Generated_Source\PSoC4/CyDMA.c **** * Return:
1067:Generated_Source\PSoC4/CyDMA.c **** *  Number of data elements to transfer.
1068:Generated_Source\PSoC4/CyDMA.c **** *
1069:Generated_Source\PSoC4/CyDMA.c **** *******************************************************************************/
1070:Generated_Source\PSoC4/CyDMA.c **** int32 CyDmaGetNumDataElements(int32 channel, int32 descriptor)
1071:Generated_Source\PSoC4/CyDMA.c **** {
 2543              		.loc 1 1071 0
 2544              		.cfi_startproc
 2545              		@ args = 0, pretend = 0, frame = 16
 2546              		@ frame_needed = 1, uses_anonymous_args = 0
 2547 0000 80B5     		push	{r7, lr}
 2548              		.cfi_def_cfa_offset 8
 2549              		.cfi_offset 7, -8
 2550              		.cfi_offset 14, -4
 2551 0002 84B0     		sub	sp, sp, #16
 2552              		.cfi_def_cfa_offset 24
 2553 0004 00AF     		add	r7, sp, #0
 2554              		.cfi_def_cfa_register 7
 2555 0006 7860     		str	r0, [r7, #4]
 2556 0008 3960     		str	r1, [r7]
1072:Generated_Source\PSoC4/CyDMA.c ****     uint32 numElements;
1073:Generated_Source\PSoC4/CyDMA.c **** 
1074:Generated_Source\PSoC4/CyDMA.c ****     CYASSERT((channel    >= 0) && (channel    < CYDMA_CH_NR));
 2557              		.loc 1 1074 0
 2558 000a 7B68     		ldr	r3, [r7, #4]
 2559 000c 002B     		cmp	r3, #0
 2560 000e 04DB     		blt	.L238
 2561              		.loc 1 1074 0 is_stmt 0 discriminator 1
 2562 0010 7B68     		ldr	r3, [r7, #4]
 2563 0012 1F2B     		cmp	r3, #31
 2564 0014 01DC     		bgt	.L238
ARM GAS  C:\Users\HPz420\AppData\Local\Temp\ccz4K5YU.s 			page 65


 2565              		.loc 1 1074 0 discriminator 3
 2566 0016 0123     		movs	r3, #1
 2567 0018 00E0     		b	.L239
 2568              	.L238:
 2569              		.loc 1 1074 0 discriminator 4
 2570 001a 0023     		movs	r3, #0
 2571              	.L239:
 2572              		.loc 1 1074 0 discriminator 6
 2573 001c 002B     		cmp	r3, #0
 2574 001e 02D1     		bne	.L240
 2575              		.loc 1 1074 0 discriminator 7
 2576 0020 0020     		movs	r0, #0
 2577 0022 FFF7FEFF 		bl	CyHalt
 2578              	.L240:
1075:Generated_Source\PSoC4/CyDMA.c ****     CYASSERT((descriptor >= 0) && (descriptor < CYDMA_DESCR_NR));
 2579              		.loc 1 1075 0 is_stmt 1
 2580 0026 3B68     		ldr	r3, [r7]
 2581 0028 002B     		cmp	r3, #0
 2582 002a 04DB     		blt	.L241
 2583              		.loc 1 1075 0 is_stmt 0 discriminator 1
 2584 002c 3B68     		ldr	r3, [r7]
 2585 002e 012B     		cmp	r3, #1
 2586 0030 01DC     		bgt	.L241
 2587              		.loc 1 1075 0 discriminator 3
 2588 0032 0123     		movs	r3, #1
 2589 0034 00E0     		b	.L242
 2590              	.L241:
 2591              		.loc 1 1075 0 discriminator 4
 2592 0036 0023     		movs	r3, #0
 2593              	.L242:
 2594              		.loc 1 1075 0 discriminator 6
 2595 0038 002B     		cmp	r3, #0
 2596 003a 02D1     		bne	.L243
 2597              		.loc 1 1075 0 discriminator 7
 2598 003c 0020     		movs	r0, #0
 2599 003e FFF7FEFF 		bl	CyHalt
 2600              	.L243:
1076:Generated_Source\PSoC4/CyDMA.c ****     
1077:Generated_Source\PSoC4/CyDMA.c ****     numElements = (CYDMA_DESCR_BASE.descriptor[channel][descriptor].ctl & CYDMA_DATA_NR) + 1u;
 2601              		.loc 1 1077 0 is_stmt 1
 2602 0042 0949     		ldr	r1, .L245
 2603 0044 7B68     		ldr	r3, [r7, #4]
 2604 0046 5A00     		lsls	r2, r3, #1
 2605 0048 3B68     		ldr	r3, [r7]
 2606 004a D318     		adds	r3, r2, r3
 2607 004c 1B01     		lsls	r3, r3, #4
 2608 004e CB18     		adds	r3, r1, r3
 2609 0050 0833     		adds	r3, r3, #8
 2610 0052 1B68     		ldr	r3, [r3]
 2611 0054 1B04     		lsls	r3, r3, #16
 2612 0056 1B0C     		lsrs	r3, r3, #16
 2613 0058 0133     		adds	r3, r3, #1
 2614 005a FB60     		str	r3, [r7, #12]
1078:Generated_Source\PSoC4/CyDMA.c ****     return ((int32)numElements);
 2615              		.loc 1 1078 0
 2616 005c FB68     		ldr	r3, [r7, #12]
1079:Generated_Source\PSoC4/CyDMA.c **** }
ARM GAS  C:\Users\HPz420\AppData\Local\Temp\ccz4K5YU.s 			page 66


 2617              		.loc 1 1079 0
 2618 005e 1800     		movs	r0, r3
 2619 0060 BD46     		mov	sp, r7
 2620 0062 04B0     		add	sp, sp, #16
 2621              		@ sp needed
 2622 0064 80BD     		pop	{r7, pc}
 2623              	.L246:
 2624 0066 C046     		.align	2
 2625              	.L245:
 2626 0068 00181040 		.word	1074796544
 2627              		.cfi_endproc
 2628              	.LFE36:
 2629              		.size	CyDmaGetNumDataElements, .-CyDmaGetNumDataElements
 2630              		.section	.text.CyDmaSetSrcDstTransferWidth,"ax",%progbits
 2631              		.align	2
 2632              		.global	CyDmaSetSrcDstTransferWidth
 2633              		.code	16
 2634              		.thumb_func
 2635              		.type	CyDmaSetSrcDstTransferWidth, %function
 2636              	CyDmaSetSrcDstTransferWidth:
 2637              	.LFB37:
1080:Generated_Source\PSoC4/CyDMA.c **** 
1081:Generated_Source\PSoC4/CyDMA.c **** 
1082:Generated_Source\PSoC4/CyDMA.c **** /*******************************************************************************
1083:Generated_Source\PSoC4/CyDMA.c **** * Function Name: CyDmaSetSrcDstTransferWidth
1084:Generated_Source\PSoC4/CyDMA.c **** ********************************************************************************
1085:Generated_Source\PSoC4/CyDMA.c **** *
1086:Generated_Source\PSoC4/CyDMA.c **** * Summary:
1087:Generated_Source\PSoC4/CyDMA.c **** *  Sets the width of the source and destination. The DMA can either read and
1088:Generated_Source\PSoC4/CyDMA.c **** *  write data from the source and destination at the size specified by
1089:Generated_Source\PSoC4/CyDMA.c **** *  CyDmaSetDataElementSize() or by a word (4bytes). This also determines how
1090:Generated_Source\PSoC4/CyDMA.c **** *  many bytes the addresses are incremented if increment source and destination
1091:Generated_Source\PSoC4/CyDMA.c **** *  address are turned on.
1092:Generated_Source\PSoC4/CyDMA.c **** *
1093:Generated_Source\PSoC4/CyDMA.c **** * Parameters:
1094:Generated_Source\PSoC4/CyDMA.c **** *  channel:       Channel used by this function.
1095:Generated_Source\PSoC4/CyDMA.c **** *  descriptor:    Descriptor (0 or 1) modified by this function.
1096:Generated_Source\PSoC4/CyDMA.c **** *  transferWidth: Specifies the source and destination widths. Refer to 
1097:Generated_Source\PSoC4/CyDMA.c **** *                 the API bit field definitions in CyDMA_P4.h or the API
1098:Generated_Source\PSoC4/CyDMA.c **** *                 description in the DMA channel datasheet for the parameter
1099:Generated_Source\PSoC4/CyDMA.c **** *                 options.
1100:Generated_Source\PSoC4/CyDMA.c **** *                   
1101:Generated_Source\PSoC4/CyDMA.c **** * Return:
1102:Generated_Source\PSoC4/CyDMA.c **** *  None.
1103:Generated_Source\PSoC4/CyDMA.c **** *
1104:Generated_Source\PSoC4/CyDMA.c **** * Side effect:
1105:Generated_Source\PSoC4/CyDMA.c **** *  This function should not be called when the specified descriptor is active
1106:Generated_Source\PSoC4/CyDMA.c **** *  in the DMA transfer engine. This can be checked by calling CyDmaGetStatus(). 
1107:Generated_Source\PSoC4/CyDMA.c **** *
1108:Generated_Source\PSoC4/CyDMA.c **** *******************************************************************************/
1109:Generated_Source\PSoC4/CyDMA.c **** void CyDmaSetSrcDstTransferWidth(int32 channel, int32 descriptor, uint32 transferWidth)
1110:Generated_Source\PSoC4/CyDMA.c **** {
 2638              		.loc 1 1110 0
 2639              		.cfi_startproc
 2640              		@ args = 0, pretend = 0, frame = 24
 2641              		@ frame_needed = 1, uses_anonymous_args = 0
 2642 0000 80B5     		push	{r7, lr}
ARM GAS  C:\Users\HPz420\AppData\Local\Temp\ccz4K5YU.s 			page 67


 2643              		.cfi_def_cfa_offset 8
 2644              		.cfi_offset 7, -8
 2645              		.cfi_offset 14, -4
 2646 0002 86B0     		sub	sp, sp, #24
 2647              		.cfi_def_cfa_offset 32
 2648 0004 00AF     		add	r7, sp, #0
 2649              		.cfi_def_cfa_register 7
 2650 0006 F860     		str	r0, [r7, #12]
 2651 0008 B960     		str	r1, [r7, #8]
 2652 000a 7A60     		str	r2, [r7, #4]
1111:Generated_Source\PSoC4/CyDMA.c ****     uint32 regValue;
1112:Generated_Source\PSoC4/CyDMA.c **** 
1113:Generated_Source\PSoC4/CyDMA.c ****     CYASSERT((channel    >= 0) && (channel    < CYDMA_CH_NR));
 2653              		.loc 1 1113 0
 2654 000c FB68     		ldr	r3, [r7, #12]
 2655 000e 002B     		cmp	r3, #0
 2656 0010 04DB     		blt	.L248
 2657              		.loc 1 1113 0 is_stmt 0 discriminator 1
 2658 0012 FB68     		ldr	r3, [r7, #12]
 2659 0014 1F2B     		cmp	r3, #31
 2660 0016 01DC     		bgt	.L248
 2661              		.loc 1 1113 0 discriminator 3
 2662 0018 0123     		movs	r3, #1
 2663 001a 00E0     		b	.L249
 2664              	.L248:
 2665              		.loc 1 1113 0 discriminator 4
 2666 001c 0023     		movs	r3, #0
 2667              	.L249:
 2668              		.loc 1 1113 0 discriminator 6
 2669 001e 002B     		cmp	r3, #0
 2670 0020 02D1     		bne	.L250
 2671              		.loc 1 1113 0 discriminator 7
 2672 0022 0020     		movs	r0, #0
 2673 0024 FFF7FEFF 		bl	CyHalt
 2674              	.L250:
1114:Generated_Source\PSoC4/CyDMA.c ****     CYASSERT((descriptor >= 0) && (descriptor < CYDMA_DESCR_NR));
 2675              		.loc 1 1114 0 is_stmt 1
 2676 0028 BB68     		ldr	r3, [r7, #8]
 2677 002a 002B     		cmp	r3, #0
 2678 002c 04DB     		blt	.L251
 2679              		.loc 1 1114 0 is_stmt 0 discriminator 1
 2680 002e BB68     		ldr	r3, [r7, #8]
 2681 0030 012B     		cmp	r3, #1
 2682 0032 01DC     		bgt	.L251
 2683              		.loc 1 1114 0 discriminator 3
 2684 0034 0123     		movs	r3, #1
 2685 0036 00E0     		b	.L252
 2686              	.L251:
 2687              		.loc 1 1114 0 discriminator 4
 2688 0038 0023     		movs	r3, #0
 2689              	.L252:
 2690              		.loc 1 1114 0 discriminator 6
 2691 003a 002B     		cmp	r3, #0
 2692 003c 02D1     		bne	.L253
 2693              		.loc 1 1114 0 discriminator 7
 2694 003e 0020     		movs	r0, #0
 2695 0040 FFF7FEFF 		bl	CyHalt
ARM GAS  C:\Users\HPz420\AppData\Local\Temp\ccz4K5YU.s 			page 68


 2696              	.L253:
1115:Generated_Source\PSoC4/CyDMA.c ****     CYASSERT(0u == (transferWidth & (uint32)~CYDMA_TRANSFER_WIDTH));
 2697              		.loc 1 1115 0 is_stmt 1
 2698 0044 7B68     		ldr	r3, [r7, #4]
 2699 0046 114A     		ldr	r2, .L255
 2700 0048 1340     		ands	r3, r2
 2701 004a 02D0     		beq	.L254
 2702              		.loc 1 1115 0 is_stmt 0 discriminator 1
 2703 004c 0020     		movs	r0, #0
 2704 004e FFF7FEFF 		bl	CyHalt
 2705              	.L254:
1116:Generated_Source\PSoC4/CyDMA.c **** 
1117:Generated_Source\PSoC4/CyDMA.c ****     regValue = CYDMA_DESCR_BASE.descriptor[channel][descriptor].ctl & (uint32)~CYDMA_TRANSFER_WIDTH
 2706              		.loc 1 1117 0 is_stmt 1
 2707 0052 0F49     		ldr	r1, .L255+4
 2708 0054 FB68     		ldr	r3, [r7, #12]
 2709 0056 5A00     		lsls	r2, r3, #1
 2710 0058 BB68     		ldr	r3, [r7, #8]
 2711 005a D318     		adds	r3, r2, r3
 2712 005c 1B01     		lsls	r3, r3, #4
 2713 005e CB18     		adds	r3, r1, r3
 2714 0060 0833     		adds	r3, r3, #8
 2715 0062 1B68     		ldr	r3, [r3]
 2716 0064 094A     		ldr	r2, .L255
 2717 0066 1340     		ands	r3, r2
 2718 0068 7B61     		str	r3, [r7, #20]
1118:Generated_Source\PSoC4/CyDMA.c ****     CYDMA_DESCR_BASE.descriptor[channel][descriptor].ctl = regValue | transferWidth;
 2719              		.loc 1 1118 0
 2720 006a 0948     		ldr	r0, .L255+4
 2721 006c 7A69     		ldr	r2, [r7, #20]
 2722 006e 7B68     		ldr	r3, [r7, #4]
 2723 0070 1A43     		orrs	r2, r3
 2724 0072 FB68     		ldr	r3, [r7, #12]
 2725 0074 5900     		lsls	r1, r3, #1
 2726 0076 BB68     		ldr	r3, [r7, #8]
 2727 0078 CB18     		adds	r3, r1, r3
 2728 007a 1B01     		lsls	r3, r3, #4
 2729 007c C318     		adds	r3, r0, r3
 2730 007e 0833     		adds	r3, r3, #8
 2731 0080 1A60     		str	r2, [r3]
1119:Generated_Source\PSoC4/CyDMA.c **** }
 2732              		.loc 1 1119 0
 2733 0082 C046     		nop
 2734 0084 BD46     		mov	sp, r7
 2735 0086 06B0     		add	sp, sp, #24
 2736              		@ sp needed
 2737 0088 80BD     		pop	{r7, pc}
 2738              	.L256:
 2739 008a C046     		.align	2
 2740              	.L255:
 2741 008c FFFFAFFF 		.word	-5242881
 2742 0090 00181040 		.word	1074796544
 2743              		.cfi_endproc
 2744              	.LFE37:
 2745              		.size	CyDmaSetSrcDstTransferWidth, .-CyDmaSetSrcDstTransferWidth
 2746              		.section	.text.CyDmaGetSrcDstTransferWidth,"ax",%progbits
 2747              		.align	2
ARM GAS  C:\Users\HPz420\AppData\Local\Temp\ccz4K5YU.s 			page 69


 2748              		.global	CyDmaGetSrcDstTransferWidth
 2749              		.code	16
 2750              		.thumb_func
 2751              		.type	CyDmaGetSrcDstTransferWidth, %function
 2752              	CyDmaGetSrcDstTransferWidth:
 2753              	.LFB38:
1120:Generated_Source\PSoC4/CyDMA.c **** 
1121:Generated_Source\PSoC4/CyDMA.c **** 
1122:Generated_Source\PSoC4/CyDMA.c **** /*******************************************************************************
1123:Generated_Source\PSoC4/CyDMA.c **** * Function Name: CyDmaGetSrcDstTransferWidth
1124:Generated_Source\PSoC4/CyDMA.c **** ********************************************************************************
1125:Generated_Source\PSoC4/CyDMA.c **** *
1126:Generated_Source\PSoC4/CyDMA.c **** * Summary:
1127:Generated_Source\PSoC4/CyDMA.c **** *  Returns the width of the source and destination, as set by 
1128:Generated_Source\PSoC4/CyDMA.c **** *  CyDmaSetSrcDstTransferWidth() or CyDmaSetConfiguration().
1129:Generated_Source\PSoC4/CyDMA.c **** *
1130:Generated_Source\PSoC4/CyDMA.c **** * Parameters:
1131:Generated_Source\PSoC4/CyDMA.c **** *  channel:    Channel used by this function.
1132:Generated_Source\PSoC4/CyDMA.c **** *  descriptor: Descriptor (0 or 1) modified by this function.
1133:Generated_Source\PSoC4/CyDMA.c **** *                   
1134:Generated_Source\PSoC4/CyDMA.c **** * Return:
1135:Generated_Source\PSoC4/CyDMA.c **** *  Width of source and destination. Refer to the API bit field definitions in
1136:Generated_Source\PSoC4/CyDMA.c **** *  CyDMA_P4.h or the API description in the DMA channel datasheet for more
1137:Generated_Source\PSoC4/CyDMA.c **** *  information.
1138:Generated_Source\PSoC4/CyDMA.c **** *
1139:Generated_Source\PSoC4/CyDMA.c **** *******************************************************************************/
1140:Generated_Source\PSoC4/CyDMA.c **** uint32 CyDmaGetSrcDstTransferWidth(int32 channel, int32 descriptor)
1141:Generated_Source\PSoC4/CyDMA.c **** {
 2754              		.loc 1 1141 0
 2755              		.cfi_startproc
 2756              		@ args = 0, pretend = 0, frame = 8
 2757              		@ frame_needed = 1, uses_anonymous_args = 0
 2758 0000 80B5     		push	{r7, lr}
 2759              		.cfi_def_cfa_offset 8
 2760              		.cfi_offset 7, -8
 2761              		.cfi_offset 14, -4
 2762 0002 82B0     		sub	sp, sp, #8
 2763              		.cfi_def_cfa_offset 16
 2764 0004 00AF     		add	r7, sp, #0
 2765              		.cfi_def_cfa_register 7
 2766 0006 7860     		str	r0, [r7, #4]
 2767 0008 3960     		str	r1, [r7]
1142:Generated_Source\PSoC4/CyDMA.c ****     CYASSERT((channel    >= 0) && (channel    < CYDMA_CH_NR));
 2768              		.loc 1 1142 0
 2769 000a 7B68     		ldr	r3, [r7, #4]
 2770 000c 002B     		cmp	r3, #0
 2771 000e 04DB     		blt	.L258
 2772              		.loc 1 1142 0 is_stmt 0 discriminator 1
 2773 0010 7B68     		ldr	r3, [r7, #4]
 2774 0012 1F2B     		cmp	r3, #31
 2775 0014 01DC     		bgt	.L258
 2776              		.loc 1 1142 0 discriminator 3
 2777 0016 0123     		movs	r3, #1
 2778 0018 00E0     		b	.L259
 2779              	.L258:
 2780              		.loc 1 1142 0 discriminator 4
 2781 001a 0023     		movs	r3, #0
ARM GAS  C:\Users\HPz420\AppData\Local\Temp\ccz4K5YU.s 			page 70


 2782              	.L259:
 2783              		.loc 1 1142 0 discriminator 6
 2784 001c 002B     		cmp	r3, #0
 2785 001e 02D1     		bne	.L260
 2786              		.loc 1 1142 0 discriminator 7
 2787 0020 0020     		movs	r0, #0
 2788 0022 FFF7FEFF 		bl	CyHalt
 2789              	.L260:
1143:Generated_Source\PSoC4/CyDMA.c ****     CYASSERT((descriptor >= 0) && (descriptor < CYDMA_DESCR_NR));
 2790              		.loc 1 1143 0 is_stmt 1
 2791 0026 3B68     		ldr	r3, [r7]
 2792 0028 002B     		cmp	r3, #0
 2793 002a 04DB     		blt	.L261
 2794              		.loc 1 1143 0 is_stmt 0 discriminator 1
 2795 002c 3B68     		ldr	r3, [r7]
 2796 002e 012B     		cmp	r3, #1
 2797 0030 01DC     		bgt	.L261
 2798              		.loc 1 1143 0 discriminator 3
 2799 0032 0123     		movs	r3, #1
 2800 0034 00E0     		b	.L262
 2801              	.L261:
 2802              		.loc 1 1143 0 discriminator 4
 2803 0036 0023     		movs	r3, #0
 2804              	.L262:
 2805              		.loc 1 1143 0 discriminator 6
 2806 0038 002B     		cmp	r3, #0
 2807 003a 02D1     		bne	.L263
 2808              		.loc 1 1143 0 discriminator 7
 2809 003c 0020     		movs	r0, #0
 2810 003e FFF7FEFF 		bl	CyHalt
 2811              	.L263:
1144:Generated_Source\PSoC4/CyDMA.c ****     return (CYDMA_DESCR_BASE.descriptor[channel][descriptor].ctl & CYDMA_TRANSFER_WIDTH);
 2812              		.loc 1 1144 0 is_stmt 1
 2813 0042 0849     		ldr	r1, .L265
 2814 0044 7B68     		ldr	r3, [r7, #4]
 2815 0046 5A00     		lsls	r2, r3, #1
 2816 0048 3B68     		ldr	r3, [r7]
 2817 004a D318     		adds	r3, r2, r3
 2818 004c 1B01     		lsls	r3, r3, #4
 2819 004e CB18     		adds	r3, r1, r3
 2820 0050 0833     		adds	r3, r3, #8
 2821 0052 1A68     		ldr	r2, [r3]
 2822 0054 A023     		movs	r3, #160
 2823 0056 DB03     		lsls	r3, r3, #15
 2824 0058 1340     		ands	r3, r2
1145:Generated_Source\PSoC4/CyDMA.c **** }
 2825              		.loc 1 1145 0
 2826 005a 1800     		movs	r0, r3
 2827 005c BD46     		mov	sp, r7
 2828 005e 02B0     		add	sp, sp, #8
 2829              		@ sp needed
 2830 0060 80BD     		pop	{r7, pc}
 2831              	.L266:
 2832 0062 C046     		.align	2
 2833              	.L265:
 2834 0064 00181040 		.word	1074796544
 2835              		.cfi_endproc
ARM GAS  C:\Users\HPz420\AppData\Local\Temp\ccz4K5YU.s 			page 71


 2836              	.LFE38:
 2837              		.size	CyDmaGetSrcDstTransferWidth, .-CyDmaGetSrcDstTransferWidth
 2838              		.section	.text.CyDmaSetAddressIncrement,"ax",%progbits
 2839              		.align	2
 2840              		.global	CyDmaSetAddressIncrement
 2841              		.code	16
 2842              		.thumb_func
 2843              		.type	CyDmaSetAddressIncrement, %function
 2844              	CyDmaSetAddressIncrement:
 2845              	.LFB39:
1146:Generated_Source\PSoC4/CyDMA.c **** 
1147:Generated_Source\PSoC4/CyDMA.c **** 
1148:Generated_Source\PSoC4/CyDMA.c **** /*******************************************************************************
1149:Generated_Source\PSoC4/CyDMA.c **** * Function Name: CyDmaSetAddressIncrement
1150:Generated_Source\PSoC4/CyDMA.c **** ********************************************************************************
1151:Generated_Source\PSoC4/CyDMA.c **** *
1152:Generated_Source\PSoC4/CyDMA.c **** * Summary:
1153:Generated_Source\PSoC4/CyDMA.c **** *  Sets whether the source or destination addresses are incremented after the
1154:Generated_Source\PSoC4/CyDMA.c **** *  transfer of each data element. The amount that the source and destination
1155:Generated_Source\PSoC4/CyDMA.c **** *  address are incremented is determined by the CyDmaSetSrcDstTransferWidth()
1156:Generated_Source\PSoC4/CyDMA.c **** *  function. The addresses will either be incremented by the data element size
1157:Generated_Source\PSoC4/CyDMA.c **** *  or by a word (4 bytes).
1158:Generated_Source\PSoC4/CyDMA.c **** *
1159:Generated_Source\PSoC4/CyDMA.c **** * Parameters:
1160:Generated_Source\PSoC4/CyDMA.c **** *  channel:          Channel used by this function.
1161:Generated_Source\PSoC4/CyDMA.c **** *  descriptor:       Descriptor (0 or 1) modified by this function.
1162:Generated_Source\PSoC4/CyDMA.c **** *  addressIncrement: Address increment settings. Refer to the API bit fields 
1163:Generated_Source\PSoC4/CyDMA.c **** *                    definition in CyDMA_P4.h or the API description in the DMA
1164:Generated_Source\PSoC4/CyDMA.c **** *                    channel datasheet for the parameter options.
1165:Generated_Source\PSoC4/CyDMA.c **** *    
1166:Generated_Source\PSoC4/CyDMA.c **** * Return:
1167:Generated_Source\PSoC4/CyDMA.c **** *  None.
1168:Generated_Source\PSoC4/CyDMA.c **** *
1169:Generated_Source\PSoC4/CyDMA.c **** * Side effect:
1170:Generated_Source\PSoC4/CyDMA.c **** *  This function should not be called when the specified descriptor is active
1171:Generated_Source\PSoC4/CyDMA.c **** *  in the DMA transfer engine. This can be checked by calling CyDmaGetStatus(). 
1172:Generated_Source\PSoC4/CyDMA.c **** *
1173:Generated_Source\PSoC4/CyDMA.c **** *******************************************************************************/
1174:Generated_Source\PSoC4/CyDMA.c **** void CyDmaSetAddressIncrement(int32 channel, int32 descriptor, uint32 addressIncrement)
1175:Generated_Source\PSoC4/CyDMA.c **** {
 2846              		.loc 1 1175 0
 2847              		.cfi_startproc
 2848              		@ args = 0, pretend = 0, frame = 24
 2849              		@ frame_needed = 1, uses_anonymous_args = 0
 2850 0000 80B5     		push	{r7, lr}
 2851              		.cfi_def_cfa_offset 8
 2852              		.cfi_offset 7, -8
 2853              		.cfi_offset 14, -4
 2854 0002 86B0     		sub	sp, sp, #24
 2855              		.cfi_def_cfa_offset 32
 2856 0004 00AF     		add	r7, sp, #0
 2857              		.cfi_def_cfa_register 7
 2858 0006 F860     		str	r0, [r7, #12]
 2859 0008 B960     		str	r1, [r7, #8]
 2860 000a 7A60     		str	r2, [r7, #4]
1176:Generated_Source\PSoC4/CyDMA.c ****     uint32 regValue;
1177:Generated_Source\PSoC4/CyDMA.c **** 
ARM GAS  C:\Users\HPz420\AppData\Local\Temp\ccz4K5YU.s 			page 72


1178:Generated_Source\PSoC4/CyDMA.c ****     CYASSERT((channel    >= 0) && (channel    < CYDMA_CH_NR));
 2861              		.loc 1 1178 0
 2862 000c FB68     		ldr	r3, [r7, #12]
 2863 000e 002B     		cmp	r3, #0
 2864 0010 04DB     		blt	.L268
 2865              		.loc 1 1178 0 is_stmt 0 discriminator 1
 2866 0012 FB68     		ldr	r3, [r7, #12]
 2867 0014 1F2B     		cmp	r3, #31
 2868 0016 01DC     		bgt	.L268
 2869              		.loc 1 1178 0 discriminator 3
 2870 0018 0123     		movs	r3, #1
 2871 001a 00E0     		b	.L269
 2872              	.L268:
 2873              		.loc 1 1178 0 discriminator 4
 2874 001c 0023     		movs	r3, #0
 2875              	.L269:
 2876              		.loc 1 1178 0 discriminator 6
 2877 001e 002B     		cmp	r3, #0
 2878 0020 02D1     		bne	.L270
 2879              		.loc 1 1178 0 discriminator 7
 2880 0022 0020     		movs	r0, #0
 2881 0024 FFF7FEFF 		bl	CyHalt
 2882              	.L270:
1179:Generated_Source\PSoC4/CyDMA.c ****     CYASSERT((descriptor >= 0) && (descriptor < CYDMA_DESCR_NR));
 2883              		.loc 1 1179 0 is_stmt 1
 2884 0028 BB68     		ldr	r3, [r7, #8]
 2885 002a 002B     		cmp	r3, #0
 2886 002c 04DB     		blt	.L271
 2887              		.loc 1 1179 0 is_stmt 0 discriminator 1
 2888 002e BB68     		ldr	r3, [r7, #8]
 2889 0030 012B     		cmp	r3, #1
 2890 0032 01DC     		bgt	.L271
 2891              		.loc 1 1179 0 discriminator 3
 2892 0034 0123     		movs	r3, #1
 2893 0036 00E0     		b	.L272
 2894              	.L271:
 2895              		.loc 1 1179 0 discriminator 4
 2896 0038 0023     		movs	r3, #0
 2897              	.L272:
 2898              		.loc 1 1179 0 discriminator 6
 2899 003a 002B     		cmp	r3, #0
 2900 003c 02D1     		bne	.L273
 2901              		.loc 1 1179 0 discriminator 7
 2902 003e 0020     		movs	r0, #0
 2903 0040 FFF7FEFF 		bl	CyHalt
 2904              	.L273:
1180:Generated_Source\PSoC4/CyDMA.c ****     CYASSERT(0u == (addressIncrement & (uint32)~CYDMA_ADDR_INCR));
 2905              		.loc 1 1180 0 is_stmt 1
 2906 0044 7B68     		ldr	r3, [r7, #4]
 2907 0046 114A     		ldr	r2, .L275
 2908 0048 1340     		ands	r3, r2
 2909 004a 02D0     		beq	.L274
 2910              		.loc 1 1180 0 is_stmt 0 discriminator 1
 2911 004c 0020     		movs	r0, #0
 2912 004e FFF7FEFF 		bl	CyHalt
 2913              	.L274:
1181:Generated_Source\PSoC4/CyDMA.c **** 
ARM GAS  C:\Users\HPz420\AppData\Local\Temp\ccz4K5YU.s 			page 73


1182:Generated_Source\PSoC4/CyDMA.c ****     regValue = CYDMA_DESCR_BASE.descriptor[channel][descriptor].ctl & (uint32)~CYDMA_ADDR_INCR;
 2914              		.loc 1 1182 0 is_stmt 1
 2915 0052 0F49     		ldr	r1, .L275+4
 2916 0054 FB68     		ldr	r3, [r7, #12]
 2917 0056 5A00     		lsls	r2, r3, #1
 2918 0058 BB68     		ldr	r3, [r7, #8]
 2919 005a D318     		adds	r3, r2, r3
 2920 005c 1B01     		lsls	r3, r3, #4
 2921 005e CB18     		adds	r3, r1, r3
 2922 0060 0833     		adds	r3, r3, #8
 2923 0062 1B68     		ldr	r3, [r3]
 2924 0064 094A     		ldr	r2, .L275
 2925 0066 1340     		ands	r3, r2
 2926 0068 7B61     		str	r3, [r7, #20]
1183:Generated_Source\PSoC4/CyDMA.c ****     CYDMA_DESCR_BASE.descriptor[channel][descriptor].ctl = regValue | addressIncrement;
 2927              		.loc 1 1183 0
 2928 006a 0948     		ldr	r0, .L275+4
 2929 006c 7A69     		ldr	r2, [r7, #20]
 2930 006e 7B68     		ldr	r3, [r7, #4]
 2931 0070 1A43     		orrs	r2, r3
 2932 0072 FB68     		ldr	r3, [r7, #12]
 2933 0074 5900     		lsls	r1, r3, #1
 2934 0076 BB68     		ldr	r3, [r7, #8]
 2935 0078 CB18     		adds	r3, r1, r3
 2936 007a 1B01     		lsls	r3, r3, #4
 2937 007c C318     		adds	r3, r0, r3
 2938 007e 0833     		adds	r3, r3, #8
 2939 0080 1A60     		str	r2, [r3]
1184:Generated_Source\PSoC4/CyDMA.c **** }
 2940              		.loc 1 1184 0
 2941 0082 C046     		nop
 2942 0084 BD46     		mov	sp, r7
 2943 0086 06B0     		add	sp, sp, #24
 2944              		@ sp needed
 2945 0088 80BD     		pop	{r7, pc}
 2946              	.L276:
 2947 008a C046     		.align	2
 2948              	.L275:
 2949 008c FFFF5FFF 		.word	-10485761
 2950 0090 00181040 		.word	1074796544
 2951              		.cfi_endproc
 2952              	.LFE39:
 2953              		.size	CyDmaSetAddressIncrement, .-CyDmaSetAddressIncrement
 2954              		.section	.text.CyDmaGetAddressIncrement,"ax",%progbits
 2955              		.align	2
 2956              		.global	CyDmaGetAddressIncrement
 2957              		.code	16
 2958              		.thumb_func
 2959              		.type	CyDmaGetAddressIncrement, %function
 2960              	CyDmaGetAddressIncrement:
 2961              	.LFB40:
1185:Generated_Source\PSoC4/CyDMA.c **** 
1186:Generated_Source\PSoC4/CyDMA.c **** 
1187:Generated_Source\PSoC4/CyDMA.c **** /*******************************************************************************
1188:Generated_Source\PSoC4/CyDMA.c **** * Function Name: CyDmaGetAddressIncrement
1189:Generated_Source\PSoC4/CyDMA.c **** ********************************************************************************
1190:Generated_Source\PSoC4/CyDMA.c **** *
ARM GAS  C:\Users\HPz420\AppData\Local\Temp\ccz4K5YU.s 			page 74


1191:Generated_Source\PSoC4/CyDMA.c **** * Summary:
1192:Generated_Source\PSoC4/CyDMA.c **** *  Returns address increment settings as set by CyDmaSetAddressIncrement() or
1193:Generated_Source\PSoC4/CyDMA.c **** *  CyDmaSetConfiguration().
1194:Generated_Source\PSoC4/CyDMA.c **** *
1195:Generated_Source\PSoC4/CyDMA.c **** * Parameters:
1196:Generated_Source\PSoC4/CyDMA.c **** *  channel:    Channel used by this function.
1197:Generated_Source\PSoC4/CyDMA.c **** *  descriptor: Descriptor (0 or 1) modified by this function.
1198:Generated_Source\PSoC4/CyDMA.c **** *                   
1199:Generated_Source\PSoC4/CyDMA.c **** * Return:
1200:Generated_Source\PSoC4/CyDMA.c **** *  Address increment settings. Refer to the API bit field definitions in
1201:Generated_Source\PSoC4/CyDMA.c **** *  CyDMA_P4.h or the API description in the DMA channel datasheet for more
1202:Generated_Source\PSoC4/CyDMA.c **** *  information.
1203:Generated_Source\PSoC4/CyDMA.c **** *
1204:Generated_Source\PSoC4/CyDMA.c **** *******************************************************************************/
1205:Generated_Source\PSoC4/CyDMA.c **** uint32 CyDmaGetAddressIncrement(int32 channel, int32 descriptor)
1206:Generated_Source\PSoC4/CyDMA.c **** {
 2962              		.loc 1 1206 0
 2963              		.cfi_startproc
 2964              		@ args = 0, pretend = 0, frame = 8
 2965              		@ frame_needed = 1, uses_anonymous_args = 0
 2966 0000 80B5     		push	{r7, lr}
 2967              		.cfi_def_cfa_offset 8
 2968              		.cfi_offset 7, -8
 2969              		.cfi_offset 14, -4
 2970 0002 82B0     		sub	sp, sp, #8
 2971              		.cfi_def_cfa_offset 16
 2972 0004 00AF     		add	r7, sp, #0
 2973              		.cfi_def_cfa_register 7
 2974 0006 7860     		str	r0, [r7, #4]
 2975 0008 3960     		str	r1, [r7]
1207:Generated_Source\PSoC4/CyDMA.c ****     CYASSERT((channel    >= 0) && (channel    < CYDMA_CH_NR));
 2976              		.loc 1 1207 0
 2977 000a 7B68     		ldr	r3, [r7, #4]
 2978 000c 002B     		cmp	r3, #0
 2979 000e 04DB     		blt	.L278
 2980              		.loc 1 1207 0 is_stmt 0 discriminator 1
 2981 0010 7B68     		ldr	r3, [r7, #4]
 2982 0012 1F2B     		cmp	r3, #31
 2983 0014 01DC     		bgt	.L278
 2984              		.loc 1 1207 0 discriminator 3
 2985 0016 0123     		movs	r3, #1
 2986 0018 00E0     		b	.L279
 2987              	.L278:
 2988              		.loc 1 1207 0 discriminator 4
 2989 001a 0023     		movs	r3, #0
 2990              	.L279:
 2991              		.loc 1 1207 0 discriminator 6
 2992 001c 002B     		cmp	r3, #0
 2993 001e 02D1     		bne	.L280
 2994              		.loc 1 1207 0 discriminator 7
 2995 0020 0020     		movs	r0, #0
 2996 0022 FFF7FEFF 		bl	CyHalt
 2997              	.L280:
1208:Generated_Source\PSoC4/CyDMA.c ****     CYASSERT((descriptor >= 0) && (descriptor < CYDMA_DESCR_NR));
 2998              		.loc 1 1208 0 is_stmt 1
 2999 0026 3B68     		ldr	r3, [r7]
 3000 0028 002B     		cmp	r3, #0
ARM GAS  C:\Users\HPz420\AppData\Local\Temp\ccz4K5YU.s 			page 75


 3001 002a 04DB     		blt	.L281
 3002              		.loc 1 1208 0 is_stmt 0 discriminator 1
 3003 002c 3B68     		ldr	r3, [r7]
 3004 002e 012B     		cmp	r3, #1
 3005 0030 01DC     		bgt	.L281
 3006              		.loc 1 1208 0 discriminator 3
 3007 0032 0123     		movs	r3, #1
 3008 0034 00E0     		b	.L282
 3009              	.L281:
 3010              		.loc 1 1208 0 discriminator 4
 3011 0036 0023     		movs	r3, #0
 3012              	.L282:
 3013              		.loc 1 1208 0 discriminator 6
 3014 0038 002B     		cmp	r3, #0
 3015 003a 02D1     		bne	.L283
 3016              		.loc 1 1208 0 discriminator 7
 3017 003c 0020     		movs	r0, #0
 3018 003e FFF7FEFF 		bl	CyHalt
 3019              	.L283:
1209:Generated_Source\PSoC4/CyDMA.c **** 
1210:Generated_Source\PSoC4/CyDMA.c ****     return (CYDMA_DESCR_BASE.descriptor[channel][descriptor].ctl & CYDMA_ADDR_INCR);
 3020              		.loc 1 1210 0 is_stmt 1
 3021 0042 0849     		ldr	r1, .L285
 3022 0044 7B68     		ldr	r3, [r7, #4]
 3023 0046 5A00     		lsls	r2, r3, #1
 3024 0048 3B68     		ldr	r3, [r7]
 3025 004a D318     		adds	r3, r2, r3
 3026 004c 1B01     		lsls	r3, r3, #4
 3027 004e CB18     		adds	r3, r1, r3
 3028 0050 0833     		adds	r3, r3, #8
 3029 0052 1A68     		ldr	r2, [r3]
 3030 0054 A023     		movs	r3, #160
 3031 0056 1B04     		lsls	r3, r3, #16
 3032 0058 1340     		ands	r3, r2
1211:Generated_Source\PSoC4/CyDMA.c **** }
 3033              		.loc 1 1211 0
 3034 005a 1800     		movs	r0, r3
 3035 005c BD46     		mov	sp, r7
 3036 005e 02B0     		add	sp, sp, #8
 3037              		@ sp needed
 3038 0060 80BD     		pop	{r7, pc}
 3039              	.L286:
 3040 0062 C046     		.align	2
 3041              	.L285:
 3042 0064 00181040 		.word	1074796544
 3043              		.cfi_endproc
 3044              	.LFE40:
 3045              		.size	CyDmaGetAddressIncrement, .-CyDmaGetAddressIncrement
 3046              		.section	.text.CyDmaSetTriggerType,"ax",%progbits
 3047              		.align	2
 3048              		.global	CyDmaSetTriggerType
 3049              		.code	16
 3050              		.thumb_func
 3051              		.type	CyDmaSetTriggerType, %function
 3052              	CyDmaSetTriggerType:
 3053              	.LFB41:
1212:Generated_Source\PSoC4/CyDMA.c **** 
ARM GAS  C:\Users\HPz420\AppData\Local\Temp\ccz4K5YU.s 			page 76


1213:Generated_Source\PSoC4/CyDMA.c **** 
1214:Generated_Source\PSoC4/CyDMA.c **** /*******************************************************************************
1215:Generated_Source\PSoC4/CyDMA.c **** * Function Name: CyDmaSetTriggerType
1216:Generated_Source\PSoC4/CyDMA.c **** ********************************************************************************
1217:Generated_Source\PSoC4/CyDMA.c **** *
1218:Generated_Source\PSoC4/CyDMA.c **** * Summary:
1219:Generated_Source\PSoC4/CyDMA.c **** *  Sets the type of input trigger for the DMA For level sensitive triggers sets
1220:Generated_Source\PSoC4/CyDMA.c **** *  how long the DMA waits for the trigger to go low (deactivate) before
1221:Generated_Source\PSoC4/CyDMA.c **** *  triggering the channel again.
1222:Generated_Source\PSoC4/CyDMA.c **** *
1223:Generated_Source\PSoC4/CyDMA.c **** * Parameters:
1224:Generated_Source\PSoC4/CyDMA.c **** *  channel:     Channel used by this function.
1225:Generated_Source\PSoC4/CyDMA.c **** *  descriptor:  Descriptor (0 or 1) modified by this function.
1226:Generated_Source\PSoC4/CyDMA.c **** *  triggerType: Type of DMA trigger. Refer to the API bit field definitions
1227:Generated_Source\PSoC4/CyDMA.c **** *               in CyDMA_P4.h or the API description in the DMA channel
1228:Generated_Source\PSoC4/CyDMA.c **** *               datasheet for the parameter options.
1229:Generated_Source\PSoC4/CyDMA.c **** *                   
1230:Generated_Source\PSoC4/CyDMA.c **** * Return:
1231:Generated_Source\PSoC4/CyDMA.c **** *  None.
1232:Generated_Source\PSoC4/CyDMA.c **** *
1233:Generated_Source\PSoC4/CyDMA.c **** * Side effect:
1234:Generated_Source\PSoC4/CyDMA.c **** *  This function should not be called when the specified descriptor is active
1235:Generated_Source\PSoC4/CyDMA.c **** *  in the DMA transfer engine. This can be checked by calling CyDmaGetStatus(). 
1236:Generated_Source\PSoC4/CyDMA.c **** *
1237:Generated_Source\PSoC4/CyDMA.c **** *******************************************************************************/
1238:Generated_Source\PSoC4/CyDMA.c **** void CyDmaSetTriggerType(int32 channel, int32 descriptor, uint32 triggerType)
1239:Generated_Source\PSoC4/CyDMA.c **** {
 3054              		.loc 1 1239 0
 3055              		.cfi_startproc
 3056              		@ args = 0, pretend = 0, frame = 24
 3057              		@ frame_needed = 1, uses_anonymous_args = 0
 3058 0000 80B5     		push	{r7, lr}
 3059              		.cfi_def_cfa_offset 8
 3060              		.cfi_offset 7, -8
 3061              		.cfi_offset 14, -4
 3062 0002 86B0     		sub	sp, sp, #24
 3063              		.cfi_def_cfa_offset 32
 3064 0004 00AF     		add	r7, sp, #0
 3065              		.cfi_def_cfa_register 7
 3066 0006 F860     		str	r0, [r7, #12]
 3067 0008 B960     		str	r1, [r7, #8]
 3068 000a 7A60     		str	r2, [r7, #4]
1240:Generated_Source\PSoC4/CyDMA.c ****     uint32 regValue;
1241:Generated_Source\PSoC4/CyDMA.c **** 
1242:Generated_Source\PSoC4/CyDMA.c ****     CYASSERT((channel    >= 0) && (channel    < CYDMA_CH_NR));
 3069              		.loc 1 1242 0
 3070 000c FB68     		ldr	r3, [r7, #12]
 3071 000e 002B     		cmp	r3, #0
 3072 0010 04DB     		blt	.L288
 3073              		.loc 1 1242 0 is_stmt 0 discriminator 1
 3074 0012 FB68     		ldr	r3, [r7, #12]
 3075 0014 1F2B     		cmp	r3, #31
 3076 0016 01DC     		bgt	.L288
 3077              		.loc 1 1242 0 discriminator 3
 3078 0018 0123     		movs	r3, #1
 3079 001a 00E0     		b	.L289
 3080              	.L288:
ARM GAS  C:\Users\HPz420\AppData\Local\Temp\ccz4K5YU.s 			page 77


 3081              		.loc 1 1242 0 discriminator 4
 3082 001c 0023     		movs	r3, #0
 3083              	.L289:
 3084              		.loc 1 1242 0 discriminator 6
 3085 001e 002B     		cmp	r3, #0
 3086 0020 02D1     		bne	.L290
 3087              		.loc 1 1242 0 discriminator 7
 3088 0022 0020     		movs	r0, #0
 3089 0024 FFF7FEFF 		bl	CyHalt
 3090              	.L290:
1243:Generated_Source\PSoC4/CyDMA.c ****     CYASSERT((descriptor >= 0) && (descriptor < CYDMA_DESCR_NR));
 3091              		.loc 1 1243 0 is_stmt 1
 3092 0028 BB68     		ldr	r3, [r7, #8]
 3093 002a 002B     		cmp	r3, #0
 3094 002c 04DB     		blt	.L291
 3095              		.loc 1 1243 0 is_stmt 0 discriminator 1
 3096 002e BB68     		ldr	r3, [r7, #8]
 3097 0030 012B     		cmp	r3, #1
 3098 0032 01DC     		bgt	.L291
 3099              		.loc 1 1243 0 discriminator 3
 3100 0034 0123     		movs	r3, #1
 3101 0036 00E0     		b	.L292
 3102              	.L291:
 3103              		.loc 1 1243 0 discriminator 4
 3104 0038 0023     		movs	r3, #0
 3105              	.L292:
 3106              		.loc 1 1243 0 discriminator 6
 3107 003a 002B     		cmp	r3, #0
 3108 003c 02D1     		bne	.L293
 3109              		.loc 1 1243 0 discriminator 7
 3110 003e 0020     		movs	r0, #0
 3111 0040 FFF7FEFF 		bl	CyHalt
 3112              	.L293:
1244:Generated_Source\PSoC4/CyDMA.c ****     CYASSERT(0u == (triggerType & (uint32)~CYDMA_TRIGGER_TYPE));
 3113              		.loc 1 1244 0 is_stmt 1
 3114 0044 7B68     		ldr	r3, [r7, #4]
 3115 0046 114A     		ldr	r2, .L295
 3116 0048 1340     		ands	r3, r2
 3117 004a 02D0     		beq	.L294
 3118              		.loc 1 1244 0 is_stmt 0 discriminator 1
 3119 004c 0020     		movs	r0, #0
 3120 004e FFF7FEFF 		bl	CyHalt
 3121              	.L294:
1245:Generated_Source\PSoC4/CyDMA.c **** 
1246:Generated_Source\PSoC4/CyDMA.c ****     regValue = CYDMA_DESCR_BASE.descriptor[channel][descriptor].ctl & (uint32)~CYDMA_TRIGGER_TYPE;
 3122              		.loc 1 1246 0 is_stmt 1
 3123 0052 0F49     		ldr	r1, .L295+4
 3124 0054 FB68     		ldr	r3, [r7, #12]
 3125 0056 5A00     		lsls	r2, r3, #1
 3126 0058 BB68     		ldr	r3, [r7, #8]
 3127 005a D318     		adds	r3, r2, r3
 3128 005c 1B01     		lsls	r3, r3, #4
 3129 005e CB18     		adds	r3, r1, r3
 3130 0060 0833     		adds	r3, r3, #8
 3131 0062 1B68     		ldr	r3, [r3]
 3132 0064 094A     		ldr	r2, .L295
 3133 0066 1340     		ands	r3, r2
ARM GAS  C:\Users\HPz420\AppData\Local\Temp\ccz4K5YU.s 			page 78


 3134 0068 7B61     		str	r3, [r7, #20]
1247:Generated_Source\PSoC4/CyDMA.c ****     CYDMA_DESCR_BASE.descriptor[channel][descriptor].ctl = regValue | triggerType;
 3135              		.loc 1 1247 0
 3136 006a 0948     		ldr	r0, .L295+4
 3137 006c 7A69     		ldr	r2, [r7, #20]
 3138 006e 7B68     		ldr	r3, [r7, #4]
 3139 0070 1A43     		orrs	r2, r3
 3140 0072 FB68     		ldr	r3, [r7, #12]
 3141 0074 5900     		lsls	r1, r3, #1
 3142 0076 BB68     		ldr	r3, [r7, #8]
 3143 0078 CB18     		adds	r3, r1, r3
 3144 007a 1B01     		lsls	r3, r3, #4
 3145 007c C318     		adds	r3, r0, r3
 3146 007e 0833     		adds	r3, r3, #8
 3147 0080 1A60     		str	r2, [r3]
1248:Generated_Source\PSoC4/CyDMA.c **** }
 3148              		.loc 1 1248 0
 3149 0082 C046     		nop
 3150 0084 BD46     		mov	sp, r7
 3151 0086 06B0     		add	sp, sp, #24
 3152              		@ sp needed
 3153 0088 80BD     		pop	{r7, pc}
 3154              	.L296:
 3155 008a C046     		.align	2
 3156              	.L295:
 3157 008c FFFFFFFC 		.word	-50331649
 3158 0090 00181040 		.word	1074796544
 3159              		.cfi_endproc
 3160              	.LFE41:
 3161              		.size	CyDmaSetTriggerType, .-CyDmaSetTriggerType
 3162              		.section	.text.CyDmaGetTriggerType,"ax",%progbits
 3163              		.align	2
 3164              		.global	CyDmaGetTriggerType
 3165              		.code	16
 3166              		.thumb_func
 3167              		.type	CyDmaGetTriggerType, %function
 3168              	CyDmaGetTriggerType:
 3169              	.LFB42:
1249:Generated_Source\PSoC4/CyDMA.c **** 
1250:Generated_Source\PSoC4/CyDMA.c **** 
1251:Generated_Source\PSoC4/CyDMA.c **** /*******************************************************************************
1252:Generated_Source\PSoC4/CyDMA.c **** * Function Name: CyDmaGetTriggerType
1253:Generated_Source\PSoC4/CyDMA.c **** ********************************************************************************
1254:Generated_Source\PSoC4/CyDMA.c **** *
1255:Generated_Source\PSoC4/CyDMA.c **** * Summary:
1256:Generated_Source\PSoC4/CyDMA.c **** *  Returns the trigger deactivation settings as set by CyDmaSetTriggerType() or
1257:Generated_Source\PSoC4/CyDMA.c **** *  CyDmaSetConfiguration().
1258:Generated_Source\PSoC4/CyDMA.c **** *
1259:Generated_Source\PSoC4/CyDMA.c **** * Parameters:
1260:Generated_Source\PSoC4/CyDMA.c **** *  channel:    Channel used by this function.
1261:Generated_Source\PSoC4/CyDMA.c **** *  descriptor: Descriptor (0 or 1) modified by this function.
1262:Generated_Source\PSoC4/CyDMA.c **** *                   
1263:Generated_Source\PSoC4/CyDMA.c **** * Return:
1264:Generated_Source\PSoC4/CyDMA.c **** *  Trigger deactivation settings. Refer to the API bit field definitions in
1265:Generated_Source\PSoC4/CyDMA.c **** *  CyDMA_P4.h or the API description in the DMA channel datasheet for more
1266:Generated_Source\PSoC4/CyDMA.c **** *  information.
1267:Generated_Source\PSoC4/CyDMA.c **** *
ARM GAS  C:\Users\HPz420\AppData\Local\Temp\ccz4K5YU.s 			page 79


1268:Generated_Source\PSoC4/CyDMA.c **** *******************************************************************************/
1269:Generated_Source\PSoC4/CyDMA.c **** uint32 CyDmaGetTriggerType(int32 channel, int32 descriptor)
1270:Generated_Source\PSoC4/CyDMA.c **** {
 3170              		.loc 1 1270 0
 3171              		.cfi_startproc
 3172              		@ args = 0, pretend = 0, frame = 8
 3173              		@ frame_needed = 1, uses_anonymous_args = 0
 3174 0000 80B5     		push	{r7, lr}
 3175              		.cfi_def_cfa_offset 8
 3176              		.cfi_offset 7, -8
 3177              		.cfi_offset 14, -4
 3178 0002 82B0     		sub	sp, sp, #8
 3179              		.cfi_def_cfa_offset 16
 3180 0004 00AF     		add	r7, sp, #0
 3181              		.cfi_def_cfa_register 7
 3182 0006 7860     		str	r0, [r7, #4]
 3183 0008 3960     		str	r1, [r7]
1271:Generated_Source\PSoC4/CyDMA.c ****     CYASSERT((channel    >= 0) && (channel    < CYDMA_CH_NR));
 3184              		.loc 1 1271 0
 3185 000a 7B68     		ldr	r3, [r7, #4]
 3186 000c 002B     		cmp	r3, #0
 3187 000e 04DB     		blt	.L298
 3188              		.loc 1 1271 0 is_stmt 0 discriminator 1
 3189 0010 7B68     		ldr	r3, [r7, #4]
 3190 0012 1F2B     		cmp	r3, #31
 3191 0014 01DC     		bgt	.L298
 3192              		.loc 1 1271 0 discriminator 3
 3193 0016 0123     		movs	r3, #1
 3194 0018 00E0     		b	.L299
 3195              	.L298:
 3196              		.loc 1 1271 0 discriminator 4
 3197 001a 0023     		movs	r3, #0
 3198              	.L299:
 3199              		.loc 1 1271 0 discriminator 6
 3200 001c 002B     		cmp	r3, #0
 3201 001e 02D1     		bne	.L300
 3202              		.loc 1 1271 0 discriminator 7
 3203 0020 0020     		movs	r0, #0
 3204 0022 FFF7FEFF 		bl	CyHalt
 3205              	.L300:
1272:Generated_Source\PSoC4/CyDMA.c ****     CYASSERT((descriptor >= 0) && (descriptor < CYDMA_DESCR_NR));
 3206              		.loc 1 1272 0 is_stmt 1
 3207 0026 3B68     		ldr	r3, [r7]
 3208 0028 002B     		cmp	r3, #0
 3209 002a 04DB     		blt	.L301
 3210              		.loc 1 1272 0 is_stmt 0 discriminator 1
 3211 002c 3B68     		ldr	r3, [r7]
 3212 002e 012B     		cmp	r3, #1
 3213 0030 01DC     		bgt	.L301
 3214              		.loc 1 1272 0 discriminator 3
 3215 0032 0123     		movs	r3, #1
 3216 0034 00E0     		b	.L302
 3217              	.L301:
 3218              		.loc 1 1272 0 discriminator 4
 3219 0036 0023     		movs	r3, #0
 3220              	.L302:
 3221              		.loc 1 1272 0 discriminator 6
ARM GAS  C:\Users\HPz420\AppData\Local\Temp\ccz4K5YU.s 			page 80


 3222 0038 002B     		cmp	r3, #0
 3223 003a 02D1     		bne	.L303
 3224              		.loc 1 1272 0 discriminator 7
 3225 003c 0020     		movs	r0, #0
 3226 003e FFF7FEFF 		bl	CyHalt
 3227              	.L303:
1273:Generated_Source\PSoC4/CyDMA.c **** 
1274:Generated_Source\PSoC4/CyDMA.c ****     return (CYDMA_DESCR_BASE.descriptor[channel][descriptor].ctl & CYDMA_TRIGGER_TYPE);
 3228              		.loc 1 1274 0 is_stmt 1
 3229 0042 0849     		ldr	r1, .L305
 3230 0044 7B68     		ldr	r3, [r7, #4]
 3231 0046 5A00     		lsls	r2, r3, #1
 3232 0048 3B68     		ldr	r3, [r7]
 3233 004a D318     		adds	r3, r2, r3
 3234 004c 1B01     		lsls	r3, r3, #4
 3235 004e CB18     		adds	r3, r1, r3
 3236 0050 0833     		adds	r3, r3, #8
 3237 0052 1A68     		ldr	r2, [r3]
 3238 0054 C023     		movs	r3, #192
 3239 0056 9B04     		lsls	r3, r3, #18
 3240 0058 1340     		ands	r3, r2
1275:Generated_Source\PSoC4/CyDMA.c **** }
 3241              		.loc 1 1275 0
 3242 005a 1800     		movs	r0, r3
 3243 005c BD46     		mov	sp, r7
 3244 005e 02B0     		add	sp, sp, #8
 3245              		@ sp needed
 3246 0060 80BD     		pop	{r7, pc}
 3247              	.L306:
 3248 0062 C046     		.align	2
 3249              	.L305:
 3250 0064 00181040 		.word	1074796544
 3251              		.cfi_endproc
 3252              	.LFE42:
 3253              		.size	CyDmaGetTriggerType, .-CyDmaGetTriggerType
 3254              		.section	.text.CyDmaSetTransferMode,"ax",%progbits
 3255              		.align	2
 3256              		.global	CyDmaSetTransferMode
 3257              		.code	16
 3258              		.thumb_func
 3259              		.type	CyDmaSetTransferMode, %function
 3260              	CyDmaSetTransferMode:
 3261              	.LFB43:
1276:Generated_Source\PSoC4/CyDMA.c **** 
1277:Generated_Source\PSoC4/CyDMA.c **** 
1278:Generated_Source\PSoC4/CyDMA.c **** /*******************************************************************************
1279:Generated_Source\PSoC4/CyDMA.c **** * Function Name: CyDmaSetTransferMode
1280:Generated_Source\PSoC4/CyDMA.c **** ********************************************************************************
1281:Generated_Source\PSoC4/CyDMA.c **** *
1282:Generated_Source\PSoC4/CyDMA.c **** * Summary:
1283:Generated_Source\PSoC4/CyDMA.c **** *  Sets the DMA transfer mode. This determines how the DMA reacts to each trigger
1284:Generated_Source\PSoC4/CyDMA.c **** *  event.
1285:Generated_Source\PSoC4/CyDMA.c **** *
1286:Generated_Source\PSoC4/CyDMA.c **** * Parameters:
1287:Generated_Source\PSoC4/CyDMA.c **** *  channel:      Channel used by this function.
1288:Generated_Source\PSoC4/CyDMA.c **** *  descriptor:   Descriptor (0 or 1) modified by this function.
1289:Generated_Source\PSoC4/CyDMA.c **** *  transferMode: Specifies the DMA transfer mode settings. Refer to the API bit
ARM GAS  C:\Users\HPz420\AppData\Local\Temp\ccz4K5YU.s 			page 81


1290:Generated_Source\PSoC4/CyDMA.c **** *                field definitions in CyDMA_P4.h or the API description in the
1291:Generated_Source\PSoC4/CyDMA.c **** *                DMA channel datasheet for the parameter options.
1292:Generated_Source\PSoC4/CyDMA.c **** *                   
1293:Generated_Source\PSoC4/CyDMA.c **** * Return:
1294:Generated_Source\PSoC4/CyDMA.c **** *  None.
1295:Generated_Source\PSoC4/CyDMA.c **** *
1296:Generated_Source\PSoC4/CyDMA.c **** * Side effect:
1297:Generated_Source\PSoC4/CyDMA.c **** *  This function should not be called when the specified descriptor is active
1298:Generated_Source\PSoC4/CyDMA.c **** *  in the DMA transfer engine. This can be checked by calling CyDmaGetStatus(). 
1299:Generated_Source\PSoC4/CyDMA.c **** *
1300:Generated_Source\PSoC4/CyDMA.c **** *******************************************************************************/
1301:Generated_Source\PSoC4/CyDMA.c **** void CyDmaSetTransferMode(int32 channel, int32 descriptor, uint32 transferMode)
1302:Generated_Source\PSoC4/CyDMA.c **** {
 3262              		.loc 1 1302 0
 3263              		.cfi_startproc
 3264              		@ args = 0, pretend = 0, frame = 24
 3265              		@ frame_needed = 1, uses_anonymous_args = 0
 3266 0000 80B5     		push	{r7, lr}
 3267              		.cfi_def_cfa_offset 8
 3268              		.cfi_offset 7, -8
 3269              		.cfi_offset 14, -4
 3270 0002 86B0     		sub	sp, sp, #24
 3271              		.cfi_def_cfa_offset 32
 3272 0004 00AF     		add	r7, sp, #0
 3273              		.cfi_def_cfa_register 7
 3274 0006 F860     		str	r0, [r7, #12]
 3275 0008 B960     		str	r1, [r7, #8]
 3276 000a 7A60     		str	r2, [r7, #4]
1303:Generated_Source\PSoC4/CyDMA.c ****     uint32 regValue;
1304:Generated_Source\PSoC4/CyDMA.c **** 
1305:Generated_Source\PSoC4/CyDMA.c ****     CYASSERT((channel    >= 0) && (channel    < CYDMA_CH_NR));
 3277              		.loc 1 1305 0
 3278 000c FB68     		ldr	r3, [r7, #12]
 3279 000e 002B     		cmp	r3, #0
 3280 0010 04DB     		blt	.L308
 3281              		.loc 1 1305 0 is_stmt 0 discriminator 1
 3282 0012 FB68     		ldr	r3, [r7, #12]
 3283 0014 1F2B     		cmp	r3, #31
 3284 0016 01DC     		bgt	.L308
 3285              		.loc 1 1305 0 discriminator 3
 3286 0018 0123     		movs	r3, #1
 3287 001a 00E0     		b	.L309
 3288              	.L308:
 3289              		.loc 1 1305 0 discriminator 4
 3290 001c 0023     		movs	r3, #0
 3291              	.L309:
 3292              		.loc 1 1305 0 discriminator 6
 3293 001e 002B     		cmp	r3, #0
 3294 0020 02D1     		bne	.L310
 3295              		.loc 1 1305 0 discriminator 7
 3296 0022 0020     		movs	r0, #0
 3297 0024 FFF7FEFF 		bl	CyHalt
 3298              	.L310:
1306:Generated_Source\PSoC4/CyDMA.c ****     CYASSERT((descriptor >= 0) && (descriptor < CYDMA_DESCR_NR));
 3299              		.loc 1 1306 0 is_stmt 1
 3300 0028 BB68     		ldr	r3, [r7, #8]
 3301 002a 002B     		cmp	r3, #0
ARM GAS  C:\Users\HPz420\AppData\Local\Temp\ccz4K5YU.s 			page 82


 3302 002c 04DB     		blt	.L311
 3303              		.loc 1 1306 0 is_stmt 0 discriminator 1
 3304 002e BB68     		ldr	r3, [r7, #8]
 3305 0030 012B     		cmp	r3, #1
 3306 0032 01DC     		bgt	.L311
 3307              		.loc 1 1306 0 discriminator 3
 3308 0034 0123     		movs	r3, #1
 3309 0036 00E0     		b	.L312
 3310              	.L311:
 3311              		.loc 1 1306 0 discriminator 4
 3312 0038 0023     		movs	r3, #0
 3313              	.L312:
 3314              		.loc 1 1306 0 discriminator 6
 3315 003a 002B     		cmp	r3, #0
 3316 003c 02D1     		bne	.L313
 3317              		.loc 1 1306 0 discriminator 7
 3318 003e 0020     		movs	r0, #0
 3319 0040 FFF7FEFF 		bl	CyHalt
 3320              	.L313:
1307:Generated_Source\PSoC4/CyDMA.c ****     CYASSERT(0u == (transferMode & (uint32)~CYDMA_TRANSFER_MODE));
 3321              		.loc 1 1307 0 is_stmt 1
 3322 0044 7B68     		ldr	r3, [r7, #4]
 3323 0046 9B00     		lsls	r3, r3, #2
 3324 0048 9B08     		lsrs	r3, r3, #2
 3325 004a 02D0     		beq	.L314
 3326              		.loc 1 1307 0 is_stmt 0 discriminator 1
 3327 004c 0020     		movs	r0, #0
 3328 004e FFF7FEFF 		bl	CyHalt
 3329              	.L314:
1308:Generated_Source\PSoC4/CyDMA.c **** 
1309:Generated_Source\PSoC4/CyDMA.c ****     regValue = CYDMA_DESCR_BASE.descriptor[channel][descriptor].ctl & (uint32)~CYDMA_TRANSFER_MODE;
 3330              		.loc 1 1309 0 is_stmt 1
 3331 0052 0E49     		ldr	r1, .L315
 3332 0054 FB68     		ldr	r3, [r7, #12]
 3333 0056 5A00     		lsls	r2, r3, #1
 3334 0058 BB68     		ldr	r3, [r7, #8]
 3335 005a D318     		adds	r3, r2, r3
 3336 005c 1B01     		lsls	r3, r3, #4
 3337 005e CB18     		adds	r3, r1, r3
 3338 0060 0833     		adds	r3, r3, #8
 3339 0062 1B68     		ldr	r3, [r3]
 3340 0064 9B00     		lsls	r3, r3, #2
 3341 0066 9B08     		lsrs	r3, r3, #2
 3342 0068 7B61     		str	r3, [r7, #20]
1310:Generated_Source\PSoC4/CyDMA.c ****     CYDMA_DESCR_BASE.descriptor[channel][descriptor].ctl = regValue | transferMode;
 3343              		.loc 1 1310 0
 3344 006a 0848     		ldr	r0, .L315
 3345 006c 7A69     		ldr	r2, [r7, #20]
 3346 006e 7B68     		ldr	r3, [r7, #4]
 3347 0070 1A43     		orrs	r2, r3
 3348 0072 FB68     		ldr	r3, [r7, #12]
 3349 0074 5900     		lsls	r1, r3, #1
 3350 0076 BB68     		ldr	r3, [r7, #8]
 3351 0078 CB18     		adds	r3, r1, r3
 3352 007a 1B01     		lsls	r3, r3, #4
 3353 007c C318     		adds	r3, r0, r3
 3354 007e 0833     		adds	r3, r3, #8
ARM GAS  C:\Users\HPz420\AppData\Local\Temp\ccz4K5YU.s 			page 83


 3355 0080 1A60     		str	r2, [r3]
1311:Generated_Source\PSoC4/CyDMA.c **** }
 3356              		.loc 1 1311 0
 3357 0082 C046     		nop
 3358 0084 BD46     		mov	sp, r7
 3359 0086 06B0     		add	sp, sp, #24
 3360              		@ sp needed
 3361 0088 80BD     		pop	{r7, pc}
 3362              	.L316:
 3363 008a C046     		.align	2
 3364              	.L315:
 3365 008c 00181040 		.word	1074796544
 3366              		.cfi_endproc
 3367              	.LFE43:
 3368              		.size	CyDmaSetTransferMode, .-CyDmaSetTransferMode
 3369              		.section	.text.CyDmaGetTransferMode,"ax",%progbits
 3370              		.align	2
 3371              		.global	CyDmaGetTransferMode
 3372              		.code	16
 3373              		.thumb_func
 3374              		.type	CyDmaGetTransferMode, %function
 3375              	CyDmaGetTransferMode:
 3376              	.LFB44:
1312:Generated_Source\PSoC4/CyDMA.c **** 
1313:Generated_Source\PSoC4/CyDMA.c **** 
1314:Generated_Source\PSoC4/CyDMA.c **** /*******************************************************************************
1315:Generated_Source\PSoC4/CyDMA.c **** * Function Name: CyDmaGetTransferMode
1316:Generated_Source\PSoC4/CyDMA.c **** ********************************************************************************
1317:Generated_Source\PSoC4/CyDMA.c **** *
1318:Generated_Source\PSoC4/CyDMA.c **** * Summary:
1319:Generated_Source\PSoC4/CyDMA.c **** *  Returns the transfer mode for the specified descriptor as set by 
1320:Generated_Source\PSoC4/CyDMA.c **** *  CyDmaSetTransferMode() or CyDmaSetConfiguration.
1321:Generated_Source\PSoC4/CyDMA.c **** *
1322:Generated_Source\PSoC4/CyDMA.c **** * Parameters:
1323:Generated_Source\PSoC4/CyDMA.c **** *  channel:    Channel used by this function.
1324:Generated_Source\PSoC4/CyDMA.c **** *  descriptor: Descriptor (0 or 1) modified by this function.
1325:Generated_Source\PSoC4/CyDMA.c **** *                   
1326:Generated_Source\PSoC4/CyDMA.c **** * Return:
1327:Generated_Source\PSoC4/CyDMA.c **** *  DMA transfer mode settings. Refer to the API bit field definitions in
1328:Generated_Source\PSoC4/CyDMA.c **** *  CyDMA_P4.h or the API description in the DMA channel datasheet for more
1329:Generated_Source\PSoC4/CyDMA.c **** *  information.
1330:Generated_Source\PSoC4/CyDMA.c **** *
1331:Generated_Source\PSoC4/CyDMA.c **** *******************************************************************************/
1332:Generated_Source\PSoC4/CyDMA.c **** uint32 CyDmaGetTransferMode(int32 channel, int32 descriptor)
1333:Generated_Source\PSoC4/CyDMA.c **** {
 3377              		.loc 1 1333 0
 3378              		.cfi_startproc
 3379              		@ args = 0, pretend = 0, frame = 8
 3380              		@ frame_needed = 1, uses_anonymous_args = 0
 3381 0000 80B5     		push	{r7, lr}
 3382              		.cfi_def_cfa_offset 8
 3383              		.cfi_offset 7, -8
 3384              		.cfi_offset 14, -4
 3385 0002 82B0     		sub	sp, sp, #8
 3386              		.cfi_def_cfa_offset 16
 3387 0004 00AF     		add	r7, sp, #0
 3388              		.cfi_def_cfa_register 7
ARM GAS  C:\Users\HPz420\AppData\Local\Temp\ccz4K5YU.s 			page 84


 3389 0006 7860     		str	r0, [r7, #4]
 3390 0008 3960     		str	r1, [r7]
1334:Generated_Source\PSoC4/CyDMA.c ****     CYASSERT((channel    >= 0) && (channel    < CYDMA_CH_NR));
 3391              		.loc 1 1334 0
 3392 000a 7B68     		ldr	r3, [r7, #4]
 3393 000c 002B     		cmp	r3, #0
 3394 000e 04DB     		blt	.L318
 3395              		.loc 1 1334 0 is_stmt 0 discriminator 1
 3396 0010 7B68     		ldr	r3, [r7, #4]
 3397 0012 1F2B     		cmp	r3, #31
 3398 0014 01DC     		bgt	.L318
 3399              		.loc 1 1334 0 discriminator 3
 3400 0016 0123     		movs	r3, #1
 3401 0018 00E0     		b	.L319
 3402              	.L318:
 3403              		.loc 1 1334 0 discriminator 4
 3404 001a 0023     		movs	r3, #0
 3405              	.L319:
 3406              		.loc 1 1334 0 discriminator 6
 3407 001c 002B     		cmp	r3, #0
 3408 001e 02D1     		bne	.L320
 3409              		.loc 1 1334 0 discriminator 7
 3410 0020 0020     		movs	r0, #0
 3411 0022 FFF7FEFF 		bl	CyHalt
 3412              	.L320:
1335:Generated_Source\PSoC4/CyDMA.c ****     CYASSERT((descriptor >= 0) && (descriptor < CYDMA_DESCR_NR));
 3413              		.loc 1 1335 0 is_stmt 1
 3414 0026 3B68     		ldr	r3, [r7]
 3415 0028 002B     		cmp	r3, #0
 3416 002a 04DB     		blt	.L321
 3417              		.loc 1 1335 0 is_stmt 0 discriminator 1
 3418 002c 3B68     		ldr	r3, [r7]
 3419 002e 012B     		cmp	r3, #1
 3420 0030 01DC     		bgt	.L321
 3421              		.loc 1 1335 0 discriminator 3
 3422 0032 0123     		movs	r3, #1
 3423 0034 00E0     		b	.L322
 3424              	.L321:
 3425              		.loc 1 1335 0 discriminator 4
 3426 0036 0023     		movs	r3, #0
 3427              	.L322:
 3428              		.loc 1 1335 0 discriminator 6
 3429 0038 002B     		cmp	r3, #0
 3430 003a 02D1     		bne	.L323
 3431              		.loc 1 1335 0 discriminator 7
 3432 003c 0020     		movs	r0, #0
 3433 003e FFF7FEFF 		bl	CyHalt
 3434              	.L323:
1336:Generated_Source\PSoC4/CyDMA.c **** 
1337:Generated_Source\PSoC4/CyDMA.c ****     return (CYDMA_DESCR_BASE.descriptor[channel][descriptor].ctl & CYDMA_TRANSFER_MODE);
 3435              		.loc 1 1337 0 is_stmt 1
 3436 0042 0749     		ldr	r1, .L325
 3437 0044 7B68     		ldr	r3, [r7, #4]
 3438 0046 5A00     		lsls	r2, r3, #1
 3439 0048 3B68     		ldr	r3, [r7]
 3440 004a D318     		adds	r3, r2, r3
 3441 004c 1B01     		lsls	r3, r3, #4
ARM GAS  C:\Users\HPz420\AppData\Local\Temp\ccz4K5YU.s 			page 85


 3442 004e CB18     		adds	r3, r1, r3
 3443 0050 0833     		adds	r3, r3, #8
 3444 0052 1B68     		ldr	r3, [r3]
 3445 0054 9B0F     		lsrs	r3, r3, #30
 3446 0056 9B07     		lsls	r3, r3, #30
1338:Generated_Source\PSoC4/CyDMA.c **** }
 3447              		.loc 1 1338 0
 3448 0058 1800     		movs	r0, r3
 3449 005a BD46     		mov	sp, r7
 3450 005c 02B0     		add	sp, sp, #8
 3451              		@ sp needed
 3452 005e 80BD     		pop	{r7, pc}
 3453              	.L326:
 3454              		.align	2
 3455              	.L325:
 3456 0060 00181040 		.word	1074796544
 3457              		.cfi_endproc
 3458              	.LFE44:
 3459              		.size	CyDmaGetTransferMode, .-CyDmaGetTransferMode
 3460              		.section	.text.CyDmaSetPreemptable,"ax",%progbits
 3461              		.align	2
 3462              		.global	CyDmaSetPreemptable
 3463              		.code	16
 3464              		.thumb_func
 3465              		.type	CyDmaSetPreemptable, %function
 3466              	CyDmaSetPreemptable:
 3467              	.LFB45:
1339:Generated_Source\PSoC4/CyDMA.c **** 
1340:Generated_Source\PSoC4/CyDMA.c **** 
1341:Generated_Source\PSoC4/CyDMA.c **** /*******************************************************************************
1342:Generated_Source\PSoC4/CyDMA.c **** * Function Name: CyDmaSetPreemptable
1343:Generated_Source\PSoC4/CyDMA.c **** ********************************************************************************
1344:Generated_Source\PSoC4/CyDMA.c **** *
1345:Generated_Source\PSoC4/CyDMA.c **** * Summary:
1346:Generated_Source\PSoC4/CyDMA.c **** *  Determines if the descriptor is preemptable.
1347:Generated_Source\PSoC4/CyDMA.c **** *
1348:Generated_Source\PSoC4/CyDMA.c **** * Parameters:
1349:Generated_Source\PSoC4/CyDMA.c **** *  channel:     Channel used by this function.
1350:Generated_Source\PSoC4/CyDMA.c **** *  descriptor:  Descriptor (0 or 1) modified by this function.
1351:Generated_Source\PSoC4/CyDMA.c **** *  preemptable: Descriptor preemption settings. Refer to the API bit fields
1352:Generated_Source\PSoC4/CyDMA.c **** *               definition in CyDMA_P4.h or the API description in the DMA 
1353:Generated_Source\PSoC4/CyDMA.c **** *               channel datasheet for the parameter options.
1354:Generated_Source\PSoC4/CyDMA.c **** *                   
1355:Generated_Source\PSoC4/CyDMA.c **** * Return:
1356:Generated_Source\PSoC4/CyDMA.c **** *  None.
1357:Generated_Source\PSoC4/CyDMA.c **** *
1358:Generated_Source\PSoC4/CyDMA.c **** * Side effect:
1359:Generated_Source\PSoC4/CyDMA.c **** *  This function should not be called when the specified descriptor is active
1360:Generated_Source\PSoC4/CyDMA.c **** *  in the DMA transfer engine. This can be checked by calling CyDmaGetStatus(). 
1361:Generated_Source\PSoC4/CyDMA.c **** *
1362:Generated_Source\PSoC4/CyDMA.c **** *******************************************************************************/
1363:Generated_Source\PSoC4/CyDMA.c **** void CyDmaSetPreemptable(int32 channel, int32 descriptor, uint32 preemptable)
1364:Generated_Source\PSoC4/CyDMA.c **** {
 3468              		.loc 1 1364 0
 3469              		.cfi_startproc
 3470              		@ args = 0, pretend = 0, frame = 24
 3471              		@ frame_needed = 1, uses_anonymous_args = 0
ARM GAS  C:\Users\HPz420\AppData\Local\Temp\ccz4K5YU.s 			page 86


 3472 0000 80B5     		push	{r7, lr}
 3473              		.cfi_def_cfa_offset 8
 3474              		.cfi_offset 7, -8
 3475              		.cfi_offset 14, -4
 3476 0002 86B0     		sub	sp, sp, #24
 3477              		.cfi_def_cfa_offset 32
 3478 0004 00AF     		add	r7, sp, #0
 3479              		.cfi_def_cfa_register 7
 3480 0006 F860     		str	r0, [r7, #12]
 3481 0008 B960     		str	r1, [r7, #8]
 3482 000a 7A60     		str	r2, [r7, #4]
1365:Generated_Source\PSoC4/CyDMA.c ****     uint32 regValue;
1366:Generated_Source\PSoC4/CyDMA.c **** 
1367:Generated_Source\PSoC4/CyDMA.c ****     CYASSERT((channel    >= 0) && (channel    < CYDMA_CH_NR));
 3483              		.loc 1 1367 0
 3484 000c FB68     		ldr	r3, [r7, #12]
 3485 000e 002B     		cmp	r3, #0
 3486 0010 04DB     		blt	.L328
 3487              		.loc 1 1367 0 is_stmt 0 discriminator 1
 3488 0012 FB68     		ldr	r3, [r7, #12]
 3489 0014 1F2B     		cmp	r3, #31
 3490 0016 01DC     		bgt	.L328
 3491              		.loc 1 1367 0 discriminator 3
 3492 0018 0123     		movs	r3, #1
 3493 001a 00E0     		b	.L329
 3494              	.L328:
 3495              		.loc 1 1367 0 discriminator 4
 3496 001c 0023     		movs	r3, #0
 3497              	.L329:
 3498              		.loc 1 1367 0 discriminator 6
 3499 001e 002B     		cmp	r3, #0
 3500 0020 02D1     		bne	.L330
 3501              		.loc 1 1367 0 discriminator 7
 3502 0022 0020     		movs	r0, #0
 3503 0024 FFF7FEFF 		bl	CyHalt
 3504              	.L330:
1368:Generated_Source\PSoC4/CyDMA.c ****     CYASSERT((descriptor >= 0) && (descriptor < CYDMA_DESCR_NR));
 3505              		.loc 1 1368 0 is_stmt 1
 3506 0028 BB68     		ldr	r3, [r7, #8]
 3507 002a 002B     		cmp	r3, #0
 3508 002c 04DB     		blt	.L331
 3509              		.loc 1 1368 0 is_stmt 0 discriminator 1
 3510 002e BB68     		ldr	r3, [r7, #8]
 3511 0030 012B     		cmp	r3, #1
 3512 0032 01DC     		bgt	.L331
 3513              		.loc 1 1368 0 discriminator 3
 3514 0034 0123     		movs	r3, #1
 3515 0036 00E0     		b	.L332
 3516              	.L331:
 3517              		.loc 1 1368 0 discriminator 4
 3518 0038 0023     		movs	r3, #0
 3519              	.L332:
 3520              		.loc 1 1368 0 discriminator 6
 3521 003a 002B     		cmp	r3, #0
 3522 003c 02D1     		bne	.L333
 3523              		.loc 1 1368 0 discriminator 7
 3524 003e 0020     		movs	r0, #0
ARM GAS  C:\Users\HPz420\AppData\Local\Temp\ccz4K5YU.s 			page 87


 3525 0040 FFF7FEFF 		bl	CyHalt
 3526              	.L333:
1369:Generated_Source\PSoC4/CyDMA.c ****     CYASSERT(0u == (preemptable & (uint32)~CYDMA_PREEMPTABLE));
 3527              		.loc 1 1369 0 is_stmt 1
 3528 0044 7B68     		ldr	r3, [r7, #4]
 3529 0046 114A     		ldr	r2, .L335
 3530 0048 1340     		ands	r3, r2
 3531 004a 02D0     		beq	.L334
 3532              		.loc 1 1369 0 is_stmt 0 discriminator 1
 3533 004c 0020     		movs	r0, #0
 3534 004e FFF7FEFF 		bl	CyHalt
 3535              	.L334:
1370:Generated_Source\PSoC4/CyDMA.c **** 
1371:Generated_Source\PSoC4/CyDMA.c ****     regValue = CYDMA_DESCR_BASE.descriptor[channel][descriptor].ctl & (uint32)~CYDMA_PREEMPTABLE;
 3536              		.loc 1 1371 0 is_stmt 1
 3537 0052 0F49     		ldr	r1, .L335+4
 3538 0054 FB68     		ldr	r3, [r7, #12]
 3539 0056 5A00     		lsls	r2, r3, #1
 3540 0058 BB68     		ldr	r3, [r7, #8]
 3541 005a D318     		adds	r3, r2, r3
 3542 005c 1B01     		lsls	r3, r3, #4
 3543 005e CB18     		adds	r3, r1, r3
 3544 0060 0833     		adds	r3, r3, #8
 3545 0062 1B68     		ldr	r3, [r3]
 3546 0064 094A     		ldr	r2, .L335
 3547 0066 1340     		ands	r3, r2
 3548 0068 7B61     		str	r3, [r7, #20]
1372:Generated_Source\PSoC4/CyDMA.c ****     CYDMA_DESCR_BASE.descriptor[channel][descriptor].ctl = regValue | preemptable;
 3549              		.loc 1 1372 0
 3550 006a 0948     		ldr	r0, .L335+4
 3551 006c 7A69     		ldr	r2, [r7, #20]
 3552 006e 7B68     		ldr	r3, [r7, #4]
 3553 0070 1A43     		orrs	r2, r3
 3554 0072 FB68     		ldr	r3, [r7, #12]
 3555 0074 5900     		lsls	r1, r3, #1
 3556 0076 BB68     		ldr	r3, [r7, #8]
 3557 0078 CB18     		adds	r3, r1, r3
 3558 007a 1B01     		lsls	r3, r3, #4
 3559 007c C318     		adds	r3, r0, r3
 3560 007e 0833     		adds	r3, r3, #8
 3561 0080 1A60     		str	r2, [r3]
1373:Generated_Source\PSoC4/CyDMA.c **** }
 3562              		.loc 1 1373 0
 3563 0082 C046     		nop
 3564 0084 BD46     		mov	sp, r7
 3565 0086 06B0     		add	sp, sp, #24
 3566              		@ sp needed
 3567 0088 80BD     		pop	{r7, pc}
 3568              	.L336:
 3569 008a C046     		.align	2
 3570              	.L335:
 3571 008c FFFFFFEF 		.word	-268435457
 3572 0090 00181040 		.word	1074796544
 3573              		.cfi_endproc
 3574              	.LFE45:
 3575              		.size	CyDmaSetPreemptable, .-CyDmaSetPreemptable
 3576              		.section	.text.CyDmaGetPreemptable,"ax",%progbits
ARM GAS  C:\Users\HPz420\AppData\Local\Temp\ccz4K5YU.s 			page 88


 3577              		.align	2
 3578              		.global	CyDmaGetPreemptable
 3579              		.code	16
 3580              		.thumb_func
 3581              		.type	CyDmaGetPreemptable, %function
 3582              	CyDmaGetPreemptable:
 3583              	.LFB46:
1374:Generated_Source\PSoC4/CyDMA.c **** 
1375:Generated_Source\PSoC4/CyDMA.c **** 
1376:Generated_Source\PSoC4/CyDMA.c **** /*******************************************************************************
1377:Generated_Source\PSoC4/CyDMA.c **** * Function Name: CyDmaGetPreemptable
1378:Generated_Source\PSoC4/CyDMA.c **** ********************************************************************************
1379:Generated_Source\PSoC4/CyDMA.c **** *
1380:Generated_Source\PSoC4/CyDMA.c **** * Summary:
1381:Generated_Source\PSoC4/CyDMA.c **** *  Returns whether or not the descriptor is preemptable.
1382:Generated_Source\PSoC4/CyDMA.c **** *
1383:Generated_Source\PSoC4/CyDMA.c **** * Parameters:
1384:Generated_Source\PSoC4/CyDMA.c **** *  channel:    Channel used by this function.
1385:Generated_Source\PSoC4/CyDMA.c **** *  descriptor: Descriptor (0 or 1) modified by this function.
1386:Generated_Source\PSoC4/CyDMA.c **** *                   
1387:Generated_Source\PSoC4/CyDMA.c **** * Return:
1388:Generated_Source\PSoC4/CyDMA.c **** *  Descriptor preemption setting. Refer to the API bit field definitions in
1389:Generated_Source\PSoC4/CyDMA.c **** *  CyDMA_P4.h or the API description in the DMA channel datasheet for more
1390:Generated_Source\PSoC4/CyDMA.c **** *  information.
1391:Generated_Source\PSoC4/CyDMA.c **** *
1392:Generated_Source\PSoC4/CyDMA.c **** *******************************************************************************/
1393:Generated_Source\PSoC4/CyDMA.c **** uint32 CyDmaGetPreemptable(int32 channel, int32 descriptor)
1394:Generated_Source\PSoC4/CyDMA.c **** {
 3584              		.loc 1 1394 0
 3585              		.cfi_startproc
 3586              		@ args = 0, pretend = 0, frame = 8
 3587              		@ frame_needed = 1, uses_anonymous_args = 0
 3588 0000 80B5     		push	{r7, lr}
 3589              		.cfi_def_cfa_offset 8
 3590              		.cfi_offset 7, -8
 3591              		.cfi_offset 14, -4
 3592 0002 82B0     		sub	sp, sp, #8
 3593              		.cfi_def_cfa_offset 16
 3594 0004 00AF     		add	r7, sp, #0
 3595              		.cfi_def_cfa_register 7
 3596 0006 7860     		str	r0, [r7, #4]
 3597 0008 3960     		str	r1, [r7]
1395:Generated_Source\PSoC4/CyDMA.c ****     CYASSERT((channel    >= 0) && (channel    < CYDMA_CH_NR));
 3598              		.loc 1 1395 0
 3599 000a 7B68     		ldr	r3, [r7, #4]
 3600 000c 002B     		cmp	r3, #0
 3601 000e 04DB     		blt	.L338
 3602              		.loc 1 1395 0 is_stmt 0 discriminator 1
 3603 0010 7B68     		ldr	r3, [r7, #4]
 3604 0012 1F2B     		cmp	r3, #31
 3605 0014 01DC     		bgt	.L338
 3606              		.loc 1 1395 0 discriminator 3
 3607 0016 0123     		movs	r3, #1
 3608 0018 00E0     		b	.L339
 3609              	.L338:
 3610              		.loc 1 1395 0 discriminator 4
 3611 001a 0023     		movs	r3, #0
ARM GAS  C:\Users\HPz420\AppData\Local\Temp\ccz4K5YU.s 			page 89


 3612              	.L339:
 3613              		.loc 1 1395 0 discriminator 6
 3614 001c 002B     		cmp	r3, #0
 3615 001e 02D1     		bne	.L340
 3616              		.loc 1 1395 0 discriminator 7
 3617 0020 0020     		movs	r0, #0
 3618 0022 FFF7FEFF 		bl	CyHalt
 3619              	.L340:
1396:Generated_Source\PSoC4/CyDMA.c ****     CYASSERT((descriptor >= 0) && (descriptor < CYDMA_DESCR_NR));
 3620              		.loc 1 1396 0 is_stmt 1
 3621 0026 3B68     		ldr	r3, [r7]
 3622 0028 002B     		cmp	r3, #0
 3623 002a 04DB     		blt	.L341
 3624              		.loc 1 1396 0 is_stmt 0 discriminator 1
 3625 002c 3B68     		ldr	r3, [r7]
 3626 002e 012B     		cmp	r3, #1
 3627 0030 01DC     		bgt	.L341
 3628              		.loc 1 1396 0 discriminator 3
 3629 0032 0123     		movs	r3, #1
 3630 0034 00E0     		b	.L342
 3631              	.L341:
 3632              		.loc 1 1396 0 discriminator 4
 3633 0036 0023     		movs	r3, #0
 3634              	.L342:
 3635              		.loc 1 1396 0 discriminator 6
 3636 0038 002B     		cmp	r3, #0
 3637 003a 02D1     		bne	.L343
 3638              		.loc 1 1396 0 discriminator 7
 3639 003c 0020     		movs	r0, #0
 3640 003e FFF7FEFF 		bl	CyHalt
 3641              	.L343:
1397:Generated_Source\PSoC4/CyDMA.c **** 
1398:Generated_Source\PSoC4/CyDMA.c ****     return (CYDMA_DESCR_BASE.descriptor[channel][descriptor].ctl & CYDMA_PREEMPTABLE);
 3642              		.loc 1 1398 0 is_stmt 1
 3643 0042 0849     		ldr	r1, .L345
 3644 0044 7B68     		ldr	r3, [r7, #4]
 3645 0046 5A00     		lsls	r2, r3, #1
 3646 0048 3B68     		ldr	r3, [r7]
 3647 004a D318     		adds	r3, r2, r3
 3648 004c 1B01     		lsls	r3, r3, #4
 3649 004e CB18     		adds	r3, r1, r3
 3650 0050 0833     		adds	r3, r3, #8
 3651 0052 1A68     		ldr	r2, [r3]
 3652 0054 8023     		movs	r3, #128
 3653 0056 5B05     		lsls	r3, r3, #21
 3654 0058 1340     		ands	r3, r2
1399:Generated_Source\PSoC4/CyDMA.c **** }
 3655              		.loc 1 1399 0
 3656 005a 1800     		movs	r0, r3
 3657 005c BD46     		mov	sp, r7
 3658 005e 02B0     		add	sp, sp, #8
 3659              		@ sp needed
 3660 0060 80BD     		pop	{r7, pc}
 3661              	.L346:
 3662 0062 C046     		.align	2
 3663              	.L345:
 3664 0064 00181040 		.word	1074796544
ARM GAS  C:\Users\HPz420\AppData\Local\Temp\ccz4K5YU.s 			page 90


 3665              		.cfi_endproc
 3666              	.LFE46:
 3667              		.size	CyDmaGetPreemptable, .-CyDmaGetPreemptable
 3668              		.section	.text.CyDmaSetPostCompletionActions,"ax",%progbits
 3669              		.align	2
 3670              		.global	CyDmaSetPostCompletionActions
 3671              		.code	16
 3672              		.thumb_func
 3673              		.type	CyDmaSetPostCompletionActions, %function
 3674              	CyDmaSetPostCompletionActions:
 3675              	.LFB47:
1400:Generated_Source\PSoC4/CyDMA.c **** 
1401:Generated_Source\PSoC4/CyDMA.c **** 
1402:Generated_Source\PSoC4/CyDMA.c **** /*******************************************************************************
1403:Generated_Source\PSoC4/CyDMA.c **** * Function Name: CyDmaSetPostCompletionActions
1404:Generated_Source\PSoC4/CyDMA.c **** ********************************************************************************
1405:Generated_Source\PSoC4/CyDMA.c **** *
1406:Generated_Source\PSoC4/CyDMA.c **** * Summary:
1407:Generated_Source\PSoC4/CyDMA.c **** *  Determines what occurs after a descriptor completes.
1408:Generated_Source\PSoC4/CyDMA.c **** *
1409:Generated_Source\PSoC4/CyDMA.c **** * Parameters:
1410:Generated_Source\PSoC4/CyDMA.c **** *  channel:    Channel used by this function.
1411:Generated_Source\PSoC4/CyDMA.c **** *  descriptor: Descriptor (0 or 1) modified by this function.
1412:Generated_Source\PSoC4/CyDMA.c **** *  actions:    Specifies descriptor post completion actions. Refer to the API
1413:Generated_Source\PSoC4/CyDMA.c **** *              bit field definitions in CyDMA_P4.h or the API description
1414:Generated_Source\PSoC4/CyDMA.c **** *              in the DMA channel datasheet for the parameter options.
1415:Generated_Source\PSoC4/CyDMA.c **** *                   
1416:Generated_Source\PSoC4/CyDMA.c **** * Return:
1417:Generated_Source\PSoC4/CyDMA.c **** *  None.  
1418:Generated_Source\PSoC4/CyDMA.c **** *
1419:Generated_Source\PSoC4/CyDMA.c **** * Side effect:
1420:Generated_Source\PSoC4/CyDMA.c **** *  This function should not be called when the specified descriptor is active
1421:Generated_Source\PSoC4/CyDMA.c **** *  in the DMA transfer engine. This can be checked by calling CyDmaGetStatus(). 
1422:Generated_Source\PSoC4/CyDMA.c **** *
1423:Generated_Source\PSoC4/CyDMA.c **** *******************************************************************************/
1424:Generated_Source\PSoC4/CyDMA.c **** void CyDmaSetPostCompletionActions(int32 channel, int32 descriptor, uint32 actions)
1425:Generated_Source\PSoC4/CyDMA.c **** {
 3676              		.loc 1 1425 0
 3677              		.cfi_startproc
 3678              		@ args = 0, pretend = 0, frame = 24
 3679              		@ frame_needed = 1, uses_anonymous_args = 0
 3680 0000 80B5     		push	{r7, lr}
 3681              		.cfi_def_cfa_offset 8
 3682              		.cfi_offset 7, -8
 3683              		.cfi_offset 14, -4
 3684 0002 86B0     		sub	sp, sp, #24
 3685              		.cfi_def_cfa_offset 32
 3686 0004 00AF     		add	r7, sp, #0
 3687              		.cfi_def_cfa_register 7
 3688 0006 F860     		str	r0, [r7, #12]
 3689 0008 B960     		str	r1, [r7, #8]
 3690 000a 7A60     		str	r2, [r7, #4]
1426:Generated_Source\PSoC4/CyDMA.c ****     uint32 regValue;
1427:Generated_Source\PSoC4/CyDMA.c **** 
1428:Generated_Source\PSoC4/CyDMA.c ****     CYASSERT((channel    >= 0) && (channel    < CYDMA_CH_NR));
 3691              		.loc 1 1428 0
 3692 000c FB68     		ldr	r3, [r7, #12]
ARM GAS  C:\Users\HPz420\AppData\Local\Temp\ccz4K5YU.s 			page 91


 3693 000e 002B     		cmp	r3, #0
 3694 0010 04DB     		blt	.L348
 3695              		.loc 1 1428 0 is_stmt 0 discriminator 1
 3696 0012 FB68     		ldr	r3, [r7, #12]
 3697 0014 1F2B     		cmp	r3, #31
 3698 0016 01DC     		bgt	.L348
 3699              		.loc 1 1428 0 discriminator 3
 3700 0018 0123     		movs	r3, #1
 3701 001a 00E0     		b	.L349
 3702              	.L348:
 3703              		.loc 1 1428 0 discriminator 4
 3704 001c 0023     		movs	r3, #0
 3705              	.L349:
 3706              		.loc 1 1428 0 discriminator 6
 3707 001e 002B     		cmp	r3, #0
 3708 0020 02D1     		bne	.L350
 3709              		.loc 1 1428 0 discriminator 7
 3710 0022 0020     		movs	r0, #0
 3711 0024 FFF7FEFF 		bl	CyHalt
 3712              	.L350:
1429:Generated_Source\PSoC4/CyDMA.c ****     CYASSERT((descriptor >= 0) && (descriptor < CYDMA_DESCR_NR));
 3713              		.loc 1 1429 0 is_stmt 1
 3714 0028 BB68     		ldr	r3, [r7, #8]
 3715 002a 002B     		cmp	r3, #0
 3716 002c 04DB     		blt	.L351
 3717              		.loc 1 1429 0 is_stmt 0 discriminator 1
 3718 002e BB68     		ldr	r3, [r7, #8]
 3719 0030 012B     		cmp	r3, #1
 3720 0032 01DC     		bgt	.L351
 3721              		.loc 1 1429 0 discriminator 3
 3722 0034 0123     		movs	r3, #1
 3723 0036 00E0     		b	.L352
 3724              	.L351:
 3725              		.loc 1 1429 0 discriminator 4
 3726 0038 0023     		movs	r3, #0
 3727              	.L352:
 3728              		.loc 1 1429 0 discriminator 6
 3729 003a 002B     		cmp	r3, #0
 3730 003c 02D1     		bne	.L353
 3731              		.loc 1 1429 0 discriminator 7
 3732 003e 0020     		movs	r0, #0
 3733 0040 FFF7FEFF 		bl	CyHalt
 3734              	.L353:
1430:Generated_Source\PSoC4/CyDMA.c ****     CYASSERT(0u == (actions & (uint32)~CYDMA_POST_COMPLETE_ACTIONS));
 3735              		.loc 1 1430 0 is_stmt 1
 3736 0044 7B68     		ldr	r3, [r7, #4]
 3737 0046 114A     		ldr	r2, .L355
 3738 0048 1340     		ands	r3, r2
 3739 004a 02D0     		beq	.L354
 3740              		.loc 1 1430 0 is_stmt 0 discriminator 1
 3741 004c 0020     		movs	r0, #0
 3742 004e FFF7FEFF 		bl	CyHalt
 3743              	.L354:
1431:Generated_Source\PSoC4/CyDMA.c **** 
1432:Generated_Source\PSoC4/CyDMA.c ****     regValue = CYDMA_DESCR_BASE.descriptor[channel][descriptor].ctl & (uint32)~CYDMA_POST_COMPLETE_
 3744              		.loc 1 1432 0 is_stmt 1
 3745 0052 0F49     		ldr	r1, .L355+4
ARM GAS  C:\Users\HPz420\AppData\Local\Temp\ccz4K5YU.s 			page 92


 3746 0054 FB68     		ldr	r3, [r7, #12]
 3747 0056 5A00     		lsls	r2, r3, #1
 3748 0058 BB68     		ldr	r3, [r7, #8]
 3749 005a D318     		adds	r3, r2, r3
 3750 005c 1B01     		lsls	r3, r3, #4
 3751 005e CB18     		adds	r3, r1, r3
 3752 0060 0833     		adds	r3, r3, #8
 3753 0062 1B68     		ldr	r3, [r3]
 3754 0064 094A     		ldr	r2, .L355
 3755 0066 1340     		ands	r3, r2
 3756 0068 7B61     		str	r3, [r7, #20]
1433:Generated_Source\PSoC4/CyDMA.c ****     CYDMA_DESCR_BASE.descriptor[channel][descriptor].ctl = regValue | actions;
 3757              		.loc 1 1433 0
 3758 006a 0948     		ldr	r0, .L355+4
 3759 006c 7A69     		ldr	r2, [r7, #20]
 3760 006e 7B68     		ldr	r3, [r7, #4]
 3761 0070 1A43     		orrs	r2, r3
 3762 0072 FB68     		ldr	r3, [r7, #12]
 3763 0074 5900     		lsls	r1, r3, #1
 3764 0076 BB68     		ldr	r3, [r7, #8]
 3765 0078 CB18     		adds	r3, r1, r3
 3766 007a 1B01     		lsls	r3, r3, #4
 3767 007c C318     		adds	r3, r0, r3
 3768 007e 0833     		adds	r3, r3, #8
 3769 0080 1A60     		str	r2, [r3]
1434:Generated_Source\PSoC4/CyDMA.c **** }
 3770              		.loc 1 1434 0
 3771 0082 C046     		nop
 3772 0084 BD46     		mov	sp, r7
 3773 0086 06B0     		add	sp, sp, #24
 3774              		@ sp needed
 3775 0088 80BD     		pop	{r7, pc}
 3776              	.L356:
 3777 008a C046     		.align	2
 3778              	.L355:
 3779 008c FFFFFFD3 		.word	-738197505
 3780 0090 00181040 		.word	1074796544
 3781              		.cfi_endproc
 3782              	.LFE47:
 3783              		.size	CyDmaSetPostCompletionActions, .-CyDmaSetPostCompletionActions
 3784              		.section	.text.CyDmaGetPostCompletionActions,"ax",%progbits
 3785              		.align	2
 3786              		.global	CyDmaGetPostCompletionActions
 3787              		.code	16
 3788              		.thumb_func
 3789              		.type	CyDmaGetPostCompletionActions, %function
 3790              	CyDmaGetPostCompletionActions:
 3791              	.LFB48:
1435:Generated_Source\PSoC4/CyDMA.c **** 
1436:Generated_Source\PSoC4/CyDMA.c **** 
1437:Generated_Source\PSoC4/CyDMA.c **** /*******************************************************************************
1438:Generated_Source\PSoC4/CyDMA.c **** * Function Name: CyDmaGetPostCompletionActions
1439:Generated_Source\PSoC4/CyDMA.c **** ********************************************************************************
1440:Generated_Source\PSoC4/CyDMA.c **** *
1441:Generated_Source\PSoC4/CyDMA.c **** * Summary:
1442:Generated_Source\PSoC4/CyDMA.c **** *  Returns the post descriptor action settings as set by 
1443:Generated_Source\PSoC4/CyDMA.c **** *  CyDmaSetPostCompletionActions() or CyDmaSetConfiguration().
ARM GAS  C:\Users\HPz420\AppData\Local\Temp\ccz4K5YU.s 			page 93


1444:Generated_Source\PSoC4/CyDMA.c **** *
1445:Generated_Source\PSoC4/CyDMA.c **** * Parameters:
1446:Generated_Source\PSoC4/CyDMA.c **** *  channel:    Channel used by this function.
1447:Generated_Source\PSoC4/CyDMA.c **** *  descriptor: Descriptor (0 or 1) modified by this function.
1448:Generated_Source\PSoC4/CyDMA.c **** *                   
1449:Generated_Source\PSoC4/CyDMA.c **** * Return:
1450:Generated_Source\PSoC4/CyDMA.c **** *  Post descriptor actions. Refer to the API bit field definitions in
1451:Generated_Source\PSoC4/CyDMA.c **** *  CyDMA_P4.h or the API description in the DMA channel datasheet for more
1452:Generated_Source\PSoC4/CyDMA.c **** *  information.
1453:Generated_Source\PSoC4/CyDMA.c **** *
1454:Generated_Source\PSoC4/CyDMA.c **** *******************************************************************************/
1455:Generated_Source\PSoC4/CyDMA.c **** uint32 CyDmaGetPostCompletionActions(int32 channel, int32 descriptor)
1456:Generated_Source\PSoC4/CyDMA.c **** {
 3792              		.loc 1 1456 0
 3793              		.cfi_startproc
 3794              		@ args = 0, pretend = 0, frame = 8
 3795              		@ frame_needed = 1, uses_anonymous_args = 0
 3796 0000 80B5     		push	{r7, lr}
 3797              		.cfi_def_cfa_offset 8
 3798              		.cfi_offset 7, -8
 3799              		.cfi_offset 14, -4
 3800 0002 82B0     		sub	sp, sp, #8
 3801              		.cfi_def_cfa_offset 16
 3802 0004 00AF     		add	r7, sp, #0
 3803              		.cfi_def_cfa_register 7
 3804 0006 7860     		str	r0, [r7, #4]
 3805 0008 3960     		str	r1, [r7]
1457:Generated_Source\PSoC4/CyDMA.c ****     CYASSERT((channel    >= 0) && (channel    < CYDMA_CH_NR));
 3806              		.loc 1 1457 0
 3807 000a 7B68     		ldr	r3, [r7, #4]
 3808 000c 002B     		cmp	r3, #0
 3809 000e 04DB     		blt	.L358
 3810              		.loc 1 1457 0 is_stmt 0 discriminator 1
 3811 0010 7B68     		ldr	r3, [r7, #4]
 3812 0012 1F2B     		cmp	r3, #31
 3813 0014 01DC     		bgt	.L358
 3814              		.loc 1 1457 0 discriminator 3
 3815 0016 0123     		movs	r3, #1
 3816 0018 00E0     		b	.L359
 3817              	.L358:
 3818              		.loc 1 1457 0 discriminator 4
 3819 001a 0023     		movs	r3, #0
 3820              	.L359:
 3821              		.loc 1 1457 0 discriminator 6
 3822 001c 002B     		cmp	r3, #0
 3823 001e 02D1     		bne	.L360
 3824              		.loc 1 1457 0 discriminator 7
 3825 0020 0020     		movs	r0, #0
 3826 0022 FFF7FEFF 		bl	CyHalt
 3827              	.L360:
1458:Generated_Source\PSoC4/CyDMA.c ****     CYASSERT((descriptor >= 0) && (descriptor < CYDMA_DESCR_NR));
 3828              		.loc 1 1458 0 is_stmt 1
 3829 0026 3B68     		ldr	r3, [r7]
 3830 0028 002B     		cmp	r3, #0
 3831 002a 04DB     		blt	.L361
 3832              		.loc 1 1458 0 is_stmt 0 discriminator 1
 3833 002c 3B68     		ldr	r3, [r7]
ARM GAS  C:\Users\HPz420\AppData\Local\Temp\ccz4K5YU.s 			page 94


 3834 002e 012B     		cmp	r3, #1
 3835 0030 01DC     		bgt	.L361
 3836              		.loc 1 1458 0 discriminator 3
 3837 0032 0123     		movs	r3, #1
 3838 0034 00E0     		b	.L362
 3839              	.L361:
 3840              		.loc 1 1458 0 discriminator 4
 3841 0036 0023     		movs	r3, #0
 3842              	.L362:
 3843              		.loc 1 1458 0 discriminator 6
 3844 0038 002B     		cmp	r3, #0
 3845 003a 02D1     		bne	.L363
 3846              		.loc 1 1458 0 discriminator 7
 3847 003c 0020     		movs	r0, #0
 3848 003e FFF7FEFF 		bl	CyHalt
 3849              	.L363:
1459:Generated_Source\PSoC4/CyDMA.c **** 
1460:Generated_Source\PSoC4/CyDMA.c ****     return (CYDMA_DESCR_BASE.descriptor[channel][descriptor].ctl & CYDMA_POST_COMPLETE_ACTIONS);
 3850              		.loc 1 1460 0 is_stmt 1
 3851 0042 0849     		ldr	r1, .L365
 3852 0044 7B68     		ldr	r3, [r7, #4]
 3853 0046 5A00     		lsls	r2, r3, #1
 3854 0048 3B68     		ldr	r3, [r7]
 3855 004a D318     		adds	r3, r2, r3
 3856 004c 1B01     		lsls	r3, r3, #4
 3857 004e CB18     		adds	r3, r1, r3
 3858 0050 0833     		adds	r3, r3, #8
 3859 0052 1A68     		ldr	r2, [r3]
 3860 0054 B023     		movs	r3, #176
 3861 0056 9B05     		lsls	r3, r3, #22
 3862 0058 1340     		ands	r3, r2
1461:Generated_Source\PSoC4/CyDMA.c **** }
 3863              		.loc 1 1461 0
 3864 005a 1800     		movs	r0, r3
 3865 005c BD46     		mov	sp, r7
 3866 005e 02B0     		add	sp, sp, #8
 3867              		@ sp needed
 3868 0060 80BD     		pop	{r7, pc}
 3869              	.L366:
 3870 0062 C046     		.align	2
 3871              	.L365:
 3872 0064 00181040 		.word	1074796544
 3873              		.cfi_endproc
 3874              	.LFE48:
 3875              		.size	CyDmaGetPostCompletionActions, .-CyDmaGetPostCompletionActions
 3876              		.bss
 3877              	initIntrVector.5066:
 3878 0004 00       		.space	1
 3879              		.section	.rodata
 3880              		.align	2
 3881              		.type	trCtlLut.5141, %object
 3882              		.size	trCtlLut.5141, 16
 3883              	trCtlLut.5141:
 3884 0000 000002C0 		.word	-1073610752
 3885 0004 000102C0 		.word	-1073610496
 3886 0008 000202C0 		.word	-1073610240
 3887 000c 080202C0 		.word	-1073610232
ARM GAS  C:\Users\HPz420\AppData\Local\Temp\ccz4K5YU.s 			page 95


 3888              		.text
 3889              	.Letext0:
 3890              		.file 2 "Generated_Source\\PSoC4\\cytypes.h"
 3891              		.file 3 "Generated_Source\\PSoC4\\CyDMA.h"
 3892              		.section	.debug_info,"",%progbits
 3893              	.Ldebug_info0:
 3894 0000 730C0000 		.4byte	0xc73
 3895 0004 0400     		.2byte	0x4
 3896 0006 00000000 		.4byte	.Ldebug_abbrev0
 3897 000a 04       		.byte	0x4
 3898 000b 01       		.uleb128 0x1
 3899 000c 10030000 		.4byte	.LASF102
 3900 0010 0C       		.byte	0xc
 3901 0011 AB070000 		.4byte	.LASF103
 3902 0015 BD040000 		.4byte	.LASF104
 3903 0019 00000000 		.4byte	.Ldebug_ranges0+0
 3904 001d 00000000 		.4byte	0
 3905 0021 00000000 		.4byte	.Ldebug_line0
 3906 0025 02       		.uleb128 0x2
 3907 0026 01       		.byte	0x1
 3908 0027 06       		.byte	0x6
 3909 0028 DF000000 		.4byte	.LASF0
 3910 002c 02       		.uleb128 0x2
 3911 002d 01       		.byte	0x1
 3912 002e 08       		.byte	0x8
 3913 002f 7F050000 		.4byte	.LASF1
 3914 0033 02       		.uleb128 0x2
 3915 0034 02       		.byte	0x2
 3916 0035 05       		.byte	0x5
 3917 0036 AB050000 		.4byte	.LASF2
 3918 003a 02       		.uleb128 0x2
 3919 003b 02       		.byte	0x2
 3920 003c 07       		.byte	0x7
 3921 003d 87020000 		.4byte	.LASF3
 3922 0041 02       		.uleb128 0x2
 3923 0042 04       		.byte	0x4
 3924 0043 05       		.byte	0x5
 3925 0044 20010000 		.4byte	.LASF4
 3926 0048 02       		.uleb128 0x2
 3927 0049 04       		.byte	0x4
 3928 004a 07       		.byte	0x7
 3929 004b 6A020000 		.4byte	.LASF5
 3930 004f 02       		.uleb128 0x2
 3931 0050 08       		.byte	0x8
 3932 0051 05       		.byte	0x5
 3933 0052 D1000000 		.4byte	.LASF6
 3934 0056 02       		.uleb128 0x2
 3935 0057 08       		.byte	0x8
 3936 0058 07       		.byte	0x7
 3937 0059 8B000000 		.4byte	.LASF7
 3938 005d 03       		.uleb128 0x3
 3939 005e 04       		.byte	0x4
 3940 005f 05       		.byte	0x5
 3941 0060 696E7400 		.ascii	"int\000"
 3942 0064 02       		.uleb128 0x2
 3943 0065 04       		.byte	0x4
 3944 0066 07       		.byte	0x7
ARM GAS  C:\Users\HPz420\AppData\Local\Temp\ccz4K5YU.s 			page 96


 3945 0067 46020000 		.4byte	.LASF8
 3946 006b 04       		.uleb128 0x4
 3947 006c 8E010000 		.4byte	.LASF9
 3948 0070 02       		.byte	0x2
 3949 0071 D201     		.2byte	0x1d2
 3950 0073 2C000000 		.4byte	0x2c
 3951 0077 04       		.uleb128 0x4
 3952 0078 CB010000 		.4byte	.LASF10
 3953 007c 02       		.byte	0x2
 3954 007d D401     		.2byte	0x1d4
 3955 007f 48000000 		.4byte	0x48
 3956 0083 04       		.uleb128 0x4
 3957 0084 03010000 		.4byte	.LASF11
 3958 0088 02       		.byte	0x2
 3959 0089 D701     		.2byte	0x1d7
 3960 008b 41000000 		.4byte	0x41
 3961 008f 02       		.uleb128 0x2
 3962 0090 04       		.byte	0x4
 3963 0091 04       		.byte	0x4
 3964 0092 42050000 		.4byte	.LASF12
 3965 0096 02       		.uleb128 0x2
 3966 0097 08       		.byte	0x8
 3967 0098 04       		.byte	0x4
 3968 0099 A8010000 		.4byte	.LASF13
 3969 009d 02       		.uleb128 0x2
 3970 009e 01       		.byte	0x1
 3971 009f 08       		.byte	0x8
 3972 00a0 2E060000 		.4byte	.LASF14
 3973 00a4 04       		.uleb128 0x4
 3974 00a5 42070000 		.4byte	.LASF15
 3975 00a9 02       		.byte	0x2
 3976 00aa 7402     		.2byte	0x274
 3977 00ac 48000000 		.4byte	0x48
 3978 00b0 04       		.uleb128 0x4
 3979 00b1 9E030000 		.4byte	.LASF16
 3980 00b5 02       		.byte	0x2
 3981 00b6 7E02     		.2byte	0x27e
 3982 00b8 BC000000 		.4byte	0xbc
 3983 00bc 05       		.uleb128 0x5
 3984 00bd 77000000 		.4byte	0x77
 3985 00c1 04       		.uleb128 0x4
 3986 00c2 4D060000 		.4byte	.LASF17
 3987 00c6 02       		.byte	0x2
 3988 00c7 8E02     		.2byte	0x28e
 3989 00c9 CD000000 		.4byte	0xcd
 3990 00cd 06       		.uleb128 0x6
 3991 00ce 04       		.byte	0x4
 3992 00cf D3000000 		.4byte	0xd3
 3993 00d3 07       		.uleb128 0x7
 3994 00d4 08       		.uleb128 0x8
 3995 00d5 80       		.byte	0x80
 3996 00d6 03       		.byte	0x3
 3997 00d7 26       		.byte	0x26
 3998 00d8 E9000000 		.4byte	0xe9
 3999 00dc 09       		.uleb128 0x9
 4000 00dd 63746C00 		.ascii	"ctl\000"
 4001 00e1 03       		.byte	0x3
ARM GAS  C:\Users\HPz420\AppData\Local\Temp\ccz4K5YU.s 			page 97


 4002 00e2 28       		.byte	0x28
 4003 00e3 E9000000 		.4byte	0xe9
 4004 00e7 00       		.byte	0
 4005 00e8 00       		.byte	0
 4006 00e9 0A       		.uleb128 0xa
 4007 00ea 77000000 		.4byte	0x77
 4008 00ee F9000000 		.4byte	0xf9
 4009 00f2 0B       		.uleb128 0xb
 4010 00f3 F9000000 		.4byte	0xf9
 4011 00f7 1F       		.byte	0x1f
 4012 00f8 00       		.byte	0
 4013 00f9 02       		.uleb128 0x2
 4014 00fa 04       		.byte	0x4
 4015 00fb 07       		.byte	0x7
 4016 00fc D7030000 		.4byte	.LASF18
 4017 0100 0C       		.uleb128 0xc
 4018 0101 29010000 		.4byte	.LASF19
 4019 0105 03       		.byte	0x3
 4020 0106 29       		.byte	0x29
 4021 0107 D4000000 		.4byte	0xd4
 4022 010b 08       		.uleb128 0x8
 4023 010c 10       		.byte	0x10
 4024 010d 03       		.byte	0x3
 4025 010e 2C       		.byte	0x2c
 4026 010f 44010000 		.4byte	0x144
 4027 0113 09       		.uleb128 0x9
 4028 0114 73726300 		.ascii	"src\000"
 4029 0118 03       		.byte	0x3
 4030 0119 2E       		.byte	0x2e
 4031 011a 44010000 		.4byte	0x144
 4032 011e 00       		.byte	0
 4033 011f 09       		.uleb128 0x9
 4034 0120 64737400 		.ascii	"dst\000"
 4035 0124 03       		.byte	0x3
 4036 0125 2F       		.byte	0x2f
 4037 0126 44010000 		.4byte	0x144
 4038 012a 04       		.byte	0x4
 4039 012b 09       		.uleb128 0x9
 4040 012c 63746C00 		.ascii	"ctl\000"
 4041 0130 03       		.byte	0x3
 4042 0131 30       		.byte	0x30
 4043 0132 77000000 		.4byte	0x77
 4044 0136 08       		.byte	0x8
 4045 0137 0D       		.uleb128 0xd
 4046 0138 23070000 		.4byte	.LASF20
 4047 013c 03       		.byte	0x3
 4048 013d 31       		.byte	0x31
 4049 013e 77000000 		.4byte	0x77
 4050 0142 0C       		.byte	0xc
 4051 0143 00       		.byte	0
 4052 0144 0E       		.uleb128 0xe
 4053 0145 04       		.byte	0x4
 4054 0146 0C       		.uleb128 0xc
 4055 0147 2A070000 		.4byte	.LASF21
 4056 014b 03       		.byte	0x3
 4057 014c 32       		.byte	0x32
 4058 014d 0B010000 		.4byte	0x10b
ARM GAS  C:\Users\HPz420\AppData\Local\Temp\ccz4K5YU.s 			page 98


 4059 0151 0F       		.uleb128 0xf
 4060 0152 0004     		.2byte	0x400
 4061 0154 03       		.byte	0x3
 4062 0155 38       		.byte	0x38
 4063 0156 67010000 		.4byte	0x167
 4064 015a 0D       		.uleb128 0xd
 4065 015b 17060000 		.4byte	.LASF22
 4066 015f 03       		.byte	0x3
 4067 0160 3A       		.byte	0x3a
 4068 0161 67010000 		.4byte	0x167
 4069 0165 00       		.byte	0
 4070 0166 00       		.byte	0
 4071 0167 0A       		.uleb128 0xa
 4072 0168 46010000 		.4byte	0x146
 4073 016c 7D010000 		.4byte	0x17d
 4074 0170 0B       		.uleb128 0xb
 4075 0171 F9000000 		.4byte	0xf9
 4076 0175 1F       		.byte	0x1f
 4077 0176 0B       		.uleb128 0xb
 4078 0177 F9000000 		.4byte	0xf9
 4079 017b 01       		.byte	0x1
 4080 017c 00       		.byte	0
 4081 017d 0C       		.uleb128 0xc
 4082 017e 7B070000 		.4byte	.LASF23
 4083 0182 03       		.byte	0x3
 4084 0183 3B       		.byte	0x3b
 4085 0184 51010000 		.4byte	0x151
 4086 0188 08       		.uleb128 0x8
 4087 0189 20       		.byte	0x20
 4088 018a 03       		.byte	0x3
 4089 018b 3E       		.byte	0x3e
 4090 018c F1010000 		.4byte	0x1f1
 4091 0190 0D       		.uleb128 0xd
 4092 0191 32050000 		.4byte	.LASF24
 4093 0195 03       		.byte	0x3
 4094 0196 44       		.byte	0x44
 4095 0197 77000000 		.4byte	0x77
 4096 019b 00       		.byte	0
 4097 019c 0D       		.uleb128 0xd
 4098 019d 7E010000 		.4byte	.LASF25
 4099 01a1 03       		.byte	0x3
 4100 01a2 49       		.byte	0x49
 4101 01a3 83000000 		.4byte	0x83
 4102 01a7 04       		.byte	0x4
 4103 01a8 0D       		.uleb128 0xd
 4104 01a9 71040000 		.4byte	.LASF26
 4105 01ad 03       		.byte	0x3
 4106 01ae 4C       		.byte	0x4c
 4107 01af 77000000 		.4byte	0x77
 4108 01b3 08       		.byte	0x8
 4109 01b4 0D       		.uleb128 0xd
 4110 01b5 CE060000 		.4byte	.LASF27
 4111 01b9 03       		.byte	0x3
 4112 01ba 51       		.byte	0x51
 4113 01bb 77000000 		.4byte	0x77
 4114 01bf 0C       		.byte	0xc
 4115 01c0 0D       		.uleb128 0xd
ARM GAS  C:\Users\HPz420\AppData\Local\Temp\ccz4K5YU.s 			page 99


 4116 01c1 D2010000 		.4byte	.LASF28
 4117 01c5 03       		.byte	0x3
 4118 01c6 54       		.byte	0x54
 4119 01c7 77000000 		.4byte	0x77
 4120 01cb 10       		.byte	0x10
 4121 01cc 0D       		.uleb128 0xd
 4122 01cd 39020000 		.4byte	.LASF29
 4123 01d1 03       		.byte	0x3
 4124 01d2 57       		.byte	0x57
 4125 01d3 77000000 		.4byte	0x77
 4126 01d7 14       		.byte	0x14
 4127 01d8 0D       		.uleb128 0xd
 4128 01d9 D2070000 		.4byte	.LASF30
 4129 01dd 03       		.byte	0x3
 4130 01de 5A       		.byte	0x5a
 4131 01df 77000000 		.4byte	0x77
 4132 01e3 18       		.byte	0x18
 4133 01e4 0D       		.uleb128 0xd
 4134 01e5 CA070000 		.4byte	.LASF31
 4135 01e9 03       		.byte	0x3
 4136 01ea 5D       		.byte	0x5d
 4137 01eb 77000000 		.4byte	0x77
 4138 01ef 1C       		.byte	0x1c
 4139 01f0 00       		.byte	0
 4140 01f1 0C       		.uleb128 0xc
 4141 01f2 10020000 		.4byte	.LASF32
 4142 01f6 03       		.byte	0x3
 4143 01f7 5F       		.byte	0x5f
 4144 01f8 88010000 		.4byte	0x188
 4145 01fc 0C       		.uleb128 0xc
 4146 01fd 48050000 		.4byte	.LASF33
 4147 0201 03       		.byte	0x3
 4148 0202 67       		.byte	0x67
 4149 0203 CD000000 		.4byte	0xcd
 4150 0207 02       		.uleb128 0x2
 4151 0208 08       		.byte	0x8
 4152 0209 04       		.byte	0x4
 4153 020a E0030000 		.4byte	.LASF34
 4154 020e 10       		.uleb128 0x10
 4155 020f C2060000 		.4byte	.LASF39
 4156 0213 01       		.byte	0x1
 4157 0214 4A       		.byte	0x4a
 4158 0215 00000000 		.4byte	.LFB1
 4159 0219 3C000000 		.4byte	.LFE1-.LFB1
 4160 021d 01       		.uleb128 0x1
 4161 021e 9C       		.byte	0x9c
 4162 021f 35020000 		.4byte	0x235
 4163 0223 11       		.uleb128 0x11
 4164 0224 55010000 		.4byte	.LASF50
 4165 0228 01       		.byte	0x1
 4166 0229 4C       		.byte	0x4c
 4167 022a 6B000000 		.4byte	0x6b
 4168 022e 05       		.uleb128 0x5
 4169 022f 03       		.byte	0x3
 4170 0230 04000000 		.4byte	initIntrVector.5066
 4171 0234 00       		.byte	0
 4172 0235 12       		.uleb128 0x12
ARM GAS  C:\Users\HPz420\AppData\Local\Temp\ccz4K5YU.s 			page 100


 4173 0236 94010000 		.4byte	.LASF105
 4174 023a 01       		.byte	0x1
 4175 023b 69       		.byte	0x69
 4176 023c 00000000 		.4byte	.LFB2
 4177 0240 18000000 		.4byte	.LFE2-.LFB2
 4178 0244 01       		.uleb128 0x1
 4179 0245 9C       		.byte	0x9c
 4180 0246 13       		.uleb128 0x13
 4181 0247 70050000 		.4byte	.LASF35
 4182 024b 01       		.byte	0x1
 4183 024c 85       		.byte	0x85
 4184 024d 77000000 		.4byte	0x77
 4185 0251 00000000 		.4byte	.LFB3
 4186 0255 14000000 		.4byte	.LFE3-.LFB3
 4187 0259 01       		.uleb128 0x1
 4188 025a 9C       		.byte	0x9c
 4189 025b 13       		.uleb128 0x13
 4190 025c 53020000 		.4byte	.LASF36
 4191 0260 01       		.byte	0x1
 4192 0261 9A       		.byte	0x9a
 4193 0262 77000000 		.4byte	0x77
 4194 0266 00000000 		.4byte	.LFB4
 4195 026a 14000000 		.4byte	.LFE4-.LFB4
 4196 026e 01       		.uleb128 0x1
 4197 026f 9C       		.byte	0x9c
 4198 0270 13       		.uleb128 0x13
 4199 0271 2B000000 		.4byte	.LASF37
 4200 0275 01       		.byte	0x1
 4201 0276 B6       		.byte	0xb6
 4202 0277 44010000 		.4byte	0x144
 4203 027b 00000000 		.4byte	.LFB5
 4204 027f 14000000 		.4byte	.LFE5-.LFB5
 4205 0283 01       		.uleb128 0x1
 4206 0284 9C       		.byte	0x9c
 4207 0285 13       		.uleb128 0x13
 4208 0286 F2060000 		.4byte	.LASF38
 4209 028a 01       		.byte	0x1
 4210 028b D2       		.byte	0xd2
 4211 028c 44010000 		.4byte	0x144
 4212 0290 00000000 		.4byte	.LFB6
 4213 0294 14000000 		.4byte	.LFE6-.LFB6
 4214 0298 01       		.uleb128 0x1
 4215 0299 9C       		.byte	0x9c
 4216 029a 10       		.uleb128 0x10
 4217 029b 00000000 		.4byte	.LASF40
 4218 029f 01       		.byte	0x1
 4219 02a0 EF       		.byte	0xef
 4220 02a1 00000000 		.4byte	.LFB7
 4221 02a5 1A000000 		.4byte	.LFE7-.LFB7
 4222 02a9 01       		.uleb128 0x1
 4223 02aa 9C       		.byte	0x9c
 4224 02ab BE020000 		.4byte	0x2be
 4225 02af 14       		.uleb128 0x14
 4226 02b0 A2000000 		.4byte	.LASF43
 4227 02b4 01       		.byte	0x1
 4228 02b5 EF       		.byte	0xef
 4229 02b6 C1000000 		.4byte	0xc1
ARM GAS  C:\Users\HPz420\AppData\Local\Temp\ccz4K5YU.s 			page 101


 4230 02ba 02       		.uleb128 0x2
 4231 02bb 91       		.byte	0x91
 4232 02bc 74       		.sleb128 -12
 4233 02bd 00       		.byte	0
 4234 02be 15       		.uleb128 0x15
 4235 02bf 59040000 		.4byte	.LASF41
 4236 02c3 01       		.byte	0x1
 4237 02c4 0301     		.2byte	0x103
 4238 02c6 77000000 		.4byte	0x77
 4239 02ca 00000000 		.4byte	.LFB8
 4240 02ce 14000000 		.4byte	.LFE8-.LFB8
 4241 02d2 01       		.uleb128 0x1
 4242 02d3 9C       		.byte	0x9c
 4243 02d4 16       		.uleb128 0x16
 4244 02d5 33060000 		.4byte	.LASF42
 4245 02d9 01       		.byte	0x1
 4246 02da 1701     		.2byte	0x117
 4247 02dc 00000000 		.4byte	.LFB9
 4248 02e0 1C000000 		.4byte	.LFE9-.LFB9
 4249 02e4 01       		.uleb128 0x1
 4250 02e5 9C       		.byte	0x9c
 4251 02e6 FA020000 		.4byte	0x2fa
 4252 02ea 17       		.uleb128 0x17
 4253 02eb B5050000 		.4byte	.LASF44
 4254 02ef 01       		.byte	0x1
 4255 02f0 1701     		.2byte	0x117
 4256 02f2 77000000 		.4byte	0x77
 4257 02f6 02       		.uleb128 0x2
 4258 02f7 91       		.byte	0x91
 4259 02f8 74       		.sleb128 -12
 4260 02f9 00       		.byte	0
 4261 02fa 16       		.uleb128 0x16
 4262 02fb F4010000 		.4byte	.LASF45
 4263 02ff 01       		.byte	0x1
 4264 0300 2B01     		.2byte	0x12b
 4265 0302 00000000 		.4byte	.LFB10
 4266 0306 1C000000 		.4byte	.LFE10-.LFB10
 4267 030a 01       		.uleb128 0x1
 4268 030b 9C       		.byte	0x9c
 4269 030c 20030000 		.4byte	0x320
 4270 0310 17       		.uleb128 0x17
 4271 0311 B5050000 		.4byte	.LASF44
 4272 0315 01       		.byte	0x1
 4273 0316 2B01     		.2byte	0x12b
 4274 0318 77000000 		.4byte	0x77
 4275 031c 02       		.uleb128 0x2
 4276 031d 91       		.byte	0x91
 4277 031e 74       		.sleb128 -12
 4278 031f 00       		.byte	0
 4279 0320 15       		.uleb128 0x15
 4280 0321 C3050000 		.4byte	.LASF46
 4281 0325 01       		.byte	0x1
 4282 0326 3F01     		.2byte	0x13f
 4283 0328 77000000 		.4byte	0x77
 4284 032c 00000000 		.4byte	.LFB11
 4285 0330 14000000 		.4byte	.LFE11-.LFB11
 4286 0334 01       		.uleb128 0x1
ARM GAS  C:\Users\HPz420\AppData\Local\Temp\ccz4K5YU.s 			page 102


 4287 0335 9C       		.byte	0x9c
 4288 0336 15       		.uleb128 0x15
 4289 0337 8D050000 		.4byte	.LASF47
 4290 033b 01       		.byte	0x1
 4291 033c 5301     		.2byte	0x153
 4292 033e 77000000 		.4byte	0x77
 4293 0342 00000000 		.4byte	.LFB12
 4294 0346 14000000 		.4byte	.LFE12-.LFB12
 4295 034a 01       		.uleb128 0x1
 4296 034b 9C       		.byte	0x9c
 4297 034c 18       		.uleb128 0x18
 4298 034d 3F040000 		.4byte	.LASF52
 4299 0351 01       		.byte	0x1
 4300 0352 6A01     		.2byte	0x16a
 4301 0354 FC010000 		.4byte	0x1fc
 4302 0358 00000000 		.4byte	.LFB13
 4303 035c 48000000 		.4byte	.LFE13-.LFB13
 4304 0360 01       		.uleb128 0x1
 4305 0361 9C       		.byte	0x9c
 4306 0362 94030000 		.4byte	0x394
 4307 0366 17       		.uleb128 0x17
 4308 0367 EE050000 		.4byte	.LASF48
 4309 036b 01       		.byte	0x1
 4310 036c 6A01     		.2byte	0x16a
 4311 036e 83000000 		.4byte	0x83
 4312 0372 02       		.uleb128 0x2
 4313 0373 91       		.byte	0x91
 4314 0374 6C       		.sleb128 -20
 4315 0375 17       		.uleb128 0x17
 4316 0376 D1020000 		.4byte	.LASF49
 4317 037a 01       		.byte	0x1
 4318 037b 6A01     		.2byte	0x16a
 4319 037d FC010000 		.4byte	0x1fc
 4320 0381 02       		.uleb128 0x2
 4321 0382 91       		.byte	0x91
 4322 0383 68       		.sleb128 -24
 4323 0384 19       		.uleb128 0x19
 4324 0385 DE010000 		.4byte	.LASF51
 4325 0389 01       		.byte	0x1
 4326 038a 6C01     		.2byte	0x16c
 4327 038c FC010000 		.4byte	0x1fc
 4328 0390 02       		.uleb128 0x2
 4329 0391 91       		.byte	0x91
 4330 0392 74       		.sleb128 -12
 4331 0393 00       		.byte	0
 4332 0394 18       		.uleb128 0x18
 4333 0395 64010000 		.4byte	.LASF53
 4334 0399 01       		.byte	0x1
 4335 039a 8501     		.2byte	0x185
 4336 039c FC010000 		.4byte	0x1fc
 4337 03a0 00000000 		.4byte	.LFB14
 4338 03a4 38000000 		.4byte	.LFE14-.LFB14
 4339 03a8 01       		.uleb128 0x1
 4340 03a9 9C       		.byte	0x9c
 4341 03aa BE030000 		.4byte	0x3be
 4342 03ae 17       		.uleb128 0x17
 4343 03af EE050000 		.4byte	.LASF48
ARM GAS  C:\Users\HPz420\AppData\Local\Temp\ccz4K5YU.s 			page 103


 4344 03b3 01       		.byte	0x1
 4345 03b4 8501     		.2byte	0x185
 4346 03b6 83000000 		.4byte	0x83
 4347 03ba 02       		.uleb128 0x2
 4348 03bb 91       		.byte	0x91
 4349 03bc 74       		.sleb128 -12
 4350 03bd 00       		.byte	0
 4351 03be 1A       		.uleb128 0x1a
 4352 03bf 9D040000 		.4byte	.LASF54
 4353 03c3 01       		.byte	0x1
 4354 03c4 A001     		.2byte	0x1a0
 4355 03c6 00000000 		.4byte	.LFB15
 4356 03ca 50000000 		.4byte	.LFE15-.LFB15
 4357 03ce 01       		.uleb128 0x1
 4358 03cf 9C       		.byte	0x9c
 4359 03d0 F3030000 		.4byte	0x3f3
 4360 03d4 19       		.uleb128 0x19
 4361 03d5 EC030000 		.4byte	.LASF55
 4362 03d9 01       		.byte	0x1
 4363 03da A201     		.2byte	0x1a2
 4364 03dc 77000000 		.4byte	0x77
 4365 03e0 02       		.uleb128 0x2
 4366 03e1 91       		.byte	0x91
 4367 03e2 74       		.sleb128 -12
 4368 03e3 19       		.uleb128 0x19
 4369 03e4 74000000 		.4byte	.LASF56
 4370 03e8 01       		.byte	0x1
 4371 03e9 A301     		.2byte	0x1a3
 4372 03eb 77000000 		.4byte	0x77
 4373 03ef 02       		.uleb128 0x2
 4374 03f0 91       		.byte	0x91
 4375 03f1 70       		.sleb128 -16
 4376 03f2 00       		.byte	0
 4377 03f3 1B       		.uleb128 0x1b
 4378 03f4 F1030000 		.4byte	.LASF106
 4379 03f8 01       		.byte	0x1
 4380 03f9 C701     		.2byte	0x1c7
 4381 03fb 00000000 		.4byte	.LFB16
 4382 03ff 10000000 		.4byte	.LFE16-.LFB16
 4383 0403 01       		.uleb128 0x1
 4384 0404 9C       		.byte	0x9c
 4385 0405 1C       		.uleb128 0x1c
 4386 0406 0A060000 		.4byte	.LASF57
 4387 040a 01       		.byte	0x1
 4388 040b E401     		.2byte	0x1e4
 4389 040d 83000000 		.4byte	0x83
 4390 0411 00000000 		.4byte	.LFB17
 4391 0415 4C000000 		.4byte	.LFE17-.LFB17
 4392 0419 01       		.uleb128 0x1
 4393 041a 9C       		.byte	0x9c
 4394 041b 3E040000 		.4byte	0x43e
 4395 041f 19       		.uleb128 0x19
 4396 0420 EE050000 		.4byte	.LASF48
 4397 0424 01       		.byte	0x1
 4398 0425 E601     		.2byte	0x1e6
 4399 0427 83000000 		.4byte	0x83
 4400 042b 02       		.uleb128 0x2
ARM GAS  C:\Users\HPz420\AppData\Local\Temp\ccz4K5YU.s 			page 104


 4401 042c 91       		.byte	0x91
 4402 042d 74       		.sleb128 -12
 4403 042e 19       		.uleb128 0x19
 4404 042f 22060000 		.4byte	.LASF58
 4405 0433 01       		.byte	0x1
 4406 0434 E701     		.2byte	0x1e7
 4407 0436 77000000 		.4byte	0x77
 4408 043a 02       		.uleb128 0x2
 4409 043b 91       		.byte	0x91
 4410 043c 70       		.sleb128 -16
 4411 043d 00       		.byte	0
 4412 043e 18       		.uleb128 0x18
 4413 043f F2070000 		.4byte	.LASF59
 4414 0443 01       		.byte	0x1
 4415 0444 0802     		.2byte	0x208
 4416 0446 A4000000 		.4byte	0xa4
 4417 044a 00000000 		.4byte	.LFB18
 4418 044e 54000000 		.4byte	.LFE18-.LFB18
 4419 0452 01       		.uleb128 0x1
 4420 0453 9C       		.byte	0x9c
 4421 0454 86040000 		.4byte	0x486
 4422 0458 17       		.uleb128 0x17
 4423 0459 EE050000 		.4byte	.LASF48
 4424 045d 01       		.byte	0x1
 4425 045e 0802     		.2byte	0x208
 4426 0460 83000000 		.4byte	0x83
 4427 0464 02       		.uleb128 0x2
 4428 0465 91       		.byte	0x91
 4429 0466 6C       		.sleb128 -20
 4430 0467 19       		.uleb128 0x19
 4431 0468 22060000 		.4byte	.LASF58
 4432 046c 01       		.byte	0x1
 4433 046d 0A02     		.2byte	0x20a
 4434 046f 77000000 		.4byte	0x77
 4435 0473 02       		.uleb128 0x2
 4436 0474 91       		.byte	0x91
 4437 0475 70       		.sleb128 -16
 4438 0476 19       		.uleb128 0x19
 4439 0477 A1010000 		.4byte	.LASF60
 4440 047b 01       		.byte	0x1
 4441 047c 0B02     		.2byte	0x20b
 4442 047e A4000000 		.4byte	0xa4
 4443 0482 02       		.uleb128 0x2
 4444 0483 91       		.byte	0x91
 4445 0484 74       		.sleb128 -12
 4446 0485 00       		.byte	0
 4447 0486 1A       		.uleb128 0x1a
 4448 0487 66000000 		.4byte	.LASF61
 4449 048b 01       		.byte	0x1
 4450 048c 3102     		.2byte	0x231
 4451 048e 00000000 		.4byte	.LFB19
 4452 0492 48000000 		.4byte	.LFE19-.LFB19
 4453 0496 01       		.uleb128 0x1
 4454 0497 9C       		.byte	0x9c
 4455 0498 AC040000 		.4byte	0x4ac
 4456 049c 17       		.uleb128 0x17
 4457 049d EE050000 		.4byte	.LASF48
ARM GAS  C:\Users\HPz420\AppData\Local\Temp\ccz4K5YU.s 			page 105


 4458 04a1 01       		.byte	0x1
 4459 04a2 3102     		.2byte	0x231
 4460 04a4 83000000 		.4byte	0x83
 4461 04a8 02       		.uleb128 0x2
 4462 04a9 91       		.byte	0x91
 4463 04aa 74       		.sleb128 -12
 4464 04ab 00       		.byte	0
 4465 04ac 1A       		.uleb128 0x1a
 4466 04ad 44000000 		.4byte	.LASF62
 4467 04b1 01       		.byte	0x1
 4468 04b2 4A02     		.2byte	0x24a
 4469 04b4 00000000 		.4byte	.LFB20
 4470 04b8 44000000 		.4byte	.LFE20-.LFB20
 4471 04bc 01       		.uleb128 0x1
 4472 04bd 9C       		.byte	0x9c
 4473 04be D2040000 		.4byte	0x4d2
 4474 04c2 17       		.uleb128 0x17
 4475 04c3 EE050000 		.4byte	.LASF48
 4476 04c7 01       		.byte	0x1
 4477 04c8 4A02     		.2byte	0x24a
 4478 04ca 83000000 		.4byte	0x83
 4479 04ce 02       		.uleb128 0x2
 4480 04cf 91       		.byte	0x91
 4481 04d0 74       		.sleb128 -12
 4482 04d1 00       		.byte	0
 4483 04d2 1A       		.uleb128 0x1a
 4484 04d3 59070000 		.4byte	.LASF63
 4485 04d7 01       		.byte	0x1
 4486 04d8 6102     		.2byte	0x261
 4487 04da 00000000 		.4byte	.LFB21
 4488 04de 4C000000 		.4byte	.LFE21-.LFB21
 4489 04e2 01       		.uleb128 0x1
 4490 04e3 9C       		.byte	0x9c
 4491 04e4 0A050000 		.4byte	0x50a
 4492 04e8 17       		.uleb128 0x17
 4493 04e9 EE050000 		.4byte	.LASF48
 4494 04ed 01       		.byte	0x1
 4495 04ee 6102     		.2byte	0x261
 4496 04f0 83000000 		.4byte	0x83
 4497 04f4 02       		.uleb128 0x2
 4498 04f5 91       		.byte	0x91
 4499 04f6 74       		.sleb128 -12
 4500 04f7 19       		.uleb128 0x19
 4501 04f8 C8000000 		.4byte	.LASF64
 4502 04fc 01       		.byte	0x1
 4503 04fd 6402     		.2byte	0x264
 4504 04ff 1F050000 		.4byte	0x51f
 4505 0503 05       		.uleb128 0x5
 4506 0504 03       		.byte	0x3
 4507 0505 00000000 		.4byte	trCtlLut.5141
 4508 0509 00       		.byte	0
 4509 050a 0A       		.uleb128 0xa
 4510 050b 1A050000 		.4byte	0x51a
 4511 050f 1A050000 		.4byte	0x51a
 4512 0513 0B       		.uleb128 0xb
 4513 0514 F9000000 		.4byte	0xf9
 4514 0518 03       		.byte	0x3
ARM GAS  C:\Users\HPz420\AppData\Local\Temp\ccz4K5YU.s 			page 106


 4515 0519 00       		.byte	0
 4516 051a 1D       		.uleb128 0x1d
 4517 051b 77000000 		.4byte	0x77
 4518 051f 1D       		.uleb128 0x1d
 4519 0520 0A050000 		.4byte	0x50a
 4520 0524 1A       		.uleb128 0x1a
 4521 0525 AC040000 		.4byte	.LASF65
 4522 0529 01       		.byte	0x1
 4523 052a 7F02     		.2byte	0x27f
 4524 052c 00000000 		.4byte	.LFB22
 4525 0530 70000000 		.4byte	.LFE22-.LFB22
 4526 0534 01       		.uleb128 0x1
 4527 0535 9C       		.byte	0x9c
 4528 0536 68050000 		.4byte	0x568
 4529 053a 17       		.uleb128 0x17
 4530 053b EE050000 		.4byte	.LASF48
 4531 053f 01       		.byte	0x1
 4532 0540 7F02     		.2byte	0x27f
 4533 0542 83000000 		.4byte	0x83
 4534 0546 02       		.uleb128 0x2
 4535 0547 91       		.byte	0x91
 4536 0548 6C       		.sleb128 -20
 4537 0549 17       		.uleb128 0x17
 4538 054a DA020000 		.4byte	.LASF66
 4539 054e 01       		.byte	0x1
 4540 054f 7F02     		.2byte	0x27f
 4541 0551 83000000 		.4byte	0x83
 4542 0555 02       		.uleb128 0x2
 4543 0556 91       		.byte	0x91
 4544 0557 68       		.sleb128 -24
 4545 0558 19       		.uleb128 0x19
 4546 0559 EB010000 		.4byte	.LASF67
 4547 055d 01       		.byte	0x1
 4548 055e 8102     		.2byte	0x281
 4549 0560 77000000 		.4byte	0x77
 4550 0564 02       		.uleb128 0x2
 4551 0565 91       		.byte	0x91
 4552 0566 74       		.sleb128 -12
 4553 0567 00       		.byte	0
 4554 0568 18       		.uleb128 0x18
 4555 0569 7A000000 		.4byte	.LASF68
 4556 056d 01       		.byte	0x1
 4557 056e 9902     		.2byte	0x299
 4558 0570 83000000 		.4byte	0x83
 4559 0574 00000000 		.4byte	.LFB23
 4560 0578 44000000 		.4byte	.LFE23-.LFB23
 4561 057c 01       		.uleb128 0x1
 4562 057d 9C       		.byte	0x9c
 4563 057e A1050000 		.4byte	0x5a1
 4564 0582 17       		.uleb128 0x17
 4565 0583 EE050000 		.4byte	.LASF48
 4566 0587 01       		.byte	0x1
 4567 0588 9902     		.2byte	0x299
 4568 058a 83000000 		.4byte	0x83
 4569 058e 02       		.uleb128 0x2
 4570 058f 91       		.byte	0x91
 4571 0590 6C       		.sleb128 -20
ARM GAS  C:\Users\HPz420\AppData\Local\Temp\ccz4K5YU.s 			page 107


 4572 0591 19       		.uleb128 0x19
 4573 0592 DA020000 		.4byte	.LASF66
 4574 0596 01       		.byte	0x1
 4575 0597 9B02     		.2byte	0x29b
 4576 0599 77000000 		.4byte	0x77
 4577 059d 02       		.uleb128 0x2
 4578 059e 91       		.byte	0x91
 4579 059f 74       		.sleb128 -12
 4580 05a0 00       		.byte	0
 4581 05a1 1A       		.uleb128 0x1a
 4582 05a2 22020000 		.4byte	.LASF69
 4583 05a6 01       		.byte	0x1
 4584 05a7 B702     		.2byte	0x2b7
 4585 05a9 00000000 		.4byte	.LFB24
 4586 05ad 70000000 		.4byte	.LFE24-.LFB24
 4587 05b1 01       		.uleb128 0x1
 4588 05b2 9C       		.byte	0x9c
 4589 05b3 E5050000 		.4byte	0x5e5
 4590 05b7 17       		.uleb128 0x17
 4591 05b8 EE050000 		.4byte	.LASF48
 4592 05bc 01       		.byte	0x1
 4593 05bd B702     		.2byte	0x2b7
 4594 05bf 83000000 		.4byte	0x83
 4595 05c3 02       		.uleb128 0x2
 4596 05c4 91       		.byte	0x91
 4597 05c5 6C       		.sleb128 -20
 4598 05c6 17       		.uleb128 0x17
 4599 05c7 17060000 		.4byte	.LASF22
 4600 05cb 01       		.byte	0x1
 4601 05cc B702     		.2byte	0x2b7
 4602 05ce 83000000 		.4byte	0x83
 4603 05d2 02       		.uleb128 0x2
 4604 05d3 91       		.byte	0x91
 4605 05d4 68       		.sleb128 -24
 4606 05d5 19       		.uleb128 0x19
 4607 05d6 EB010000 		.4byte	.LASF67
 4608 05da 01       		.byte	0x1
 4609 05db B902     		.2byte	0x2b9
 4610 05dd 77000000 		.4byte	0x77
 4611 05e1 02       		.uleb128 0x2
 4612 05e2 91       		.byte	0x91
 4613 05e3 74       		.sleb128 -12
 4614 05e4 00       		.byte	0
 4615 05e5 18       		.uleb128 0x18
 4616 05e6 09010000 		.4byte	.LASF70
 4617 05ea 01       		.byte	0x1
 4618 05eb D202     		.2byte	0x2d2
 4619 05ed 83000000 		.4byte	0x83
 4620 05f1 00000000 		.4byte	.LFB25
 4621 05f5 44000000 		.4byte	.LFE25-.LFB25
 4622 05f9 01       		.uleb128 0x1
 4623 05fa 9C       		.byte	0x9c
 4624 05fb 1E060000 		.4byte	0x61e
 4625 05ff 17       		.uleb128 0x17
 4626 0600 EE050000 		.4byte	.LASF48
 4627 0604 01       		.byte	0x1
 4628 0605 D202     		.2byte	0x2d2
ARM GAS  C:\Users\HPz420\AppData\Local\Temp\ccz4K5YU.s 			page 108


 4629 0607 83000000 		.4byte	0x83
 4630 060b 02       		.uleb128 0x2
 4631 060c 91       		.byte	0x91
 4632 060d 6C       		.sleb128 -20
 4633 060e 19       		.uleb128 0x19
 4634 060f DF050000 		.4byte	.LASF71
 4635 0613 01       		.byte	0x1
 4636 0614 D402     		.2byte	0x2d4
 4637 0616 77000000 		.4byte	0x77
 4638 061a 02       		.uleb128 0x2
 4639 061b 91       		.byte	0x91
 4640 061c 74       		.sleb128 -12
 4641 061d 00       		.byte	0
 4642 061e 1A       		.uleb128 0x1a
 4643 061f B2000000 		.4byte	.LASF72
 4644 0623 01       		.byte	0x1
 4645 0624 F502     		.2byte	0x2f5
 4646 0626 00000000 		.4byte	.LFB26
 4647 062a 54010000 		.4byte	.LFE26-.LFB26
 4648 062e 01       		.uleb128 0x1
 4649 062f 9C       		.byte	0x9c
 4650 0630 62060000 		.4byte	0x662
 4651 0634 17       		.uleb128 0x17
 4652 0635 EE050000 		.4byte	.LASF48
 4653 0639 01       		.byte	0x1
 4654 063a F502     		.2byte	0x2f5
 4655 063c 83000000 		.4byte	0x83
 4656 0640 02       		.uleb128 0x2
 4657 0641 91       		.byte	0x91
 4658 0642 74       		.sleb128 -12
 4659 0643 17       		.uleb128 0x17
 4660 0644 17060000 		.4byte	.LASF22
 4661 0648 01       		.byte	0x1
 4662 0649 F502     		.2byte	0x2f5
 4663 064b 83000000 		.4byte	0x83
 4664 064f 02       		.uleb128 0x2
 4665 0650 91       		.byte	0x91
 4666 0651 70       		.sleb128 -16
 4667 0652 17       		.uleb128 0x17
 4668 0653 5A060000 		.4byte	.LASF73
 4669 0657 01       		.byte	0x1
 4670 0658 F502     		.2byte	0x2f5
 4671 065a 62060000 		.4byte	0x662
 4672 065e 02       		.uleb128 0x2
 4673 065f 91       		.byte	0x91
 4674 0660 6C       		.sleb128 -20
 4675 0661 00       		.byte	0
 4676 0662 06       		.uleb128 0x6
 4677 0663 04       		.byte	0x4
 4678 0664 68060000 		.4byte	0x668
 4679 0668 1D       		.uleb128 0x1d
 4680 0669 F1010000 		.4byte	0x1f1
 4681 066d 1A       		.uleb128 0x1a
 4682 066e AA060000 		.4byte	.LASF74
 4683 0672 01       		.byte	0x1
 4684 0673 2503     		.2byte	0x325
 4685 0675 00000000 		.4byte	.LFB27
ARM GAS  C:\Users\HPz420\AppData\Local\Temp\ccz4K5YU.s 			page 109


 4686 0679 64000000 		.4byte	.LFE27-.LFB27
 4687 067d 01       		.uleb128 0x1
 4688 067e 9C       		.byte	0x9c
 4689 067f A2060000 		.4byte	0x6a2
 4690 0683 17       		.uleb128 0x17
 4691 0684 EE050000 		.4byte	.LASF48
 4692 0688 01       		.byte	0x1
 4693 0689 2503     		.2byte	0x325
 4694 068b 83000000 		.4byte	0x83
 4695 068f 02       		.uleb128 0x2
 4696 0690 91       		.byte	0x91
 4697 0691 74       		.sleb128 -12
 4698 0692 17       		.uleb128 0x17
 4699 0693 17060000 		.4byte	.LASF22
 4700 0697 01       		.byte	0x1
 4701 0698 2503     		.2byte	0x325
 4702 069a 83000000 		.4byte	0x83
 4703 069e 02       		.uleb128 0x2
 4704 069f 91       		.byte	0x91
 4705 06a0 70       		.sleb128 -16
 4706 06a1 00       		.byte	0
 4707 06a2 18       		.uleb128 0x18
 4708 06a3 26040000 		.4byte	.LASF75
 4709 06a7 01       		.byte	0x1
 4710 06a8 3F03     		.2byte	0x33f
 4711 06aa 77000000 		.4byte	0x77
 4712 06ae 00000000 		.4byte	.LFB28
 4713 06b2 60000000 		.4byte	.LFE28-.LFB28
 4714 06b6 01       		.uleb128 0x1
 4715 06b7 9C       		.byte	0x9c
 4716 06b8 DB060000 		.4byte	0x6db
 4717 06bc 17       		.uleb128 0x17
 4718 06bd EE050000 		.4byte	.LASF48
 4719 06c1 01       		.byte	0x1
 4720 06c2 3F03     		.2byte	0x33f
 4721 06c4 83000000 		.4byte	0x83
 4722 06c8 02       		.uleb128 0x2
 4723 06c9 91       		.byte	0x91
 4724 06ca 74       		.sleb128 -12
 4725 06cb 17       		.uleb128 0x17
 4726 06cc 17060000 		.4byte	.LASF22
 4727 06d0 01       		.byte	0x1
 4728 06d1 3F03     		.2byte	0x33f
 4729 06d3 83000000 		.4byte	0x83
 4730 06d7 02       		.uleb128 0x2
 4731 06d8 91       		.byte	0x91
 4732 06d9 70       		.sleb128 -16
 4733 06da 00       		.byte	0
 4734 06db 1A       		.uleb128 0x1a
 4735 06dc 42010000 		.4byte	.LASF76
 4736 06e0 01       		.byte	0x1
 4737 06e1 5C03     		.2byte	0x35c
 4738 06e3 00000000 		.4byte	.LFB29
 4739 06e7 60000000 		.4byte	.LFE29-.LFB29
 4740 06eb 01       		.uleb128 0x1
 4741 06ec 9C       		.byte	0x9c
 4742 06ed 1F070000 		.4byte	0x71f
ARM GAS  C:\Users\HPz420\AppData\Local\Temp\ccz4K5YU.s 			page 110


 4743 06f1 17       		.uleb128 0x17
 4744 06f2 EE050000 		.4byte	.LASF48
 4745 06f6 01       		.byte	0x1
 4746 06f7 5C03     		.2byte	0x35c
 4747 06f9 83000000 		.4byte	0x83
 4748 06fd 02       		.uleb128 0x2
 4749 06fe 91       		.byte	0x91
 4750 06ff 74       		.sleb128 -12
 4751 0700 17       		.uleb128 0x17
 4752 0701 17060000 		.4byte	.LASF22
 4753 0705 01       		.byte	0x1
 4754 0706 5C03     		.2byte	0x35c
 4755 0708 83000000 		.4byte	0x83
 4756 070c 02       		.uleb128 0x2
 4757 070d 91       		.byte	0x91
 4758 070e 70       		.sleb128 -16
 4759 070f 17       		.uleb128 0x17
 4760 0710 1B040000 		.4byte	.LASF77
 4761 0714 01       		.byte	0x1
 4762 0715 5C03     		.2byte	0x35c
 4763 0717 44010000 		.4byte	0x144
 4764 071b 02       		.uleb128 0x2
 4765 071c 91       		.byte	0x91
 4766 071d 6C       		.sleb128 -20
 4767 071e 00       		.byte	0
 4768 071f 18       		.uleb128 0x18
 4769 0720 18000000 		.4byte	.LASF78
 4770 0724 01       		.byte	0x1
 4771 0725 7503     		.2byte	0x375
 4772 0727 44010000 		.4byte	0x144
 4773 072b 00000000 		.4byte	.LFB30
 4774 072f 5C000000 		.4byte	.LFE30-.LFB30
 4775 0733 01       		.uleb128 0x1
 4776 0734 9C       		.byte	0x9c
 4777 0735 58070000 		.4byte	0x758
 4778 0739 17       		.uleb128 0x17
 4779 073a EE050000 		.4byte	.LASF48
 4780 073e 01       		.byte	0x1
 4781 073f 7503     		.2byte	0x375
 4782 0741 83000000 		.4byte	0x83
 4783 0745 02       		.uleb128 0x2
 4784 0746 91       		.byte	0x91
 4785 0747 74       		.sleb128 -12
 4786 0748 17       		.uleb128 0x17
 4787 0749 17060000 		.4byte	.LASF22
 4788 074d 01       		.byte	0x1
 4789 074e 7503     		.2byte	0x375
 4790 0750 83000000 		.4byte	0x83
 4791 0754 02       		.uleb128 0x2
 4792 0755 91       		.byte	0x91
 4793 0756 70       		.sleb128 -16
 4794 0757 00       		.byte	0
 4795 0758 1A       		.uleb128 0x1a
 4796 0759 53000000 		.4byte	.LASF79
 4797 075d 01       		.byte	0x1
 4798 075e 9203     		.2byte	0x392
 4799 0760 00000000 		.4byte	.LFB31
ARM GAS  C:\Users\HPz420\AppData\Local\Temp\ccz4K5YU.s 			page 111


 4800 0764 64000000 		.4byte	.LFE31-.LFB31
 4801 0768 01       		.uleb128 0x1
 4802 0769 9C       		.byte	0x9c
 4803 076a 9C070000 		.4byte	0x79c
 4804 076e 17       		.uleb128 0x17
 4805 076f EE050000 		.4byte	.LASF48
 4806 0773 01       		.byte	0x1
 4807 0774 9203     		.2byte	0x392
 4808 0776 83000000 		.4byte	0x83
 4809 077a 02       		.uleb128 0x2
 4810 077b 91       		.byte	0x91
 4811 077c 74       		.sleb128 -12
 4812 077d 17       		.uleb128 0x17
 4813 077e 17060000 		.4byte	.LASF22
 4814 0782 01       		.byte	0x1
 4815 0783 9203     		.2byte	0x392
 4816 0785 83000000 		.4byte	0x83
 4817 0789 02       		.uleb128 0x2
 4818 078a 91       		.byte	0x91
 4819 078b 70       		.sleb128 -16
 4820 078c 17       		.uleb128 0x17
 4821 078d 7C020000 		.4byte	.LASF80
 4822 0791 01       		.byte	0x1
 4823 0792 9203     		.2byte	0x392
 4824 0794 44010000 		.4byte	0x144
 4825 0798 02       		.uleb128 0x2
 4826 0799 91       		.byte	0x91
 4827 079a 6C       		.sleb128 -20
 4828 079b 00       		.byte	0
 4829 079c 18       		.uleb128 0x18
 4830 079d DF060000 		.4byte	.LASF81
 4831 07a1 01       		.byte	0x1
 4832 07a2 AB03     		.2byte	0x3ab
 4833 07a4 44010000 		.4byte	0x144
 4834 07a8 00000000 		.4byte	.LFB32
 4835 07ac 60000000 		.4byte	.LFE32-.LFB32
 4836 07b0 01       		.uleb128 0x1
 4837 07b1 9C       		.byte	0x9c
 4838 07b2 D5070000 		.4byte	0x7d5
 4839 07b6 17       		.uleb128 0x17
 4840 07b7 EE050000 		.4byte	.LASF48
 4841 07bb 01       		.byte	0x1
 4842 07bc AB03     		.2byte	0x3ab
 4843 07be 83000000 		.4byte	0x83
 4844 07c2 02       		.uleb128 0x2
 4845 07c3 91       		.byte	0x91
 4846 07c4 74       		.sleb128 -12
 4847 07c5 17       		.uleb128 0x17
 4848 07c6 17060000 		.4byte	.LASF22
 4849 07ca 01       		.byte	0x1
 4850 07cb AB03     		.2byte	0x3ab
 4851 07cd 83000000 		.4byte	0x83
 4852 07d1 02       		.uleb128 0x2
 4853 07d2 91       		.byte	0x91
 4854 07d3 70       		.sleb128 -16
 4855 07d4 00       		.byte	0
 4856 07d5 1A       		.uleb128 0x1a
ARM GAS  C:\Users\HPz420\AppData\Local\Temp\ccz4K5YU.s 			page 112


 4857 07d6 85040000 		.4byte	.LASF82
 4858 07da 01       		.byte	0x1
 4859 07db CC03     		.2byte	0x3cc
 4860 07dd 00000000 		.4byte	.LFB33
 4861 07e1 94000000 		.4byte	.LFE33-.LFB33
 4862 07e5 01       		.uleb128 0x1
 4863 07e6 9C       		.byte	0x9c
 4864 07e7 28080000 		.4byte	0x828
 4865 07eb 17       		.uleb128 0x17
 4866 07ec EE050000 		.4byte	.LASF48
 4867 07f0 01       		.byte	0x1
 4868 07f1 CC03     		.2byte	0x3cc
 4869 07f3 83000000 		.4byte	0x83
 4870 07f7 02       		.uleb128 0x2
 4871 07f8 91       		.byte	0x91
 4872 07f9 6C       		.sleb128 -20
 4873 07fa 17       		.uleb128 0x17
 4874 07fb 17060000 		.4byte	.LASF22
 4875 07ff 01       		.byte	0x1
 4876 0800 CC03     		.2byte	0x3cc
 4877 0802 83000000 		.4byte	0x83
 4878 0806 02       		.uleb128 0x2
 4879 0807 91       		.byte	0x91
 4880 0808 68       		.sleb128 -24
 4881 0809 17       		.uleb128 0x17
 4882 080a 32050000 		.4byte	.LASF24
 4883 080e 01       		.byte	0x1
 4884 080f CC03     		.2byte	0x3cc
 4885 0811 77000000 		.4byte	0x77
 4886 0815 02       		.uleb128 0x2
 4887 0816 91       		.byte	0x91
 4888 0817 64       		.sleb128 -28
 4889 0818 19       		.uleb128 0x19
 4890 0819 EB010000 		.4byte	.LASF67
 4891 081d 01       		.byte	0x1
 4892 081e CE03     		.2byte	0x3ce
 4893 0820 77000000 		.4byte	0x77
 4894 0824 02       		.uleb128 0x2
 4895 0825 91       		.byte	0x91
 4896 0826 74       		.sleb128 -12
 4897 0827 00       		.byte	0
 4898 0828 18       		.uleb128 0x18
 4899 0829 76060000 		.4byte	.LASF83
 4900 082d 01       		.byte	0x1
 4901 082e F003     		.2byte	0x3f0
 4902 0830 77000000 		.4byte	0x77
 4903 0834 00000000 		.4byte	.LFB34
 4904 0838 68000000 		.4byte	.LFE34-.LFB34
 4905 083c 01       		.uleb128 0x1
 4906 083d 9C       		.byte	0x9c
 4907 083e 61080000 		.4byte	0x861
 4908 0842 17       		.uleb128 0x17
 4909 0843 EE050000 		.4byte	.LASF48
 4910 0847 01       		.byte	0x1
 4911 0848 F003     		.2byte	0x3f0
 4912 084a 83000000 		.4byte	0x83
 4913 084e 02       		.uleb128 0x2
ARM GAS  C:\Users\HPz420\AppData\Local\Temp\ccz4K5YU.s 			page 113


 4914 084f 91       		.byte	0x91
 4915 0850 74       		.sleb128 -12
 4916 0851 17       		.uleb128 0x17
 4917 0852 17060000 		.4byte	.LASF22
 4918 0856 01       		.byte	0x1
 4919 0857 F003     		.2byte	0x3f0
 4920 0859 83000000 		.4byte	0x83
 4921 085d 02       		.uleb128 0x2
 4922 085e 91       		.byte	0x91
 4923 085f 70       		.sleb128 -16
 4924 0860 00       		.byte	0
 4925 0861 1A       		.uleb128 0x1a
 4926 0862 0B070000 		.4byte	.LASF84
 4927 0866 01       		.byte	0x1
 4928 0867 0E04     		.2byte	0x40e
 4929 0869 00000000 		.4byte	.LFB35
 4930 086d A8000000 		.4byte	.LFE35-.LFB35
 4931 0871 01       		.uleb128 0x1
 4932 0872 9C       		.byte	0x9c
 4933 0873 B4080000 		.4byte	0x8b4
 4934 0877 17       		.uleb128 0x17
 4935 0878 EE050000 		.4byte	.LASF48
 4936 087c 01       		.byte	0x1
 4937 087d 0E04     		.2byte	0x40e
 4938 087f 83000000 		.4byte	0x83
 4939 0883 02       		.uleb128 0x2
 4940 0884 91       		.byte	0x91
 4941 0885 6C       		.sleb128 -20
 4942 0886 17       		.uleb128 0x17
 4943 0887 17060000 		.4byte	.LASF22
 4944 088b 01       		.byte	0x1
 4945 088c 0E04     		.2byte	0x40e
 4946 088e 83000000 		.4byte	0x83
 4947 0892 02       		.uleb128 0x2
 4948 0893 91       		.byte	0x91
 4949 0894 68       		.sleb128 -24
 4950 0895 17       		.uleb128 0x17
 4951 0896 7E010000 		.4byte	.LASF25
 4952 089a 01       		.byte	0x1
 4953 089b 0E04     		.2byte	0x40e
 4954 089d 83000000 		.4byte	0x83
 4955 08a1 02       		.uleb128 0x2
 4956 08a2 91       		.byte	0x91
 4957 08a3 64       		.sleb128 -28
 4958 08a4 19       		.uleb128 0x19
 4959 08a5 EB010000 		.4byte	.LASF67
 4960 08a9 01       		.byte	0x1
 4961 08aa 1004     		.2byte	0x410
 4962 08ac 77000000 		.4byte	0x77
 4963 08b0 02       		.uleb128 0x2
 4964 08b1 91       		.byte	0x91
 4965 08b2 74       		.sleb128 -12
 4966 08b3 00       		.byte	0
 4967 08b4 18       		.uleb128 0x18
 4968 08b5 EB000000 		.4byte	.LASF85
 4969 08b9 01       		.byte	0x1
 4970 08ba 2E04     		.2byte	0x42e
ARM GAS  C:\Users\HPz420\AppData\Local\Temp\ccz4K5YU.s 			page 114


 4971 08bc 83000000 		.4byte	0x83
 4972 08c0 00000000 		.4byte	.LFB36
 4973 08c4 6C000000 		.4byte	.LFE36-.LFB36
 4974 08c8 01       		.uleb128 0x1
 4975 08c9 9C       		.byte	0x9c
 4976 08ca FC080000 		.4byte	0x8fc
 4977 08ce 17       		.uleb128 0x17
 4978 08cf EE050000 		.4byte	.LASF48
 4979 08d3 01       		.byte	0x1
 4980 08d4 2E04     		.2byte	0x42e
 4981 08d6 83000000 		.4byte	0x83
 4982 08da 02       		.uleb128 0x2
 4983 08db 91       		.byte	0x91
 4984 08dc 6C       		.sleb128 -20
 4985 08dd 17       		.uleb128 0x17
 4986 08de 17060000 		.4byte	.LASF22
 4987 08e2 01       		.byte	0x1
 4988 08e3 2E04     		.2byte	0x42e
 4989 08e5 83000000 		.4byte	0x83
 4990 08e9 02       		.uleb128 0x2
 4991 08ea 91       		.byte	0x91
 4992 08eb 68       		.sleb128 -24
 4993 08ec 19       		.uleb128 0x19
 4994 08ed 0F040000 		.4byte	.LASF86
 4995 08f1 01       		.byte	0x1
 4996 08f2 3004     		.2byte	0x430
 4997 08f4 77000000 		.4byte	0x77
 4998 08f8 02       		.uleb128 0x2
 4999 08f9 91       		.byte	0x91
 5000 08fa 74       		.sleb128 -12
 5001 08fb 00       		.byte	0
 5002 08fc 1A       		.uleb128 0x1a
 5003 08fd 8E060000 		.4byte	.LASF87
 5004 0901 01       		.byte	0x1
 5005 0902 5504     		.2byte	0x455
 5006 0904 00000000 		.4byte	.LFB37
 5007 0908 94000000 		.4byte	.LFE37-.LFB37
 5008 090c 01       		.uleb128 0x1
 5009 090d 9C       		.byte	0x9c
 5010 090e 4F090000 		.4byte	0x94f
 5011 0912 17       		.uleb128 0x17
 5012 0913 EE050000 		.4byte	.LASF48
 5013 0917 01       		.byte	0x1
 5014 0918 5504     		.2byte	0x455
 5015 091a 83000000 		.4byte	0x83
 5016 091e 02       		.uleb128 0x2
 5017 091f 91       		.byte	0x91
 5018 0920 6C       		.sleb128 -20
 5019 0921 17       		.uleb128 0x17
 5020 0922 17060000 		.4byte	.LASF22
 5021 0926 01       		.byte	0x1
 5022 0927 5504     		.2byte	0x455
 5023 0929 83000000 		.4byte	0x83
 5024 092d 02       		.uleb128 0x2
 5025 092e 91       		.byte	0x91
 5026 092f 68       		.sleb128 -24
 5027 0930 17       		.uleb128 0x17
ARM GAS  C:\Users\HPz420\AppData\Local\Temp\ccz4K5YU.s 			page 115


 5028 0931 4B070000 		.4byte	.LASF88
 5029 0935 01       		.byte	0x1
 5030 0936 5504     		.2byte	0x455
 5031 0938 77000000 		.4byte	0x77
 5032 093c 02       		.uleb128 0x2
 5033 093d 91       		.byte	0x91
 5034 093e 64       		.sleb128 -28
 5035 093f 19       		.uleb128 0x19
 5036 0940 EB010000 		.4byte	.LASF67
 5037 0944 01       		.byte	0x1
 5038 0945 5704     		.2byte	0x457
 5039 0947 77000000 		.4byte	0x77
 5040 094b 02       		.uleb128 0x2
 5041 094c 91       		.byte	0x91
 5042 094d 74       		.sleb128 -12
 5043 094e 00       		.byte	0
 5044 094f 18       		.uleb128 0x18
 5045 0950 AF010000 		.4byte	.LASF89
 5046 0954 01       		.byte	0x1
 5047 0955 7404     		.2byte	0x474
 5048 0957 77000000 		.4byte	0x77
 5049 095b 00000000 		.4byte	.LFB38
 5050 095f 68000000 		.4byte	.LFE38-.LFB38
 5051 0963 01       		.uleb128 0x1
 5052 0964 9C       		.byte	0x9c
 5053 0965 88090000 		.4byte	0x988
 5054 0969 17       		.uleb128 0x17
 5055 096a EE050000 		.4byte	.LASF48
 5056 096e 01       		.byte	0x1
 5057 096f 7404     		.2byte	0x474
 5058 0971 83000000 		.4byte	0x83
 5059 0975 02       		.uleb128 0x2
 5060 0976 91       		.byte	0x91
 5061 0977 74       		.sleb128 -12
 5062 0978 17       		.uleb128 0x17
 5063 0979 17060000 		.4byte	.LASF22
 5064 097d 01       		.byte	0x1
 5065 097e 7404     		.2byte	0x474
 5066 0980 83000000 		.4byte	0x83
 5067 0984 02       		.uleb128 0x2
 5068 0985 91       		.byte	0x91
 5069 0986 70       		.sleb128 -16
 5070 0987 00       		.byte	0
 5071 0988 1A       		.uleb128 0x1a
 5072 0989 E3020000 		.4byte	.LASF90
 5073 098d 01       		.byte	0x1
 5074 098e 9604     		.2byte	0x496
 5075 0990 00000000 		.4byte	.LFB39
 5076 0994 94000000 		.4byte	.LFE39-.LFB39
 5077 0998 01       		.uleb128 0x1
 5078 0999 9C       		.byte	0x9c
 5079 099a DB090000 		.4byte	0x9db
 5080 099e 17       		.uleb128 0x17
 5081 099f EE050000 		.4byte	.LASF48
 5082 09a3 01       		.byte	0x1
 5083 09a4 9604     		.2byte	0x496
 5084 09a6 83000000 		.4byte	0x83
ARM GAS  C:\Users\HPz420\AppData\Local\Temp\ccz4K5YU.s 			page 116


 5085 09aa 02       		.uleb128 0x2
 5086 09ab 91       		.byte	0x91
 5087 09ac 6C       		.sleb128 -20
 5088 09ad 17       		.uleb128 0x17
 5089 09ae 17060000 		.4byte	.LASF22
 5090 09b2 01       		.byte	0x1
 5091 09b3 9604     		.2byte	0x496
 5092 09b5 83000000 		.4byte	0x83
 5093 09b9 02       		.uleb128 0x2
 5094 09ba 91       		.byte	0x91
 5095 09bb 68       		.sleb128 -24
 5096 09bc 17       		.uleb128 0x17
 5097 09bd CE060000 		.4byte	.LASF27
 5098 09c1 01       		.byte	0x1
 5099 09c2 9604     		.2byte	0x496
 5100 09c4 77000000 		.4byte	0x77
 5101 09c8 02       		.uleb128 0x2
 5102 09c9 91       		.byte	0x91
 5103 09ca 64       		.sleb128 -28
 5104 09cb 19       		.uleb128 0x19
 5105 09cc EB010000 		.4byte	.LASF67
 5106 09d0 01       		.byte	0x1
 5107 09d1 9804     		.2byte	0x498
 5108 09d3 77000000 		.4byte	0x77
 5109 09d7 02       		.uleb128 0x2
 5110 09d8 91       		.byte	0x91
 5111 09d9 74       		.sleb128 -12
 5112 09da 00       		.byte	0
 5113 09db 18       		.uleb128 0x18
 5114 09dc B8020000 		.4byte	.LASF91
 5115 09e0 01       		.byte	0x1
 5116 09e1 B504     		.2byte	0x4b5
 5117 09e3 77000000 		.4byte	0x77
 5118 09e7 00000000 		.4byte	.LFB40
 5119 09eb 68000000 		.4byte	.LFE40-.LFB40
 5120 09ef 01       		.uleb128 0x1
 5121 09f0 9C       		.byte	0x9c
 5122 09f1 140A0000 		.4byte	0xa14
 5123 09f5 17       		.uleb128 0x17
 5124 09f6 EE050000 		.4byte	.LASF48
 5125 09fa 01       		.byte	0x1
 5126 09fb B504     		.2byte	0x4b5
 5127 09fd 83000000 		.4byte	0x83
 5128 0a01 02       		.uleb128 0x2
 5129 0a02 91       		.byte	0x91
 5130 0a03 74       		.sleb128 -12
 5131 0a04 17       		.uleb128 0x17
 5132 0a05 17060000 		.4byte	.LASF22
 5133 0a09 01       		.byte	0x1
 5134 0a0a B504     		.2byte	0x4b5
 5135 0a0c 83000000 		.4byte	0x83
 5136 0a10 02       		.uleb128 0x2
 5137 0a11 91       		.byte	0x91
 5138 0a12 70       		.sleb128 -16
 5139 0a13 00       		.byte	0
 5140 0a14 1A       		.uleb128 0x1a
 5141 0a15 97070000 		.4byte	.LASF92
ARM GAS  C:\Users\HPz420\AppData\Local\Temp\ccz4K5YU.s 			page 117


 5142 0a19 01       		.byte	0x1
 5143 0a1a D604     		.2byte	0x4d6
 5144 0a1c 00000000 		.4byte	.LFB41
 5145 0a20 94000000 		.4byte	.LFE41-.LFB41
 5146 0a24 01       		.uleb128 0x1
 5147 0a25 9C       		.byte	0x9c
 5148 0a26 670A0000 		.4byte	0xa67
 5149 0a2a 17       		.uleb128 0x17
 5150 0a2b EE050000 		.4byte	.LASF48
 5151 0a2f 01       		.byte	0x1
 5152 0a30 D604     		.2byte	0x4d6
 5153 0a32 83000000 		.4byte	0x83
 5154 0a36 02       		.uleb128 0x2
 5155 0a37 91       		.byte	0x91
 5156 0a38 6C       		.sleb128 -20
 5157 0a39 17       		.uleb128 0x17
 5158 0a3a 17060000 		.4byte	.LASF22
 5159 0a3e 01       		.byte	0x1
 5160 0a3f D604     		.2byte	0x4d6
 5161 0a41 83000000 		.4byte	0x83
 5162 0a45 02       		.uleb128 0x2
 5163 0a46 91       		.byte	0x91
 5164 0a47 68       		.sleb128 -24
 5165 0a48 17       		.uleb128 0x17
 5166 0a49 D2010000 		.4byte	.LASF28
 5167 0a4d 01       		.byte	0x1
 5168 0a4e D604     		.2byte	0x4d6
 5169 0a50 77000000 		.4byte	0x77
 5170 0a54 02       		.uleb128 0x2
 5171 0a55 91       		.byte	0x91
 5172 0a56 64       		.sleb128 -28
 5173 0a57 19       		.uleb128 0x19
 5174 0a58 EB010000 		.4byte	.LASF67
 5175 0a5c 01       		.byte	0x1
 5176 0a5d D804     		.2byte	0x4d8
 5177 0a5f 77000000 		.4byte	0x77
 5178 0a63 02       		.uleb128 0x2
 5179 0a64 91       		.byte	0x91
 5180 0a65 74       		.sleb128 -12
 5181 0a66 00       		.byte	0
 5182 0a67 18       		.uleb128 0x18
 5183 0a68 F6050000 		.4byte	.LASF93
 5184 0a6c 01       		.byte	0x1
 5185 0a6d F504     		.2byte	0x4f5
 5186 0a6f 77000000 		.4byte	0x77
 5187 0a73 00000000 		.4byte	.LFB42
 5188 0a77 68000000 		.4byte	.LFE42-.LFB42
 5189 0a7b 01       		.uleb128 0x1
 5190 0a7c 9C       		.byte	0x9c
 5191 0a7d A00A0000 		.4byte	0xaa0
 5192 0a81 17       		.uleb128 0x17
 5193 0a82 EE050000 		.4byte	.LASF48
 5194 0a86 01       		.byte	0x1
 5195 0a87 F504     		.2byte	0x4f5
 5196 0a89 83000000 		.4byte	0x83
 5197 0a8d 02       		.uleb128 0x2
 5198 0a8e 91       		.byte	0x91
ARM GAS  C:\Users\HPz420\AppData\Local\Temp\ccz4K5YU.s 			page 118


 5199 0a8f 74       		.sleb128 -12
 5200 0a90 17       		.uleb128 0x17
 5201 0a91 17060000 		.4byte	.LASF22
 5202 0a95 01       		.byte	0x1
 5203 0a96 F504     		.2byte	0x4f5
 5204 0a98 83000000 		.4byte	0x83
 5205 0a9c 02       		.uleb128 0x2
 5206 0a9d 91       		.byte	0x91
 5207 0a9e 70       		.sleb128 -16
 5208 0a9f 00       		.byte	0
 5209 0aa0 1A       		.uleb128 0x1a
 5210 0aa1 66070000 		.4byte	.LASF94
 5211 0aa5 01       		.byte	0x1
 5212 0aa6 1505     		.2byte	0x515
 5213 0aa8 00000000 		.4byte	.LFB43
 5214 0aac 90000000 		.4byte	.LFE43-.LFB43
 5215 0ab0 01       		.uleb128 0x1
 5216 0ab1 9C       		.byte	0x9c
 5217 0ab2 F30A0000 		.4byte	0xaf3
 5218 0ab6 17       		.uleb128 0x17
 5219 0ab7 EE050000 		.4byte	.LASF48
 5220 0abb 01       		.byte	0x1
 5221 0abc 1505     		.2byte	0x515
 5222 0abe 83000000 		.4byte	0x83
 5223 0ac2 02       		.uleb128 0x2
 5224 0ac3 91       		.byte	0x91
 5225 0ac4 6C       		.sleb128 -20
 5226 0ac5 17       		.uleb128 0x17
 5227 0ac6 17060000 		.4byte	.LASF22
 5228 0aca 01       		.byte	0x1
 5229 0acb 1505     		.2byte	0x515
 5230 0acd 83000000 		.4byte	0x83
 5231 0ad1 02       		.uleb128 0x2
 5232 0ad2 91       		.byte	0x91
 5233 0ad3 68       		.sleb128 -24
 5234 0ad4 17       		.uleb128 0x17
 5235 0ad5 39020000 		.4byte	.LASF29
 5236 0ad9 01       		.byte	0x1
 5237 0ada 1505     		.2byte	0x515
 5238 0adc 77000000 		.4byte	0x77
 5239 0ae0 02       		.uleb128 0x2
 5240 0ae1 91       		.byte	0x91
 5241 0ae2 64       		.sleb128 -28
 5242 0ae3 19       		.uleb128 0x19
 5243 0ae4 EB010000 		.4byte	.LASF67
 5244 0ae8 01       		.byte	0x1
 5245 0ae9 1705     		.2byte	0x517
 5246 0aeb 77000000 		.4byte	0x77
 5247 0aef 02       		.uleb128 0x2
 5248 0af0 91       		.byte	0x91
 5249 0af1 74       		.sleb128 -12
 5250 0af2 00       		.byte	0
 5251 0af3 18       		.uleb128 0x18
 5252 0af4 A4030000 		.4byte	.LASF95
 5253 0af8 01       		.byte	0x1
 5254 0af9 3405     		.2byte	0x534
 5255 0afb 77000000 		.4byte	0x77
ARM GAS  C:\Users\HPz420\AppData\Local\Temp\ccz4K5YU.s 			page 119


 5256 0aff 00000000 		.4byte	.LFB44
 5257 0b03 64000000 		.4byte	.LFE44-.LFB44
 5258 0b07 01       		.uleb128 0x1
 5259 0b08 9C       		.byte	0x9c
 5260 0b09 2C0B0000 		.4byte	0xb2c
 5261 0b0d 17       		.uleb128 0x17
 5262 0b0e EE050000 		.4byte	.LASF48
 5263 0b12 01       		.byte	0x1
 5264 0b13 3405     		.2byte	0x534
 5265 0b15 83000000 		.4byte	0x83
 5266 0b19 02       		.uleb128 0x2
 5267 0b1a 91       		.byte	0x91
 5268 0b1b 74       		.sleb128 -12
 5269 0b1c 17       		.uleb128 0x17
 5270 0b1d 17060000 		.4byte	.LASF22
 5271 0b21 01       		.byte	0x1
 5272 0b22 3405     		.2byte	0x534
 5273 0b24 83000000 		.4byte	0x83
 5274 0b28 02       		.uleb128 0x2
 5275 0b29 91       		.byte	0x91
 5276 0b2a 70       		.sleb128 -16
 5277 0b2b 00       		.byte	0
 5278 0b2c 1A       		.uleb128 0x1a
 5279 0b2d DE070000 		.4byte	.LASF96
 5280 0b31 01       		.byte	0x1
 5281 0b32 5305     		.2byte	0x553
 5282 0b34 00000000 		.4byte	.LFB45
 5283 0b38 94000000 		.4byte	.LFE45-.LFB45
 5284 0b3c 01       		.uleb128 0x1
 5285 0b3d 9C       		.byte	0x9c
 5286 0b3e 7F0B0000 		.4byte	0xb7f
 5287 0b42 17       		.uleb128 0x17
 5288 0b43 EE050000 		.4byte	.LASF48
 5289 0b47 01       		.byte	0x1
 5290 0b48 5305     		.2byte	0x553
 5291 0b4a 83000000 		.4byte	0x83
 5292 0b4e 02       		.uleb128 0x2
 5293 0b4f 91       		.byte	0x91
 5294 0b50 6C       		.sleb128 -20
 5295 0b51 17       		.uleb128 0x17
 5296 0b52 17060000 		.4byte	.LASF22
 5297 0b56 01       		.byte	0x1
 5298 0b57 5305     		.2byte	0x553
 5299 0b59 83000000 		.4byte	0x83
 5300 0b5d 02       		.uleb128 0x2
 5301 0b5e 91       		.byte	0x91
 5302 0b5f 68       		.sleb128 -24
 5303 0b60 17       		.uleb128 0x17
 5304 0b61 D2070000 		.4byte	.LASF30
 5305 0b65 01       		.byte	0x1
 5306 0b66 5305     		.2byte	0x553
 5307 0b68 77000000 		.4byte	0x77
 5308 0b6c 02       		.uleb128 0x2
 5309 0b6d 91       		.byte	0x91
 5310 0b6e 64       		.sleb128 -28
 5311 0b6f 19       		.uleb128 0x19
 5312 0b70 EB010000 		.4byte	.LASF67
ARM GAS  C:\Users\HPz420\AppData\Local\Temp\ccz4K5YU.s 			page 120


 5313 0b74 01       		.byte	0x1
 5314 0b75 5505     		.2byte	0x555
 5315 0b77 77000000 		.4byte	0x77
 5316 0b7b 02       		.uleb128 0x2
 5317 0b7c 91       		.byte	0x91
 5318 0b7d 74       		.sleb128 -12
 5319 0b7e 00       		.byte	0
 5320 0b7f 18       		.uleb128 0x18
 5321 0b80 FC020000 		.4byte	.LASF97
 5322 0b84 01       		.byte	0x1
 5323 0b85 7105     		.2byte	0x571
 5324 0b87 77000000 		.4byte	0x77
 5325 0b8b 00000000 		.4byte	.LFB46
 5326 0b8f 68000000 		.4byte	.LFE46-.LFB46
 5327 0b93 01       		.uleb128 0x1
 5328 0b94 9C       		.byte	0x9c
 5329 0b95 B80B0000 		.4byte	0xbb8
 5330 0b99 17       		.uleb128 0x17
 5331 0b9a EE050000 		.4byte	.LASF48
 5332 0b9e 01       		.byte	0x1
 5333 0b9f 7105     		.2byte	0x571
 5334 0ba1 83000000 		.4byte	0x83
 5335 0ba5 02       		.uleb128 0x2
 5336 0ba6 91       		.byte	0x91
 5337 0ba7 74       		.sleb128 -12
 5338 0ba8 17       		.uleb128 0x17
 5339 0ba9 17060000 		.4byte	.LASF22
 5340 0bad 01       		.byte	0x1
 5341 0bae 7105     		.2byte	0x571
 5342 0bb0 83000000 		.4byte	0x83
 5343 0bb4 02       		.uleb128 0x2
 5344 0bb5 91       		.byte	0x91
 5345 0bb6 70       		.sleb128 -16
 5346 0bb7 00       		.byte	0
 5347 0bb8 1A       		.uleb128 0x1a
 5348 0bb9 B9030000 		.4byte	.LASF98
 5349 0bbd 01       		.byte	0x1
 5350 0bbe 9005     		.2byte	0x590
 5351 0bc0 00000000 		.4byte	.LFB47
 5352 0bc4 94000000 		.4byte	.LFE47-.LFB47
 5353 0bc8 01       		.uleb128 0x1
 5354 0bc9 9C       		.byte	0x9c
 5355 0bca 0B0C0000 		.4byte	0xc0b
 5356 0bce 17       		.uleb128 0x17
 5357 0bcf EE050000 		.4byte	.LASF48
 5358 0bd3 01       		.byte	0x1
 5359 0bd4 9005     		.2byte	0x590
 5360 0bd6 83000000 		.4byte	0x83
 5361 0bda 02       		.uleb128 0x2
 5362 0bdb 91       		.byte	0x91
 5363 0bdc 6C       		.sleb128 -20
 5364 0bdd 17       		.uleb128 0x17
 5365 0bde 17060000 		.4byte	.LASF22
 5366 0be2 01       		.byte	0x1
 5367 0be3 9005     		.2byte	0x590
 5368 0be5 83000000 		.4byte	0x83
 5369 0be9 02       		.uleb128 0x2
ARM GAS  C:\Users\HPz420\AppData\Local\Temp\ccz4K5YU.s 			page 121


 5370 0bea 91       		.byte	0x91
 5371 0beb 68       		.sleb128 -24
 5372 0bec 17       		.uleb128 0x17
 5373 0bed CA070000 		.4byte	.LASF31
 5374 0bf1 01       		.byte	0x1
 5375 0bf2 9005     		.2byte	0x590
 5376 0bf4 77000000 		.4byte	0x77
 5377 0bf8 02       		.uleb128 0x2
 5378 0bf9 91       		.byte	0x91
 5379 0bfa 64       		.sleb128 -28
 5380 0bfb 19       		.uleb128 0x19
 5381 0bfc EB010000 		.4byte	.LASF67
 5382 0c00 01       		.byte	0x1
 5383 0c01 9205     		.2byte	0x592
 5384 0c03 77000000 		.4byte	0x77
 5385 0c07 02       		.uleb128 0x2
 5386 0c08 91       		.byte	0x91
 5387 0c09 74       		.sleb128 -12
 5388 0c0a 00       		.byte	0
 5389 0c0b 18       		.uleb128 0x18
 5390 0c0c 9A020000 		.4byte	.LASF99
 5391 0c10 01       		.byte	0x1
 5392 0c11 AF05     		.2byte	0x5af
 5393 0c13 77000000 		.4byte	0x77
 5394 0c17 00000000 		.4byte	.LFB48
 5395 0c1b 68000000 		.4byte	.LFE48-.LFB48
 5396 0c1f 01       		.uleb128 0x1
 5397 0c20 9C       		.byte	0x9c
 5398 0c21 440C0000 		.4byte	0xc44
 5399 0c25 17       		.uleb128 0x17
 5400 0c26 EE050000 		.4byte	.LASF48
 5401 0c2a 01       		.byte	0x1
 5402 0c2b AF05     		.2byte	0x5af
 5403 0c2d 83000000 		.4byte	0x83
 5404 0c31 02       		.uleb128 0x2
 5405 0c32 91       		.byte	0x91
 5406 0c33 74       		.sleb128 -12
 5407 0c34 17       		.uleb128 0x17
 5408 0c35 17060000 		.4byte	.LASF22
 5409 0c39 01       		.byte	0x1
 5410 0c3a AF05     		.2byte	0x5af
 5411 0c3c 83000000 		.4byte	0x83
 5412 0c40 02       		.uleb128 0x2
 5413 0c41 91       		.byte	0x91
 5414 0c42 70       		.sleb128 -16
 5415 0c43 00       		.byte	0
 5416 0c44 0A       		.uleb128 0xa
 5417 0c45 FC010000 		.4byte	0x1fc
 5418 0c49 540C0000 		.4byte	0xc54
 5419 0c4d 0B       		.uleb128 0xb
 5420 0c4e F9000000 		.4byte	0xf9
 5421 0c52 1F       		.byte	0x1f
 5422 0c53 00       		.byte	0
 5423 0c54 11       		.uleb128 0x11
 5424 0c55 59050000 		.4byte	.LASF100
 5425 0c59 01       		.byte	0x1
 5426 0c5a 1A       		.byte	0x1a
ARM GAS  C:\Users\HPz420\AppData\Local\Temp\ccz4K5YU.s 			page 122


 5427 0c5b 440C0000 		.4byte	0xc44
 5428 0c5f 05       		.uleb128 0x5
 5429 0c60 03       		.byte	0x3
 5430 0c61 00000000 		.4byte	CyDmaInterruptCallback
 5431 0c65 11       		.uleb128 0x11
 5432 0c66 61060000 		.4byte	.LASF101
 5433 0c6a 01       		.byte	0x1
 5434 0c6b 34       		.byte	0x34
 5435 0c6c 77000000 		.4byte	0x77
 5436 0c70 05       		.uleb128 0x5
 5437 0c71 03       		.byte	0x3
 5438 0c72 00000000 		.4byte	CyDmaChannelUsedMask
 5439 0c76 00       		.byte	0
 5440              		.section	.debug_abbrev,"",%progbits
 5441              	.Ldebug_abbrev0:
 5442 0000 01       		.uleb128 0x1
 5443 0001 11       		.uleb128 0x11
 5444 0002 01       		.byte	0x1
 5445 0003 25       		.uleb128 0x25
 5446 0004 0E       		.uleb128 0xe
 5447 0005 13       		.uleb128 0x13
 5448 0006 0B       		.uleb128 0xb
 5449 0007 03       		.uleb128 0x3
 5450 0008 0E       		.uleb128 0xe
 5451 0009 1B       		.uleb128 0x1b
 5452 000a 0E       		.uleb128 0xe
 5453 000b 55       		.uleb128 0x55
 5454 000c 17       		.uleb128 0x17
 5455 000d 11       		.uleb128 0x11
 5456 000e 01       		.uleb128 0x1
 5457 000f 10       		.uleb128 0x10
 5458 0010 17       		.uleb128 0x17
 5459 0011 00       		.byte	0
 5460 0012 00       		.byte	0
 5461 0013 02       		.uleb128 0x2
 5462 0014 24       		.uleb128 0x24
 5463 0015 00       		.byte	0
 5464 0016 0B       		.uleb128 0xb
 5465 0017 0B       		.uleb128 0xb
 5466 0018 3E       		.uleb128 0x3e
 5467 0019 0B       		.uleb128 0xb
 5468 001a 03       		.uleb128 0x3
 5469 001b 0E       		.uleb128 0xe
 5470 001c 00       		.byte	0
 5471 001d 00       		.byte	0
 5472 001e 03       		.uleb128 0x3
 5473 001f 24       		.uleb128 0x24
 5474 0020 00       		.byte	0
 5475 0021 0B       		.uleb128 0xb
 5476 0022 0B       		.uleb128 0xb
 5477 0023 3E       		.uleb128 0x3e
 5478 0024 0B       		.uleb128 0xb
 5479 0025 03       		.uleb128 0x3
 5480 0026 08       		.uleb128 0x8
 5481 0027 00       		.byte	0
 5482 0028 00       		.byte	0
 5483 0029 04       		.uleb128 0x4
ARM GAS  C:\Users\HPz420\AppData\Local\Temp\ccz4K5YU.s 			page 123


 5484 002a 16       		.uleb128 0x16
 5485 002b 00       		.byte	0
 5486 002c 03       		.uleb128 0x3
 5487 002d 0E       		.uleb128 0xe
 5488 002e 3A       		.uleb128 0x3a
 5489 002f 0B       		.uleb128 0xb
 5490 0030 3B       		.uleb128 0x3b
 5491 0031 05       		.uleb128 0x5
 5492 0032 49       		.uleb128 0x49
 5493 0033 13       		.uleb128 0x13
 5494 0034 00       		.byte	0
 5495 0035 00       		.byte	0
 5496 0036 05       		.uleb128 0x5
 5497 0037 35       		.uleb128 0x35
 5498 0038 00       		.byte	0
 5499 0039 49       		.uleb128 0x49
 5500 003a 13       		.uleb128 0x13
 5501 003b 00       		.byte	0
 5502 003c 00       		.byte	0
 5503 003d 06       		.uleb128 0x6
 5504 003e 0F       		.uleb128 0xf
 5505 003f 00       		.byte	0
 5506 0040 0B       		.uleb128 0xb
 5507 0041 0B       		.uleb128 0xb
 5508 0042 49       		.uleb128 0x49
 5509 0043 13       		.uleb128 0x13
 5510 0044 00       		.byte	0
 5511 0045 00       		.byte	0
 5512 0046 07       		.uleb128 0x7
 5513 0047 15       		.uleb128 0x15
 5514 0048 00       		.byte	0
 5515 0049 27       		.uleb128 0x27
 5516 004a 19       		.uleb128 0x19
 5517 004b 00       		.byte	0
 5518 004c 00       		.byte	0
 5519 004d 08       		.uleb128 0x8
 5520 004e 13       		.uleb128 0x13
 5521 004f 01       		.byte	0x1
 5522 0050 0B       		.uleb128 0xb
 5523 0051 0B       		.uleb128 0xb
 5524 0052 3A       		.uleb128 0x3a
 5525 0053 0B       		.uleb128 0xb
 5526 0054 3B       		.uleb128 0x3b
 5527 0055 0B       		.uleb128 0xb
 5528 0056 01       		.uleb128 0x1
 5529 0057 13       		.uleb128 0x13
 5530 0058 00       		.byte	0
 5531 0059 00       		.byte	0
 5532 005a 09       		.uleb128 0x9
 5533 005b 0D       		.uleb128 0xd
 5534 005c 00       		.byte	0
 5535 005d 03       		.uleb128 0x3
 5536 005e 08       		.uleb128 0x8
 5537 005f 3A       		.uleb128 0x3a
 5538 0060 0B       		.uleb128 0xb
 5539 0061 3B       		.uleb128 0x3b
 5540 0062 0B       		.uleb128 0xb
ARM GAS  C:\Users\HPz420\AppData\Local\Temp\ccz4K5YU.s 			page 124


 5541 0063 49       		.uleb128 0x49
 5542 0064 13       		.uleb128 0x13
 5543 0065 38       		.uleb128 0x38
 5544 0066 0B       		.uleb128 0xb
 5545 0067 00       		.byte	0
 5546 0068 00       		.byte	0
 5547 0069 0A       		.uleb128 0xa
 5548 006a 01       		.uleb128 0x1
 5549 006b 01       		.byte	0x1
 5550 006c 49       		.uleb128 0x49
 5551 006d 13       		.uleb128 0x13
 5552 006e 01       		.uleb128 0x1
 5553 006f 13       		.uleb128 0x13
 5554 0070 00       		.byte	0
 5555 0071 00       		.byte	0
 5556 0072 0B       		.uleb128 0xb
 5557 0073 21       		.uleb128 0x21
 5558 0074 00       		.byte	0
 5559 0075 49       		.uleb128 0x49
 5560 0076 13       		.uleb128 0x13
 5561 0077 2F       		.uleb128 0x2f
 5562 0078 0B       		.uleb128 0xb
 5563 0079 00       		.byte	0
 5564 007a 00       		.byte	0
 5565 007b 0C       		.uleb128 0xc
 5566 007c 16       		.uleb128 0x16
 5567 007d 00       		.byte	0
 5568 007e 03       		.uleb128 0x3
 5569 007f 0E       		.uleb128 0xe
 5570 0080 3A       		.uleb128 0x3a
 5571 0081 0B       		.uleb128 0xb
 5572 0082 3B       		.uleb128 0x3b
 5573 0083 0B       		.uleb128 0xb
 5574 0084 49       		.uleb128 0x49
 5575 0085 13       		.uleb128 0x13
 5576 0086 00       		.byte	0
 5577 0087 00       		.byte	0
 5578 0088 0D       		.uleb128 0xd
 5579 0089 0D       		.uleb128 0xd
 5580 008a 00       		.byte	0
 5581 008b 03       		.uleb128 0x3
 5582 008c 0E       		.uleb128 0xe
 5583 008d 3A       		.uleb128 0x3a
 5584 008e 0B       		.uleb128 0xb
 5585 008f 3B       		.uleb128 0x3b
 5586 0090 0B       		.uleb128 0xb
 5587 0091 49       		.uleb128 0x49
 5588 0092 13       		.uleb128 0x13
 5589 0093 38       		.uleb128 0x38
 5590 0094 0B       		.uleb128 0xb
 5591 0095 00       		.byte	0
 5592 0096 00       		.byte	0
 5593 0097 0E       		.uleb128 0xe
 5594 0098 0F       		.uleb128 0xf
 5595 0099 00       		.byte	0
 5596 009a 0B       		.uleb128 0xb
 5597 009b 0B       		.uleb128 0xb
ARM GAS  C:\Users\HPz420\AppData\Local\Temp\ccz4K5YU.s 			page 125


 5598 009c 00       		.byte	0
 5599 009d 00       		.byte	0
 5600 009e 0F       		.uleb128 0xf
 5601 009f 13       		.uleb128 0x13
 5602 00a0 01       		.byte	0x1
 5603 00a1 0B       		.uleb128 0xb
 5604 00a2 05       		.uleb128 0x5
 5605 00a3 3A       		.uleb128 0x3a
 5606 00a4 0B       		.uleb128 0xb
 5607 00a5 3B       		.uleb128 0x3b
 5608 00a6 0B       		.uleb128 0xb
 5609 00a7 01       		.uleb128 0x1
 5610 00a8 13       		.uleb128 0x13
 5611 00a9 00       		.byte	0
 5612 00aa 00       		.byte	0
 5613 00ab 10       		.uleb128 0x10
 5614 00ac 2E       		.uleb128 0x2e
 5615 00ad 01       		.byte	0x1
 5616 00ae 3F       		.uleb128 0x3f
 5617 00af 19       		.uleb128 0x19
 5618 00b0 03       		.uleb128 0x3
 5619 00b1 0E       		.uleb128 0xe
 5620 00b2 3A       		.uleb128 0x3a
 5621 00b3 0B       		.uleb128 0xb
 5622 00b4 3B       		.uleb128 0x3b
 5623 00b5 0B       		.uleb128 0xb
 5624 00b6 27       		.uleb128 0x27
 5625 00b7 19       		.uleb128 0x19
 5626 00b8 11       		.uleb128 0x11
 5627 00b9 01       		.uleb128 0x1
 5628 00ba 12       		.uleb128 0x12
 5629 00bb 06       		.uleb128 0x6
 5630 00bc 40       		.uleb128 0x40
 5631 00bd 18       		.uleb128 0x18
 5632 00be 9642     		.uleb128 0x2116
 5633 00c0 19       		.uleb128 0x19
 5634 00c1 01       		.uleb128 0x1
 5635 00c2 13       		.uleb128 0x13
 5636 00c3 00       		.byte	0
 5637 00c4 00       		.byte	0
 5638 00c5 11       		.uleb128 0x11
 5639 00c6 34       		.uleb128 0x34
 5640 00c7 00       		.byte	0
 5641 00c8 03       		.uleb128 0x3
 5642 00c9 0E       		.uleb128 0xe
 5643 00ca 3A       		.uleb128 0x3a
 5644 00cb 0B       		.uleb128 0xb
 5645 00cc 3B       		.uleb128 0x3b
 5646 00cd 0B       		.uleb128 0xb
 5647 00ce 49       		.uleb128 0x49
 5648 00cf 13       		.uleb128 0x13
 5649 00d0 02       		.uleb128 0x2
 5650 00d1 18       		.uleb128 0x18
 5651 00d2 00       		.byte	0
 5652 00d3 00       		.byte	0
 5653 00d4 12       		.uleb128 0x12
 5654 00d5 2E       		.uleb128 0x2e
ARM GAS  C:\Users\HPz420\AppData\Local\Temp\ccz4K5YU.s 			page 126


 5655 00d6 00       		.byte	0
 5656 00d7 3F       		.uleb128 0x3f
 5657 00d8 19       		.uleb128 0x19
 5658 00d9 03       		.uleb128 0x3
 5659 00da 0E       		.uleb128 0xe
 5660 00db 3A       		.uleb128 0x3a
 5661 00dc 0B       		.uleb128 0xb
 5662 00dd 3B       		.uleb128 0x3b
 5663 00de 0B       		.uleb128 0xb
 5664 00df 27       		.uleb128 0x27
 5665 00e0 19       		.uleb128 0x19
 5666 00e1 11       		.uleb128 0x11
 5667 00e2 01       		.uleb128 0x1
 5668 00e3 12       		.uleb128 0x12
 5669 00e4 06       		.uleb128 0x6
 5670 00e5 40       		.uleb128 0x40
 5671 00e6 18       		.uleb128 0x18
 5672 00e7 9742     		.uleb128 0x2117
 5673 00e9 19       		.uleb128 0x19
 5674 00ea 00       		.byte	0
 5675 00eb 00       		.byte	0
 5676 00ec 13       		.uleb128 0x13
 5677 00ed 2E       		.uleb128 0x2e
 5678 00ee 00       		.byte	0
 5679 00ef 3F       		.uleb128 0x3f
 5680 00f0 19       		.uleb128 0x19
 5681 00f1 03       		.uleb128 0x3
 5682 00f2 0E       		.uleb128 0xe
 5683 00f3 3A       		.uleb128 0x3a
 5684 00f4 0B       		.uleb128 0xb
 5685 00f5 3B       		.uleb128 0x3b
 5686 00f6 0B       		.uleb128 0xb
 5687 00f7 27       		.uleb128 0x27
 5688 00f8 19       		.uleb128 0x19
 5689 00f9 49       		.uleb128 0x49
 5690 00fa 13       		.uleb128 0x13
 5691 00fb 11       		.uleb128 0x11
 5692 00fc 01       		.uleb128 0x1
 5693 00fd 12       		.uleb128 0x12
 5694 00fe 06       		.uleb128 0x6
 5695 00ff 40       		.uleb128 0x40
 5696 0100 18       		.uleb128 0x18
 5697 0101 9742     		.uleb128 0x2117
 5698 0103 19       		.uleb128 0x19
 5699 0104 00       		.byte	0
 5700 0105 00       		.byte	0
 5701 0106 14       		.uleb128 0x14
 5702 0107 05       		.uleb128 0x5
 5703 0108 00       		.byte	0
 5704 0109 03       		.uleb128 0x3
 5705 010a 0E       		.uleb128 0xe
 5706 010b 3A       		.uleb128 0x3a
 5707 010c 0B       		.uleb128 0xb
 5708 010d 3B       		.uleb128 0x3b
 5709 010e 0B       		.uleb128 0xb
 5710 010f 49       		.uleb128 0x49
 5711 0110 13       		.uleb128 0x13
ARM GAS  C:\Users\HPz420\AppData\Local\Temp\ccz4K5YU.s 			page 127


 5712 0111 02       		.uleb128 0x2
 5713 0112 18       		.uleb128 0x18
 5714 0113 00       		.byte	0
 5715 0114 00       		.byte	0
 5716 0115 15       		.uleb128 0x15
 5717 0116 2E       		.uleb128 0x2e
 5718 0117 00       		.byte	0
 5719 0118 3F       		.uleb128 0x3f
 5720 0119 19       		.uleb128 0x19
 5721 011a 03       		.uleb128 0x3
 5722 011b 0E       		.uleb128 0xe
 5723 011c 3A       		.uleb128 0x3a
 5724 011d 0B       		.uleb128 0xb
 5725 011e 3B       		.uleb128 0x3b
 5726 011f 05       		.uleb128 0x5
 5727 0120 27       		.uleb128 0x27
 5728 0121 19       		.uleb128 0x19
 5729 0122 49       		.uleb128 0x49
 5730 0123 13       		.uleb128 0x13
 5731 0124 11       		.uleb128 0x11
 5732 0125 01       		.uleb128 0x1
 5733 0126 12       		.uleb128 0x12
 5734 0127 06       		.uleb128 0x6
 5735 0128 40       		.uleb128 0x40
 5736 0129 18       		.uleb128 0x18
 5737 012a 9742     		.uleb128 0x2117
 5738 012c 19       		.uleb128 0x19
 5739 012d 00       		.byte	0
 5740 012e 00       		.byte	0
 5741 012f 16       		.uleb128 0x16
 5742 0130 2E       		.uleb128 0x2e
 5743 0131 01       		.byte	0x1
 5744 0132 3F       		.uleb128 0x3f
 5745 0133 19       		.uleb128 0x19
 5746 0134 03       		.uleb128 0x3
 5747 0135 0E       		.uleb128 0xe
 5748 0136 3A       		.uleb128 0x3a
 5749 0137 0B       		.uleb128 0xb
 5750 0138 3B       		.uleb128 0x3b
 5751 0139 05       		.uleb128 0x5
 5752 013a 27       		.uleb128 0x27
 5753 013b 19       		.uleb128 0x19
 5754 013c 11       		.uleb128 0x11
 5755 013d 01       		.uleb128 0x1
 5756 013e 12       		.uleb128 0x12
 5757 013f 06       		.uleb128 0x6
 5758 0140 40       		.uleb128 0x40
 5759 0141 18       		.uleb128 0x18
 5760 0142 9742     		.uleb128 0x2117
 5761 0144 19       		.uleb128 0x19
 5762 0145 01       		.uleb128 0x1
 5763 0146 13       		.uleb128 0x13
 5764 0147 00       		.byte	0
 5765 0148 00       		.byte	0
 5766 0149 17       		.uleb128 0x17
 5767 014a 05       		.uleb128 0x5
 5768 014b 00       		.byte	0
ARM GAS  C:\Users\HPz420\AppData\Local\Temp\ccz4K5YU.s 			page 128


 5769 014c 03       		.uleb128 0x3
 5770 014d 0E       		.uleb128 0xe
 5771 014e 3A       		.uleb128 0x3a
 5772 014f 0B       		.uleb128 0xb
 5773 0150 3B       		.uleb128 0x3b
 5774 0151 05       		.uleb128 0x5
 5775 0152 49       		.uleb128 0x49
 5776 0153 13       		.uleb128 0x13
 5777 0154 02       		.uleb128 0x2
 5778 0155 18       		.uleb128 0x18
 5779 0156 00       		.byte	0
 5780 0157 00       		.byte	0
 5781 0158 18       		.uleb128 0x18
 5782 0159 2E       		.uleb128 0x2e
 5783 015a 01       		.byte	0x1
 5784 015b 3F       		.uleb128 0x3f
 5785 015c 19       		.uleb128 0x19
 5786 015d 03       		.uleb128 0x3
 5787 015e 0E       		.uleb128 0xe
 5788 015f 3A       		.uleb128 0x3a
 5789 0160 0B       		.uleb128 0xb
 5790 0161 3B       		.uleb128 0x3b
 5791 0162 05       		.uleb128 0x5
 5792 0163 27       		.uleb128 0x27
 5793 0164 19       		.uleb128 0x19
 5794 0165 49       		.uleb128 0x49
 5795 0166 13       		.uleb128 0x13
 5796 0167 11       		.uleb128 0x11
 5797 0168 01       		.uleb128 0x1
 5798 0169 12       		.uleb128 0x12
 5799 016a 06       		.uleb128 0x6
 5800 016b 40       		.uleb128 0x40
 5801 016c 18       		.uleb128 0x18
 5802 016d 9642     		.uleb128 0x2116
 5803 016f 19       		.uleb128 0x19
 5804 0170 01       		.uleb128 0x1
 5805 0171 13       		.uleb128 0x13
 5806 0172 00       		.byte	0
 5807 0173 00       		.byte	0
 5808 0174 19       		.uleb128 0x19
 5809 0175 34       		.uleb128 0x34
 5810 0176 00       		.byte	0
 5811 0177 03       		.uleb128 0x3
 5812 0178 0E       		.uleb128 0xe
 5813 0179 3A       		.uleb128 0x3a
 5814 017a 0B       		.uleb128 0xb
 5815 017b 3B       		.uleb128 0x3b
 5816 017c 05       		.uleb128 0x5
 5817 017d 49       		.uleb128 0x49
 5818 017e 13       		.uleb128 0x13
 5819 017f 02       		.uleb128 0x2
 5820 0180 18       		.uleb128 0x18
 5821 0181 00       		.byte	0
 5822 0182 00       		.byte	0
 5823 0183 1A       		.uleb128 0x1a
 5824 0184 2E       		.uleb128 0x2e
 5825 0185 01       		.byte	0x1
ARM GAS  C:\Users\HPz420\AppData\Local\Temp\ccz4K5YU.s 			page 129


 5826 0186 3F       		.uleb128 0x3f
 5827 0187 19       		.uleb128 0x19
 5828 0188 03       		.uleb128 0x3
 5829 0189 0E       		.uleb128 0xe
 5830 018a 3A       		.uleb128 0x3a
 5831 018b 0B       		.uleb128 0xb
 5832 018c 3B       		.uleb128 0x3b
 5833 018d 05       		.uleb128 0x5
 5834 018e 27       		.uleb128 0x27
 5835 018f 19       		.uleb128 0x19
 5836 0190 11       		.uleb128 0x11
 5837 0191 01       		.uleb128 0x1
 5838 0192 12       		.uleb128 0x12
 5839 0193 06       		.uleb128 0x6
 5840 0194 40       		.uleb128 0x40
 5841 0195 18       		.uleb128 0x18
 5842 0196 9642     		.uleb128 0x2116
 5843 0198 19       		.uleb128 0x19
 5844 0199 01       		.uleb128 0x1
 5845 019a 13       		.uleb128 0x13
 5846 019b 00       		.byte	0
 5847 019c 00       		.byte	0
 5848 019d 1B       		.uleb128 0x1b
 5849 019e 2E       		.uleb128 0x2e
 5850 019f 00       		.byte	0
 5851 01a0 03       		.uleb128 0x3
 5852 01a1 0E       		.uleb128 0xe
 5853 01a2 3A       		.uleb128 0x3a
 5854 01a3 0B       		.uleb128 0xb
 5855 01a4 3B       		.uleb128 0x3b
 5856 01a5 05       		.uleb128 0x5
 5857 01a6 27       		.uleb128 0x27
 5858 01a7 19       		.uleb128 0x19
 5859 01a8 11       		.uleb128 0x11
 5860 01a9 01       		.uleb128 0x1
 5861 01aa 12       		.uleb128 0x12
 5862 01ab 06       		.uleb128 0x6
 5863 01ac 40       		.uleb128 0x40
 5864 01ad 18       		.uleb128 0x18
 5865 01ae 9642     		.uleb128 0x2116
 5866 01b0 19       		.uleb128 0x19
 5867 01b1 00       		.byte	0
 5868 01b2 00       		.byte	0
 5869 01b3 1C       		.uleb128 0x1c
 5870 01b4 2E       		.uleb128 0x2e
 5871 01b5 01       		.byte	0x1
 5872 01b6 3F       		.uleb128 0x3f
 5873 01b7 19       		.uleb128 0x19
 5874 01b8 03       		.uleb128 0x3
 5875 01b9 0E       		.uleb128 0xe
 5876 01ba 3A       		.uleb128 0x3a
 5877 01bb 0B       		.uleb128 0xb
 5878 01bc 3B       		.uleb128 0x3b
 5879 01bd 05       		.uleb128 0x5
 5880 01be 27       		.uleb128 0x27
 5881 01bf 19       		.uleb128 0x19
 5882 01c0 49       		.uleb128 0x49
ARM GAS  C:\Users\HPz420\AppData\Local\Temp\ccz4K5YU.s 			page 130


 5883 01c1 13       		.uleb128 0x13
 5884 01c2 11       		.uleb128 0x11
 5885 01c3 01       		.uleb128 0x1
 5886 01c4 12       		.uleb128 0x12
 5887 01c5 06       		.uleb128 0x6
 5888 01c6 40       		.uleb128 0x40
 5889 01c7 18       		.uleb128 0x18
 5890 01c8 9742     		.uleb128 0x2117
 5891 01ca 19       		.uleb128 0x19
 5892 01cb 01       		.uleb128 0x1
 5893 01cc 13       		.uleb128 0x13
 5894 01cd 00       		.byte	0
 5895 01ce 00       		.byte	0
 5896 01cf 1D       		.uleb128 0x1d
 5897 01d0 26       		.uleb128 0x26
 5898 01d1 00       		.byte	0
 5899 01d2 49       		.uleb128 0x49
 5900 01d3 13       		.uleb128 0x13
 5901 01d4 00       		.byte	0
 5902 01d5 00       		.byte	0
 5903 01d6 00       		.byte	0
 5904              		.section	.debug_aranges,"",%progbits
 5905 0000 94010000 		.4byte	0x194
 5906 0004 0200     		.2byte	0x2
 5907 0006 00000000 		.4byte	.Ldebug_info0
 5908 000a 04       		.byte	0x4
 5909 000b 00       		.byte	0
 5910 000c 0000     		.2byte	0
 5911 000e 0000     		.2byte	0
 5912 0010 00000000 		.4byte	.LFB1
 5913 0014 3C000000 		.4byte	.LFE1-.LFB1
 5914 0018 00000000 		.4byte	.LFB2
 5915 001c 18000000 		.4byte	.LFE2-.LFB2
 5916 0020 00000000 		.4byte	.LFB3
 5917 0024 14000000 		.4byte	.LFE3-.LFB3
 5918 0028 00000000 		.4byte	.LFB4
 5919 002c 14000000 		.4byte	.LFE4-.LFB4
 5920 0030 00000000 		.4byte	.LFB5
 5921 0034 14000000 		.4byte	.LFE5-.LFB5
 5922 0038 00000000 		.4byte	.LFB6
 5923 003c 14000000 		.4byte	.LFE6-.LFB6
 5924 0040 00000000 		.4byte	.LFB7
 5925 0044 1A000000 		.4byte	.LFE7-.LFB7
 5926 0048 00000000 		.4byte	.LFB8
 5927 004c 14000000 		.4byte	.LFE8-.LFB8
 5928 0050 00000000 		.4byte	.LFB9
 5929 0054 1C000000 		.4byte	.LFE9-.LFB9
 5930 0058 00000000 		.4byte	.LFB10
 5931 005c 1C000000 		.4byte	.LFE10-.LFB10
 5932 0060 00000000 		.4byte	.LFB11
 5933 0064 14000000 		.4byte	.LFE11-.LFB11
 5934 0068 00000000 		.4byte	.LFB12
 5935 006c 14000000 		.4byte	.LFE12-.LFB12
 5936 0070 00000000 		.4byte	.LFB13
 5937 0074 48000000 		.4byte	.LFE13-.LFB13
 5938 0078 00000000 		.4byte	.LFB14
 5939 007c 38000000 		.4byte	.LFE14-.LFB14
ARM GAS  C:\Users\HPz420\AppData\Local\Temp\ccz4K5YU.s 			page 131


 5940 0080 00000000 		.4byte	.LFB15
 5941 0084 50000000 		.4byte	.LFE15-.LFB15
 5942 0088 00000000 		.4byte	.LFB16
 5943 008c 10000000 		.4byte	.LFE16-.LFB16
 5944 0090 00000000 		.4byte	.LFB17
 5945 0094 4C000000 		.4byte	.LFE17-.LFB17
 5946 0098 00000000 		.4byte	.LFB18
 5947 009c 54000000 		.4byte	.LFE18-.LFB18
 5948 00a0 00000000 		.4byte	.LFB19
 5949 00a4 48000000 		.4byte	.LFE19-.LFB19
 5950 00a8 00000000 		.4byte	.LFB20
 5951 00ac 44000000 		.4byte	.LFE20-.LFB20
 5952 00b0 00000000 		.4byte	.LFB21
 5953 00b4 4C000000 		.4byte	.LFE21-.LFB21
 5954 00b8 00000000 		.4byte	.LFB22
 5955 00bc 70000000 		.4byte	.LFE22-.LFB22
 5956 00c0 00000000 		.4byte	.LFB23
 5957 00c4 44000000 		.4byte	.LFE23-.LFB23
 5958 00c8 00000000 		.4byte	.LFB24
 5959 00cc 70000000 		.4byte	.LFE24-.LFB24
 5960 00d0 00000000 		.4byte	.LFB25
 5961 00d4 44000000 		.4byte	.LFE25-.LFB25
 5962 00d8 00000000 		.4byte	.LFB26
 5963 00dc 54010000 		.4byte	.LFE26-.LFB26
 5964 00e0 00000000 		.4byte	.LFB27
 5965 00e4 64000000 		.4byte	.LFE27-.LFB27
 5966 00e8 00000000 		.4byte	.LFB28
 5967 00ec 60000000 		.4byte	.LFE28-.LFB28
 5968 00f0 00000000 		.4byte	.LFB29
 5969 00f4 60000000 		.4byte	.LFE29-.LFB29
 5970 00f8 00000000 		.4byte	.LFB30
 5971 00fc 5C000000 		.4byte	.LFE30-.LFB30
 5972 0100 00000000 		.4byte	.LFB31
 5973 0104 64000000 		.4byte	.LFE31-.LFB31
 5974 0108 00000000 		.4byte	.LFB32
 5975 010c 60000000 		.4byte	.LFE32-.LFB32
 5976 0110 00000000 		.4byte	.LFB33
 5977 0114 94000000 		.4byte	.LFE33-.LFB33
 5978 0118 00000000 		.4byte	.LFB34
 5979 011c 68000000 		.4byte	.LFE34-.LFB34
 5980 0120 00000000 		.4byte	.LFB35
 5981 0124 A8000000 		.4byte	.LFE35-.LFB35
 5982 0128 00000000 		.4byte	.LFB36
 5983 012c 6C000000 		.4byte	.LFE36-.LFB36
 5984 0130 00000000 		.4byte	.LFB37
 5985 0134 94000000 		.4byte	.LFE37-.LFB37
 5986 0138 00000000 		.4byte	.LFB38
 5987 013c 68000000 		.4byte	.LFE38-.LFB38
 5988 0140 00000000 		.4byte	.LFB39
 5989 0144 94000000 		.4byte	.LFE39-.LFB39
 5990 0148 00000000 		.4byte	.LFB40
 5991 014c 68000000 		.4byte	.LFE40-.LFB40
 5992 0150 00000000 		.4byte	.LFB41
 5993 0154 94000000 		.4byte	.LFE41-.LFB41
 5994 0158 00000000 		.4byte	.LFB42
 5995 015c 68000000 		.4byte	.LFE42-.LFB42
 5996 0160 00000000 		.4byte	.LFB43
ARM GAS  C:\Users\HPz420\AppData\Local\Temp\ccz4K5YU.s 			page 132


 5997 0164 90000000 		.4byte	.LFE43-.LFB43
 5998 0168 00000000 		.4byte	.LFB44
 5999 016c 64000000 		.4byte	.LFE44-.LFB44
 6000 0170 00000000 		.4byte	.LFB45
 6001 0174 94000000 		.4byte	.LFE45-.LFB45
 6002 0178 00000000 		.4byte	.LFB46
 6003 017c 68000000 		.4byte	.LFE46-.LFB46
 6004 0180 00000000 		.4byte	.LFB47
 6005 0184 94000000 		.4byte	.LFE47-.LFB47
 6006 0188 00000000 		.4byte	.LFB48
 6007 018c 68000000 		.4byte	.LFE48-.LFB48
 6008 0190 00000000 		.4byte	0
 6009 0194 00000000 		.4byte	0
 6010              		.section	.debug_ranges,"",%progbits
 6011              	.Ldebug_ranges0:
 6012 0000 00000000 		.4byte	.LFB1
 6013 0004 3C000000 		.4byte	.LFE1
 6014 0008 00000000 		.4byte	.LFB2
 6015 000c 18000000 		.4byte	.LFE2
 6016 0010 00000000 		.4byte	.LFB3
 6017 0014 14000000 		.4byte	.LFE3
 6018 0018 00000000 		.4byte	.LFB4
 6019 001c 14000000 		.4byte	.LFE4
 6020 0020 00000000 		.4byte	.LFB5
 6021 0024 14000000 		.4byte	.LFE5
 6022 0028 00000000 		.4byte	.LFB6
 6023 002c 14000000 		.4byte	.LFE6
 6024 0030 00000000 		.4byte	.LFB7
 6025 0034 1A000000 		.4byte	.LFE7
 6026 0038 00000000 		.4byte	.LFB8
 6027 003c 14000000 		.4byte	.LFE8
 6028 0040 00000000 		.4byte	.LFB9
 6029 0044 1C000000 		.4byte	.LFE9
 6030 0048 00000000 		.4byte	.LFB10
 6031 004c 1C000000 		.4byte	.LFE10
 6032 0050 00000000 		.4byte	.LFB11
 6033 0054 14000000 		.4byte	.LFE11
 6034 0058 00000000 		.4byte	.LFB12
 6035 005c 14000000 		.4byte	.LFE12
 6036 0060 00000000 		.4byte	.LFB13
 6037 0064 48000000 		.4byte	.LFE13
 6038 0068 00000000 		.4byte	.LFB14
 6039 006c 38000000 		.4byte	.LFE14
 6040 0070 00000000 		.4byte	.LFB15
 6041 0074 50000000 		.4byte	.LFE15
 6042 0078 00000000 		.4byte	.LFB16
 6043 007c 10000000 		.4byte	.LFE16
 6044 0080 00000000 		.4byte	.LFB17
 6045 0084 4C000000 		.4byte	.LFE17
 6046 0088 00000000 		.4byte	.LFB18
 6047 008c 54000000 		.4byte	.LFE18
 6048 0090 00000000 		.4byte	.LFB19
 6049 0094 48000000 		.4byte	.LFE19
 6050 0098 00000000 		.4byte	.LFB20
 6051 009c 44000000 		.4byte	.LFE20
 6052 00a0 00000000 		.4byte	.LFB21
 6053 00a4 4C000000 		.4byte	.LFE21
ARM GAS  C:\Users\HPz420\AppData\Local\Temp\ccz4K5YU.s 			page 133


 6054 00a8 00000000 		.4byte	.LFB22
 6055 00ac 70000000 		.4byte	.LFE22
 6056 00b0 00000000 		.4byte	.LFB23
 6057 00b4 44000000 		.4byte	.LFE23
 6058 00b8 00000000 		.4byte	.LFB24
 6059 00bc 70000000 		.4byte	.LFE24
 6060 00c0 00000000 		.4byte	.LFB25
 6061 00c4 44000000 		.4byte	.LFE25
 6062 00c8 00000000 		.4byte	.LFB26
 6063 00cc 54010000 		.4byte	.LFE26
 6064 00d0 00000000 		.4byte	.LFB27
 6065 00d4 64000000 		.4byte	.LFE27
 6066 00d8 00000000 		.4byte	.LFB28
 6067 00dc 60000000 		.4byte	.LFE28
 6068 00e0 00000000 		.4byte	.LFB29
 6069 00e4 60000000 		.4byte	.LFE29
 6070 00e8 00000000 		.4byte	.LFB30
 6071 00ec 5C000000 		.4byte	.LFE30
 6072 00f0 00000000 		.4byte	.LFB31
 6073 00f4 64000000 		.4byte	.LFE31
 6074 00f8 00000000 		.4byte	.LFB32
 6075 00fc 60000000 		.4byte	.LFE32
 6076 0100 00000000 		.4byte	.LFB33
 6077 0104 94000000 		.4byte	.LFE33
 6078 0108 00000000 		.4byte	.LFB34
 6079 010c 68000000 		.4byte	.LFE34
 6080 0110 00000000 		.4byte	.LFB35
 6081 0114 A8000000 		.4byte	.LFE35
 6082 0118 00000000 		.4byte	.LFB36
 6083 011c 6C000000 		.4byte	.LFE36
 6084 0120 00000000 		.4byte	.LFB37
 6085 0124 94000000 		.4byte	.LFE37
 6086 0128 00000000 		.4byte	.LFB38
 6087 012c 68000000 		.4byte	.LFE38
 6088 0130 00000000 		.4byte	.LFB39
 6089 0134 94000000 		.4byte	.LFE39
 6090 0138 00000000 		.4byte	.LFB40
 6091 013c 68000000 		.4byte	.LFE40
 6092 0140 00000000 		.4byte	.LFB41
 6093 0144 94000000 		.4byte	.LFE41
 6094 0148 00000000 		.4byte	.LFB42
 6095 014c 68000000 		.4byte	.LFE42
 6096 0150 00000000 		.4byte	.LFB43
 6097 0154 90000000 		.4byte	.LFE43
 6098 0158 00000000 		.4byte	.LFB44
 6099 015c 64000000 		.4byte	.LFE44
 6100 0160 00000000 		.4byte	.LFB45
 6101 0164 94000000 		.4byte	.LFE45
 6102 0168 00000000 		.4byte	.LFB46
 6103 016c 68000000 		.4byte	.LFE46
 6104 0170 00000000 		.4byte	.LFB47
 6105 0174 94000000 		.4byte	.LFE47
 6106 0178 00000000 		.4byte	.LFB48
 6107 017c 68000000 		.4byte	.LFE48
 6108 0180 00000000 		.4byte	0
 6109 0184 00000000 		.4byte	0
 6110              		.section	.debug_line,"",%progbits
ARM GAS  C:\Users\HPz420\AppData\Local\Temp\ccz4K5YU.s 			page 134


 6111              	.Ldebug_line0:
 6112 0000 FA0A0000 		.section	.debug_str,"MS",%progbits,1
 6112      02004D00 
 6112      00000201 
 6112      FB0E0D00 
 6112      01010101 
 6113              	.LASF40:
 6114 0000 4379446D 		.ascii	"CyDmaSetInterruptVector\000"
 6114      61536574 
 6114      496E7465 
 6114      72727570 
 6114      74566563 
 6115              	.LASF78:
 6116 0018 4379446D 		.ascii	"CyDmaGetSrcAddress\000"
 6116      61476574 
 6116      53726341 
 6116      64647265 
 6116      737300
 6117              	.LASF37:
 6118 002b 4379446D 		.ascii	"CyDmaGetActiveSrcAddress\000"
 6118      61476574 
 6118      41637469 
 6118      76655372 
 6118      63416464 
 6119              	.LASF62:
 6120 0044 4379446D 		.ascii	"CyDmaChDisable\000"
 6120      61436844 
 6120      69736162 
 6120      6C6500
 6121              	.LASF79:
 6122 0053 4379446D 		.ascii	"CyDmaSetDstAddress\000"
 6122      61536574 
 6122      44737441 
 6122      64647265 
 6122      737300
 6123              	.LASF61:
 6124 0066 4379446D 		.ascii	"CyDmaChEnable\000"
 6124      61436845 
 6124      6E61626C 
 6124      6500
 6125              	.LASF56:
 6126 0074 63624964 		.ascii	"cbIdx\000"
 6126      7800
 6127              	.LASF68:
 6128 007a 4379446D 		.ascii	"CyDmaGetPriority\000"
 6128      61476574 
 6128      5072696F 
 6128      72697479 
 6128      00
 6129              	.LASF7:
 6130 008b 6C6F6E67 		.ascii	"long long unsigned int\000"
 6130      206C6F6E 
 6130      6720756E 
 6130      7369676E 
 6130      65642069 
 6131              	.LASF43:
 6132 00a2 696E7465 		.ascii	"interruptVector\000"
ARM GAS  C:\Users\HPz420\AppData\Local\Temp\ccz4K5YU.s 			page 135


 6132      72727570 
 6132      74566563 
 6132      746F7200 
 6133              	.LASF72:
 6134 00b2 4379446D 		.ascii	"CyDmaSetConfiguration\000"
 6134      61536574 
 6134      436F6E66 
 6134      69677572 
 6134      6174696F 
 6135              	.LASF64:
 6136 00c8 74724374 		.ascii	"trCtlLut\000"
 6136      6C4C7574 
 6136      00
 6137              	.LASF6:
 6138 00d1 6C6F6E67 		.ascii	"long long int\000"
 6138      206C6F6E 
 6138      6720696E 
 6138      7400
 6139              	.LASF0:
 6140 00df 7369676E 		.ascii	"signed char\000"
 6140      65642063 
 6140      68617200 
 6141              	.LASF85:
 6142 00eb 4379446D 		.ascii	"CyDmaGetNumDataElements\000"
 6142      61476574 
 6142      4E756D44 
 6142      61746145 
 6142      6C656D65 
 6143              	.LASF11:
 6144 0103 696E7433 		.ascii	"int32\000"
 6144      3200
 6145              	.LASF70:
 6146 0109 4379446D 		.ascii	"CyDmaGetNextDescriptor\000"
 6146      61476574 
 6146      4E657874 
 6146      44657363 
 6146      72697074 
 6147              	.LASF4:
 6148 0120 6C6F6E67 		.ascii	"long int\000"
 6148      20696E74 
 6148      00
 6149              	.LASF19:
 6150 0129 6379646D 		.ascii	"cydma_channel_ctl_struct\000"
 6150      615F6368 
 6150      616E6E65 
 6150      6C5F6374 
 6150      6C5F7374 
 6151              	.LASF76:
 6152 0142 4379446D 		.ascii	"CyDmaSetSrcAddress\000"
 6152      61536574 
 6152      53726341 
 6152      64647265 
 6152      737300
 6153              	.LASF50:
 6154 0155 696E6974 		.ascii	"initIntrVector\000"
 6154      496E7472 
 6154      56656374 
ARM GAS  C:\Users\HPz420\AppData\Local\Temp\ccz4K5YU.s 			page 136


 6154      6F7200
 6155              	.LASF53:
 6156 0164 4379446D 		.ascii	"CyDmaGetInterruptCallback\000"
 6156      61476574 
 6156      496E7465 
 6156      72727570 
 6156      7443616C 
 6157              	.LASF25:
 6158 017e 6E756D44 		.ascii	"numDataElements\000"
 6158      61746145 
 6158      6C656D65 
 6158      6E747300 
 6159              	.LASF9:
 6160 018e 75696E74 		.ascii	"uint8\000"
 6160      3800
 6161              	.LASF105:
 6162 0194 4379446D 		.ascii	"CyDmaDisable\000"
 6162      61446973 
 6162      61626C65 
 6162      00
 6163              	.LASF60:
 6164 01a1 72657375 		.ascii	"result\000"
 6164      6C7400
 6165              	.LASF13:
 6166 01a8 646F7562 		.ascii	"double\000"
 6166      6C6500
 6167              	.LASF89:
 6168 01af 4379446D 		.ascii	"CyDmaGetSrcDstTransferWidth\000"
 6168      61476574 
 6168      53726344 
 6168      73745472 
 6168      616E7366 
 6169              	.LASF10:
 6170 01cb 75696E74 		.ascii	"uint32\000"
 6170      333200
 6171              	.LASF28:
 6172 01d2 74726967 		.ascii	"triggerType\000"
 6172      67657254 
 6172      79706500 
 6173              	.LASF51:
 6174 01de 70726576 		.ascii	"prevCallback\000"
 6174      43616C6C 
 6174      6261636B 
 6174      00
 6175              	.LASF67:
 6176 01eb 72656756 		.ascii	"regValue\000"
 6176      616C7565 
 6176      00
 6177              	.LASF45:
 6178 01f4 4379446D 		.ascii	"CyDmaSetInterruptSourceMask\000"
 6178      61536574 
 6178      496E7465 
 6178      72727570 
 6178      74536F75 
 6179              	.LASF32:
 6180 0210 6379646D 		.ascii	"cydma_init_struct\000"
 6180      615F696E 
ARM GAS  C:\Users\HPz420\AppData\Local\Temp\ccz4K5YU.s 			page 137


 6180      69745F73 
 6180      74727563 
 6180      7400
 6181              	.LASF69:
 6182 0222 4379446D 		.ascii	"CyDmaSetNextDescriptor\000"
 6182      61536574 
 6182      4E657874 
 6182      44657363 
 6182      72697074 
 6183              	.LASF29:
 6184 0239 7472616E 		.ascii	"transferMode\000"
 6184      73666572 
 6184      4D6F6465 
 6184      00
 6185              	.LASF8:
 6186 0246 756E7369 		.ascii	"unsigned int\000"
 6186      676E6564 
 6186      20696E74 
 6186      00
 6187              	.LASF36:
 6188 0253 4379446D 		.ascii	"CyDmaGetActiveChannels\000"
 6188      61476574 
 6188      41637469 
 6188      76654368 
 6188      616E6E65 
 6189              	.LASF5:
 6190 026a 6C6F6E67 		.ascii	"long unsigned int\000"
 6190      20756E73 
 6190      69676E65 
 6190      6420696E 
 6190      7400
 6191              	.LASF80:
 6192 027c 64737441 		.ascii	"dstAddress\000"
 6192      64647265 
 6192      737300
 6193              	.LASF3:
 6194 0287 73686F72 		.ascii	"short unsigned int\000"
 6194      7420756E 
 6194      7369676E 
 6194      65642069 
 6194      6E7400
 6195              	.LASF99:
 6196 029a 4379446D 		.ascii	"CyDmaGetPostCompletionActions\000"
 6196      61476574 
 6196      506F7374 
 6196      436F6D70 
 6196      6C657469 
 6197              	.LASF91:
 6198 02b8 4379446D 		.ascii	"CyDmaGetAddressIncrement\000"
 6198      61476574 
 6198      41646472 
 6198      65737349 
 6198      6E637265 
 6199              	.LASF49:
 6200 02d1 63616C6C 		.ascii	"callback\000"
 6200      6261636B 
 6200      00
ARM GAS  C:\Users\HPz420\AppData\Local\Temp\ccz4K5YU.s 			page 138


 6201              	.LASF66:
 6202 02da 7072696F 		.ascii	"priority\000"
 6202      72697479 
 6202      00
 6203              	.LASF90:
 6204 02e3 4379446D 		.ascii	"CyDmaSetAddressIncrement\000"
 6204      61536574 
 6204      41646472 
 6204      65737349 
 6204      6E637265 
 6205              	.LASF97:
 6206 02fc 4379446D 		.ascii	"CyDmaGetPreemptable\000"
 6206      61476574 
 6206      50726565 
 6206      6D707461 
 6206      626C6500 
 6207              	.LASF102:
 6208 0310 474E5520 		.ascii	"GNU C11 5.4.1 20160609 (release) [ARM/embedded-5-br"
 6208      43313120 
 6208      352E342E 
 6208      31203230 
 6208      31363036 
 6209 0343 616E6368 		.ascii	"anch revision 237715] -mcpu=cortex-m0 -mthumb -g -O"
 6209      20726576 
 6209      6973696F 
 6209      6E203233 
 6209      37373135 
 6210 0376 30202D66 		.ascii	"0 -ffunction-sections -ffat-lto-objects\000"
 6210      66756E63 
 6210      74696F6E 
 6210      2D736563 
 6210      74696F6E 
 6211              	.LASF16:
 6212 039e 72656733 		.ascii	"reg32\000"
 6212      3200
 6213              	.LASF95:
 6214 03a4 4379446D 		.ascii	"CyDmaGetTransferMode\000"
 6214      61476574 
 6214      5472616E 
 6214      73666572 
 6214      4D6F6465 
 6215              	.LASF98:
 6216 03b9 4379446D 		.ascii	"CyDmaSetPostCompletionActions\000"
 6216      61536574 
 6216      506F7374 
 6216      436F6D70 
 6216      6C657469 
 6217              	.LASF18:
 6218 03d7 73697A65 		.ascii	"sizetype\000"
 6218      74797065 
 6218      00
 6219              	.LASF34:
 6220 03e0 6C6F6E67 		.ascii	"long double\000"
 6220      20646F75 
 6220      626C6500 
 6221              	.LASF55:
 6222 03ec 696E7472 		.ascii	"intr\000"
ARM GAS  C:\Users\HPz420\AppData\Local\Temp\ccz4K5YU.s 			page 139


 6222      00
 6223              	.LASF106:
 6224 03f1 4379446D 		.ascii	"CyDmaDefaultInterruptCallback\000"
 6224      61446566 
 6224      61756C74 
 6224      496E7465 
 6224      72727570 
 6225              	.LASF86:
 6226 040f 6E756D45 		.ascii	"numElements\000"
 6226      6C656D65 
 6226      6E747300 
 6227              	.LASF77:
 6228 041b 73726341 		.ascii	"srcAddress\000"
 6228      64647265 
 6228      737300
 6229              	.LASF75:
 6230 0426 4379446D 		.ascii	"CyDmaGetDescriptorStatus\000"
 6230      61476574 
 6230      44657363 
 6230      72697074 
 6230      6F725374 
 6231              	.LASF52:
 6232 043f 4379446D 		.ascii	"CyDmaSetInterruptCallback\000"
 6232      61536574 
 6232      496E7465 
 6232      72727570 
 6232      7443616C 
 6233              	.LASF41:
 6234 0459 4379446D 		.ascii	"CyDmaGetInterruptSource\000"
 6234      61476574 
 6234      496E7465 
 6234      72727570 
 6234      74536F75 
 6235              	.LASF26:
 6236 0471 73726344 		.ascii	"srcDstTransferWidth\000"
 6236      73745472 
 6236      616E7366 
 6236      65725769 
 6236      64746800 
 6237              	.LASF82:
 6238 0485 4379446D 		.ascii	"CyDmaSetDataElementSize\000"
 6238      61536574 
 6238      44617461 
 6238      456C656D 
 6238      656E7453 
 6239              	.LASF54:
 6240 049d 4379446D 		.ascii	"CyDmaInterrupt\000"
 6240      61496E74 
 6240      65727275 
 6240      707400
 6241              	.LASF65:
 6242 04ac 4379446D 		.ascii	"CyDmaSetPriority\000"
 6242      61536574 
 6242      5072696F 
 6242      72697479 
 6242      00
 6243              	.LASF104:
ARM GAS  C:\Users\HPz420\AppData\Local\Temp\ccz4K5YU.s 			page 140


 6244 04bd 433A5C55 		.ascii	"C:\\Users\\HPz420\\Documents\\GitHub\\land-boards\\"
 6244      73657273 
 6244      5C48507A 
 6244      3432305C 
 6244      446F6375 
 6245 04ea 6C622D62 		.ascii	"lb-boards\\FPGA Cards\\RETRO-EP4CE15\\PSOC\\USBFS_U"
 6245      6F617264 
 6245      735C4650 
 6245      47412043 
 6245      61726473 
 6246 0519 41525430 		.ascii	"ART01\\USBFS_UART01.cydsn\000"
 6246      315C5553 
 6246      4246535F 
 6246      55415254 
 6246      30312E63 
 6247              	.LASF24:
 6248 0532 64617461 		.ascii	"dataElementSize\000"
 6248      456C656D 
 6248      656E7453 
 6248      697A6500 
 6249              	.LASF12:
 6250 0542 666C6F61 		.ascii	"float\000"
 6250      7400
 6251              	.LASF33:
 6252 0548 6379646D 		.ascii	"cydma_callback_t\000"
 6252      615F6361 
 6252      6C6C6261 
 6252      636B5F74 
 6252      00
 6253              	.LASF100:
 6254 0559 4379446D 		.ascii	"CyDmaInterruptCallback\000"
 6254      61496E74 
 6254      65727275 
 6254      70744361 
 6254      6C6C6261 
 6255              	.LASF35:
 6256 0570 4379446D 		.ascii	"CyDmaGetStatus\000"
 6256      61476574 
 6256      53746174 
 6256      757300
 6257              	.LASF1:
 6258 057f 756E7369 		.ascii	"unsigned char\000"
 6258      676E6564 
 6258      20636861 
 6258      7200
 6259              	.LASF47:
 6260 058d 4379446D 		.ascii	"CyDmaGetInterruptSourceMasked\000"
 6260      61476574 
 6260      496E7465 
 6260      72727570 
 6260      74536F75 
 6261              	.LASF2:
 6262 05ab 73686F72 		.ascii	"short int\000"
 6262      7420696E 
 6262      7400
 6263              	.LASF44:
 6264 05b5 696E7465 		.ascii	"interruptMask\000"
ARM GAS  C:\Users\HPz420\AppData\Local\Temp\ccz4K5YU.s 			page 141


 6264      72727570 
 6264      744D6173 
 6264      6B00
 6265              	.LASF46:
 6266 05c3 4379446D 		.ascii	"CyDmaGetInterruptSourceMask\000"
 6266      61476574 
 6266      496E7465 
 6266      72727570 
 6266      74536F75 
 6267              	.LASF71:
 6268 05df 6E657874 		.ascii	"nextDescriptor\000"
 6268      44657363 
 6268      72697074 
 6268      6F7200
 6269              	.LASF48:
 6270 05ee 6368616E 		.ascii	"channel\000"
 6270      6E656C00 
 6271              	.LASF93:
 6272 05f6 4379446D 		.ascii	"CyDmaGetTriggerType\000"
 6272      61476574 
 6272      54726967 
 6272      67657254 
 6272      79706500 
 6273              	.LASF57:
 6274 060a 4379446D 		.ascii	"CyDmaChAlloc\000"
 6274      61436841 
 6274      6C6C6F63 
 6274      00
 6275              	.LASF22:
 6276 0617 64657363 		.ascii	"descriptor\000"
 6276      72697074 
 6276      6F7200
 6277              	.LASF58:
 6278 0622 6368616E 		.ascii	"channelMask\000"
 6278      6E656C4D 
 6278      61736B00 
 6279              	.LASF14:
 6280 062e 63686172 		.ascii	"char\000"
 6280      00
 6281              	.LASF42:
 6282 0633 4379446D 		.ascii	"CyDmaClearInterruptSource\000"
 6282      61436C65 
 6282      6172496E 
 6282      74657272 
 6282      75707453 
 6283              	.LASF17:
 6284 064d 63796973 		.ascii	"cyisraddress\000"
 6284      72616464 
 6284      72657373 
 6284      00
 6285              	.LASF73:
 6286 065a 636F6E66 		.ascii	"config\000"
 6286      696700
 6287              	.LASF101:
 6288 0661 4379446D 		.ascii	"CyDmaChannelUsedMask\000"
 6288      61436861 
 6288      6E6E656C 
ARM GAS  C:\Users\HPz420\AppData\Local\Temp\ccz4K5YU.s 			page 142


 6288      55736564 
 6288      4D61736B 
 6289              	.LASF83:
 6290 0676 4379446D 		.ascii	"CyDmaGetDataElementSize\000"
 6290      61476574 
 6290      44617461 
 6290      456C656D 
 6290      656E7453 
 6291              	.LASF87:
 6292 068e 4379446D 		.ascii	"CyDmaSetSrcDstTransferWidth\000"
 6292      61536574 
 6292      53726344 
 6292      73745472 
 6292      616E7366 
 6293              	.LASF74:
 6294 06aa 4379446D 		.ascii	"CyDmaValidateDescriptor\000"
 6294      6156616C 
 6294      69646174 
 6294      65446573 
 6294      63726970 
 6295              	.LASF39:
 6296 06c2 4379446D 		.ascii	"CyDmaEnable\000"
 6296      61456E61 
 6296      626C6500 
 6297              	.LASF27:
 6298 06ce 61646472 		.ascii	"addressIncrement\000"
 6298      65737349 
 6298      6E637265 
 6298      6D656E74 
 6298      00
 6299              	.LASF81:
 6300 06df 4379446D 		.ascii	"CyDmaGetDstAddress\000"
 6300      61476574 
 6300      44737441 
 6300      64647265 
 6300      737300
 6301              	.LASF38:
 6302 06f2 4379446D 		.ascii	"CyDmaGetActiveDstAddress\000"
 6302      61476574 
 6302      41637469 
 6302      76654473 
 6302      74416464 
 6303              	.LASF84:
 6304 070b 4379446D 		.ascii	"CyDmaSetNumDataElements\000"
 6304      61536574 
 6304      4E756D44 
 6304      61746145 
 6304      6C656D65 
 6305              	.LASF20:
 6306 0723 73746174 		.ascii	"status\000"
 6306      757300
 6307              	.LASF21:
 6308 072a 6379646D 		.ascii	"cydma_descriptor_struct\000"
 6308      615F6465 
 6308      73637269 
 6308      70746F72 
 6308      5F737472 
ARM GAS  C:\Users\HPz420\AppData\Local\Temp\ccz4K5YU.s 			page 143


 6309              	.LASF15:
 6310 0742 63797374 		.ascii	"cystatus\000"
 6310      61747573 
 6310      00
 6311              	.LASF88:
 6312 074b 7472616E 		.ascii	"transferWidth\000"
 6312      73666572 
 6312      57696474 
 6312      6800
 6313              	.LASF63:
 6314 0759 4379446D 		.ascii	"CyDmaTrigger\000"
 6314      61547269 
 6314      67676572 
 6314      00
 6315              	.LASF94:
 6316 0766 4379446D 		.ascii	"CyDmaSetTransferMode\000"
 6316      61536574 
 6316      5472616E 
 6316      73666572 
 6316      4D6F6465 
 6317              	.LASF23:
 6318 077b 6379646D 		.ascii	"cydma_descriptor_ram_struct\000"
 6318      615F6465 
 6318      73637269 
 6318      70746F72 
 6318      5F72616D 
 6319              	.LASF92:
 6320 0797 4379446D 		.ascii	"CyDmaSetTriggerType\000"
 6320      61536574 
 6320      54726967 
 6320      67657254 
 6320      79706500 
 6321              	.LASF103:
 6322 07ab 47656E65 		.ascii	"Generated_Source\\PSoC4\\CyDMA.c\000"
 6322      72617465 
 6322      645F536F 
 6322      75726365 
 6322      5C50536F 
 6323              	.LASF31:
 6324 07ca 61637469 		.ascii	"actions\000"
 6324      6F6E7300 
 6325              	.LASF30:
 6326 07d2 70726565 		.ascii	"preemptable\000"
 6326      6D707461 
 6326      626C6500 
 6327              	.LASF96:
 6328 07de 4379446D 		.ascii	"CyDmaSetPreemptable\000"
 6328      61536574 
 6328      50726565 
 6328      6D707461 
 6328      626C6500 
 6329              	.LASF59:
 6330 07f2 4379446D 		.ascii	"CyDmaChFree\000"
 6330      61436846 
 6330      72656500 
 6331              		.ident	"GCC: (GNU Tools for ARM Embedded Processors) 5.4.1 20160609 (release) [ARM/embedded-5-bran
