ARM GAS  C:\Users\HPz420\AppData\Local\Temp\ccqSdXMd.s 			page 1


   1              		.syntax unified
   2              		.cpu cortex-m0
   3              		.fpu softvfp
   4              		.eabi_attribute 20, 1
   5              		.eabi_attribute 21, 1
   6              		.eabi_attribute 23, 3
   7              		.eabi_attribute 24, 1
   8              		.eabi_attribute 25, 1
   9              		.eabi_attribute 26, 1
  10              		.eabi_attribute 30, 6
  11              		.eabi_attribute 34, 0
  12              		.eabi_attribute 18, 4
  13              		.thumb
  14              		.syntax unified
  15              		.file	"main.c"
  16              		.text
  17              	.Ltext0:
  18              		.cfi_sections	.debug_frame
  19              		.syntax divided
  20              		.global _printf_float
  21              		.thumb
  22              		.syntax unified
  23              		.global	parity
  24              		.section	.rodata
  25              		.align	2
  26              	.LC0:
  27 0000 4E6F6E65 		.ascii	"None\000"
  27      00
  28 0005 000000   		.align	2
  29              	.LC1:
  30 0008 4F646400 		.ascii	"Odd\000"
  31              		.align	2
  32              	.LC2:
  33 000c 4576656E 		.ascii	"Even\000"
  33      00
  34 0011 000000   		.align	2
  35              	.LC3:
  36 0014 4D61726B 		.ascii	"Mark\000"
  36      00
  37 0019 000000   		.align	2
  38              	.LC4:
  39 001c 53706163 		.ascii	"Space\000"
  39      6500
  40              		.data
  41              		.align	2
  42              		.type	parity, %object
  43              		.size	parity, 20
  44              	parity:
  45 0000 00000000 		.word	.LC0
  46 0004 08000000 		.word	.LC1
  47 0008 0C000000 		.word	.LC2
  48 000c 14000000 		.word	.LC3
  49 0010 1C000000 		.word	.LC4
  50              		.global	stop
  51              		.section	.rodata
  52 0022 0000     		.align	2
  53              	.LC5:
ARM GAS  C:\Users\HPz420\AppData\Local\Temp\ccqSdXMd.s 			page 2


  54 0024 3100     		.ascii	"1\000"
  55 0026 0000     		.align	2
  56              	.LC6:
  57 0028 312E3500 		.ascii	"1.5\000"
  58              		.align	2
  59              	.LC7:
  60 002c 3200     		.ascii	"2\000"
  61              		.data
  62              		.align	2
  63              		.type	stop, %object
  64              		.size	stop, 12
  65              	stop:
  66 0014 24000000 		.word	.LC5
  67 0018 28000000 		.word	.LC6
  68 001c 2C000000 		.word	.LC7
  69              		.section	.text.main,"ax",%progbits
  70              		.align	2
  71              		.global	main
  72              		.code	16
  73              		.thumb_func
  74              		.type	main, %function
  75              	main:
  76              	.LFB35:
  77              		.file 1 "main.c"
   1:main.c        **** /*******************************************************************************
   2:main.c        **** * File Name: main.c
   3:main.c        **** *
   4:main.c        **** * Version: 2.0
   5:main.c        **** *
   6:main.c        **** * Description:
   7:main.c        **** *   The component is enumerated as a Virtual Com port. Receives data from the 
   8:main.c        **** *   hyper terminal, then sends back the received data.
   9:main.c        **** *   For PSoC3/PSoC5LP, the LCD shows the line settings.
  10:main.c        **** *
  11:main.c        **** * Related Document:
  12:main.c        **** *  Universal Serial Bus Specification Revision 2.0
  13:main.c        **** *  Universal Serial Bus Class Definitions for Communications Devices
  14:main.c        **** *  Revision 1.2
  15:main.c        **** *
  16:main.c        **** ********************************************************************************
  17:main.c        **** * Copyright 2015, Cypress Semiconductor Corporation. All rights reserved.
  18:main.c        **** * This software is owned by Cypress Semiconductor Corporation and is protected
  19:main.c        **** * by and subject to worldwide patent and copyright laws and treaties.
  20:main.c        **** * Therefore, you may use this software only as provided in the license agreement
  21:main.c        **** * accompanying the software package from which you obtained this software.
  22:main.c        **** * CYPRESS AND ITS SUPPLIERS MAKE NO WARRANTY OF ANY KIND, EXPRESS OR IMPLIED,
  23:main.c        **** * WITH REGARD TO THIS SOFTWARE, INCLUDING, BUT NOT LIMITED TO, NONINFRINGEMENT,
  24:main.c        **** * IMPLIED WARRANTIES OF MERCHANTABILITY AND FITNESS FOR A PARTICULAR PURPOSE.
  25:main.c        **** *******************************************************************************/
  26:main.c        **** 
  27:main.c        **** #include <project.h>
  28:main.c        **** #include "stdio.h"
  29:main.c        **** 
  30:main.c        **** #if defined (__GNUC__)
  31:main.c        ****     /* Add an explicit reference to the floating point printf library */
  32:main.c        ****     /* to allow usage of the floating point conversion specifiers. */
  33:main.c        ****     /* This is not linked in by default with the newlib-nano library. */
ARM GAS  C:\Users\HPz420\AppData\Local\Temp\ccqSdXMd.s 			page 3


  34:main.c        ****     asm (".global _printf_float");
  35:main.c        **** #endif
  36:main.c        **** 
  37:main.c        **** #define USBFS_DEVICE    (0u)
  38:main.c        **** 
  39:main.c        **** /* The buffer size is equal to the maximum packet size of the IN and OUT bulk
  40:main.c        **** * endpoints.
  41:main.c        **** */
  42:main.c        **** #define USBUART_BUFFER_SIZE (64u)
  43:main.c        **** #define LINE_STR_LENGTH     (20u)
  44:main.c        **** 
  45:main.c        **** char8* parity[] = {"None", "Odd", "Even", "Mark", "Space"};
  46:main.c        **** char8* stop[]   = {"1", "1.5", "2"};
  47:main.c        **** 
  48:main.c        **** 
  49:main.c        **** /*******************************************************************************
  50:main.c        **** * Function Name: main
  51:main.c        **** ********************************************************************************
  52:main.c        **** *
  53:main.c        **** * Summary:
  54:main.c        **** *  The main function performs the following actions:
  55:main.c        **** *   1. Waits until VBUS becomes valid and starts the USBFS component which is
  56:main.c        **** *      enumerated as virtual Com port.
  57:main.c        **** *   2. Waits until the device is enumerated by the host.
  58:main.c        **** *   3. Waits for data coming from the hyper terminal and sends it back.
  59:main.c        **** *   4. PSoC3/PSoC5LP: the LCD shows the line settings.
  60:main.c        **** *
  61:main.c        **** * Parameters:
  62:main.c        **** *  None.
  63:main.c        **** *
  64:main.c        **** * Return:
  65:main.c        **** *  None.
  66:main.c        **** *
  67:main.c        **** *******************************************************************************/
  68:main.c        **** int main()
  69:main.c        **** {
  78              		.loc 1 69 0
  79              		.cfi_startproc
  80              		@ args = 0, pretend = 0, frame = 72
  81              		@ frame_needed = 1, uses_anonymous_args = 0
  82 0000 90B5     		push	{r4, r7, lr}
  83              		.cfi_def_cfa_offset 12
  84              		.cfi_offset 4, -12
  85              		.cfi_offset 7, -8
  86              		.cfi_offset 14, -4
  87 0002 93B0     		sub	sp, sp, #76
  88              		.cfi_def_cfa_offset 88
  89 0004 00AF     		add	r7, sp, #0
  90              		.cfi_def_cfa_register 7
  70:main.c        ****     uint16 count;
  71:main.c        ****     uint8 buffer[USBUART_BUFFER_SIZE];
  72:main.c        ****     
  73:main.c        **** #if (CY_PSOC3 || CY_PSOC5LP)
  74:main.c        ****     uint8 state;
  75:main.c        ****     char8 lineStr[LINE_STR_LENGTH];
  76:main.c        ****     
  77:main.c        ****     LCD_Start();
ARM GAS  C:\Users\HPz420\AppData\Local\Temp\ccqSdXMd.s 			page 4


  78:main.c        **** #endif /* (CY_PSOC3 || CY_PSOC5LP) */
  79:main.c        ****     
  80:main.c        ****     CyGlobalIntEnable;
  91              		.loc 1 80 0
  92              		.syntax divided
  93              	@ 80 "main.c" 1
  94 0006 62B6     		CPSIE   i
  95              	@ 0 "" 2
  81:main.c        **** 
  82:main.c        ****     /* Start USBFS operation with 5-V operation. */
  83:main.c        ****     USBUART_Start(USBFS_DEVICE, USBUART_5V_OPERATION);
  96              		.loc 1 83 0
  97              		.thumb
  98              		.syntax unified
  99 0008 0121     		movs	r1, #1
 100 000a 0020     		movs	r0, #0
 101 000c FFF7FEFF 		bl	USBUART_Start
 102              	.L6:
  84:main.c        ****     
  85:main.c        ****     for(;;)
  86:main.c        ****     {
  87:main.c        ****         /* Host can send double SET_INTERFACE request. */
  88:main.c        ****         if (0u != USBUART_IsConfigurationChanged())
 103              		.loc 1 88 0
 104 0010 FFF7FEFF 		bl	USBUART_IsConfigurationChanged
 105 0014 031E     		subs	r3, r0, #0
 106 0016 05D0     		beq	.L2
  89:main.c        ****         {
  90:main.c        ****             /* Initialize IN endpoints when device is configured. */
  91:main.c        ****             if (0u != USBUART_GetConfiguration())
 107              		.loc 1 91 0
 108 0018 FFF7FEFF 		bl	USBUART_GetConfiguration
 109 001c 031E     		subs	r3, r0, #0
 110 001e 01D0     		beq	.L2
  92:main.c        ****             {
  93:main.c        ****                 /* Enumeration is done, enable OUT endpoint to receive data 
  94:main.c        ****                  * from host. */
  95:main.c        ****                 USBUART_CDC_Init();
 111              		.loc 1 95 0
 112 0020 FFF7FEFF 		bl	USBUART_CDC_Init
 113              	.L2:
  96:main.c        ****             }
  97:main.c        ****         }
  98:main.c        **** 
  99:main.c        ****         /* Service USB CDC when device is configured. */
 100:main.c        ****         if (0u != USBUART_GetConfiguration())
 114              		.loc 1 100 0
 115 0024 FFF7FEFF 		bl	USBUART_GetConfiguration
 116 0028 031E     		subs	r3, r0, #0
 117 002a F1D0     		beq	.L6
 101:main.c        ****         {
 102:main.c        ****             /* Check for input data from host. */
 103:main.c        ****             if (0u != USBUART_DataIsReady())
 118              		.loc 1 103 0
 119 002c FFF7FEFF 		bl	USBUART_DataIsReady
 120 0030 031E     		subs	r3, r0, #0
 121 0032 EDD0     		beq	.L6
ARM GAS  C:\Users\HPz420\AppData\Local\Temp\ccqSdXMd.s 			page 5


 104:main.c        ****             {
 105:main.c        ****                 /* Read received data and re-enable OUT endpoint. */
 106:main.c        ****                 count = USBUART_GetAll(buffer);
 122              		.loc 1 106 0
 123 0034 4623     		movs	r3, #70
 124 0036 FC18     		adds	r4, r7, r3
 125 0038 3B1D     		adds	r3, r7, #4
 126 003a 1800     		movs	r0, r3
 127 003c FFF7FEFF 		bl	USBUART_GetAll
 128 0040 0300     		movs	r3, r0
 129 0042 2380     		strh	r3, [r4]
 107:main.c        **** 
 108:main.c        ****                 if (0u != count)
 130              		.loc 1 108 0
 131 0044 4623     		movs	r3, #70
 132 0046 FB18     		adds	r3, r7, r3
 133 0048 1B88     		ldrh	r3, [r3]
 134 004a 002B     		cmp	r3, #0
 135 004c E0D0     		beq	.L6
 109:main.c        ****                 {
 110:main.c        ****                     /* Wait until component is ready to send data to host. */
 111:main.c        ****                     while (0u == USBUART_CDCIsReady())
 136              		.loc 1 111 0
 137 004e C046     		nop
 138              	.L4:
 139              		.loc 1 111 0 is_stmt 0 discriminator 1
 140 0050 FFF7FEFF 		bl	USBUART_CDCIsReady
 141 0054 031E     		subs	r3, r0, #0
 142 0056 FBD0     		beq	.L4
 112:main.c        ****                     {
 113:main.c        ****                     }
 114:main.c        **** 
 115:main.c        ****                     /* Send data back to host. */
 116:main.c        ****                     USBUART_PutData(buffer, count);
 143              		.loc 1 116 0 is_stmt 1
 144 0058 4623     		movs	r3, #70
 145 005a FB18     		adds	r3, r7, r3
 146 005c 1A88     		ldrh	r2, [r3]
 147 005e 3B1D     		adds	r3, r7, #4
 148 0060 1100     		movs	r1, r2
 149 0062 1800     		movs	r0, r3
 150 0064 FFF7FEFF 		bl	USBUART_PutData
 117:main.c        **** 
 118:main.c        ****                     /* If the last sent packet is exactly the maximum packet 
 119:main.c        ****                     *  size, it is followed by a zero-length packet to assure
 120:main.c        ****                     *  that the end of the segment is properly identified by 
 121:main.c        ****                     *  the terminal.
 122:main.c        ****                     */
 123:main.c        ****                     if (USBUART_BUFFER_SIZE == count)
 151              		.loc 1 123 0
 152 0068 4623     		movs	r3, #70
 153 006a FB18     		adds	r3, r7, r3
 154 006c 1B88     		ldrh	r3, [r3]
 155 006e 402B     		cmp	r3, #64
 156 0070 CED1     		bne	.L6
 124:main.c        ****                     {
 125:main.c        ****                         /* Wait until component is ready to send data to PC. */
ARM GAS  C:\Users\HPz420\AppData\Local\Temp\ccqSdXMd.s 			page 6


 126:main.c        ****                         while (0u == USBUART_CDCIsReady())
 157              		.loc 1 126 0
 158 0072 C046     		nop
 159              	.L5:
 160              		.loc 1 126 0 is_stmt 0 discriminator 1
 161 0074 FFF7FEFF 		bl	USBUART_CDCIsReady
 162 0078 031E     		subs	r3, r0, #0
 163 007a FBD0     		beq	.L5
 127:main.c        ****                         {
 128:main.c        ****                         }
 129:main.c        **** 
 130:main.c        ****                         /* Send zero-length packet to PC. */
 131:main.c        ****                         USBUART_PutData(NULL, 0u);
 164              		.loc 1 131 0 is_stmt 1
 165 007c 0021     		movs	r1, #0
 166 007e 0020     		movs	r0, #0
 167 0080 FFF7FEFF 		bl	USBUART_PutData
 132:main.c        ****                     }
 133:main.c        ****                 }
 134:main.c        ****             }
 135:main.c        ****         }
 136:main.c        ****     }
 168              		.loc 1 136 0
 169 0084 C4E7     		b	.L6
 170              		.cfi_endproc
 171              	.LFE35:
 172              		.size	main, .-main
 173 0086 C046     		.text
 174              	.Letext0:
 175              		.file 2 "Generated_Source\\PSoC4/cytypes.h"