ARM GAS  C:\Users\HPz420\AppData\Local\Temp\ccOuTLU7.s 			page 1


   1              		.syntax unified
   2              		.cpu cortex-m0
   3              		.fpu softvfp
   4              		.eabi_attribute 20, 1
   5              		.eabi_attribute 21, 1
   6              		.eabi_attribute 23, 3
   7              		.eabi_attribute 24, 1
   8              		.eabi_attribute 25, 1
   9              		.eabi_attribute 26, 1
  10              		.eabi_attribute 30, 6
  11              		.eabi_attribute 34, 0
  12              		.eabi_attribute 18, 4
  13              		.thumb
  14              		.syntax unified
  15              		.file	"USBUART_cdc.c"
  16              		.text
  17              	.Ltext0:
  18              		.cfi_sections	.debug_frame
  19              		.global	USBUART_linesCoding
  20              		.data
  21              		.align	2
  22              		.type	USBUART_linesCoding, %object
  23              		.size	USBUART_linesCoding, 14
  24              	USBUART_linesCoding:
  25 0000 00       		.byte	0
  26 0001 C2       		.byte	-62
  27 0002 01       		.byte	1
  28 0003 00       		.byte	0
  29 0004 00       		.byte	0
  30 0005 00       		.byte	0
  31 0006 08       		.byte	8
  32 0007 00       		.byte	0
  33 0008 C2       		.byte	-62
  34 0009 01       		.byte	1
  35 000a 00       		.byte	0
  36 000b 00       		.byte	0
  37 000c 00       		.byte	0
  38 000d 08       		.byte	8
  39              		.comm	USBUART_linesChanged,2,4
  40              		.comm	USBUART_linesControlBitmap,4,4
  41              		.comm	USBUART_serialStateBitmap,4,4
  42              		.comm	USBUART_cdcDataInEp,2,4
  43              		.comm	USBUART_cdcDataOutEp,2,4
  44              		.comm	USBUART_cdcCommInInterruptEp,2,4
  45 000e 0000     		.align	2
  46              		.type	USBUART_serialStateNotification, %object
  47              		.size	USBUART_serialStateNotification, 10
  48              	USBUART_serialStateNotification:
  49 0010 A1       		.byte	-95
  50 0011 20       		.byte	32
  51 0012 00       		.byte	0
  52 0013 00       		.byte	0
  53 0014 00       		.byte	0
  54 0015 00       		.byte	0
  55 0016 02       		.byte	2
  56 0017 00       		.byte	0
  57 0018 00       		.byte	0
ARM GAS  C:\Users\HPz420\AppData\Local\Temp\ccOuTLU7.s 			page 2


  58 0019 00       		.byte	0
  59              		.bss
  60              	USBUART_activeCom:
  61 0000 00       		.space	1
  62              		.section	.text.USBUART_DispatchCDCClassRqst,"ax",%progbits
  63              		.align	2
  64              		.global	USBUART_DispatchCDCClassRqst
  65              		.code	16
  66              		.thumb_func
  67              		.type	USBUART_DispatchCDCClassRqst, %function
  68              	USBUART_DispatchCDCClassRqst:
  69              	.LFB1:
  70              		.file 1 "Generated_Source\\PSoC4\\USBUART_cdc.c"
   1:Generated_Source\PSoC4/USBUART_cdc.c **** /***************************************************************************//**
   2:Generated_Source\PSoC4/USBUART_cdc.c **** * \file USBUART_cdc.c
   3:Generated_Source\PSoC4/USBUART_cdc.c **** * \version 3.10
   4:Generated_Source\PSoC4/USBUART_cdc.c **** *
   5:Generated_Source\PSoC4/USBUART_cdc.c **** * \brief
   6:Generated_Source\PSoC4/USBUART_cdc.c **** *  This file contains the USB CDC class request handler.
   7:Generated_Source\PSoC4/USBUART_cdc.c **** *
   8:Generated_Source\PSoC4/USBUART_cdc.c **** * Related Document:
   9:Generated_Source\PSoC4/USBUART_cdc.c **** *  Universal Serial Bus Class Definitions for Communication Devices Version 1.1
  10:Generated_Source\PSoC4/USBUART_cdc.c **** *
  11:Generated_Source\PSoC4/USBUART_cdc.c **** ********************************************************************************
  12:Generated_Source\PSoC4/USBUART_cdc.c **** * \copyright
  13:Generated_Source\PSoC4/USBUART_cdc.c **** * Copyright 2012-2016, Cypress Semiconductor Corporation.  All rights reserved.
  14:Generated_Source\PSoC4/USBUART_cdc.c **** * You may use this file only in accordance with the license, terms, conditions,
  15:Generated_Source\PSoC4/USBUART_cdc.c **** * disclaimers, and limitations in the end user license agreement accompanying
  16:Generated_Source\PSoC4/USBUART_cdc.c **** * the software package with which this file was provided.
  17:Generated_Source\PSoC4/USBUART_cdc.c **** *******************************************************************************/
  18:Generated_Source\PSoC4/USBUART_cdc.c **** 
  19:Generated_Source\PSoC4/USBUART_cdc.c **** #include "USBUART_cdc.h"
  20:Generated_Source\PSoC4/USBUART_cdc.c **** #include "USBUART_pvt.h"
  21:Generated_Source\PSoC4/USBUART_cdc.c **** #include "cyapicallbacks.h"
  22:Generated_Source\PSoC4/USBUART_cdc.c **** 
  23:Generated_Source\PSoC4/USBUART_cdc.c **** #if defined(USBUART_ENABLE_CDC_CLASS)
  24:Generated_Source\PSoC4/USBUART_cdc.c **** 
  25:Generated_Source\PSoC4/USBUART_cdc.c **** /*******************************************************************************
  26:Generated_Source\PSoC4/USBUART_cdc.c **** *    CDC Variables
  27:Generated_Source\PSoC4/USBUART_cdc.c **** *******************************************************************************/
  28:Generated_Source\PSoC4/USBUART_cdc.c **** 
  29:Generated_Source\PSoC4/USBUART_cdc.c **** /*PUBLIC*/
  30:Generated_Source\PSoC4/USBUART_cdc.c **** /** Contains the current line coding structure. The host sets it using a
  31:Generated_Source\PSoC4/USBUART_cdc.c ****  * SET_LINE_CODING request and returns it to the user code using the
  32:Generated_Source\PSoC4/USBUART_cdc.c ****  * USBUART_GetDTERate(), USBUART_GetCharFormat(),
  33:Generated_Source\PSoC4/USBUART_cdc.c ****  * USBUART_GetParityType(), and USBUART_GetDataBits() APIs.
  34:Generated_Source\PSoC4/USBUART_cdc.c ****  * It is an array of 2 elements for COM port 1 and COM port 2 for MultiCOM port
  35:Generated_Source\PSoC4/USBUART_cdc.c ****  * support. In case of 1 COM port, data is in 0 element.*/
  36:Generated_Source\PSoC4/USBUART_cdc.c **** volatile uint8 USBUART_linesCoding[USBUART_MAX_MULTI_COM_NUM][USBUART_LINE_CODING_SIZE] =
  37:Generated_Source\PSoC4/USBUART_cdc.c **** {
  38:Generated_Source\PSoC4/USBUART_cdc.c ****     /*COM Port 1*/
  39:Generated_Source\PSoC4/USBUART_cdc.c ****     {
  40:Generated_Source\PSoC4/USBUART_cdc.c ****     0x00u, 0xC2u, 0x01u, 0x00u,     /* Data terminal rate 115200 */
  41:Generated_Source\PSoC4/USBUART_cdc.c ****     0x00u,                          /* 1 Stop bit */
  42:Generated_Source\PSoC4/USBUART_cdc.c ****     0x00u,                          /* None parity */
  43:Generated_Source\PSoC4/USBUART_cdc.c ****     0x08u                           /* 8 data bits */
  44:Generated_Source\PSoC4/USBUART_cdc.c ****     },
ARM GAS  C:\Users\HPz420\AppData\Local\Temp\ccOuTLU7.s 			page 3


  45:Generated_Source\PSoC4/USBUART_cdc.c ****     /*COM Port 2*/
  46:Generated_Source\PSoC4/USBUART_cdc.c ****     {
  47:Generated_Source\PSoC4/USBUART_cdc.c ****     0x00u, 0xC2u, 0x01u, 0x00u,     /* Data terminal rate 115200 */
  48:Generated_Source\PSoC4/USBUART_cdc.c ****     0x00u,                          /* 1 Stop bit */
  49:Generated_Source\PSoC4/USBUART_cdc.c ****     0x00u,                          /* None parity */
  50:Generated_Source\PSoC4/USBUART_cdc.c ****     0x08u                           /* 8 data bits */
  51:Generated_Source\PSoC4/USBUART_cdc.c ****     }
  52:Generated_Source\PSoC4/USBUART_cdc.c **** };
  53:Generated_Source\PSoC4/USBUART_cdc.c **** 
  54:Generated_Source\PSoC4/USBUART_cdc.c **** /**Used as a flag for the USBUART_IsLineChanged() API, to inform it that the
  55:Generated_Source\PSoC4/USBUART_cdc.c ****  * host has been sent a request to change line coding or control bitmap. It is 
  56:Generated_Source\PSoC4/USBUART_cdc.c ****  * an array of 2 elements for COM port 1 and COM port 2 for MultiCOM port 
  57:Generated_Source\PSoC4/USBUART_cdc.c ****  * support. In case of 1 COM port, data is in 0 element.*/
  58:Generated_Source\PSoC4/USBUART_cdc.c **** volatile uint8  USBUART_linesChanged[USBUART_MAX_MULTI_COM_NUM];
  59:Generated_Source\PSoC4/USBUART_cdc.c **** /** Contains the current control-signal bitmap. The host sets it using a
  60:Generated_Source\PSoC4/USBUART_cdc.c ****  * SET_CONTROL_LINE request and returns it to the user code using the 
  61:Generated_Source\PSoC4/USBUART_cdc.c ****  * USBUART_GetLineControl() API. It is an array of 2 elements for COM 
  62:Generated_Source\PSoC4/USBUART_cdc.c ****  * port 1 and COM port 2 for MultiCOM port support. In case of 1 COM port, data 
  63:Generated_Source\PSoC4/USBUART_cdc.c ****  * is in 0 element.*/
  64:Generated_Source\PSoC4/USBUART_cdc.c **** volatile uint16 USBUART_linesControlBitmap[USBUART_MAX_MULTI_COM_NUM];
  65:Generated_Source\PSoC4/USBUART_cdc.c **** /** Contains the 16-bit serial state value that was sent using the 
  66:Generated_Source\PSoC4/USBUART_cdc.c ****  * \ref USBUART_SendSerialState() API. . It is an array of 2 elements 
  67:Generated_Source\PSoC4/USBUART_cdc.c ****  * for COM port 1 and COM port 2 for MultiCOM port support. In case of 1 COM 
  68:Generated_Source\PSoC4/USBUART_cdc.c ****  * port, data is in 0 element.*/
  69:Generated_Source\PSoC4/USBUART_cdc.c **** volatile uint16 USBUART_serialStateBitmap[USBUART_MAX_MULTI_COM_NUM];
  70:Generated_Source\PSoC4/USBUART_cdc.c **** /** Contains the data IN endpoint number. It is initialized after a 
  71:Generated_Source\PSoC4/USBUART_cdc.c ****  * SET_CONFIGURATION request based on a user descriptor. It is used in CDC APIs 
  72:Generated_Source\PSoC4/USBUART_cdc.c ****  * to send data to the PC. It is an array of 2 elements for COM port 1 and COM 
  73:Generated_Source\PSoC4/USBUART_cdc.c ****  * port 2 for MultiCOM port support. In case of 1 COM port, data is in 0 element.*/
  74:Generated_Source\PSoC4/USBUART_cdc.c **** volatile uint8  USBUART_cdcDataInEp[USBUART_MAX_MULTI_COM_NUM];
  75:Generated_Source\PSoC4/USBUART_cdc.c **** /** Contains the data OUT endpoint number. It is initialized after a 
  76:Generated_Source\PSoC4/USBUART_cdc.c ****  * SET_CONFIGURATION request based on user descriptor. It is used in CDC APIs to 
  77:Generated_Source\PSoC4/USBUART_cdc.c ****  * receive data from the PC. It is an array of 2 elements for COM port 1 and COM  
  78:Generated_Source\PSoC4/USBUART_cdc.c ****  * port 2 for MultiCOM port support. In case of 1 COM port, data is in 0 element.*/
  79:Generated_Source\PSoC4/USBUART_cdc.c **** volatile uint8  USBUART_cdcDataOutEp[USBUART_MAX_MULTI_COM_NUM];
  80:Generated_Source\PSoC4/USBUART_cdc.c **** /** Contains the data IN endpoint number for COMMUNICATION interface. It is 
  81:Generated_Source\PSoC4/USBUART_cdc.c ****  * initialized after a SET_CONFIGURATION request based on a user descriptor. It 
  82:Generated_Source\PSoC4/USBUART_cdc.c ****  * is used in CDC APIs to send data to the PC. It is an array of 2 elements for 
  83:Generated_Source\PSoC4/USBUART_cdc.c ****  * COM port 1 and COM port 2 for MultiCOM port support. In case of 1 COM port, 
  84:Generated_Source\PSoC4/USBUART_cdc.c ****  * data is in 0 element.*/
  85:Generated_Source\PSoC4/USBUART_cdc.c **** volatile uint8  USBUART_cdcCommInInterruptEp[USBUART_MAX_MULTI_COM_NUM];
  86:Generated_Source\PSoC4/USBUART_cdc.c **** 
  87:Generated_Source\PSoC4/USBUART_cdc.c **** /*PRIVATE*/
  88:Generated_Source\PSoC4/USBUART_cdc.c **** 
  89:Generated_Source\PSoC4/USBUART_cdc.c **** #define USBUART_CDC_IN_EP      (0u)
  90:Generated_Source\PSoC4/USBUART_cdc.c **** #define USBUART_CDC_OUT_EP     (1u)
  91:Generated_Source\PSoC4/USBUART_cdc.c **** #define USBUART_CDC_NOTE_EP    (2u)
  92:Generated_Source\PSoC4/USBUART_cdc.c **** 
  93:Generated_Source\PSoC4/USBUART_cdc.c **** #define USBUART_CDC_EP_MASK    (0x01u)
  94:Generated_Source\PSoC4/USBUART_cdc.c **** 
  95:Generated_Source\PSoC4/USBUART_cdc.c **** #define USBUART_GET_EP_COM_NUM(cdcComNums, epType) (((cdcComNums) >> (epType)) & USBUART_CDC_EP_MAS
  96:Generated_Source\PSoC4/USBUART_cdc.c **** 
  97:Generated_Source\PSoC4/USBUART_cdc.c **** 
  98:Generated_Source\PSoC4/USBUART_cdc.c **** /***************************************
  99:Generated_Source\PSoC4/USBUART_cdc.c **** *     Static Function Prototypes
 100:Generated_Source\PSoC4/USBUART_cdc.c **** ***************************************/
 101:Generated_Source\PSoC4/USBUART_cdc.c **** #if (USBUART_ENABLE_CDC_CLASS_API != 0u)
ARM GAS  C:\Users\HPz420\AppData\Local\Temp\ccOuTLU7.s 			page 4


 102:Generated_Source\PSoC4/USBUART_cdc.c ****     static uint16 USBUART_StrLen(const char8 string[]) ;
 103:Generated_Source\PSoC4/USBUART_cdc.c ****     static t_USBUART_cdc_notification USBUART_serialStateNotification =
 104:Generated_Source\PSoC4/USBUART_cdc.c ****     {
 105:Generated_Source\PSoC4/USBUART_cdc.c **** 
 106:Generated_Source\PSoC4/USBUART_cdc.c ****         USBUART_SERIAL_STATE_REQUEST_TYPE, /* bRequestType    */
 107:Generated_Source\PSoC4/USBUART_cdc.c ****         USBUART_SERIAL_STATE,              /* bNotification   */
 108:Generated_Source\PSoC4/USBUART_cdc.c ****         0u,                                         /* wValue          */
 109:Generated_Source\PSoC4/USBUART_cdc.c ****         0u,                                         /* wValueMSB       */
 110:Generated_Source\PSoC4/USBUART_cdc.c ****         0u,                                         /* wIndex          */
 111:Generated_Source\PSoC4/USBUART_cdc.c ****         0u,                                         /* wIndexMSB       */
 112:Generated_Source\PSoC4/USBUART_cdc.c ****         USBUART_SERIAL_STATE_LENGTH,       /* wLength         */
 113:Generated_Source\PSoC4/USBUART_cdc.c ****         0u,                                         /* wLengthMSB      */
 114:Generated_Source\PSoC4/USBUART_cdc.c ****         0u,                                         /* wSerialState    */
 115:Generated_Source\PSoC4/USBUART_cdc.c ****         0u,                                         /* wSerialStateMSB */
 116:Generated_Source\PSoC4/USBUART_cdc.c ****     };
 117:Generated_Source\PSoC4/USBUART_cdc.c ****     static uint8 USBUART_activeCom = 0u;
 118:Generated_Source\PSoC4/USBUART_cdc.c **** #endif /* (USBUART_ENABLE_CDC_CLASS_API != 0u) */
 119:Generated_Source\PSoC4/USBUART_cdc.c **** 
 120:Generated_Source\PSoC4/USBUART_cdc.c **** 
 121:Generated_Source\PSoC4/USBUART_cdc.c **** /***************************************
 122:Generated_Source\PSoC4/USBUART_cdc.c **** * Custom Declarations
 123:Generated_Source\PSoC4/USBUART_cdc.c **** ***************************************/
 124:Generated_Source\PSoC4/USBUART_cdc.c **** 
 125:Generated_Source\PSoC4/USBUART_cdc.c **** /* `#START CDC_CUSTOM_DECLARATIONS` Place your declaration here */
 126:Generated_Source\PSoC4/USBUART_cdc.c **** 
 127:Generated_Source\PSoC4/USBUART_cdc.c **** /* `#END` */
 128:Generated_Source\PSoC4/USBUART_cdc.c **** 
 129:Generated_Source\PSoC4/USBUART_cdc.c **** 
 130:Generated_Source\PSoC4/USBUART_cdc.c **** /*******************************************************************************
 131:Generated_Source\PSoC4/USBUART_cdc.c **** * Function Name: USBUART_DispatchCDCClassRqst
 132:Generated_Source\PSoC4/USBUART_cdc.c **** ****************************************************************************//**
 133:Generated_Source\PSoC4/USBUART_cdc.c **** *
 134:Generated_Source\PSoC4/USBUART_cdc.c **** *  This routine dispatches CDC class requests.
 135:Generated_Source\PSoC4/USBUART_cdc.c **** *
 136:Generated_Source\PSoC4/USBUART_cdc.c **** * \return
 137:Generated_Source\PSoC4/USBUART_cdc.c **** *  requestHandled
 138:Generated_Source\PSoC4/USBUART_cdc.c **** *
 139:Generated_Source\PSoC4/USBUART_cdc.c **** * \globalvars
 140:Generated_Source\PSoC4/USBUART_cdc.c **** *   USBUART_linesCoding: Contains the current line coding structure.
 141:Generated_Source\PSoC4/USBUART_cdc.c **** *     It is set by the Host using SET_LINE_CODING request and returned to the
 142:Generated_Source\PSoC4/USBUART_cdc.c **** *     user code by the USBFS_GetDTERate(), USBFS_GetCharFormat(),
 143:Generated_Source\PSoC4/USBUART_cdc.c **** *     USBFS_GetParityType(), USBFS_GetDataBits() APIs.
 144:Generated_Source\PSoC4/USBUART_cdc.c **** *   USBUART_linesControlBitmap: Contains the current control signal
 145:Generated_Source\PSoC4/USBUART_cdc.c **** *     bitmap. It is set by the Host using SET_CONTROL_LINE request and returned
 146:Generated_Source\PSoC4/USBUART_cdc.c **** *     to the user code by the USBFS_GetLineControl() API.
 147:Generated_Source\PSoC4/USBUART_cdc.c **** *   USBUART_linesChanged: This variable is used as a flag for the
 148:Generated_Source\PSoC4/USBUART_cdc.c **** *     USBFS_IsLineChanged() API, to be aware that Host has been sent request
 149:Generated_Source\PSoC4/USBUART_cdc.c **** *     for changing Line Coding or Control Bitmap.
 150:Generated_Source\PSoC4/USBUART_cdc.c **** *
 151:Generated_Source\PSoC4/USBUART_cdc.c **** * \reentrant
 152:Generated_Source\PSoC4/USBUART_cdc.c **** *  No.
 153:Generated_Source\PSoC4/USBUART_cdc.c **** *
 154:Generated_Source\PSoC4/USBUART_cdc.c **** *******************************************************************************/
 155:Generated_Source\PSoC4/USBUART_cdc.c **** uint8 USBUART_DispatchCDCClassRqst(void) 
 156:Generated_Source\PSoC4/USBUART_cdc.c **** {
  71              		.loc 1 156 0
  72              		.cfi_startproc
ARM GAS  C:\Users\HPz420\AppData\Local\Temp\ccOuTLU7.s 			page 5


  73              		@ args = 0, pretend = 0, frame = 8
  74              		@ frame_needed = 1, uses_anonymous_args = 0
  75 0000 90B5     		push	{r4, r7, lr}
  76              		.cfi_def_cfa_offset 12
  77              		.cfi_offset 4, -12
  78              		.cfi_offset 7, -8
  79              		.cfi_offset 14, -4
  80 0002 83B0     		sub	sp, sp, #12
  81              		.cfi_def_cfa_offset 24
  82 0004 00AF     		add	r7, sp, #0
  83              		.cfi_def_cfa_register 7
 157:Generated_Source\PSoC4/USBUART_cdc.c ****     uint8 requestHandled = USBUART_FALSE;
  84              		.loc 1 157 0
  85 0006 FB1D     		adds	r3, r7, #7
  86 0008 0022     		movs	r2, #0
  87 000a 1A70     		strb	r2, [r3]
 158:Generated_Source\PSoC4/USBUART_cdc.c ****     uint8 comPort;
 159:Generated_Source\PSoC4/USBUART_cdc.c **** 
 160:Generated_Source\PSoC4/USBUART_cdc.c ****     comPort = USBUART_GetInterfaceComPort((uint8)USBUART_wIndexLoReg);
  88              		.loc 1 160 0
  89 000c 354B     		ldr	r3, .L11
  90 000e 1B69     		ldr	r3, [r3, #16]
  91 0010 DBB2     		uxtb	r3, r3
  92 0012 BC1D     		adds	r4, r7, #6
  93 0014 1800     		movs	r0, r3
  94 0016 FFF7FEFF 		bl	USBUART_GetInterfaceComPort
  95 001a 0300     		movs	r3, r0
  96 001c 2370     		strb	r3, [r4]
 161:Generated_Source\PSoC4/USBUART_cdc.c **** 
 162:Generated_Source\PSoC4/USBUART_cdc.c ****     /* Check request direction: D2H or H2D. */
 163:Generated_Source\PSoC4/USBUART_cdc.c ****     if (0u != (USBUART_bmRequestTypeReg & USBUART_RQST_DIR_D2H))
  97              		.loc 1 163 0
  98 001e 314B     		ldr	r3, .L11
  99 0020 1B68     		ldr	r3, [r3]
 100 0022 8022     		movs	r2, #128
 101 0024 1340     		ands	r3, r2
 102 0026 16D0     		beq	.L2
 164:Generated_Source\PSoC4/USBUART_cdc.c ****     {
 165:Generated_Source\PSoC4/USBUART_cdc.c ****         /* Handle direction from device to host. */
 166:Generated_Source\PSoC4/USBUART_cdc.c **** 
 167:Generated_Source\PSoC4/USBUART_cdc.c ****         switch (USBUART_bRequestReg)
 103              		.loc 1 167 0
 104 0028 2E4B     		ldr	r3, .L11
 105 002a 5B68     		ldr	r3, [r3, #4]
 106 002c 212B     		cmp	r3, #33
 107 002e 00D0     		beq	.L4
 168:Generated_Source\PSoC4/USBUART_cdc.c ****         {
 169:Generated_Source\PSoC4/USBUART_cdc.c ****             case USBUART_CDC_GET_LINE_CODING:
 170:Generated_Source\PSoC4/USBUART_cdc.c ****                 USBUART_currentTD.count = USBUART_LINE_CODING_SIZE;
 171:Generated_Source\PSoC4/USBUART_cdc.c ****                 USBUART_currentTD.pData = USBUART_linesCoding[comPort];
 172:Generated_Source\PSoC4/USBUART_cdc.c ****                 requestHandled  = USBUART_InitControlRead();
 173:Generated_Source\PSoC4/USBUART_cdc.c ****                 break;
 174:Generated_Source\PSoC4/USBUART_cdc.c **** 
 175:Generated_Source\PSoC4/USBUART_cdc.c ****             /* `#START CDC_READ_REQUESTS` Place other request handler here */
 176:Generated_Source\PSoC4/USBUART_cdc.c **** 
 177:Generated_Source\PSoC4/USBUART_cdc.c ****             /* `#END` */
 178:Generated_Source\PSoC4/USBUART_cdc.c **** 
ARM GAS  C:\Users\HPz420\AppData\Local\Temp\ccOuTLU7.s 			page 6


 179:Generated_Source\PSoC4/USBUART_cdc.c ****             default:
 180:Generated_Source\PSoC4/USBUART_cdc.c ****             /* Do not handle this request unless callback is defined. */
 181:Generated_Source\PSoC4/USBUART_cdc.c ****             #ifdef USBUART_DISPATCH_CDC_CLASS_CDC_READ_REQUESTS_CALLBACK
 182:Generated_Source\PSoC4/USBUART_cdc.c ****                 requestHandled = USBUART_DispatchCDCClass_CDC_READ_REQUESTS_Callback();
 183:Generated_Source\PSoC4/USBUART_cdc.c ****             #endif /* (USBUART_DISPATCH_CDC_CLASS_CDC_READ_REQUESTS_CALLBACK) */
 184:Generated_Source\PSoC4/USBUART_cdc.c ****                 break;
 108              		.loc 1 184 0
 109 0030 51E0     		b	.L6
 110              	.L4:
 170:Generated_Source\PSoC4/USBUART_cdc.c ****                 USBUART_currentTD.pData = USBUART_linesCoding[comPort];
 111              		.loc 1 170 0
 112 0032 2D4B     		ldr	r3, .L11+4
 113 0034 0722     		movs	r2, #7
 114 0036 1A80     		strh	r2, [r3]
 171:Generated_Source\PSoC4/USBUART_cdc.c ****                 requestHandled  = USBUART_InitControlRead();
 115              		.loc 1 171 0
 116 0038 BB1D     		adds	r3, r7, #6
 117 003a 1A78     		ldrb	r2, [r3]
 118 003c 1300     		movs	r3, r2
 119 003e DB00     		lsls	r3, r3, #3
 120 0040 9B1A     		subs	r3, r3, r2
 121 0042 2A4A     		ldr	r2, .L11+8
 122 0044 9A18     		adds	r2, r3, r2
 123 0046 284B     		ldr	r3, .L11+4
 124 0048 5A60     		str	r2, [r3, #4]
 172:Generated_Source\PSoC4/USBUART_cdc.c ****                 break;
 125              		.loc 1 172 0
 126 004a FC1D     		adds	r4, r7, #7
 127 004c FFF7FEFF 		bl	USBUART_InitControlRead
 128 0050 0300     		movs	r3, r0
 129 0052 2370     		strb	r3, [r4]
 173:Generated_Source\PSoC4/USBUART_cdc.c **** 
 130              		.loc 1 173 0
 131 0054 3FE0     		b	.L6
 132              	.L2:
 185:Generated_Source\PSoC4/USBUART_cdc.c ****         }
 186:Generated_Source\PSoC4/USBUART_cdc.c ****     }
 187:Generated_Source\PSoC4/USBUART_cdc.c ****     else
 188:Generated_Source\PSoC4/USBUART_cdc.c ****     {
 189:Generated_Source\PSoC4/USBUART_cdc.c ****         /* Handle direction from host to device. */
 190:Generated_Source\PSoC4/USBUART_cdc.c **** 
 191:Generated_Source\PSoC4/USBUART_cdc.c ****         switch (USBUART_bRequestReg)
 133              		.loc 1 191 0
 134 0056 234B     		ldr	r3, .L11
 135 0058 5B68     		ldr	r3, [r3, #4]
 136 005a 202B     		cmp	r3, #32
 137 005c 02D0     		beq	.L8
 138 005e 222B     		cmp	r3, #34
 139 0060 1ED0     		beq	.L9
 192:Generated_Source\PSoC4/USBUART_cdc.c ****         {
 193:Generated_Source\PSoC4/USBUART_cdc.c ****             case USBUART_CDC_SET_LINE_CODING:
 194:Generated_Source\PSoC4/USBUART_cdc.c ****                 USBUART_currentTD.count  = USBUART_LINE_CODING_SIZE;
 195:Generated_Source\PSoC4/USBUART_cdc.c ****                 USBUART_currentTD.pData  = USBUART_linesCoding[comPort];
 196:Generated_Source\PSoC4/USBUART_cdc.c ****                 USBUART_linesChanged[comPort] |= USBUART_LINE_CODING_CHANGED;
 197:Generated_Source\PSoC4/USBUART_cdc.c **** 
 198:Generated_Source\PSoC4/USBUART_cdc.c ****                 requestHandled = USBUART_InitControlWrite();
 199:Generated_Source\PSoC4/USBUART_cdc.c ****                 break;
ARM GAS  C:\Users\HPz420\AppData\Local\Temp\ccOuTLU7.s 			page 7


 200:Generated_Source\PSoC4/USBUART_cdc.c **** 
 201:Generated_Source\PSoC4/USBUART_cdc.c ****             case USBUART_CDC_SET_CONTROL_LINE_STATE:
 202:Generated_Source\PSoC4/USBUART_cdc.c ****                 USBUART_linesControlBitmap[comPort] = (uint8) USBUART_wValueLoReg;
 203:Generated_Source\PSoC4/USBUART_cdc.c ****                 USBUART_linesChanged[comPort]      |= USBUART_LINE_CONTROL_CHANGED;
 204:Generated_Source\PSoC4/USBUART_cdc.c **** 
 205:Generated_Source\PSoC4/USBUART_cdc.c ****                 requestHandled = USBUART_InitNoDataControlTransfer();
 206:Generated_Source\PSoC4/USBUART_cdc.c ****                 break;
 207:Generated_Source\PSoC4/USBUART_cdc.c **** 
 208:Generated_Source\PSoC4/USBUART_cdc.c ****             /* `#START CDC_WRITE_REQUESTS` Place other request handler here */
 209:Generated_Source\PSoC4/USBUART_cdc.c **** 
 210:Generated_Source\PSoC4/USBUART_cdc.c ****             /* `#END` */
 211:Generated_Source\PSoC4/USBUART_cdc.c **** 
 212:Generated_Source\PSoC4/USBUART_cdc.c ****             default:
 213:Generated_Source\PSoC4/USBUART_cdc.c ****                 /* Do not handle this request unless callback is defined. */
 214:Generated_Source\PSoC4/USBUART_cdc.c ****             #ifdef USBUART_DISPATCH_CDC_CLASS_CDC_WRITE_REQUESTS_CALLBACK
 215:Generated_Source\PSoC4/USBUART_cdc.c ****                 requestHandled = USBUART_DispatchCDCClass_CDC_WRITE_REQUESTS_Callback();
 216:Generated_Source\PSoC4/USBUART_cdc.c ****             #endif /* (USBUART_DISPATCH_CDC_CLASS_CDC_WRITE_REQUESTS_CALLBACK) */
 217:Generated_Source\PSoC4/USBUART_cdc.c ****                 break;
 140              		.loc 1 217 0
 141 0062 38E0     		b	.L6
 142              	.L8:
 194:Generated_Source\PSoC4/USBUART_cdc.c ****                 USBUART_currentTD.pData  = USBUART_linesCoding[comPort];
 143              		.loc 1 194 0
 144 0064 204B     		ldr	r3, .L11+4
 145 0066 0722     		movs	r2, #7
 146 0068 1A80     		strh	r2, [r3]
 195:Generated_Source\PSoC4/USBUART_cdc.c ****                 USBUART_linesChanged[comPort] |= USBUART_LINE_CODING_CHANGED;
 147              		.loc 1 195 0
 148 006a BB1D     		adds	r3, r7, #6
 149 006c 1A78     		ldrb	r2, [r3]
 150 006e 1300     		movs	r3, r2
 151 0070 DB00     		lsls	r3, r3, #3
 152 0072 9B1A     		subs	r3, r3, r2
 153 0074 1D4A     		ldr	r2, .L11+8
 154 0076 9A18     		adds	r2, r3, r2
 155 0078 1B4B     		ldr	r3, .L11+4
 156 007a 5A60     		str	r2, [r3, #4]
 196:Generated_Source\PSoC4/USBUART_cdc.c **** 
 157              		.loc 1 196 0
 158 007c BB1D     		adds	r3, r7, #6
 159 007e 1B78     		ldrb	r3, [r3]
 160 0080 BA1D     		adds	r2, r7, #6
 161 0082 1278     		ldrb	r2, [r2]
 162 0084 1A49     		ldr	r1, .L11+12
 163 0086 8A5C     		ldrb	r2, [r1, r2]
 164 0088 D2B2     		uxtb	r2, r2
 165 008a 0121     		movs	r1, #1
 166 008c 0A43     		orrs	r2, r1
 167 008e D1B2     		uxtb	r1, r2
 168 0090 174A     		ldr	r2, .L11+12
 169 0092 D154     		strb	r1, [r2, r3]
 198:Generated_Source\PSoC4/USBUART_cdc.c ****                 break;
 170              		.loc 1 198 0
 171 0094 FC1D     		adds	r4, r7, #7
 172 0096 FFF7FEFF 		bl	USBUART_InitControlWrite
 173 009a 0300     		movs	r3, r0
 174 009c 2370     		strb	r3, [r4]
ARM GAS  C:\Users\HPz420\AppData\Local\Temp\ccOuTLU7.s 			page 8


 199:Generated_Source\PSoC4/USBUART_cdc.c **** 
 175              		.loc 1 199 0
 176 009e 1AE0     		b	.L6
 177              	.L9:
 202:Generated_Source\PSoC4/USBUART_cdc.c ****                 USBUART_linesChanged[comPort]      |= USBUART_LINE_CONTROL_CHANGED;
 178              		.loc 1 202 0
 179 00a0 BB1D     		adds	r3, r7, #6
 180 00a2 1A78     		ldrb	r2, [r3]
 181 00a4 0F4B     		ldr	r3, .L11
 182 00a6 9B68     		ldr	r3, [r3, #8]
 183 00a8 DBB2     		uxtb	r3, r3
 184 00aa 99B2     		uxth	r1, r3
 185 00ac 114B     		ldr	r3, .L11+16
 186 00ae 5200     		lsls	r2, r2, #1
 187 00b0 D152     		strh	r1, [r2, r3]
 203:Generated_Source\PSoC4/USBUART_cdc.c **** 
 188              		.loc 1 203 0
 189 00b2 BB1D     		adds	r3, r7, #6
 190 00b4 1B78     		ldrb	r3, [r3]
 191 00b6 BA1D     		adds	r2, r7, #6
 192 00b8 1278     		ldrb	r2, [r2]
 193 00ba 0D49     		ldr	r1, .L11+12
 194 00bc 8A5C     		ldrb	r2, [r1, r2]
 195 00be D2B2     		uxtb	r2, r2
 196 00c0 0221     		movs	r1, #2
 197 00c2 0A43     		orrs	r2, r1
 198 00c4 D1B2     		uxtb	r1, r2
 199 00c6 0A4A     		ldr	r2, .L11+12
 200 00c8 D154     		strb	r1, [r2, r3]
 205:Generated_Source\PSoC4/USBUART_cdc.c ****                 break;
 201              		.loc 1 205 0
 202 00ca FC1D     		adds	r4, r7, #7
 203 00cc FFF7FEFF 		bl	USBUART_InitNoDataControlTransfer
 204 00d0 0300     		movs	r3, r0
 205 00d2 2370     		strb	r3, [r4]
 206:Generated_Source\PSoC4/USBUART_cdc.c **** 
 206              		.loc 1 206 0
 207 00d4 C046     		nop
 208              	.L6:
 218:Generated_Source\PSoC4/USBUART_cdc.c ****         }
 219:Generated_Source\PSoC4/USBUART_cdc.c ****     }
 220:Generated_Source\PSoC4/USBUART_cdc.c **** 
 221:Generated_Source\PSoC4/USBUART_cdc.c ****     return(requestHandled);
 209              		.loc 1 221 0
 210 00d6 FB1D     		adds	r3, r7, #7
 211 00d8 1B78     		ldrb	r3, [r3]
 222:Generated_Source\PSoC4/USBUART_cdc.c **** }
 212              		.loc 1 222 0
 213 00da 1800     		movs	r0, r3
 214 00dc BD46     		mov	sp, r7
 215 00de 03B0     		add	sp, sp, #12
 216              		@ sp needed
 217 00e0 90BD     		pop	{r4, r7, pc}
 218              	.L12:
 219 00e2 C046     		.align	2
 220              	.L11:
 221 00e4 00002C40 		.word	1076625408
ARM GAS  C:\Users\HPz420\AppData\Local\Temp\ccOuTLU7.s 			page 9


 222 00e8 00000000 		.word	USBUART_currentTD
 223 00ec 00000000 		.word	USBUART_linesCoding
 224 00f0 00000000 		.word	USBUART_linesChanged
 225 00f4 00000000 		.word	USBUART_linesControlBitmap
 226              		.cfi_endproc
 227              	.LFE1:
 228              		.size	USBUART_DispatchCDCClassRqst, .-USBUART_DispatchCDCClassRqst
 229              		.section	.text.USBUART_GetInterfaceComPort,"ax",%progbits
 230              		.align	2
 231              		.global	USBUART_GetInterfaceComPort
 232              		.code	16
 233              		.thumb_func
 234              		.type	USBUART_GetInterfaceComPort, %function
 235              	USBUART_GetInterfaceComPort:
 236              	.LFB2:
 223:Generated_Source\PSoC4/USBUART_cdc.c **** 
 224:Generated_Source\PSoC4/USBUART_cdc.c **** 
 225:Generated_Source\PSoC4/USBUART_cdc.c **** /***************************************************************************
 226:Generated_Source\PSoC4/USBUART_cdc.c **** * Function Name: USBUART_GetInterfaceComPort
 227:Generated_Source\PSoC4/USBUART_cdc.c **** ************************************************************************//**
 228:Generated_Source\PSoC4/USBUART_cdc.c **** *   \internal
 229:Generated_Source\PSoC4/USBUART_cdc.c **** *  Internal function which gets number of COM port by specified interface
 230:Generated_Source\PSoC4/USBUART_cdc.c **** *   number.
 231:Generated_Source\PSoC4/USBUART_cdc.c **** *
 232:Generated_Source\PSoC4/USBUART_cdc.c **** * \param uint8 interface
 233:Generated_Source\PSoC4/USBUART_cdc.c **** *  Interface number
 234:Generated_Source\PSoC4/USBUART_cdc.c **** *
 235:Generated_Source\PSoC4/USBUART_cdc.c **** * \return
 236:Generated_Source\PSoC4/USBUART_cdc.c **** *  COM port number (0 or 1) or error 0xFF
 237:Generated_Source\PSoC4/USBUART_cdc.c **** *
 238:Generated_Source\PSoC4/USBUART_cdc.c **** ***************************************************************************/
 239:Generated_Source\PSoC4/USBUART_cdc.c **** uint8 USBUART_GetInterfaceComPort(uint8 interface) 
 240:Generated_Source\PSoC4/USBUART_cdc.c **** {
 237              		.loc 1 240 0
 238              		.cfi_startproc
 239              		@ args = 0, pretend = 0, frame = 16
 240              		@ frame_needed = 1, uses_anonymous_args = 0
 241 0000 80B5     		push	{r7, lr}
 242              		.cfi_def_cfa_offset 8
 243              		.cfi_offset 7, -8
 244              		.cfi_offset 14, -4
 245 0002 84B0     		sub	sp, sp, #16
 246              		.cfi_def_cfa_offset 24
 247 0004 00AF     		add	r7, sp, #0
 248              		.cfi_def_cfa_register 7
 249 0006 0200     		movs	r2, r0
 250 0008 FB1D     		adds	r3, r7, #7
 251 000a 1A70     		strb	r2, [r3]
 241:Generated_Source\PSoC4/USBUART_cdc.c ****     uint8 comPort = 0u;
 252              		.loc 1 241 0
 253 000c 0F23     		movs	r3, #15
 254 000e FB18     		adds	r3, r7, r3
 255 0010 0022     		movs	r2, #0
 256 0012 1A70     		strb	r2, [r3]
 242:Generated_Source\PSoC4/USBUART_cdc.c ****     uint8 res = 0xFFu;
 257              		.loc 1 242 0
 258 0014 0E23     		movs	r3, #14
ARM GAS  C:\Users\HPz420\AppData\Local\Temp\ccOuTLU7.s 			page 10


 259 0016 FB18     		adds	r3, r7, r3
 260 0018 FF22     		movs	r2, #255
 261 001a 1A70     		strb	r2, [r3]
 243:Generated_Source\PSoC4/USBUART_cdc.c ****     uint8 notEp;
 244:Generated_Source\PSoC4/USBUART_cdc.c **** 
 245:Generated_Source\PSoC4/USBUART_cdc.c ****     while (comPort < USBUART_MAX_MULTI_COM_NUM)
 262              		.loc 1 245 0
 263 001c 28E0     		b	.L14
 264              	.L16:
 246:Generated_Source\PSoC4/USBUART_cdc.c ****     {
 247:Generated_Source\PSoC4/USBUART_cdc.c ****         notEp = USBUART_cdcCommInInterruptEp[comPort];
 265              		.loc 1 247 0
 266 001e 0F23     		movs	r3, #15
 267 0020 FB18     		adds	r3, r7, r3
 268 0022 1A78     		ldrb	r2, [r3]
 269 0024 0D23     		movs	r3, #13
 270 0026 FB18     		adds	r3, r7, r3
 271 0028 1749     		ldr	r1, .L18
 272 002a 8A5C     		ldrb	r2, [r1, r2]
 273 002c 1A70     		strb	r2, [r3]
 248:Generated_Source\PSoC4/USBUART_cdc.c **** 
 249:Generated_Source\PSoC4/USBUART_cdc.c ****         if (USBUART_EP[notEp].interface == interface)
 274              		.loc 1 249 0
 275 002e 0D23     		movs	r3, #13
 276 0030 FB18     		adds	r3, r7, r3
 277 0032 1A78     		ldrb	r2, [r3]
 278 0034 1549     		ldr	r1, .L18+4
 279 0036 1300     		movs	r3, r2
 280 0038 5B00     		lsls	r3, r3, #1
 281 003a 9B18     		adds	r3, r3, r2
 282 003c 9B00     		lsls	r3, r3, #2
 283 003e CB18     		adds	r3, r1, r3
 284 0040 0A33     		adds	r3, r3, #10
 285 0042 1B78     		ldrb	r3, [r3]
 286 0044 DBB2     		uxtb	r3, r3
 287 0046 FA1D     		adds	r2, r7, #7
 288 0048 1278     		ldrb	r2, [r2]
 289 004a 9A42     		cmp	r2, r3
 290 004c 09D1     		bne	.L15
 250:Generated_Source\PSoC4/USBUART_cdc.c ****         {
 251:Generated_Source\PSoC4/USBUART_cdc.c ****             res = comPort;
 291              		.loc 1 251 0
 292 004e 0E23     		movs	r3, #14
 293 0050 FB18     		adds	r3, r7, r3
 294 0052 0F22     		movs	r2, #15
 295 0054 BA18     		adds	r2, r7, r2
 296 0056 1278     		ldrb	r2, [r2]
 297 0058 1A70     		strb	r2, [r3]
 252:Generated_Source\PSoC4/USBUART_cdc.c ****             comPort = USBUART_MAX_MULTI_COM_NUM;
 298              		.loc 1 252 0
 299 005a 0F23     		movs	r3, #15
 300 005c FB18     		adds	r3, r7, r3
 301 005e 0222     		movs	r2, #2
 302 0060 1A70     		strb	r2, [r3]
 303              	.L15:
 253:Generated_Source\PSoC4/USBUART_cdc.c ****         }
 254:Generated_Source\PSoC4/USBUART_cdc.c **** 
ARM GAS  C:\Users\HPz420\AppData\Local\Temp\ccOuTLU7.s 			page 11


 255:Generated_Source\PSoC4/USBUART_cdc.c ****         comPort++;
 304              		.loc 1 255 0
 305 0062 0F23     		movs	r3, #15
 306 0064 FB18     		adds	r3, r7, r3
 307 0066 1A78     		ldrb	r2, [r3]
 308 0068 0F23     		movs	r3, #15
 309 006a FB18     		adds	r3, r7, r3
 310 006c 0132     		adds	r2, r2, #1
 311 006e 1A70     		strb	r2, [r3]
 312              	.L14:
 245:Generated_Source\PSoC4/USBUART_cdc.c ****     {
 313              		.loc 1 245 0
 314 0070 0F23     		movs	r3, #15
 315 0072 FB18     		adds	r3, r7, r3
 316 0074 1B78     		ldrb	r3, [r3]
 317 0076 012B     		cmp	r3, #1
 318 0078 D1D9     		bls	.L16
 256:Generated_Source\PSoC4/USBUART_cdc.c ****     }
 257:Generated_Source\PSoC4/USBUART_cdc.c ****     return (res);
 319              		.loc 1 257 0
 320 007a 0E23     		movs	r3, #14
 321 007c FB18     		adds	r3, r7, r3
 322 007e 1B78     		ldrb	r3, [r3]
 258:Generated_Source\PSoC4/USBUART_cdc.c **** }
 323              		.loc 1 258 0
 324 0080 1800     		movs	r0, r3
 325 0082 BD46     		mov	sp, r7
 326 0084 04B0     		add	sp, sp, #16
 327              		@ sp needed
 328 0086 80BD     		pop	{r7, pc}
 329              	.L19:
 330              		.align	2
 331              	.L18:
 332 0088 00000000 		.word	USBUART_cdcCommInInterruptEp
 333 008c 00000000 		.word	USBUART_EP
 334              		.cfi_endproc
 335              	.LFE2:
 336              		.size	USBUART_GetInterfaceComPort, .-USBUART_GetInterfaceComPort
 337              		.section	.text.USBUART_CDC_Init,"ax",%progbits
 338              		.align	2
 339              		.global	USBUART_CDC_Init
 340              		.code	16
 341              		.thumb_func
 342              		.type	USBUART_CDC_Init, %function
 343              	USBUART_CDC_Init:
 344              	.LFB3:
 259:Generated_Source\PSoC4/USBUART_cdc.c **** 
 260:Generated_Source\PSoC4/USBUART_cdc.c **** 
 261:Generated_Source\PSoC4/USBUART_cdc.c **** /***************************************
 262:Generated_Source\PSoC4/USBUART_cdc.c **** * Optional CDC APIs
 263:Generated_Source\PSoC4/USBUART_cdc.c **** ***************************************/
 264:Generated_Source\PSoC4/USBUART_cdc.c **** #if (USBUART_ENABLE_CDC_CLASS_API != 0u)
 265:Generated_Source\PSoC4/USBUART_cdc.c **** /***************************************************************************
 266:Generated_Source\PSoC4/USBUART_cdc.c **** * Function Name: USBUART_CDC_Init
 267:Generated_Source\PSoC4/USBUART_cdc.c **** ************************************************************************//**
 268:Generated_Source\PSoC4/USBUART_cdc.c **** *
 269:Generated_Source\PSoC4/USBUART_cdc.c **** *  This function initializes the CDC interface to be ready to receive data
ARM GAS  C:\Users\HPz420\AppData\Local\Temp\ccOuTLU7.s 			page 12


 270:Generated_Source\PSoC4/USBUART_cdc.c **** *  from the PC. The API set active communication port to 0 in the case of 
 271:Generated_Source\PSoC4/USBUART_cdc.c **** *  multiple communication port support.This API should be called after the 
 272:Generated_Source\PSoC4/USBUART_cdc.c **** *  device has been started and configured using USBUART_Start() API to 
 273:Generated_Source\PSoC4/USBUART_cdc.c **** *  initialize and start the USBFS component operation. Then call the 
 274:Generated_Source\PSoC4/USBUART_cdc.c **** *  USBUART_GetConfiguration() API to wait until the host has enumerated and 
 275:Generated_Source\PSoC4/USBUART_cdc.c **** *  configured the device. For example:
 276:Generated_Source\PSoC4/USBUART_cdc.c **** *
 277:Generated_Source\PSoC4/USBUART_cdc.c **** *  \snippet /USBFS_sut_02.cydsn/main.c wait for enumeration
 278:Generated_Source\PSoC4/USBUART_cdc.c **** *
 279:Generated_Source\PSoC4/USBUART_cdc.c **** * \return
 280:Generated_Source\PSoC4/USBUART_cdc.c **** *  cystatus:
 281:Generated_Source\PSoC4/USBUART_cdc.c **** *   Return Value    Description
 282:Generated_Source\PSoC4/USBUART_cdc.c **** *   USBUART_SUCCESS   CDC interface was initialized correctly
 283:Generated_Source\PSoC4/USBUART_cdc.c **** *   USBUART_FAILURE   CDC interface was not initialized
 284:Generated_Source\PSoC4/USBUART_cdc.c **** *
 285:Generated_Source\PSoC4/USBUART_cdc.c **** * \globalvars
 286:Generated_Source\PSoC4/USBUART_cdc.c **** *   USBUART_linesChanged: Initialized to zero.
 287:Generated_Source\PSoC4/USBUART_cdc.c **** *   USBUART_cdcDataOutEp: Used as an OUT endpoint number.
 288:Generated_Source\PSoC4/USBUART_cdc.c **** *
 289:Generated_Source\PSoC4/USBUART_cdc.c **** * \reentrant
 290:Generated_Source\PSoC4/USBUART_cdc.c **** *  No.
 291:Generated_Source\PSoC4/USBUART_cdc.c **** *
 292:Generated_Source\PSoC4/USBUART_cdc.c **** *******************************************************************************/
 293:Generated_Source\PSoC4/USBUART_cdc.c **** uint8 USBUART_CDC_Init(void) 
 294:Generated_Source\PSoC4/USBUART_cdc.c **** {
 345              		.loc 1 294 0
 346              		.cfi_startproc
 347              		@ args = 0, pretend = 0, frame = 8
 348              		@ frame_needed = 1, uses_anonymous_args = 0
 349 0000 80B5     		push	{r7, lr}
 350              		.cfi_def_cfa_offset 8
 351              		.cfi_offset 7, -8
 352              		.cfi_offset 14, -4
 353 0002 82B0     		sub	sp, sp, #8
 354              		.cfi_def_cfa_offset 16
 355 0004 00AF     		add	r7, sp, #0
 356              		.cfi_def_cfa_register 7
 295:Generated_Source\PSoC4/USBUART_cdc.c ****     uint8 comPort;
 296:Generated_Source\PSoC4/USBUART_cdc.c ****     uint8 outEp;
 297:Generated_Source\PSoC4/USBUART_cdc.c ****     uint8 ret = USBUART_SUCCESS;
 357              		.loc 1 297 0
 358 0006 BB1D     		adds	r3, r7, #6
 359 0008 0022     		movs	r2, #0
 360 000a 1A70     		strb	r2, [r3]
 298:Generated_Source\PSoC4/USBUART_cdc.c **** 
 299:Generated_Source\PSoC4/USBUART_cdc.c ****     USBUART_activeCom = 0u;
 361              		.loc 1 299 0
 362 000c 274B     		ldr	r3, .L27
 363 000e 0022     		movs	r2, #0
 364 0010 1A70     		strb	r2, [r3]
 300:Generated_Source\PSoC4/USBUART_cdc.c ****     USBUART_linesChanged[USBUART_COM_PORT1] = 0u;
 365              		.loc 1 300 0
 366 0012 274B     		ldr	r3, .L27+4
 367 0014 0022     		movs	r2, #0
 368 0016 1A70     		strb	r2, [r3]
 301:Generated_Source\PSoC4/USBUART_cdc.c ****     USBUART_linesChanged[USBUART_COM_PORT2] = 0u;
 369              		.loc 1 301 0
ARM GAS  C:\Users\HPz420\AppData\Local\Temp\ccOuTLU7.s 			page 13


 370 0018 254B     		ldr	r3, .L27+4
 371 001a 0022     		movs	r2, #0
 372 001c 5A70     		strb	r2, [r3, #1]
 302:Generated_Source\PSoC4/USBUART_cdc.c **** 
 303:Generated_Source\PSoC4/USBUART_cdc.c ****     for(comPort = 0u; comPort<USBUART_MAX_MULTI_COM_NUM; comPort++)
 373              		.loc 1 303 0
 374 001e FB1D     		adds	r3, r7, #7
 375 0020 0022     		movs	r2, #0
 376 0022 1A70     		strb	r2, [r3]
 377 0024 17E0     		b	.L21
 378              	.L23:
 304:Generated_Source\PSoC4/USBUART_cdc.c ****     {
 305:Generated_Source\PSoC4/USBUART_cdc.c ****         outEp = USBUART_cdcDataOutEp[comPort];
 379              		.loc 1 305 0
 380 0026 FB1D     		adds	r3, r7, #7
 381 0028 1A78     		ldrb	r2, [r3]
 382 002a 7B1D     		adds	r3, r7, #5
 383 002c 2149     		ldr	r1, .L27+8
 384 002e 8A5C     		ldrb	r2, [r1, r2]
 385 0030 1A70     		strb	r2, [r3]
 306:Generated_Source\PSoC4/USBUART_cdc.c ****         if((0u != outEp) && (USBUART_MAX_EP > outEp))
 386              		.loc 1 306 0
 387 0032 7B1D     		adds	r3, r7, #5
 388 0034 1B78     		ldrb	r3, [r3]
 389 0036 002B     		cmp	r3, #0
 390 0038 08D0     		beq	.L22
 391              		.loc 1 306 0 is_stmt 0 discriminator 1
 392 003a 7B1D     		adds	r3, r7, #5
 393 003c 1B78     		ldrb	r3, [r3]
 394 003e 082B     		cmp	r3, #8
 395 0040 04D8     		bhi	.L22
 307:Generated_Source\PSoC4/USBUART_cdc.c ****         {
 308:Generated_Source\PSoC4/USBUART_cdc.c ****             USBUART_EnableOutEP(outEp);
 396              		.loc 1 308 0 is_stmt 1
 397 0042 7B1D     		adds	r3, r7, #5
 398 0044 1B78     		ldrb	r3, [r3]
 399 0046 1800     		movs	r0, r3
 400 0048 FFF7FEFF 		bl	USBUART_EnableOutEP
 401              	.L22:
 303:Generated_Source\PSoC4/USBUART_cdc.c ****     {
 402              		.loc 1 303 0 discriminator 2
 403 004c FB1D     		adds	r3, r7, #7
 404 004e 1A78     		ldrb	r2, [r3]
 405 0050 FB1D     		adds	r3, r7, #7
 406 0052 0132     		adds	r2, r2, #1
 407 0054 1A70     		strb	r2, [r3]
 408              	.L21:
 303:Generated_Source\PSoC4/USBUART_cdc.c ****     {
 409              		.loc 1 303 0 is_stmt 0 discriminator 1
 410 0056 FB1D     		adds	r3, r7, #7
 411 0058 1B78     		ldrb	r3, [r3]
 412 005a 012B     		cmp	r3, #1
 413 005c E3D9     		bls	.L23
 309:Generated_Source\PSoC4/USBUART_cdc.c ****         }
 310:Generated_Source\PSoC4/USBUART_cdc.c **** 
 311:Generated_Source\PSoC4/USBUART_cdc.c ****     }
 312:Generated_Source\PSoC4/USBUART_cdc.c **** 
ARM GAS  C:\Users\HPz420\AppData\Local\Temp\ccOuTLU7.s 			page 14


 313:Generated_Source\PSoC4/USBUART_cdc.c ****     /* COM Port 1 should be correct to proceed. */
 314:Generated_Source\PSoC4/USBUART_cdc.c ****     if ((0u == USBUART_cdcDataInEp[USBUART_COM_PORT1]) \
 414              		.loc 1 314 0 is_stmt 1
 415 005e 164B     		ldr	r3, .L27+12
 416 0060 1B78     		ldrb	r3, [r3]
 417 0062 DBB2     		uxtb	r3, r3
 418 0064 002B     		cmp	r3, #0
 419 0066 18D0     		beq	.L24
 315:Generated_Source\PSoC4/USBUART_cdc.c ****             || (0u == USBUART_cdcDataOutEp[USBUART_COM_PORT1]) \
 420              		.loc 1 315 0
 421 0068 124B     		ldr	r3, .L27+8
 422 006a 1B78     		ldrb	r3, [r3]
 423 006c DBB2     		uxtb	r3, r3
 424 006e 002B     		cmp	r3, #0
 425 0070 13D0     		beq	.L24
 316:Generated_Source\PSoC4/USBUART_cdc.c ****             || (0u ==  USBUART_cdcCommInInterruptEp[USBUART_COM_PORT1])
 426              		.loc 1 316 0
 427 0072 124B     		ldr	r3, .L27+16
 428 0074 1B78     		ldrb	r3, [r3]
 429 0076 DBB2     		uxtb	r3, r3
 430 0078 002B     		cmp	r3, #0
 431 007a 0ED0     		beq	.L24
 317:Generated_Source\PSoC4/USBUART_cdc.c ****             || (USBUART_cdcDataInEp[USBUART_COM_PORT1] >= USBUART_MAX_EP)
 432              		.loc 1 317 0
 433 007c 0E4B     		ldr	r3, .L27+12
 434 007e 1B78     		ldrb	r3, [r3]
 435 0080 DBB2     		uxtb	r3, r3
 436 0082 082B     		cmp	r3, #8
 437 0084 09D8     		bhi	.L24
 318:Generated_Source\PSoC4/USBUART_cdc.c ****             || (USBUART_cdcDataOutEp[USBUART_COM_PORT1] >= USBUART_MAX_EP)
 438              		.loc 1 318 0
 439 0086 0B4B     		ldr	r3, .L27+8
 440 0088 1B78     		ldrb	r3, [r3]
 441 008a DBB2     		uxtb	r3, r3
 442 008c 082B     		cmp	r3, #8
 443 008e 04D8     		bhi	.L24
 319:Generated_Source\PSoC4/USBUART_cdc.c ****             || (USBUART_cdcCommInInterruptEp[USBUART_COM_PORT1] >= USBUART_MAX_EP))
 444              		.loc 1 319 0
 445 0090 0A4B     		ldr	r3, .L27+16
 446 0092 1B78     		ldrb	r3, [r3]
 447 0094 DBB2     		uxtb	r3, r3
 448 0096 082B     		cmp	r3, #8
 449 0098 02D9     		bls	.L25
 450              	.L24:
 320:Generated_Source\PSoC4/USBUART_cdc.c ****     {
 321:Generated_Source\PSoC4/USBUART_cdc.c ****         ret = USBUART_FAILURE;
 451              		.loc 1 321 0
 452 009a BB1D     		adds	r3, r7, #6
 453 009c 0122     		movs	r2, #1
 454 009e 1A70     		strb	r2, [r3]
 455              	.L25:
 322:Generated_Source\PSoC4/USBUART_cdc.c ****     }
 323:Generated_Source\PSoC4/USBUART_cdc.c **** 
 324:Generated_Source\PSoC4/USBUART_cdc.c ****     return (ret);
 456              		.loc 1 324 0
 457 00a0 BB1D     		adds	r3, r7, #6
 458 00a2 1B78     		ldrb	r3, [r3]
ARM GAS  C:\Users\HPz420\AppData\Local\Temp\ccOuTLU7.s 			page 15


 325:Generated_Source\PSoC4/USBUART_cdc.c **** }
 459              		.loc 1 325 0
 460 00a4 1800     		movs	r0, r3
 461 00a6 BD46     		mov	sp, r7
 462 00a8 02B0     		add	sp, sp, #8
 463              		@ sp needed
 464 00aa 80BD     		pop	{r7, pc}
 465              	.L28:
 466              		.align	2
 467              	.L27:
 468 00ac 00000000 		.word	USBUART_activeCom
 469 00b0 00000000 		.word	USBUART_linesChanged
 470 00b4 00000000 		.word	USBUART_cdcDataOutEp
 471 00b8 00000000 		.word	USBUART_cdcDataInEp
 472 00bc 00000000 		.word	USBUART_cdcCommInInterruptEp
 473              		.cfi_endproc
 474              	.LFE3:
 475              		.size	USBUART_CDC_Init, .-USBUART_CDC_Init
 476              		.section	.text.USBUART_PutData,"ax",%progbits
 477              		.align	2
 478              		.global	USBUART_PutData
 479              		.code	16
 480              		.thumb_func
 481              		.type	USBUART_PutData, %function
 482              	USBUART_PutData:
 483              	.LFB4:
 326:Generated_Source\PSoC4/USBUART_cdc.c **** 
 327:Generated_Source\PSoC4/USBUART_cdc.c **** 
 328:Generated_Source\PSoC4/USBUART_cdc.c **** /*******************************************************************************
 329:Generated_Source\PSoC4/USBUART_cdc.c **** * Function Name: USBUART_PutData
 330:Generated_Source\PSoC4/USBUART_cdc.c **** ****************************************************************************//**
 331:Generated_Source\PSoC4/USBUART_cdc.c **** *
 332:Generated_Source\PSoC4/USBUART_cdc.c **** *  This function sends a specified number of bytes from the location specified
 333:Generated_Source\PSoC4/USBUART_cdc.c **** *  by a pointer to the PC. The USBUART_CDCIsReady() function should be
 334:Generated_Source\PSoC4/USBUART_cdc.c **** *  called before sending new data, to be sure that the previous data has
 335:Generated_Source\PSoC4/USBUART_cdc.c **** *  finished sending.
 336:Generated_Source\PSoC4/USBUART_cdc.c **** *  If the last sent packet is less than maximum packet size the USB transfer
 337:Generated_Source\PSoC4/USBUART_cdc.c **** *  of this short packet will identify the end of the segment. If the last sent
 338:Generated_Source\PSoC4/USBUART_cdc.c **** *  packet is exactly maximum packet size, it shall be followed by a zero-length
 339:Generated_Source\PSoC4/USBUART_cdc.c **** *  packet (which is a short packet) to assure the end of segment is properly
 340:Generated_Source\PSoC4/USBUART_cdc.c **** *  identified. To send zero-length packet, use USBUART_PutData() API
 341:Generated_Source\PSoC4/USBUART_cdc.c **** *  with length parameter set to zero.
 342:Generated_Source\PSoC4/USBUART_cdc.c **** *
 343:Generated_Source\PSoC4/USBUART_cdc.c **** *  \param pData: pointer to the buffer containing data to be sent.
 344:Generated_Source\PSoC4/USBUART_cdc.c **** *  \param length: Specifies the number of bytes to send from the pData
 345:Generated_Source\PSoC4/USBUART_cdc.c **** *  buffer. Maximum length will be limited by the maximum packet
 346:Generated_Source\PSoC4/USBUART_cdc.c **** *  size for the endpoint. Data will be lost if length is greater than Max
 347:Generated_Source\PSoC4/USBUART_cdc.c **** *  Packet Size.
 348:Generated_Source\PSoC4/USBUART_cdc.c **** *
 349:Generated_Source\PSoC4/USBUART_cdc.c **** * \globalvars
 350:Generated_Source\PSoC4/USBUART_cdc.c **** *
 351:Generated_Source\PSoC4/USBUART_cdc.c **** *   USBUART_cdcDataInEp: CDC IN endpoint number used for sending
 352:Generated_Source\PSoC4/USBUART_cdc.c **** *     data.
 353:Generated_Source\PSoC4/USBUART_cdc.c **** *
 354:Generated_Source\PSoC4/USBUART_cdc.c **** * \reentrant
 355:Generated_Source\PSoC4/USBUART_cdc.c **** *  No.
 356:Generated_Source\PSoC4/USBUART_cdc.c **** *
ARM GAS  C:\Users\HPz420\AppData\Local\Temp\ccOuTLU7.s 			page 16


 357:Generated_Source\PSoC4/USBUART_cdc.c **** *******************************************************************************/
 358:Generated_Source\PSoC4/USBUART_cdc.c **** void USBUART_PutData(const uint8* pData, uint16 length) 
 359:Generated_Source\PSoC4/USBUART_cdc.c **** {
 484              		.loc 1 359 0
 485              		.cfi_startproc
 486              		@ args = 0, pretend = 0, frame = 16
 487              		@ frame_needed = 1, uses_anonymous_args = 0
 488 0000 80B5     		push	{r7, lr}
 489              		.cfi_def_cfa_offset 8
 490              		.cfi_offset 7, -8
 491              		.cfi_offset 14, -4
 492 0002 84B0     		sub	sp, sp, #16
 493              		.cfi_def_cfa_offset 24
 494 0004 00AF     		add	r7, sp, #0
 495              		.cfi_def_cfa_register 7
 496 0006 7860     		str	r0, [r7, #4]
 497 0008 0A00     		movs	r2, r1
 498 000a BB1C     		adds	r3, r7, #2
 499 000c 1A80     		strh	r2, [r3]
 360:Generated_Source\PSoC4/USBUART_cdc.c ****     uint8 epNumber = USBUART_cdcDataInEp[USBUART_activeCom];
 500              		.loc 1 360 0
 501 000e 1A4B     		ldr	r3, .L31
 502 0010 1B78     		ldrb	r3, [r3]
 503 0012 1900     		movs	r1, r3
 504 0014 0F23     		movs	r3, #15
 505 0016 FB18     		adds	r3, r7, r3
 506 0018 184A     		ldr	r2, .L31+4
 507 001a 525C     		ldrb	r2, [r2, r1]
 508 001c 1A70     		strb	r2, [r3]
 361:Generated_Source\PSoC4/USBUART_cdc.c **** 
 362:Generated_Source\PSoC4/USBUART_cdc.c ****     /* Limit length to maximum packet size for endpoint. */
 363:Generated_Source\PSoC4/USBUART_cdc.c ****     if (length > USBUART_EP[epNumber].bufferSize)
 509              		.loc 1 363 0
 510 001e 0F23     		movs	r3, #15
 511 0020 FB18     		adds	r3, r7, r3
 512 0022 1A78     		ldrb	r2, [r3]
 513 0024 1649     		ldr	r1, .L31+8
 514 0026 1300     		movs	r3, r2
 515 0028 5B00     		lsls	r3, r3, #1
 516 002a 9B18     		adds	r3, r3, r2
 517 002c 9B00     		lsls	r3, r3, #2
 518 002e CB18     		adds	r3, r1, r3
 519 0030 0833     		adds	r3, r3, #8
 520 0032 1B88     		ldrh	r3, [r3]
 521 0034 9BB2     		uxth	r3, r3
 522 0036 BA1C     		adds	r2, r7, #2
 523 0038 1288     		ldrh	r2, [r2]
 524 003a 9A42     		cmp	r2, r3
 525 003c 0FD9     		bls	.L30
 364:Generated_Source\PSoC4/USBUART_cdc.c ****     {
 365:Generated_Source\PSoC4/USBUART_cdc.c ****         /* Caution: Data will be lost if length is greater than Max Packet Size. */
 366:Generated_Source\PSoC4/USBUART_cdc.c ****         length = USBUART_EP[epNumber].bufferSize;
 526              		.loc 1 366 0
 527 003e 0F23     		movs	r3, #15
 528 0040 FB18     		adds	r3, r7, r3
 529 0042 1A78     		ldrb	r2, [r3]
 530 0044 B91C     		adds	r1, r7, #2
ARM GAS  C:\Users\HPz420\AppData\Local\Temp\ccOuTLU7.s 			page 17


 531 0046 0E48     		ldr	r0, .L31+8
 532 0048 1300     		movs	r3, r2
 533 004a 5B00     		lsls	r3, r3, #1
 534 004c 9B18     		adds	r3, r3, r2
 535 004e 9B00     		lsls	r3, r3, #2
 536 0050 C318     		adds	r3, r0, r3
 537 0052 0833     		adds	r3, r3, #8
 538 0054 1B88     		ldrh	r3, [r3]
 539 0056 0B80     		strh	r3, [r1]
 367:Generated_Source\PSoC4/USBUART_cdc.c **** 
 368:Generated_Source\PSoC4/USBUART_cdc.c ****         /* Halt CPU in debug mode */
 369:Generated_Source\PSoC4/USBUART_cdc.c ****         CYASSERT(0u != 0u);
 540              		.loc 1 369 0
 541 0058 0020     		movs	r0, #0
 542 005a FFF7FEFF 		bl	CyHalt
 543              	.L30:
 370:Generated_Source\PSoC4/USBUART_cdc.c ****     }
 371:Generated_Source\PSoC4/USBUART_cdc.c **** 
 372:Generated_Source\PSoC4/USBUART_cdc.c ****     USBUART_LoadInEP(epNumber, pData, length);
 544              		.loc 1 372 0
 545 005e BB1C     		adds	r3, r7, #2
 546 0060 1A88     		ldrh	r2, [r3]
 547 0062 7968     		ldr	r1, [r7, #4]
 548 0064 0F23     		movs	r3, #15
 549 0066 FB18     		adds	r3, r7, r3
 550 0068 1B78     		ldrb	r3, [r3]
 551 006a 1800     		movs	r0, r3
 552 006c FFF7FEFF 		bl	USBUART_LoadInEP
 373:Generated_Source\PSoC4/USBUART_cdc.c **** }
 553              		.loc 1 373 0
 554 0070 C046     		nop
 555 0072 BD46     		mov	sp, r7
 556 0074 04B0     		add	sp, sp, #16
 557              		@ sp needed
 558 0076 80BD     		pop	{r7, pc}
 559              	.L32:
 560              		.align	2
 561              	.L31:
 562 0078 00000000 		.word	USBUART_activeCom
 563 007c 00000000 		.word	USBUART_cdcDataInEp
 564 0080 00000000 		.word	USBUART_EP
 565              		.cfi_endproc
 566              	.LFE4:
 567              		.size	USBUART_PutData, .-USBUART_PutData
 568              		.section	.text.USBUART_StrLen,"ax",%progbits
 569              		.align	2
 570              		.code	16
 571              		.thumb_func
 572              		.type	USBUART_StrLen, %function
 573              	USBUART_StrLen:
 574              	.LFB5:
 374:Generated_Source\PSoC4/USBUART_cdc.c **** 
 375:Generated_Source\PSoC4/USBUART_cdc.c **** 
 376:Generated_Source\PSoC4/USBUART_cdc.c **** /*******************************************************************************
 377:Generated_Source\PSoC4/USBUART_cdc.c **** * Function Name: USBUART_StrLen
 378:Generated_Source\PSoC4/USBUART_cdc.c **** ****************************************************************************//**
 379:Generated_Source\PSoC4/USBUART_cdc.c **** *
ARM GAS  C:\Users\HPz420\AppData\Local\Temp\ccOuTLU7.s 			page 18


 380:Generated_Source\PSoC4/USBUART_cdc.c **** *  Calculates length of a null terminated string.
 381:Generated_Source\PSoC4/USBUART_cdc.c **** *
 382:Generated_Source\PSoC4/USBUART_cdc.c **** *  \param string: pointer to the string.
 383:Generated_Source\PSoC4/USBUART_cdc.c **** *
 384:Generated_Source\PSoC4/USBUART_cdc.c **** * \return
 385:Generated_Source\PSoC4/USBUART_cdc.c **** *  Length of the string
 386:Generated_Source\PSoC4/USBUART_cdc.c **** *
 387:Generated_Source\PSoC4/USBUART_cdc.c **** *******************************************************************************/
 388:Generated_Source\PSoC4/USBUART_cdc.c **** static uint16 USBUART_StrLen(const char8 string[]) 
 389:Generated_Source\PSoC4/USBUART_cdc.c **** {
 575              		.loc 1 389 0
 576              		.cfi_startproc
 577              		@ args = 0, pretend = 0, frame = 16
 578              		@ frame_needed = 1, uses_anonymous_args = 0
 579 0000 80B5     		push	{r7, lr}
 580              		.cfi_def_cfa_offset 8
 581              		.cfi_offset 7, -8
 582              		.cfi_offset 14, -4
 583 0002 84B0     		sub	sp, sp, #16
 584              		.cfi_def_cfa_offset 24
 585 0004 00AF     		add	r7, sp, #0
 586              		.cfi_def_cfa_register 7
 587 0006 7860     		str	r0, [r7, #4]
 390:Generated_Source\PSoC4/USBUART_cdc.c ****     uint16 len = 0u;
 588              		.loc 1 390 0
 589 0008 0E23     		movs	r3, #14
 590 000a FB18     		adds	r3, r7, r3
 591 000c 0022     		movs	r2, #0
 592 000e 1A80     		strh	r2, [r3]
 391:Generated_Source\PSoC4/USBUART_cdc.c **** 
 392:Generated_Source\PSoC4/USBUART_cdc.c ****     while (string[len] != (char8)0)
 593              		.loc 1 392 0
 594 0010 06E0     		b	.L34
 595              	.L35:
 393:Generated_Source\PSoC4/USBUART_cdc.c ****     {
 394:Generated_Source\PSoC4/USBUART_cdc.c ****         len++;
 596              		.loc 1 394 0
 597 0012 0E23     		movs	r3, #14
 598 0014 FB18     		adds	r3, r7, r3
 599 0016 1A88     		ldrh	r2, [r3]
 600 0018 0E23     		movs	r3, #14
 601 001a FB18     		adds	r3, r7, r3
 602 001c 0132     		adds	r2, r2, #1
 603 001e 1A80     		strh	r2, [r3]
 604              	.L34:
 392:Generated_Source\PSoC4/USBUART_cdc.c ****     {
 605              		.loc 1 392 0
 606 0020 0E23     		movs	r3, #14
 607 0022 FB18     		adds	r3, r7, r3
 608 0024 1B88     		ldrh	r3, [r3]
 609 0026 7A68     		ldr	r2, [r7, #4]
 610 0028 D318     		adds	r3, r2, r3
 611 002a 1B78     		ldrb	r3, [r3]
 612 002c 002B     		cmp	r3, #0
 613 002e F0D1     		bne	.L35
 395:Generated_Source\PSoC4/USBUART_cdc.c ****     }
 396:Generated_Source\PSoC4/USBUART_cdc.c **** 
ARM GAS  C:\Users\HPz420\AppData\Local\Temp\ccOuTLU7.s 			page 19


 397:Generated_Source\PSoC4/USBUART_cdc.c ****     return ((uint16) len);
 614              		.loc 1 397 0
 615 0030 0E23     		movs	r3, #14
 616 0032 FB18     		adds	r3, r7, r3
 617 0034 1B88     		ldrh	r3, [r3]
 398:Generated_Source\PSoC4/USBUART_cdc.c **** }
 618              		.loc 1 398 0
 619 0036 1800     		movs	r0, r3
 620 0038 BD46     		mov	sp, r7
 621 003a 04B0     		add	sp, sp, #16
 622              		@ sp needed
 623 003c 80BD     		pop	{r7, pc}
 624              		.cfi_endproc
 625              	.LFE5:
 626              		.size	USBUART_StrLen, .-USBUART_StrLen
 627 003e C046     		.section	.text.USBUART_PutString,"ax",%progbits
 628              		.align	2
 629              		.global	USBUART_PutString
 630              		.code	16
 631              		.thumb_func
 632              		.type	USBUART_PutString, %function
 633              	USBUART_PutString:
 634              	.LFB6:
 399:Generated_Source\PSoC4/USBUART_cdc.c **** 
 400:Generated_Source\PSoC4/USBUART_cdc.c **** 
 401:Generated_Source\PSoC4/USBUART_cdc.c **** /***************************************************************************
 402:Generated_Source\PSoC4/USBUART_cdc.c **** * Function Name: USBUART_PutString
 403:Generated_Source\PSoC4/USBUART_cdc.c **** ************************************************************************//**
 404:Generated_Source\PSoC4/USBUART_cdc.c **** *
 405:Generated_Source\PSoC4/USBUART_cdc.c **** *  This function sends a null terminated string to the PC. This function will
 406:Generated_Source\PSoC4/USBUART_cdc.c **** *  block if there is not enough memory to place the whole string. It will block
 407:Generated_Source\PSoC4/USBUART_cdc.c **** *  until the entire string has been written to the transmit buffer.
 408:Generated_Source\PSoC4/USBUART_cdc.c **** *  The USBUART_CDCIsReady() function should be called before
 409:Generated_Source\PSoC4/USBUART_cdc.c **** *  sending data with a new call to USBUART_PutString(), to be sure
 410:Generated_Source\PSoC4/USBUART_cdc.c **** *  that the previous data has finished sending. This function sends
 411:Generated_Source\PSoC4/USBUART_cdc.c **** *  zero-length packet automatically, if the length of the last packet, sent
 412:Generated_Source\PSoC4/USBUART_cdc.c **** *  by this API, is equal to Max Packet Size
 413:Generated_Source\PSoC4/USBUART_cdc.c **** *
 414:Generated_Source\PSoC4/USBUART_cdc.c **** *  \param string: pointer to the string to be sent to the PC.
 415:Generated_Source\PSoC4/USBUART_cdc.c **** *
 416:Generated_Source\PSoC4/USBUART_cdc.c **** * \globalvars
 417:Generated_Source\PSoC4/USBUART_cdc.c **** *
 418:Generated_Source\PSoC4/USBUART_cdc.c **** *   USBUART_cdcDataInEp: CDC IN endpoint number used for sending
 419:Generated_Source\PSoC4/USBUART_cdc.c **** *     data.
 420:Generated_Source\PSoC4/USBUART_cdc.c **** *
 421:Generated_Source\PSoC4/USBUART_cdc.c **** * \reentrant
 422:Generated_Source\PSoC4/USBUART_cdc.c **** *  No.
 423:Generated_Source\PSoC4/USBUART_cdc.c **** *
 424:Generated_Source\PSoC4/USBUART_cdc.c **** ***************************************************************************/
 425:Generated_Source\PSoC4/USBUART_cdc.c **** void USBUART_PutString(const char8 string[]) 
 426:Generated_Source\PSoC4/USBUART_cdc.c **** {
 635              		.loc 1 426 0
 636              		.cfi_startproc
 637              		@ args = 0, pretend = 0, frame = 16
 638              		@ frame_needed = 1, uses_anonymous_args = 0
 639 0000 90B5     		push	{r4, r7, lr}
 640              		.cfi_def_cfa_offset 12
ARM GAS  C:\Users\HPz420\AppData\Local\Temp\ccOuTLU7.s 			page 20


 641              		.cfi_offset 4, -12
 642              		.cfi_offset 7, -8
 643              		.cfi_offset 14, -4
 644 0002 85B0     		sub	sp, sp, #20
 645              		.cfi_def_cfa_offset 32
 646 0004 00AF     		add	r7, sp, #0
 647              		.cfi_def_cfa_register 7
 648 0006 7860     		str	r0, [r7, #4]
 427:Generated_Source\PSoC4/USBUART_cdc.c ****     uint16 strLength;
 428:Generated_Source\PSoC4/USBUART_cdc.c ****     uint16 sendLength;
 429:Generated_Source\PSoC4/USBUART_cdc.c ****     uint16 bufIndex = 0u;
 649              		.loc 1 429 0
 650 0008 0C23     		movs	r3, #12
 651 000a FB18     		adds	r3, r7, r3
 652 000c 0022     		movs	r2, #0
 653 000e 1A80     		strh	r2, [r3]
 430:Generated_Source\PSoC4/USBUART_cdc.c **** 
 431:Generated_Source\PSoC4/USBUART_cdc.c ****     uint8  epNumber = USBUART_cdcDataInEp[USBUART_activeCom];
 654              		.loc 1 431 0
 655 0010 484B     		ldr	r3, .L44
 656 0012 1B78     		ldrb	r3, [r3]
 657 0014 1900     		movs	r1, r3
 658 0016 0B23     		movs	r3, #11
 659 0018 FB18     		adds	r3, r7, r3
 660 001a 474A     		ldr	r2, .L44+4
 661 001c 525C     		ldrb	r2, [r2, r1]
 662 001e 1A70     		strb	r2, [r3]
 432:Generated_Source\PSoC4/USBUART_cdc.c **** 
 433:Generated_Source\PSoC4/USBUART_cdc.c ****     /* Get length string length (it is terminated with zero). */
 434:Generated_Source\PSoC4/USBUART_cdc.c ****     strLength = USBUART_StrLen(string);
 663              		.loc 1 434 0
 664 0020 0E23     		movs	r3, #14
 665 0022 FC18     		adds	r4, r7, r3
 666 0024 7B68     		ldr	r3, [r7, #4]
 667 0026 1800     		movs	r0, r3
 668 0028 FFF7FEFF 		bl	USBUART_StrLen
 669 002c 0300     		movs	r3, r0
 670 002e 2380     		strh	r3, [r4]
 671              	.L43:
 435:Generated_Source\PSoC4/USBUART_cdc.c **** 
 436:Generated_Source\PSoC4/USBUART_cdc.c ****     do
 437:Generated_Source\PSoC4/USBUART_cdc.c ****     {
 438:Generated_Source\PSoC4/USBUART_cdc.c ****         /* Limit length to maximum packet size of endpoint. */
 439:Generated_Source\PSoC4/USBUART_cdc.c ****         sendLength = (strLength > USBUART_EP[epNumber].bufferSize) ?
 672              		.loc 1 439 0
 673 0030 0B23     		movs	r3, #11
 674 0032 FB18     		adds	r3, r7, r3
 675 0034 1A78     		ldrb	r2, [r3]
 676 0036 4149     		ldr	r1, .L44+8
 677 0038 1300     		movs	r3, r2
 678 003a 5B00     		lsls	r3, r3, #1
 679 003c 9B18     		adds	r3, r3, r2
 680 003e 9B00     		lsls	r3, r3, #2
 681 0040 CB18     		adds	r3, r1, r3
 682 0042 0833     		adds	r3, r3, #8
 683 0044 1B88     		ldrh	r3, [r3]
 684 0046 9BB2     		uxth	r3, r3
ARM GAS  C:\Users\HPz420\AppData\Local\Temp\ccOuTLU7.s 			page 21


 685 0048 0E22     		movs	r2, #14
 686 004a BA18     		adds	r2, r7, r2
 687 004c 1288     		ldrh	r2, [r2]
 688 004e 9A42     		cmp	r2, r3
 689 0050 0CD9     		bls	.L38
 440:Generated_Source\PSoC4/USBUART_cdc.c ****                                   USBUART_EP[epNumber].bufferSize : strLength;
 690              		.loc 1 440 0 discriminator 1
 691 0052 0B23     		movs	r3, #11
 692 0054 FB18     		adds	r3, r7, r3
 693 0056 1A78     		ldrb	r2, [r3]
 439:Generated_Source\PSoC4/USBUART_cdc.c ****                                   USBUART_EP[epNumber].bufferSize : strLength;
 694              		.loc 1 439 0 discriminator 1
 695 0058 3849     		ldr	r1, .L44+8
 696 005a 1300     		movs	r3, r2
 697 005c 5B00     		lsls	r3, r3, #1
 698 005e 9B18     		adds	r3, r3, r2
 699 0060 9B00     		lsls	r3, r3, #2
 700 0062 CB18     		adds	r3, r1, r3
 701 0064 0833     		adds	r3, r3, #8
 702 0066 1B88     		ldrh	r3, [r3]
 703 0068 9BB2     		uxth	r3, r3
 704 006a 02E0     		b	.L39
 705              	.L38:
 439:Generated_Source\PSoC4/USBUART_cdc.c ****                                   USBUART_EP[epNumber].bufferSize : strLength;
 706              		.loc 1 439 0 is_stmt 0 discriminator 2
 707 006c 0E23     		movs	r3, #14
 708 006e FB18     		adds	r3, r7, r3
 709 0070 1B88     		ldrh	r3, [r3]
 710              	.L39:
 439:Generated_Source\PSoC4/USBUART_cdc.c ****                                   USBUART_EP[epNumber].bufferSize : strLength;
 711              		.loc 1 439 0 discriminator 4
 712 0072 0822     		movs	r2, #8
 713 0074 BA18     		adds	r2, r7, r2
 714 0076 1380     		strh	r3, [r2]
 441:Generated_Source\PSoC4/USBUART_cdc.c **** 
 442:Generated_Source\PSoC4/USBUART_cdc.c ****         /* Load IN endpoint and expose it to host. */
 443:Generated_Source\PSoC4/USBUART_cdc.c ****         USBUART_LoadInEP(epNumber, (const uint8 *)&string[bufIndex], sendLength);
 715              		.loc 1 443 0 is_stmt 1 discriminator 4
 716 0078 0C23     		movs	r3, #12
 717 007a FB18     		adds	r3, r7, r3
 718 007c 1B88     		ldrh	r3, [r3]
 719 007e 7A68     		ldr	r2, [r7, #4]
 720 0080 D118     		adds	r1, r2, r3
 721 0082 0823     		movs	r3, #8
 722 0084 FB18     		adds	r3, r7, r3
 723 0086 1A88     		ldrh	r2, [r3]
 724 0088 0B23     		movs	r3, #11
 725 008a FB18     		adds	r3, r7, r3
 726 008c 1B78     		ldrb	r3, [r3]
 727 008e 1800     		movs	r0, r3
 728 0090 FFF7FEFF 		bl	USBUART_LoadInEP
 444:Generated_Source\PSoC4/USBUART_cdc.c ****         strLength -= sendLength;
 729              		.loc 1 444 0 discriminator 4
 730 0094 0E23     		movs	r3, #14
 731 0096 FB18     		adds	r3, r7, r3
 732 0098 0E22     		movs	r2, #14
 733 009a B918     		adds	r1, r7, r2
ARM GAS  C:\Users\HPz420\AppData\Local\Temp\ccOuTLU7.s 			page 22


 734 009c 0822     		movs	r2, #8
 735 009e BA18     		adds	r2, r7, r2
 736 00a0 0988     		ldrh	r1, [r1]
 737 00a2 1288     		ldrh	r2, [r2]
 738 00a4 8A1A     		subs	r2, r1, r2
 739 00a6 1A80     		strh	r2, [r3]
 445:Generated_Source\PSoC4/USBUART_cdc.c **** 
 446:Generated_Source\PSoC4/USBUART_cdc.c ****         /* If more data are present to send or full packet was sent */
 447:Generated_Source\PSoC4/USBUART_cdc.c ****         if ((strLength > 0u) || (sendLength == USBUART_EP[epNumber].bufferSize))
 740              		.loc 1 447 0 discriminator 4
 741 00a8 0E23     		movs	r3, #14
 742 00aa FB18     		adds	r3, r7, r3
 743 00ac 1B88     		ldrh	r3, [r3]
 744 00ae 002B     		cmp	r3, #0
 745 00b0 10D1     		bne	.L40
 746              		.loc 1 447 0 is_stmt 0 discriminator 1
 747 00b2 0B23     		movs	r3, #11
 748 00b4 FB18     		adds	r3, r7, r3
 749 00b6 1A78     		ldrb	r2, [r3]
 750 00b8 2049     		ldr	r1, .L44+8
 751 00ba 1300     		movs	r3, r2
 752 00bc 5B00     		lsls	r3, r3, #1
 753 00be 9B18     		adds	r3, r3, r2
 754 00c0 9B00     		lsls	r3, r3, #2
 755 00c2 CB18     		adds	r3, r1, r3
 756 00c4 0833     		adds	r3, r3, #8
 757 00c6 1B88     		ldrh	r3, [r3]
 758 00c8 9BB2     		uxth	r3, r3
 759 00ca 0822     		movs	r2, #8
 760 00cc BA18     		adds	r2, r7, r2
 761 00ce 1288     		ldrh	r2, [r2]
 762 00d0 9A42     		cmp	r2, r3
 763 00d2 25D1     		bne	.L41
 764              	.L40:
 448:Generated_Source\PSoC4/USBUART_cdc.c ****         {
 449:Generated_Source\PSoC4/USBUART_cdc.c ****             bufIndex += sendLength;
 765              		.loc 1 449 0 is_stmt 1
 766 00d4 0C23     		movs	r3, #12
 767 00d6 FB18     		adds	r3, r7, r3
 768 00d8 0C22     		movs	r2, #12
 769 00da B918     		adds	r1, r7, r2
 770 00dc 0822     		movs	r2, #8
 771 00de BA18     		adds	r2, r7, r2
 772 00e0 0988     		ldrh	r1, [r1]
 773 00e2 1288     		ldrh	r2, [r2]
 774 00e4 8A18     		adds	r2, r1, r2
 775 00e6 1A80     		strh	r2, [r3]
 450:Generated_Source\PSoC4/USBUART_cdc.c **** 
 451:Generated_Source\PSoC4/USBUART_cdc.c ****             /* Wait until host read data from IN endpoint buffer. */
 452:Generated_Source\PSoC4/USBUART_cdc.c ****             while (USBUART_IN_BUFFER_FULL == USBUART_EP[epNumber].apiEpState)
 776              		.loc 1 452 0
 777 00e8 C046     		nop
 778              	.L42:
 779              		.loc 1 452 0 is_stmt 0 discriminator 1
 780 00ea 0B23     		movs	r3, #11
 781 00ec FB18     		adds	r3, r7, r3
 782 00ee 1A78     		ldrb	r2, [r3]
ARM GAS  C:\Users\HPz420\AppData\Local\Temp\ccOuTLU7.s 			page 23


 783 00f0 1249     		ldr	r1, .L44+8
 784 00f2 1300     		movs	r3, r2
 785 00f4 5B00     		lsls	r3, r3, #1
 786 00f6 9B18     		adds	r3, r3, r2
 787 00f8 9B00     		lsls	r3, r3, #2
 788 00fa CB18     		adds	r3, r1, r3
 789 00fc 0133     		adds	r3, r3, #1
 790 00fe 1B78     		ldrb	r3, [r3]
 791 0100 DBB2     		uxtb	r3, r3
 792 0102 002B     		cmp	r3, #0
 793 0104 F1D0     		beq	.L42
 453:Generated_Source\PSoC4/USBUART_cdc.c ****             {
 454:Generated_Source\PSoC4/USBUART_cdc.c ****             }
 455:Generated_Source\PSoC4/USBUART_cdc.c **** 
 456:Generated_Source\PSoC4/USBUART_cdc.c ****             /* If last packet is exactly maximum packet size, it shall be followed
 457:Generated_Source\PSoC4/USBUART_cdc.c ****             * by a zero-length packet to assure the end of segment is properly
 458:Generated_Source\PSoC4/USBUART_cdc.c ****             * identified by the terminal.
 459:Generated_Source\PSoC4/USBUART_cdc.c ****             */
 460:Generated_Source\PSoC4/USBUART_cdc.c ****             if (0u == strLength)
 794              		.loc 1 460 0 is_stmt 1
 795 0106 0E23     		movs	r3, #14
 796 0108 FB18     		adds	r3, r7, r3
 797 010a 1B88     		ldrh	r3, [r3]
 798 010c 002B     		cmp	r3, #0
 799 010e 07D1     		bne	.L41
 461:Generated_Source\PSoC4/USBUART_cdc.c ****             {
 462:Generated_Source\PSoC4/USBUART_cdc.c ****                 USBUART_LoadInEP(epNumber, NULL, 0u);
 800              		.loc 1 462 0
 801 0110 0B23     		movs	r3, #11
 802 0112 FB18     		adds	r3, r7, r3
 803 0114 1B78     		ldrb	r3, [r3]
 804 0116 0022     		movs	r2, #0
 805 0118 0021     		movs	r1, #0
 806 011a 1800     		movs	r0, r3
 807 011c FFF7FEFF 		bl	USBUART_LoadInEP
 808              	.L41:
 463:Generated_Source\PSoC4/USBUART_cdc.c ****             }
 464:Generated_Source\PSoC4/USBUART_cdc.c ****         }
 465:Generated_Source\PSoC4/USBUART_cdc.c ****     }
 466:Generated_Source\PSoC4/USBUART_cdc.c ****     while (strLength > 0u);
 809              		.loc 1 466 0
 810 0120 0E23     		movs	r3, #14
 811 0122 FB18     		adds	r3, r7, r3
 812 0124 1B88     		ldrh	r3, [r3]
 813 0126 002B     		cmp	r3, #0
 814 0128 00D0     		beq	.LCB675
 815 012a 81E7     		b	.L43	@long jump
 816              	.LCB675:
 467:Generated_Source\PSoC4/USBUART_cdc.c **** }
 817              		.loc 1 467 0
 818 012c C046     		nop
 819 012e BD46     		mov	sp, r7
 820 0130 05B0     		add	sp, sp, #20
 821              		@ sp needed
 822 0132 90BD     		pop	{r4, r7, pc}
 823              	.L45:
 824              		.align	2
ARM GAS  C:\Users\HPz420\AppData\Local\Temp\ccOuTLU7.s 			page 24


 825              	.L44:
 826 0134 00000000 		.word	USBUART_activeCom
 827 0138 00000000 		.word	USBUART_cdcDataInEp
 828 013c 00000000 		.word	USBUART_EP
 829              		.cfi_endproc
 830              	.LFE6:
 831              		.size	USBUART_PutString, .-USBUART_PutString
 832              		.section	.text.USBUART_PutChar,"ax",%progbits
 833              		.align	2
 834              		.global	USBUART_PutChar
 835              		.code	16
 836              		.thumb_func
 837              		.type	USBUART_PutChar, %function
 838              	USBUART_PutChar:
 839              	.LFB7:
 468:Generated_Source\PSoC4/USBUART_cdc.c **** 
 469:Generated_Source\PSoC4/USBUART_cdc.c **** 
 470:Generated_Source\PSoC4/USBUART_cdc.c **** /***************************************************************************
 471:Generated_Source\PSoC4/USBUART_cdc.c **** * Function Name: USBUART_PutChar
 472:Generated_Source\PSoC4/USBUART_cdc.c **** ************************************************************************//**
 473:Generated_Source\PSoC4/USBUART_cdc.c **** *
 474:Generated_Source\PSoC4/USBUART_cdc.c **** *  This function writes a single character to the PC at a time. This is an
 475:Generated_Source\PSoC4/USBUART_cdc.c **** *  inefficient way to send large amounts of data.
 476:Generated_Source\PSoC4/USBUART_cdc.c **** *
 477:Generated_Source\PSoC4/USBUART_cdc.c **** *  \param txDataByte: Character to be sent to the PC.
 478:Generated_Source\PSoC4/USBUART_cdc.c **** *
 479:Generated_Source\PSoC4/USBUART_cdc.c **** *  \globalvars
 480:Generated_Source\PSoC4/USBUART_cdc.c **** *
 481:Generated_Source\PSoC4/USBUART_cdc.c **** *   USBUART_cdcDataInEp: CDC IN endpoint number used for sending
 482:Generated_Source\PSoC4/USBUART_cdc.c **** *     data.
 483:Generated_Source\PSoC4/USBUART_cdc.c **** *
 484:Generated_Source\PSoC4/USBUART_cdc.c **** *  \reentrant
 485:Generated_Source\PSoC4/USBUART_cdc.c **** *  No.
 486:Generated_Source\PSoC4/USBUART_cdc.c **** *
 487:Generated_Source\PSoC4/USBUART_cdc.c **** ***************************************************************************/
 488:Generated_Source\PSoC4/USBUART_cdc.c **** void USBUART_PutChar(char8 txDataByte) 
 489:Generated_Source\PSoC4/USBUART_cdc.c **** {
 840              		.loc 1 489 0
 841              		.cfi_startproc
 842              		@ args = 0, pretend = 0, frame = 16
 843              		@ frame_needed = 1, uses_anonymous_args = 0
 844 0000 80B5     		push	{r7, lr}
 845              		.cfi_def_cfa_offset 8
 846              		.cfi_offset 7, -8
 847              		.cfi_offset 14, -4
 848 0002 84B0     		sub	sp, sp, #16
 849              		.cfi_def_cfa_offset 24
 850 0004 00AF     		add	r7, sp, #0
 851              		.cfi_def_cfa_register 7
 852 0006 0200     		movs	r2, r0
 853 0008 FB1D     		adds	r3, r7, #7
 854 000a 1A70     		strb	r2, [r3]
 490:Generated_Source\PSoC4/USBUART_cdc.c ****     uint8 dataByte;
 491:Generated_Source\PSoC4/USBUART_cdc.c ****     dataByte = (uint8) txDataByte;
 855              		.loc 1 491 0
 856 000c 0F23     		movs	r3, #15
 857 000e FB18     		adds	r3, r7, r3
ARM GAS  C:\Users\HPz420\AppData\Local\Temp\ccOuTLU7.s 			page 25


 858 0010 FA1D     		adds	r2, r7, #7
 859 0012 1278     		ldrb	r2, [r2]
 860 0014 1A70     		strb	r2, [r3]
 492:Generated_Source\PSoC4/USBUART_cdc.c **** 
 493:Generated_Source\PSoC4/USBUART_cdc.c ****     USBUART_LoadInEP(USBUART_cdcDataInEp[USBUART_activeCom], &dataByte, 1u);
 861              		.loc 1 493 0
 862 0016 084B     		ldr	r3, .L47
 863 0018 1B78     		ldrb	r3, [r3]
 864 001a 1A00     		movs	r2, r3
 865 001c 074B     		ldr	r3, .L47+4
 866 001e 9B5C     		ldrb	r3, [r3, r2]
 867 0020 DBB2     		uxtb	r3, r3
 868 0022 0F22     		movs	r2, #15
 869 0024 B918     		adds	r1, r7, r2
 870 0026 0122     		movs	r2, #1
 871 0028 1800     		movs	r0, r3
 872 002a FFF7FEFF 		bl	USBUART_LoadInEP
 494:Generated_Source\PSoC4/USBUART_cdc.c **** }
 873              		.loc 1 494 0
 874 002e C046     		nop
 875 0030 BD46     		mov	sp, r7
 876 0032 04B0     		add	sp, sp, #16
 877              		@ sp needed
 878 0034 80BD     		pop	{r7, pc}
 879              	.L48:
 880 0036 C046     		.align	2
 881              	.L47:
 882 0038 00000000 		.word	USBUART_activeCom
 883 003c 00000000 		.word	USBUART_cdcDataInEp
 884              		.cfi_endproc
 885              	.LFE7:
 886              		.size	USBUART_PutChar, .-USBUART_PutChar
 887              		.section	.rodata
 888              		.align	2
 889              	.LC0:
 890 0000 0D       		.byte	13
 891 0001 0A       		.byte	10
 892              		.section	.text.USBUART_PutCRLF,"ax",%progbits
 893              		.align	2
 894              		.global	USBUART_PutCRLF
 895              		.code	16
 896              		.thumb_func
 897              		.type	USBUART_PutCRLF, %function
 898              	USBUART_PutCRLF:
 899              	.LFB8:
 495:Generated_Source\PSoC4/USBUART_cdc.c **** 
 496:Generated_Source\PSoC4/USBUART_cdc.c **** 
 497:Generated_Source\PSoC4/USBUART_cdc.c **** /*******************************************************************************
 498:Generated_Source\PSoC4/USBUART_cdc.c **** * Function Name: USBUART_PutCRLF
 499:Generated_Source\PSoC4/USBUART_cdc.c **** ****************************************************************************//**
 500:Generated_Source\PSoC4/USBUART_cdc.c **** *
 501:Generated_Source\PSoC4/USBUART_cdc.c **** *  This function sends a carriage return (0x0D) and line feed (0x0A) to the
 502:Generated_Source\PSoC4/USBUART_cdc.c **** *  PC. This APIis provided to mimic API provided by our other UART components
 503:Generated_Source\PSoC4/USBUART_cdc.c **** *
 504:Generated_Source\PSoC4/USBUART_cdc.c **** * \globalvars
 505:Generated_Source\PSoC4/USBUART_cdc.c **** *
 506:Generated_Source\PSoC4/USBUART_cdc.c **** *   USBUART_cdcDataInEp: CDC IN endpoint number used for sending
ARM GAS  C:\Users\HPz420\AppData\Local\Temp\ccOuTLU7.s 			page 26


 507:Generated_Source\PSoC4/USBUART_cdc.c **** *     data.
 508:Generated_Source\PSoC4/USBUART_cdc.c **** *
 509:Generated_Source\PSoC4/USBUART_cdc.c **** * \reentrant
 510:Generated_Source\PSoC4/USBUART_cdc.c **** *  No.
 511:Generated_Source\PSoC4/USBUART_cdc.c **** *
 512:Generated_Source\PSoC4/USBUART_cdc.c **** *******************************************************************************/
 513:Generated_Source\PSoC4/USBUART_cdc.c **** void USBUART_PutCRLF(void) 
 514:Generated_Source\PSoC4/USBUART_cdc.c **** {
 900              		.loc 1 514 0
 901              		.cfi_startproc
 902              		@ args = 0, pretend = 0, frame = 8
 903              		@ frame_needed = 1, uses_anonymous_args = 0
 904 0000 80B5     		push	{r7, lr}
 905              		.cfi_def_cfa_offset 8
 906              		.cfi_offset 7, -8
 907              		.cfi_offset 14, -4
 908 0002 82B0     		sub	sp, sp, #8
 909              		.cfi_def_cfa_offset 16
 910 0004 00AF     		add	r7, sp, #0
 911              		.cfi_def_cfa_register 7
 515:Generated_Source\PSoC4/USBUART_cdc.c ****     const uint8 CYCODE txData[] = {0x0Du, 0x0Au};
 912              		.loc 1 515 0
 913 0006 3A1D     		adds	r2, r7, #4
 914 0008 0A4B     		ldr	r3, .L50
 915 000a 1000     		movs	r0, r2
 916 000c 1900     		movs	r1, r3
 917 000e 0223     		movs	r3, #2
 918 0010 1A00     		movs	r2, r3
 919 0012 FFF7FEFF 		bl	memcpy
 516:Generated_Source\PSoC4/USBUART_cdc.c **** 
 517:Generated_Source\PSoC4/USBUART_cdc.c ****     USBUART_LoadInEP(USBUART_cdcDataInEp[USBUART_activeCom], (const uint8 *)txData, 2u);
 920              		.loc 1 517 0
 921 0016 084B     		ldr	r3, .L50+4
 922 0018 1B78     		ldrb	r3, [r3]
 923 001a 1A00     		movs	r2, r3
 924 001c 074B     		ldr	r3, .L50+8
 925 001e 9B5C     		ldrb	r3, [r3, r2]
 926 0020 DBB2     		uxtb	r3, r3
 927 0022 391D     		adds	r1, r7, #4
 928 0024 0222     		movs	r2, #2
 929 0026 1800     		movs	r0, r3
 930 0028 FFF7FEFF 		bl	USBUART_LoadInEP
 518:Generated_Source\PSoC4/USBUART_cdc.c **** }
 931              		.loc 1 518 0
 932 002c C046     		nop
 933 002e BD46     		mov	sp, r7
 934 0030 02B0     		add	sp, sp, #8
 935              		@ sp needed
 936 0032 80BD     		pop	{r7, pc}
 937              	.L51:
 938              		.align	2
 939              	.L50:
 940 0034 00000000 		.word	.LC0
 941 0038 00000000 		.word	USBUART_activeCom
 942 003c 00000000 		.word	USBUART_cdcDataInEp
 943              		.cfi_endproc
 944              	.LFE8:
ARM GAS  C:\Users\HPz420\AppData\Local\Temp\ccOuTLU7.s 			page 27


 945              		.size	USBUART_PutCRLF, .-USBUART_PutCRLF
 946              		.section	.text.USBUART_GetCount,"ax",%progbits
 947              		.align	2
 948              		.global	USBUART_GetCount
 949              		.code	16
 950              		.thumb_func
 951              		.type	USBUART_GetCount, %function
 952              	USBUART_GetCount:
 953              	.LFB9:
 519:Generated_Source\PSoC4/USBUART_cdc.c **** 
 520:Generated_Source\PSoC4/USBUART_cdc.c **** 
 521:Generated_Source\PSoC4/USBUART_cdc.c **** /*******************************************************************************
 522:Generated_Source\PSoC4/USBUART_cdc.c **** * Function Name: USBUART_GetCount
 523:Generated_Source\PSoC4/USBUART_cdc.c **** ****************************************************************************//**
 524:Generated_Source\PSoC4/USBUART_cdc.c **** *
 525:Generated_Source\PSoC4/USBUART_cdc.c **** *  This function returns the number of bytes that were received from the PC.
 526:Generated_Source\PSoC4/USBUART_cdc.c **** *  The returned length value should be passed to USBUART_GetData() as
 527:Generated_Source\PSoC4/USBUART_cdc.c **** *  a parameter to read all received data. If all of the received data is not
 528:Generated_Source\PSoC4/USBUART_cdc.c **** *  read at one time by the USBUART_GetData() API, the unread data will
 529:Generated_Source\PSoC4/USBUART_cdc.c **** *  be lost.
 530:Generated_Source\PSoC4/USBUART_cdc.c **** *
 531:Generated_Source\PSoC4/USBUART_cdc.c **** * \return
 532:Generated_Source\PSoC4/USBUART_cdc.c **** *  Returns the number of received bytes. The maximum amount of received data at
 533:Generated_Source\PSoC4/USBUART_cdc.c **** *  a time is limited by the maximum packet size for the endpoint.
 534:Generated_Source\PSoC4/USBUART_cdc.c **** *
 535:Generated_Source\PSoC4/USBUART_cdc.c **** * \globalvars
 536:Generated_Source\PSoC4/USBUART_cdc.c **** *   USBUART_cdcDataOutEp: CDC OUT endpoint number used.
 537:Generated_Source\PSoC4/USBUART_cdc.c **** *
 538:Generated_Source\PSoC4/USBUART_cdc.c **** *******************************************************************************/
 539:Generated_Source\PSoC4/USBUART_cdc.c **** uint16 USBUART_GetCount(void) 
 540:Generated_Source\PSoC4/USBUART_cdc.c **** {
 954              		.loc 1 540 0
 955              		.cfi_startproc
 956              		@ args = 0, pretend = 0, frame = 8
 957              		@ frame_needed = 1, uses_anonymous_args = 0
 958 0000 90B5     		push	{r4, r7, lr}
 959              		.cfi_def_cfa_offset 12
 960              		.cfi_offset 4, -12
 961              		.cfi_offset 7, -8
 962              		.cfi_offset 14, -4
 963 0002 83B0     		sub	sp, sp, #12
 964              		.cfi_def_cfa_offset 24
 965 0004 00AF     		add	r7, sp, #0
 966              		.cfi_def_cfa_register 7
 541:Generated_Source\PSoC4/USBUART_cdc.c ****     uint16 bytesCount;
 542:Generated_Source\PSoC4/USBUART_cdc.c **** 
 543:Generated_Source\PSoC4/USBUART_cdc.c ****     uint8  epNumber = USBUART_cdcDataOutEp[USBUART_activeCom];
 967              		.loc 1 543 0
 968 0006 134B     		ldr	r3, .L56
 969 0008 1B78     		ldrb	r3, [r3]
 970 000a 1900     		movs	r1, r3
 971 000c 7B1D     		adds	r3, r7, #5
 972 000e 124A     		ldr	r2, .L56+4
 973 0010 525C     		ldrb	r2, [r2, r1]
 974 0012 1A70     		strb	r2, [r3]
 544:Generated_Source\PSoC4/USBUART_cdc.c **** 
 545:Generated_Source\PSoC4/USBUART_cdc.c ****     if (USBUART_OUT_BUFFER_FULL == USBUART_EP[epNumber].apiEpState)
ARM GAS  C:\Users\HPz420\AppData\Local\Temp\ccOuTLU7.s 			page 28


 975              		.loc 1 545 0
 976 0014 7B1D     		adds	r3, r7, #5
 977 0016 1A78     		ldrb	r2, [r3]
 978 0018 1049     		ldr	r1, .L56+8
 979 001a 1300     		movs	r3, r2
 980 001c 5B00     		lsls	r3, r3, #1
 981 001e 9B18     		adds	r3, r3, r2
 982 0020 9B00     		lsls	r3, r3, #2
 983 0022 CB18     		adds	r3, r1, r3
 984 0024 0133     		adds	r3, r3, #1
 985 0026 1B78     		ldrb	r3, [r3]
 986 0028 DBB2     		uxtb	r3, r3
 987 002a 012B     		cmp	r3, #1
 988 002c 08D1     		bne	.L53
 546:Generated_Source\PSoC4/USBUART_cdc.c ****     {
 547:Generated_Source\PSoC4/USBUART_cdc.c ****         bytesCount = USBUART_GetEPCount(epNumber);
 989              		.loc 1 547 0
 990 002e BC1D     		adds	r4, r7, #6
 991 0030 7B1D     		adds	r3, r7, #5
 992 0032 1B78     		ldrb	r3, [r3]
 993 0034 1800     		movs	r0, r3
 994 0036 FFF7FEFF 		bl	USBUART_GetEPCount
 995 003a 0300     		movs	r3, r0
 996 003c 2380     		strh	r3, [r4]
 997 003e 02E0     		b	.L54
 998              	.L53:
 548:Generated_Source\PSoC4/USBUART_cdc.c ****     }
 549:Generated_Source\PSoC4/USBUART_cdc.c ****     else
 550:Generated_Source\PSoC4/USBUART_cdc.c ****     {
 551:Generated_Source\PSoC4/USBUART_cdc.c ****         bytesCount = 0u;
 999              		.loc 1 551 0
 1000 0040 BB1D     		adds	r3, r7, #6
 1001 0042 0022     		movs	r2, #0
 1002 0044 1A80     		strh	r2, [r3]
 1003              	.L54:
 552:Generated_Source\PSoC4/USBUART_cdc.c ****     }
 553:Generated_Source\PSoC4/USBUART_cdc.c **** 
 554:Generated_Source\PSoC4/USBUART_cdc.c ****     return (bytesCount);
 1004              		.loc 1 554 0
 1005 0046 BB1D     		adds	r3, r7, #6
 1006 0048 1B88     		ldrh	r3, [r3]
 555:Generated_Source\PSoC4/USBUART_cdc.c **** }
 1007              		.loc 1 555 0
 1008 004a 1800     		movs	r0, r3
 1009 004c BD46     		mov	sp, r7
 1010 004e 03B0     		add	sp, sp, #12
 1011              		@ sp needed
 1012 0050 90BD     		pop	{r4, r7, pc}
 1013              	.L57:
 1014 0052 C046     		.align	2
 1015              	.L56:
 1016 0054 00000000 		.word	USBUART_activeCom
 1017 0058 00000000 		.word	USBUART_cdcDataOutEp
 1018 005c 00000000 		.word	USBUART_EP
 1019              		.cfi_endproc
 1020              	.LFE9:
 1021              		.size	USBUART_GetCount, .-USBUART_GetCount
ARM GAS  C:\Users\HPz420\AppData\Local\Temp\ccOuTLU7.s 			page 29


 1022              		.section	.text.USBUART_DataIsReady,"ax",%progbits
 1023              		.align	2
 1024              		.global	USBUART_DataIsReady
 1025              		.code	16
 1026              		.thumb_func
 1027              		.type	USBUART_DataIsReady, %function
 1028              	USBUART_DataIsReady:
 1029              	.LFB10:
 556:Generated_Source\PSoC4/USBUART_cdc.c **** 
 557:Generated_Source\PSoC4/USBUART_cdc.c **** 
 558:Generated_Source\PSoC4/USBUART_cdc.c **** /*******************************************************************************
 559:Generated_Source\PSoC4/USBUART_cdc.c **** * Function Name: USBUART_DataIsReady
 560:Generated_Source\PSoC4/USBUART_cdc.c **** ****************************************************************************//**
 561:Generated_Source\PSoC4/USBUART_cdc.c **** *
 562:Generated_Source\PSoC4/USBUART_cdc.c **** *  This function returns a non-zero value if the component received data or
 563:Generated_Source\PSoC4/USBUART_cdc.c **** *  received zero-length packet. The USBUART_GetAll() or
 564:Generated_Source\PSoC4/USBUART_cdc.c **** *  USBUART_GetData() API should be called to read data from the buffer
 565:Generated_Source\PSoC4/USBUART_cdc.c **** *  and reinitialize the OUT endpoint even when a zero-length packet is
 566:Generated_Source\PSoC4/USBUART_cdc.c **** *  received. These APIs will return zero value when zero-length packet is
 567:Generated_Source\PSoC4/USBUART_cdc.c **** *  received.
 568:Generated_Source\PSoC4/USBUART_cdc.c **** *
 569:Generated_Source\PSoC4/USBUART_cdc.c **** * \return
 570:Generated_Source\PSoC4/USBUART_cdc.c **** *  If the OUT packet is received, this function returns a non-zero value.
 571:Generated_Source\PSoC4/USBUART_cdc.c **** *  Otherwise, it returns zero.
 572:Generated_Source\PSoC4/USBUART_cdc.c **** *
 573:Generated_Source\PSoC4/USBUART_cdc.c **** * \globalvars
 574:Generated_Source\PSoC4/USBUART_cdc.c **** *   USBUART_cdcDataOutEp: CDC OUT endpoint number used.
 575:Generated_Source\PSoC4/USBUART_cdc.c **** *
 576:Generated_Source\PSoC4/USBUART_cdc.c **** *******************************************************************************/
 577:Generated_Source\PSoC4/USBUART_cdc.c **** uint8 USBUART_DataIsReady(void) 
 578:Generated_Source\PSoC4/USBUART_cdc.c **** {
 1030              		.loc 1 578 0
 1031              		.cfi_startproc
 1032              		@ args = 0, pretend = 0, frame = 0
 1033              		@ frame_needed = 1, uses_anonymous_args = 0
 1034 0000 80B5     		push	{r7, lr}
 1035              		.cfi_def_cfa_offset 8
 1036              		.cfi_offset 7, -8
 1037              		.cfi_offset 14, -4
 1038 0002 00AF     		add	r7, sp, #0
 1039              		.cfi_def_cfa_register 7
 579:Generated_Source\PSoC4/USBUART_cdc.c ****     return (USBUART_GetEPState(USBUART_cdcDataOutEp[USBUART_activeCom]));
 1040              		.loc 1 579 0
 1041 0004 064B     		ldr	r3, .L60
 1042 0006 1B78     		ldrb	r3, [r3]
 1043 0008 1A00     		movs	r2, r3
 1044 000a 064B     		ldr	r3, .L60+4
 1045 000c 9B5C     		ldrb	r3, [r3, r2]
 1046 000e DBB2     		uxtb	r3, r3
 1047 0010 1800     		movs	r0, r3
 1048 0012 FFF7FEFF 		bl	USBUART_GetEPState
 1049 0016 0300     		movs	r3, r0
 580:Generated_Source\PSoC4/USBUART_cdc.c **** }
 1050              		.loc 1 580 0
 1051 0018 1800     		movs	r0, r3
 1052 001a BD46     		mov	sp, r7
 1053              		@ sp needed
ARM GAS  C:\Users\HPz420\AppData\Local\Temp\ccOuTLU7.s 			page 30


 1054 001c 80BD     		pop	{r7, pc}
 1055              	.L61:
 1056 001e C046     		.align	2
 1057              	.L60:
 1058 0020 00000000 		.word	USBUART_activeCom
 1059 0024 00000000 		.word	USBUART_cdcDataOutEp
 1060              		.cfi_endproc
 1061              	.LFE10:
 1062              		.size	USBUART_DataIsReady, .-USBUART_DataIsReady
 1063              		.section	.text.USBUART_CDCIsReady,"ax",%progbits
 1064              		.align	2
 1065              		.global	USBUART_CDCIsReady
 1066              		.code	16
 1067              		.thumb_func
 1068              		.type	USBUART_CDCIsReady, %function
 1069              	USBUART_CDCIsReady:
 1070              	.LFB11:
 581:Generated_Source\PSoC4/USBUART_cdc.c **** 
 582:Generated_Source\PSoC4/USBUART_cdc.c **** 
 583:Generated_Source\PSoC4/USBUART_cdc.c **** /*******************************************************************************
 584:Generated_Source\PSoC4/USBUART_cdc.c **** * Function Name: USBUART_CDCIsReady
 585:Generated_Source\PSoC4/USBUART_cdc.c **** ****************************************************************************//**
 586:Generated_Source\PSoC4/USBUART_cdc.c **** *
 587:Generated_Source\PSoC4/USBUART_cdc.c **** *  This function returns a non-zero value if the component is ready to send more
 588:Generated_Source\PSoC4/USBUART_cdc.c **** *  data to the PC; otherwise, it returns zero. The function should be called
 589:Generated_Source\PSoC4/USBUART_cdc.c **** *  before sending new data when using any of the following APIs:
 590:Generated_Source\PSoC4/USBUART_cdc.c **** *  USBUART_PutData(),USBUART_PutString(),
 591:Generated_Source\PSoC4/USBUART_cdc.c **** *  USBUART_PutChar or USBUART_PutCRLF(),
 592:Generated_Source\PSoC4/USBUART_cdc.c **** *  to be sure that the previous data has finished sending.
 593:Generated_Source\PSoC4/USBUART_cdc.c **** *
 594:Generated_Source\PSoC4/USBUART_cdc.c **** * \return
 595:Generated_Source\PSoC4/USBUART_cdc.c **** *  If the buffer can accept new data, this function returns a non-zero value.
 596:Generated_Source\PSoC4/USBUART_cdc.c **** *  Otherwise, it returns zero.
 597:Generated_Source\PSoC4/USBUART_cdc.c **** *
 598:Generated_Source\PSoC4/USBUART_cdc.c **** * \globalvars
 599:Generated_Source\PSoC4/USBUART_cdc.c **** *   USBUART_cdcDataInEp: CDC IN endpoint number used.
 600:Generated_Source\PSoC4/USBUART_cdc.c **** *
 601:Generated_Source\PSoC4/USBUART_cdc.c **** *******************************************************************************/
 602:Generated_Source\PSoC4/USBUART_cdc.c **** uint8 USBUART_CDCIsReady(void) 
 603:Generated_Source\PSoC4/USBUART_cdc.c **** {
 1071              		.loc 1 603 0
 1072              		.cfi_startproc
 1073              		@ args = 0, pretend = 0, frame = 0
 1074              		@ frame_needed = 1, uses_anonymous_args = 0
 1075 0000 80B5     		push	{r7, lr}
 1076              		.cfi_def_cfa_offset 8
 1077              		.cfi_offset 7, -8
 1078              		.cfi_offset 14, -4
 1079 0002 00AF     		add	r7, sp, #0
 1080              		.cfi_def_cfa_register 7
 604:Generated_Source\PSoC4/USBUART_cdc.c ****     return (USBUART_GetEPState(USBUART_cdcDataInEp[USBUART_activeCom]));
 1081              		.loc 1 604 0
 1082 0004 064B     		ldr	r3, .L64
 1083 0006 1B78     		ldrb	r3, [r3]
 1084 0008 1A00     		movs	r2, r3
 1085 000a 064B     		ldr	r3, .L64+4
 1086 000c 9B5C     		ldrb	r3, [r3, r2]
ARM GAS  C:\Users\HPz420\AppData\Local\Temp\ccOuTLU7.s 			page 31


 1087 000e DBB2     		uxtb	r3, r3
 1088 0010 1800     		movs	r0, r3
 1089 0012 FFF7FEFF 		bl	USBUART_GetEPState
 1090 0016 0300     		movs	r3, r0
 605:Generated_Source\PSoC4/USBUART_cdc.c **** }
 1091              		.loc 1 605 0
 1092 0018 1800     		movs	r0, r3
 1093 001a BD46     		mov	sp, r7
 1094              		@ sp needed
 1095 001c 80BD     		pop	{r7, pc}
 1096              	.L65:
 1097 001e C046     		.align	2
 1098              	.L64:
 1099 0020 00000000 		.word	USBUART_activeCom
 1100 0024 00000000 		.word	USBUART_cdcDataInEp
 1101              		.cfi_endproc
 1102              	.LFE11:
 1103              		.size	USBUART_CDCIsReady, .-USBUART_CDCIsReady
 1104              		.section	.text.USBUART_GetData,"ax",%progbits
 1105              		.align	2
 1106              		.global	USBUART_GetData
 1107              		.code	16
 1108              		.thumb_func
 1109              		.type	USBUART_GetData, %function
 1110              	USBUART_GetData:
 1111              	.LFB12:
 606:Generated_Source\PSoC4/USBUART_cdc.c **** 
 607:Generated_Source\PSoC4/USBUART_cdc.c **** 
 608:Generated_Source\PSoC4/USBUART_cdc.c **** /***************************************************************************
 609:Generated_Source\PSoC4/USBUART_cdc.c **** * Function Name: USBUART_GetData
 610:Generated_Source\PSoC4/USBUART_cdc.c **** ************************************************************************//**
 611:Generated_Source\PSoC4/USBUART_cdc.c **** *
 612:Generated_Source\PSoC4/USBUART_cdc.c **** *  This function gets a specified number of bytes from the input buffer and
 613:Generated_Source\PSoC4/USBUART_cdc.c **** *  places them in a data array specified by the passed pointer.
 614:Generated_Source\PSoC4/USBUART_cdc.c **** *  The USBUART_DataIsReady() API should be called first, to be sure
 615:Generated_Source\PSoC4/USBUART_cdc.c **** *  that data is received from the host. If all received data will not be read at
 616:Generated_Source\PSoC4/USBUART_cdc.c **** *  once, the unread data will be lost. The USBUART_GetData() API should
 617:Generated_Source\PSoC4/USBUART_cdc.c **** *  be called to get the number of bytes that were received.
 618:Generated_Source\PSoC4/USBUART_cdc.c **** *
 619:Generated_Source\PSoC4/USBUART_cdc.c **** *  \param pData: Pointer to the data array where data will be placed.
 620:Generated_Source\PSoC4/USBUART_cdc.c **** *  \param Length: Number of bytes to read into the data array from the RX buffer.
 621:Generated_Source\PSoC4/USBUART_cdc.c **** *          Maximum length is limited by the the number of received bytes
 622:Generated_Source\PSoC4/USBUART_cdc.c **** *          or 64 bytes.
 623:Generated_Source\PSoC4/USBUART_cdc.c **** *
 624:Generated_Source\PSoC4/USBUART_cdc.c **** * \return
 625:Generated_Source\PSoC4/USBUART_cdc.c **** *         Number of bytes which function moves from endpoint RAM into the
 626:Generated_Source\PSoC4/USBUART_cdc.c **** *         data array. The function moves fewer than the requested number
 627:Generated_Source\PSoC4/USBUART_cdc.c **** *         of bytes if the host sends fewer bytes than requested or sends
 628:Generated_Source\PSoC4/USBUART_cdc.c **** *         zero-length packet.
 629:Generated_Source\PSoC4/USBUART_cdc.c **** *
 630:Generated_Source\PSoC4/USBUART_cdc.c **** * \globalvars
 631:Generated_Source\PSoC4/USBUART_cdc.c **** *   USBUART_cdcDataOutEp: CDC OUT endpoint number used.
 632:Generated_Source\PSoC4/USBUART_cdc.c **** *
 633:Generated_Source\PSoC4/USBUART_cdc.c **** * \reentrant
 634:Generated_Source\PSoC4/USBUART_cdc.c **** *  No.
 635:Generated_Source\PSoC4/USBUART_cdc.c **** *
 636:Generated_Source\PSoC4/USBUART_cdc.c **** ***************************************************************************/
ARM GAS  C:\Users\HPz420\AppData\Local\Temp\ccOuTLU7.s 			page 32


 637:Generated_Source\PSoC4/USBUART_cdc.c **** uint16 USBUART_GetData(uint8* pData, uint16 length) 
 638:Generated_Source\PSoC4/USBUART_cdc.c **** {
 1112              		.loc 1 638 0
 1113              		.cfi_startproc
 1114              		@ args = 0, pretend = 0, frame = 16
 1115              		@ frame_needed = 1, uses_anonymous_args = 0
 1116 0000 90B5     		push	{r4, r7, lr}
 1117              		.cfi_def_cfa_offset 12
 1118              		.cfi_offset 4, -12
 1119              		.cfi_offset 7, -8
 1120              		.cfi_offset 14, -4
 1121 0002 85B0     		sub	sp, sp, #20
 1122              		.cfi_def_cfa_offset 32
 1123 0004 00AF     		add	r7, sp, #0
 1124              		.cfi_def_cfa_register 7
 1125 0006 7860     		str	r0, [r7, #4]
 1126 0008 0A00     		movs	r2, r1
 1127 000a BB1C     		adds	r3, r7, #2
 1128 000c 1A80     		strh	r2, [r3]
 639:Generated_Source\PSoC4/USBUART_cdc.c ****     uint8 epNumber = USBUART_cdcDataOutEp[USBUART_activeCom];
 1129              		.loc 1 639 0
 1130 000e 0D4B     		ldr	r3, .L68
 1131 0010 1B78     		ldrb	r3, [r3]
 1132 0012 1900     		movs	r1, r3
 1133 0014 0F23     		movs	r3, #15
 1134 0016 FB18     		adds	r3, r7, r3
 1135 0018 0B4A     		ldr	r2, .L68+4
 1136 001a 525C     		ldrb	r2, [r2, r1]
 1137 001c 1A70     		strb	r2, [r3]
 640:Generated_Source\PSoC4/USBUART_cdc.c **** 
 641:Generated_Source\PSoC4/USBUART_cdc.c ****     /* Read data from OUT endpoint buffer. */
 642:Generated_Source\PSoC4/USBUART_cdc.c ****     length = USBUART_ReadOutEP(epNumber, pData, length);
 1138              		.loc 1 642 0
 1139 001e BC1C     		adds	r4, r7, #2
 1140 0020 BB1C     		adds	r3, r7, #2
 1141 0022 1A88     		ldrh	r2, [r3]
 1142 0024 7968     		ldr	r1, [r7, #4]
 1143 0026 0F23     		movs	r3, #15
 1144 0028 FB18     		adds	r3, r7, r3
 1145 002a 1B78     		ldrb	r3, [r3]
 1146 002c 1800     		movs	r0, r3
 1147 002e FFF7FEFF 		bl	USBUART_ReadOutEP
 1148 0032 0300     		movs	r3, r0
 1149 0034 2380     		strh	r3, [r4]
 643:Generated_Source\PSoC4/USBUART_cdc.c **** 
 644:Generated_Source\PSoC4/USBUART_cdc.c **** #if (USBUART_EP_MANAGEMENT_DMA_MANUAL)
 645:Generated_Source\PSoC4/USBUART_cdc.c ****     /* Wait until DMA complete transferring data from OUT endpoint buffer. */
 646:Generated_Source\PSoC4/USBUART_cdc.c ****     while (USBUART_OUT_BUFFER_FULL == USBUART_GetEPState(epNumber))
 647:Generated_Source\PSoC4/USBUART_cdc.c ****     {
 648:Generated_Source\PSoC4/USBUART_cdc.c ****     }
 649:Generated_Source\PSoC4/USBUART_cdc.c **** 
 650:Generated_Source\PSoC4/USBUART_cdc.c ****     /* Enable OUT endpoint to communicate with host. */
 651:Generated_Source\PSoC4/USBUART_cdc.c ****     USBUART_EnableOutEP(epNumber);
 652:Generated_Source\PSoC4/USBUART_cdc.c **** #endif /* (USBUART_EP_MANAGEMENT_DMA_MANUAL) */
 653:Generated_Source\PSoC4/USBUART_cdc.c **** 
 654:Generated_Source\PSoC4/USBUART_cdc.c ****     return (length);
 1150              		.loc 1 654 0
ARM GAS  C:\Users\HPz420\AppData\Local\Temp\ccOuTLU7.s 			page 33


 1151 0036 BB1C     		adds	r3, r7, #2
 1152 0038 1B88     		ldrh	r3, [r3]
 655:Generated_Source\PSoC4/USBUART_cdc.c **** }
 1153              		.loc 1 655 0
 1154 003a 1800     		movs	r0, r3
 1155 003c BD46     		mov	sp, r7
 1156 003e 05B0     		add	sp, sp, #20
 1157              		@ sp needed
 1158 0040 90BD     		pop	{r4, r7, pc}
 1159              	.L69:
 1160 0042 C046     		.align	2
 1161              	.L68:
 1162 0044 00000000 		.word	USBUART_activeCom
 1163 0048 00000000 		.word	USBUART_cdcDataOutEp
 1164              		.cfi_endproc
 1165              	.LFE12:
 1166              		.size	USBUART_GetData, .-USBUART_GetData
 1167              		.section	.text.USBUART_GetAll,"ax",%progbits
 1168              		.align	2
 1169              		.global	USBUART_GetAll
 1170              		.code	16
 1171              		.thumb_func
 1172              		.type	USBUART_GetAll, %function
 1173              	USBUART_GetAll:
 1174              	.LFB13:
 656:Generated_Source\PSoC4/USBUART_cdc.c **** 
 657:Generated_Source\PSoC4/USBUART_cdc.c **** 
 658:Generated_Source\PSoC4/USBUART_cdc.c **** /*******************************************************************************
 659:Generated_Source\PSoC4/USBUART_cdc.c **** * Function Name: USBUART_GetAll
 660:Generated_Source\PSoC4/USBUART_cdc.c **** ****************************************************************************//**
 661:Generated_Source\PSoC4/USBUART_cdc.c **** *
 662:Generated_Source\PSoC4/USBUART_cdc.c **** *  This function gets all bytes of received data from the input buffer and
 663:Generated_Source\PSoC4/USBUART_cdc.c **** *  places them into a specified data array. The
 664:Generated_Source\PSoC4/USBUART_cdc.c **** *  USBUART_DataIsReady() API should be called first, to be sure
 665:Generated_Source\PSoC4/USBUART_cdc.c **** *  that data is received from the host.
 666:Generated_Source\PSoC4/USBUART_cdc.c **** *
 667:Generated_Source\PSoC4/USBUART_cdc.c **** *  \param pData: Pointer to the data array where data will be placed.
 668:Generated_Source\PSoC4/USBUART_cdc.c **** *
 669:Generated_Source\PSoC4/USBUART_cdc.c **** * \return
 670:Generated_Source\PSoC4/USBUART_cdc.c **** *  Number of bytes received. The maximum amount of the received at a time
 671:Generated_Source\PSoC4/USBUART_cdc.c **** *  data is 64 bytes.
 672:Generated_Source\PSoC4/USBUART_cdc.c **** *
 673:Generated_Source\PSoC4/USBUART_cdc.c **** * \globalvars
 674:Generated_Source\PSoC4/USBUART_cdc.c **** *   - \ref USBUART_cdcDataOutEp: CDC OUT endpoint number used.
 675:Generated_Source\PSoC4/USBUART_cdc.c **** *   - \ref USBUART_EP[].bufferSize: EP max packet size is used as a
 676:Generated_Source\PSoC4/USBUART_cdc.c **** *     length to read all data from the EP buffer.
 677:Generated_Source\PSoC4/USBUART_cdc.c **** *
 678:Generated_Source\PSoC4/USBUART_cdc.c **** * \reentrant
 679:Generated_Source\PSoC4/USBUART_cdc.c **** *  No.
 680:Generated_Source\PSoC4/USBUART_cdc.c **** *
 681:Generated_Source\PSoC4/USBUART_cdc.c **** *******************************************************************************/
 682:Generated_Source\PSoC4/USBUART_cdc.c **** uint16 USBUART_GetAll(uint8* pData) 
 683:Generated_Source\PSoC4/USBUART_cdc.c **** {
 1175              		.loc 1 683 0
 1176              		.cfi_startproc
 1177              		@ args = 0, pretend = 0, frame = 16
 1178              		@ frame_needed = 1, uses_anonymous_args = 0
ARM GAS  C:\Users\HPz420\AppData\Local\Temp\ccOuTLU7.s 			page 34


 1179 0000 90B5     		push	{r4, r7, lr}
 1180              		.cfi_def_cfa_offset 12
 1181              		.cfi_offset 4, -12
 1182              		.cfi_offset 7, -8
 1183              		.cfi_offset 14, -4
 1184 0002 85B0     		sub	sp, sp, #20
 1185              		.cfi_def_cfa_offset 32
 1186 0004 00AF     		add	r7, sp, #0
 1187              		.cfi_def_cfa_register 7
 1188 0006 7860     		str	r0, [r7, #4]
 684:Generated_Source\PSoC4/USBUART_cdc.c ****     uint8 epNumber = USBUART_cdcDataOutEp[USBUART_activeCom];
 1189              		.loc 1 684 0
 1190 0008 124B     		ldr	r3, .L72
 1191 000a 1B78     		ldrb	r3, [r3]
 1192 000c 1900     		movs	r1, r3
 1193 000e 0F23     		movs	r3, #15
 1194 0010 FB18     		adds	r3, r7, r3
 1195 0012 114A     		ldr	r2, .L72+4
 1196 0014 525C     		ldrb	r2, [r2, r1]
 1197 0016 1A70     		strb	r2, [r3]
 685:Generated_Source\PSoC4/USBUART_cdc.c ****     uint16 dataLength;
 686:Generated_Source\PSoC4/USBUART_cdc.c **** 
 687:Generated_Source\PSoC4/USBUART_cdc.c ****     /* Read data from OUT endpoint buffer. */
 688:Generated_Source\PSoC4/USBUART_cdc.c ****     dataLength = USBUART_ReadOutEP(epNumber, pData, USBUART_EP[epNumber].bufferSize);
 1198              		.loc 1 688 0
 1199 0018 0F23     		movs	r3, #15
 1200 001a FB18     		adds	r3, r7, r3
 1201 001c 1A78     		ldrb	r2, [r3]
 1202 001e 0F49     		ldr	r1, .L72+8
 1203 0020 1300     		movs	r3, r2
 1204 0022 5B00     		lsls	r3, r3, #1
 1205 0024 9B18     		adds	r3, r3, r2
 1206 0026 9B00     		lsls	r3, r3, #2
 1207 0028 CB18     		adds	r3, r1, r3
 1208 002a 0833     		adds	r3, r3, #8
 1209 002c 1B88     		ldrh	r3, [r3]
 1210 002e 9AB2     		uxth	r2, r3
 1211 0030 0C23     		movs	r3, #12
 1212 0032 FC18     		adds	r4, r7, r3
 1213 0034 7968     		ldr	r1, [r7, #4]
 1214 0036 0F23     		movs	r3, #15
 1215 0038 FB18     		adds	r3, r7, r3
 1216 003a 1B78     		ldrb	r3, [r3]
 1217 003c 1800     		movs	r0, r3
 1218 003e FFF7FEFF 		bl	USBUART_ReadOutEP
 1219 0042 0300     		movs	r3, r0
 1220 0044 2380     		strh	r3, [r4]
 689:Generated_Source\PSoC4/USBUART_cdc.c **** 
 690:Generated_Source\PSoC4/USBUART_cdc.c **** #if (USBUART_EP_MANAGEMENT_DMA_MANUAL)
 691:Generated_Source\PSoC4/USBUART_cdc.c ****     /* Wait until DMA complete transferring data from OUT endpoint buffer. */
 692:Generated_Source\PSoC4/USBUART_cdc.c ****     while (USBUART_OUT_BUFFER_FULL == USBUART_GetEPState(epNumber))
 693:Generated_Source\PSoC4/USBUART_cdc.c ****     {
 694:Generated_Source\PSoC4/USBUART_cdc.c ****     }
 695:Generated_Source\PSoC4/USBUART_cdc.c **** 
 696:Generated_Source\PSoC4/USBUART_cdc.c ****     /* Enable OUT endpoint to communicate with host. */
 697:Generated_Source\PSoC4/USBUART_cdc.c ****     USBUART_EnableOutEP(epNumber);
 698:Generated_Source\PSoC4/USBUART_cdc.c **** #endif /* (USBUART_EP_MANAGEMENT_DMA_MANUAL) */
ARM GAS  C:\Users\HPz420\AppData\Local\Temp\ccOuTLU7.s 			page 35


 699:Generated_Source\PSoC4/USBUART_cdc.c **** 
 700:Generated_Source\PSoC4/USBUART_cdc.c ****     return (dataLength);
 1221              		.loc 1 700 0
 1222 0046 0C23     		movs	r3, #12
 1223 0048 FB18     		adds	r3, r7, r3
 1224 004a 1B88     		ldrh	r3, [r3]
 701:Generated_Source\PSoC4/USBUART_cdc.c **** }
 1225              		.loc 1 701 0
 1226 004c 1800     		movs	r0, r3
 1227 004e BD46     		mov	sp, r7
 1228 0050 05B0     		add	sp, sp, #20
 1229              		@ sp needed
 1230 0052 90BD     		pop	{r4, r7, pc}
 1231              	.L73:
 1232              		.align	2
 1233              	.L72:
 1234 0054 00000000 		.word	USBUART_activeCom
 1235 0058 00000000 		.word	USBUART_cdcDataOutEp
 1236 005c 00000000 		.word	USBUART_EP
 1237              		.cfi_endproc
 1238              	.LFE13:
 1239              		.size	USBUART_GetAll, .-USBUART_GetAll
 1240              		.section	.text.USBUART_GetChar,"ax",%progbits
 1241              		.align	2
 1242              		.global	USBUART_GetChar
 1243              		.code	16
 1244              		.thumb_func
 1245              		.type	USBUART_GetChar, %function
 1246              	USBUART_GetChar:
 1247              	.LFB14:
 702:Generated_Source\PSoC4/USBUART_cdc.c **** 
 703:Generated_Source\PSoC4/USBUART_cdc.c **** 
 704:Generated_Source\PSoC4/USBUART_cdc.c **** /***************************************************************************
 705:Generated_Source\PSoC4/USBUART_cdc.c **** * Function Name: USBUART_GetChar
 706:Generated_Source\PSoC4/USBUART_cdc.c **** ************************************************************************//**
 707:Generated_Source\PSoC4/USBUART_cdc.c **** *
 708:Generated_Source\PSoC4/USBUART_cdc.c **** *  This function reads one byte of received data from the buffer. If more than
 709:Generated_Source\PSoC4/USBUART_cdc.c **** *  one byte has been received from the host, the rest of the data will be lost.
 710:Generated_Source\PSoC4/USBUART_cdc.c **** *
 711:Generated_Source\PSoC4/USBUART_cdc.c **** * \return
 712:Generated_Source\PSoC4/USBUART_cdc.c **** *  Received one character.
 713:Generated_Source\PSoC4/USBUART_cdc.c **** *
 714:Generated_Source\PSoC4/USBUART_cdc.c **** * \globalvars
 715:Generated_Source\PSoC4/USBUART_cdc.c **** *   USBUART_cdcDataOutEp: CDC OUT endpoint number used.
 716:Generated_Source\PSoC4/USBUART_cdc.c **** *
 717:Generated_Source\PSoC4/USBUART_cdc.c **** * \reentrant
 718:Generated_Source\PSoC4/USBUART_cdc.c **** *  No.
 719:Generated_Source\PSoC4/USBUART_cdc.c **** *
 720:Generated_Source\PSoC4/USBUART_cdc.c **** ***************************************************************************/
 721:Generated_Source\PSoC4/USBUART_cdc.c **** uint8 USBUART_GetChar(void) 
 722:Generated_Source\PSoC4/USBUART_cdc.c **** {
 1248              		.loc 1 722 0
 1249              		.cfi_startproc
 1250              		@ args = 0, pretend = 0, frame = 8
 1251              		@ frame_needed = 1, uses_anonymous_args = 0
 1252 0000 80B5     		push	{r7, lr}
 1253              		.cfi_def_cfa_offset 8
ARM GAS  C:\Users\HPz420\AppData\Local\Temp\ccOuTLU7.s 			page 36


 1254              		.cfi_offset 7, -8
 1255              		.cfi_offset 14, -4
 1256 0002 82B0     		sub	sp, sp, #8
 1257              		.cfi_def_cfa_offset 16
 1258 0004 00AF     		add	r7, sp, #0
 1259              		.cfi_def_cfa_register 7
 723:Generated_Source\PSoC4/USBUART_cdc.c ****      uint8 rxData;
 724:Generated_Source\PSoC4/USBUART_cdc.c ****      uint8 epNumber = USBUART_cdcDataOutEp[USBUART_activeCom];
 1260              		.loc 1 724 0
 1261 0006 0A4B     		ldr	r3, .L76
 1262 0008 1B78     		ldrb	r3, [r3]
 1263 000a 1900     		movs	r1, r3
 1264 000c FB1D     		adds	r3, r7, #7
 1265 000e 094A     		ldr	r2, .L76+4
 1266 0010 525C     		ldrb	r2, [r2, r1]
 1267 0012 1A70     		strb	r2, [r3]
 725:Generated_Source\PSoC4/USBUART_cdc.c **** 
 726:Generated_Source\PSoC4/USBUART_cdc.c ****     (void) USBUART_ReadOutEP(epNumber, &rxData, 1u);
 1268              		.loc 1 726 0
 1269 0014 B91D     		adds	r1, r7, #6
 1270 0016 FB1D     		adds	r3, r7, #7
 1271 0018 1B78     		ldrb	r3, [r3]
 1272 001a 0122     		movs	r2, #1
 1273 001c 1800     		movs	r0, r3
 1274 001e FFF7FEFF 		bl	USBUART_ReadOutEP
 727:Generated_Source\PSoC4/USBUART_cdc.c **** 
 728:Generated_Source\PSoC4/USBUART_cdc.c **** #if (USBUART_EP_MANAGEMENT_DMA_MANUAL)
 729:Generated_Source\PSoC4/USBUART_cdc.c ****     /* Wait until DMA complete transferring data from OUT endpoint buffer. */
 730:Generated_Source\PSoC4/USBUART_cdc.c ****     while (USBUART_OUT_BUFFER_FULL == USBUART_GetEPState(epNumber))
 731:Generated_Source\PSoC4/USBUART_cdc.c ****     {
 732:Generated_Source\PSoC4/USBUART_cdc.c ****     }
 733:Generated_Source\PSoC4/USBUART_cdc.c **** 
 734:Generated_Source\PSoC4/USBUART_cdc.c ****     /* Enable OUT endpoint to communicate with host. */
 735:Generated_Source\PSoC4/USBUART_cdc.c ****     USBUART_EnableOutEP(epNumber);
 736:Generated_Source\PSoC4/USBUART_cdc.c **** #endif /* (USBUART_EP_MANAGEMENT_DMA_MANUAL) */
 737:Generated_Source\PSoC4/USBUART_cdc.c **** 
 738:Generated_Source\PSoC4/USBUART_cdc.c ****     return (rxData);
 1275              		.loc 1 738 0
 1276 0022 BB1D     		adds	r3, r7, #6
 1277 0024 1B78     		ldrb	r3, [r3]
 739:Generated_Source\PSoC4/USBUART_cdc.c **** }
 1278              		.loc 1 739 0
 1279 0026 1800     		movs	r0, r3
 1280 0028 BD46     		mov	sp, r7
 1281 002a 02B0     		add	sp, sp, #8
 1282              		@ sp needed
 1283 002c 80BD     		pop	{r7, pc}
 1284              	.L77:
 1285 002e C046     		.align	2
 1286              	.L76:
 1287 0030 00000000 		.word	USBUART_activeCom
 1288 0034 00000000 		.word	USBUART_cdcDataOutEp
 1289              		.cfi_endproc
 1290              	.LFE14:
 1291              		.size	USBUART_GetChar, .-USBUART_GetChar
 1292              		.section	.text.USBUART_IsLineChanged,"ax",%progbits
 1293              		.align	2
ARM GAS  C:\Users\HPz420\AppData\Local\Temp\ccOuTLU7.s 			page 37


 1294              		.global	USBUART_IsLineChanged
 1295              		.code	16
 1296              		.thumb_func
 1297              		.type	USBUART_IsLineChanged, %function
 1298              	USBUART_IsLineChanged:
 1299              	.LFB15:
 740:Generated_Source\PSoC4/USBUART_cdc.c **** 
 741:Generated_Source\PSoC4/USBUART_cdc.c **** 
 742:Generated_Source\PSoC4/USBUART_cdc.c **** /*******************************************************************************
 743:Generated_Source\PSoC4/USBUART_cdc.c **** * Function Name: USBUART_IsLineChanged
 744:Generated_Source\PSoC4/USBUART_cdc.c **** ****************************************************************************//**
 745:Generated_Source\PSoC4/USBUART_cdc.c **** *
 746:Generated_Source\PSoC4/USBUART_cdc.c **** *  This function returns clear on read status of the line. It returns not zero
 747:Generated_Source\PSoC4/USBUART_cdc.c **** *  value when the host sends updated coding or control information to the
 748:Generated_Source\PSoC4/USBUART_cdc.c **** *  device. The USBUART_GetDTERate(), USBUART_GetCharFormat()
 749:Generated_Source\PSoC4/USBUART_cdc.c **** *  or USBUART_GetParityType() or USBUART_GetDataBits() API
 750:Generated_Source\PSoC4/USBUART_cdc.c **** *  should be called to read data coding information.
 751:Generated_Source\PSoC4/USBUART_cdc.c **** *  The USBUART_GetLineControl() API should be called to read line
 752:Generated_Source\PSoC4/USBUART_cdc.c **** *  control information.
 753:Generated_Source\PSoC4/USBUART_cdc.c **** *
 754:Generated_Source\PSoC4/USBUART_cdc.c **** * \return
 755:Generated_Source\PSoC4/USBUART_cdc.c **** *  If SET_LINE_CODING or CDC_SET_CONTROL_LINE_STATE requests are received, it
 756:Generated_Source\PSoC4/USBUART_cdc.c **** *  returns a non-zero value. Otherwise, it returns zero.
 757:Generated_Source\PSoC4/USBUART_cdc.c **** *  Return Value                 | Description
 758:Generated_Source\PSoC4/USBUART_cdc.c **** *  -----------------------------|--------------------------
 759:Generated_Source\PSoC4/USBUART_cdc.c **** *  USBUART_LINE_CODING_CHANGED  | Line coding changed
 760:Generated_Source\PSoC4/USBUART_cdc.c **** *  USBUART_LINE_CONTROL_CHANGED |   Line control changed
 761:Generated_Source\PSoC4/USBUART_cdc.c **** *
 762:Generated_Source\PSoC4/USBUART_cdc.c **** * \globalvars
 763:Generated_Source\PSoC4/USBUART_cdc.c **** *  - \ref USBUART_transferState: it is checked to be sure then OUT
 764:Generated_Source\PSoC4/USBUART_cdc.c **** *    data phase has been complete, and data written to the lineCoding or
 765:Generated_Source\PSoC4/USBUART_cdc.c **** *    Control Bitmap buffer.
 766:Generated_Source\PSoC4/USBUART_cdc.c **** *  - \ref USBUART_linesChanged: used as a flag to be aware that
 767:Generated_Source\PSoC4/USBUART_cdc.c **** *    Host has been sent request for changing Line Coding or Control Bitmap.
 768:Generated_Source\PSoC4/USBUART_cdc.c **** *
 769:Generated_Source\PSoC4/USBUART_cdc.c **** *******************************************************************************/
 770:Generated_Source\PSoC4/USBUART_cdc.c **** uint8 USBUART_IsLineChanged(void) 
 771:Generated_Source\PSoC4/USBUART_cdc.c **** {
 1300              		.loc 1 771 0
 1301              		.cfi_startproc
 1302              		@ args = 0, pretend = 0, frame = 8
 1303              		@ frame_needed = 1, uses_anonymous_args = 0
 1304 0000 80B5     		push	{r7, lr}
 1305              		.cfi_def_cfa_offset 8
 1306              		.cfi_offset 7, -8
 1307              		.cfi_offset 14, -4
 1308 0002 82B0     		sub	sp, sp, #8
 1309              		.cfi_def_cfa_offset 16
 1310 0004 00AF     		add	r7, sp, #0
 1311              		.cfi_def_cfa_register 7
 772:Generated_Source\PSoC4/USBUART_cdc.c ****     uint8 state = 0u;
 1312              		.loc 1 772 0
 1313 0006 FB1D     		adds	r3, r7, #7
 1314 0008 0022     		movs	r2, #0
 1315 000a 1A70     		strb	r2, [r3]
 773:Generated_Source\PSoC4/USBUART_cdc.c **** 
 774:Generated_Source\PSoC4/USBUART_cdc.c ****     /* transferState is checked to be sure then OUT data phase has been complete */
ARM GAS  C:\Users\HPz420\AppData\Local\Temp\ccOuTLU7.s 			page 38


 775:Generated_Source\PSoC4/USBUART_cdc.c ****     if (USBUART_transferState == USBUART_TRANS_STATE_IDLE)
 1316              		.loc 1 775 0
 1317 000c 0F4B     		ldr	r3, .L81
 1318 000e 1B78     		ldrb	r3, [r3]
 1319 0010 DBB2     		uxtb	r3, r3
 1320 0012 002B     		cmp	r3, #0
 1321 0014 14D1     		bne	.L79
 776:Generated_Source\PSoC4/USBUART_cdc.c ****     {
 777:Generated_Source\PSoC4/USBUART_cdc.c ****         if (USBUART_linesChanged[USBUART_activeCom] != 0u)
 1322              		.loc 1 777 0
 1323 0016 0E4B     		ldr	r3, .L81+4
 1324 0018 1B78     		ldrb	r3, [r3]
 1325 001a 1A00     		movs	r2, r3
 1326 001c 0D4B     		ldr	r3, .L81+8
 1327 001e 9B5C     		ldrb	r3, [r3, r2]
 1328 0020 DBB2     		uxtb	r3, r3
 1329 0022 002B     		cmp	r3, #0
 1330 0024 0CD0     		beq	.L79
 778:Generated_Source\PSoC4/USBUART_cdc.c ****         {
 779:Generated_Source\PSoC4/USBUART_cdc.c ****             state = USBUART_linesChanged[USBUART_activeCom];
 1331              		.loc 1 779 0
 1332 0026 0A4B     		ldr	r3, .L81+4
 1333 0028 1B78     		ldrb	r3, [r3]
 1334 002a 1900     		movs	r1, r3
 1335 002c FB1D     		adds	r3, r7, #7
 1336 002e 094A     		ldr	r2, .L81+8
 1337 0030 525C     		ldrb	r2, [r2, r1]
 1338 0032 1A70     		strb	r2, [r3]
 780:Generated_Source\PSoC4/USBUART_cdc.c ****             USBUART_linesChanged[USBUART_activeCom] = 0u;
 1339              		.loc 1 780 0
 1340 0034 064B     		ldr	r3, .L81+4
 1341 0036 1B78     		ldrb	r3, [r3]
 1342 0038 1A00     		movs	r2, r3
 1343 003a 064B     		ldr	r3, .L81+8
 1344 003c 0021     		movs	r1, #0
 1345 003e 9954     		strb	r1, [r3, r2]
 1346              	.L79:
 781:Generated_Source\PSoC4/USBUART_cdc.c ****         }
 782:Generated_Source\PSoC4/USBUART_cdc.c ****     }
 783:Generated_Source\PSoC4/USBUART_cdc.c **** 
 784:Generated_Source\PSoC4/USBUART_cdc.c ****     return (state);
 1347              		.loc 1 784 0
 1348 0040 FB1D     		adds	r3, r7, #7
 1349 0042 1B78     		ldrb	r3, [r3]
 785:Generated_Source\PSoC4/USBUART_cdc.c **** }
 1350              		.loc 1 785 0
 1351 0044 1800     		movs	r0, r3
 1352 0046 BD46     		mov	sp, r7
 1353 0048 02B0     		add	sp, sp, #8
 1354              		@ sp needed
 1355 004a 80BD     		pop	{r7, pc}
 1356              	.L82:
 1357              		.align	2
 1358              	.L81:
 1359 004c 00000000 		.word	USBUART_transferState
 1360 0050 00000000 		.word	USBUART_activeCom
 1361 0054 00000000 		.word	USBUART_linesChanged
ARM GAS  C:\Users\HPz420\AppData\Local\Temp\ccOuTLU7.s 			page 39


 1362              		.cfi_endproc
 1363              	.LFE15:
 1364              		.size	USBUART_IsLineChanged, .-USBUART_IsLineChanged
 1365              		.section	.text.USBUART_GetDTERate,"ax",%progbits
 1366              		.align	2
 1367              		.global	USBUART_GetDTERate
 1368              		.code	16
 1369              		.thumb_func
 1370              		.type	USBUART_GetDTERate, %function
 1371              	USBUART_GetDTERate:
 1372              	.LFB16:
 786:Generated_Source\PSoC4/USBUART_cdc.c **** 
 787:Generated_Source\PSoC4/USBUART_cdc.c **** 
 788:Generated_Source\PSoC4/USBUART_cdc.c **** /***************************************************************************
 789:Generated_Source\PSoC4/USBUART_cdc.c **** * Function Name: USBUART_GetDTERate
 790:Generated_Source\PSoC4/USBUART_cdc.c **** ************************************************************************//**
 791:Generated_Source\PSoC4/USBUART_cdc.c **** *
 792:Generated_Source\PSoC4/USBUART_cdc.c **** *  This function returns the data terminal rate set for this port in bits
 793:Generated_Source\PSoC4/USBUART_cdc.c **** *  per second.
 794:Generated_Source\PSoC4/USBUART_cdc.c **** *
 795:Generated_Source\PSoC4/USBUART_cdc.c **** * \return
 796:Generated_Source\PSoC4/USBUART_cdc.c **** *  Returns a uint32 value of the data rate in bits per second.
 797:Generated_Source\PSoC4/USBUART_cdc.c **** *
 798:Generated_Source\PSoC4/USBUART_cdc.c **** * \globalvars
 799:Generated_Source\PSoC4/USBUART_cdc.c **** *  USBUART_linesCoding: First four bytes converted to uint32
 800:Generated_Source\PSoC4/USBUART_cdc.c **** *    depend on compiler, and returned as a data rate.
 801:Generated_Source\PSoC4/USBUART_cdc.c **** *
 802:Generated_Source\PSoC4/USBUART_cdc.c **** *******************************************************************************/
 803:Generated_Source\PSoC4/USBUART_cdc.c **** uint32 USBUART_GetDTERate(void) 
 804:Generated_Source\PSoC4/USBUART_cdc.c **** {
 1373              		.loc 1 804 0
 1374              		.cfi_startproc
 1375              		@ args = 0, pretend = 0, frame = 8
 1376              		@ frame_needed = 1, uses_anonymous_args = 0
 1377 0000 80B5     		push	{r7, lr}
 1378              		.cfi_def_cfa_offset 8
 1379              		.cfi_offset 7, -8
 1380              		.cfi_offset 14, -4
 1381 0002 82B0     		sub	sp, sp, #8
 1382              		.cfi_def_cfa_offset 16
 1383 0004 00AF     		add	r7, sp, #0
 1384              		.cfi_def_cfa_register 7
 805:Generated_Source\PSoC4/USBUART_cdc.c ****     uint32 rate;
 806:Generated_Source\PSoC4/USBUART_cdc.c **** 
 807:Generated_Source\PSoC4/USBUART_cdc.c ****     rate = USBUART_linesCoding[USBUART_activeCom][USBUART_LINE_CODING_RATE + 3u];
 1385              		.loc 1 807 0
 1386 0006 1E4B     		ldr	r3, .L85
 1387 0008 1B78     		ldrb	r3, [r3]
 1388 000a 1900     		movs	r1, r3
 1389 000c 1D4A     		ldr	r2, .L85+4
 1390 000e 0B00     		movs	r3, r1
 1391 0010 DB00     		lsls	r3, r3, #3
 1392 0012 5B1A     		subs	r3, r3, r1
 1393 0014 D318     		adds	r3, r2, r3
 1394 0016 0333     		adds	r3, r3, #3
 1395 0018 1B78     		ldrb	r3, [r3]
 1396 001a DBB2     		uxtb	r3, r3
ARM GAS  C:\Users\HPz420\AppData\Local\Temp\ccOuTLU7.s 			page 40


 1397 001c 7B60     		str	r3, [r7, #4]
 808:Generated_Source\PSoC4/USBUART_cdc.c ****     rate = (rate << 8u) | USBUART_linesCoding[USBUART_activeCom][USBUART_LINE_CODING_RATE + 2u];
 1398              		.loc 1 808 0
 1399 001e 7B68     		ldr	r3, [r7, #4]
 1400 0020 1A02     		lsls	r2, r3, #8
 1401 0022 174B     		ldr	r3, .L85
 1402 0024 1B78     		ldrb	r3, [r3]
 1403 0026 1800     		movs	r0, r3
 1404 0028 1649     		ldr	r1, .L85+4
 1405 002a 0300     		movs	r3, r0
 1406 002c DB00     		lsls	r3, r3, #3
 1407 002e 1B1A     		subs	r3, r3, r0
 1408 0030 CB18     		adds	r3, r1, r3
 1409 0032 0233     		adds	r3, r3, #2
 1410 0034 1B78     		ldrb	r3, [r3]
 1411 0036 DBB2     		uxtb	r3, r3
 1412 0038 1343     		orrs	r3, r2
 1413 003a 7B60     		str	r3, [r7, #4]
 809:Generated_Source\PSoC4/USBUART_cdc.c ****     rate = (rate << 8u) | USBUART_linesCoding[USBUART_activeCom][USBUART_LINE_CODING_RATE + 1u];
 1414              		.loc 1 809 0
 1415 003c 7B68     		ldr	r3, [r7, #4]
 1416 003e 1A02     		lsls	r2, r3, #8
 1417 0040 0F4B     		ldr	r3, .L85
 1418 0042 1B78     		ldrb	r3, [r3]
 1419 0044 1800     		movs	r0, r3
 1420 0046 0F49     		ldr	r1, .L85+4
 1421 0048 0300     		movs	r3, r0
 1422 004a DB00     		lsls	r3, r3, #3
 1423 004c 1B1A     		subs	r3, r3, r0
 1424 004e CB18     		adds	r3, r1, r3
 1425 0050 0133     		adds	r3, r3, #1
 1426 0052 1B78     		ldrb	r3, [r3]
 1427 0054 DBB2     		uxtb	r3, r3
 1428 0056 1343     		orrs	r3, r2
 1429 0058 7B60     		str	r3, [r7, #4]
 810:Generated_Source\PSoC4/USBUART_cdc.c ****     rate = (rate << 8u) | USBUART_linesCoding[USBUART_activeCom][USBUART_LINE_CODING_RATE];
 1430              		.loc 1 810 0
 1431 005a 7B68     		ldr	r3, [r7, #4]
 1432 005c 1A02     		lsls	r2, r3, #8
 1433 005e 084B     		ldr	r3, .L85
 1434 0060 1B78     		ldrb	r3, [r3]
 1435 0062 1800     		movs	r0, r3
 1436 0064 0749     		ldr	r1, .L85+4
 1437 0066 0300     		movs	r3, r0
 1438 0068 DB00     		lsls	r3, r3, #3
 1439 006a 1B1A     		subs	r3, r3, r0
 1440 006c 5B5C     		ldrb	r3, [r3, r1]
 1441 006e DBB2     		uxtb	r3, r3
 1442 0070 1343     		orrs	r3, r2
 1443 0072 7B60     		str	r3, [r7, #4]
 811:Generated_Source\PSoC4/USBUART_cdc.c **** 
 812:Generated_Source\PSoC4/USBUART_cdc.c ****     return (rate);
 1444              		.loc 1 812 0
 1445 0074 7B68     		ldr	r3, [r7, #4]
 813:Generated_Source\PSoC4/USBUART_cdc.c **** }
 1446              		.loc 1 813 0
 1447 0076 1800     		movs	r0, r3
ARM GAS  C:\Users\HPz420\AppData\Local\Temp\ccOuTLU7.s 			page 41


 1448 0078 BD46     		mov	sp, r7
 1449 007a 02B0     		add	sp, sp, #8
 1450              		@ sp needed
 1451 007c 80BD     		pop	{r7, pc}
 1452              	.L86:
 1453 007e C046     		.align	2
 1454              	.L85:
 1455 0080 00000000 		.word	USBUART_activeCom
 1456 0084 00000000 		.word	USBUART_linesCoding
 1457              		.cfi_endproc
 1458              	.LFE16:
 1459              		.size	USBUART_GetDTERate, .-USBUART_GetDTERate
 1460              		.section	.text.USBUART_GetCharFormat,"ax",%progbits
 1461              		.align	2
 1462              		.global	USBUART_GetCharFormat
 1463              		.code	16
 1464              		.thumb_func
 1465              		.type	USBUART_GetCharFormat, %function
 1466              	USBUART_GetCharFormat:
 1467              	.LFB17:
 814:Generated_Source\PSoC4/USBUART_cdc.c **** 
 815:Generated_Source\PSoC4/USBUART_cdc.c **** 
 816:Generated_Source\PSoC4/USBUART_cdc.c **** /*******************************************************************************
 817:Generated_Source\PSoC4/USBUART_cdc.c **** * Function Name: USBUART_GetCharFormat
 818:Generated_Source\PSoC4/USBUART_cdc.c **** ****************************************************************************//**
 819:Generated_Source\PSoC4/USBUART_cdc.c **** *
 820:Generated_Source\PSoC4/USBUART_cdc.c **** *  Returns the number of stop bits.
 821:Generated_Source\PSoC4/USBUART_cdc.c **** *
 822:Generated_Source\PSoC4/USBUART_cdc.c **** * \return
 823:Generated_Source\PSoC4/USBUART_cdc.c **** *  Returns the number of stop bits.
 824:Generated_Source\PSoC4/USBUART_cdc.c **** *  Return               |Value Description
 825:Generated_Source\PSoC4/USBUART_cdc.c **** *  ---------------------|-------------------
 826:Generated_Source\PSoC4/USBUART_cdc.c **** *  USBUART_1_STOPBIT    | 1 stop bit
 827:Generated_Source\PSoC4/USBUART_cdc.c **** *  USBUART_1_5_STOPBITS | 1,5 stop bits
 828:Generated_Source\PSoC4/USBUART_cdc.c **** *  USBUART_2_STOPBITS   | 2 stop bits
 829:Generated_Source\PSoC4/USBUART_cdc.c **** *
 830:Generated_Source\PSoC4/USBUART_cdc.c **** *
 831:Generated_Source\PSoC4/USBUART_cdc.c **** * \globalvars
 832:Generated_Source\PSoC4/USBUART_cdc.c **** *  USBUART_linesCoding: used to get a parameter.
 833:Generated_Source\PSoC4/USBUART_cdc.c **** *
 834:Generated_Source\PSoC4/USBUART_cdc.c **** *******************************************************************************/
 835:Generated_Source\PSoC4/USBUART_cdc.c **** uint8 USBUART_GetCharFormat(void) 
 836:Generated_Source\PSoC4/USBUART_cdc.c **** {
 1468              		.loc 1 836 0
 1469              		.cfi_startproc
 1470              		@ args = 0, pretend = 0, frame = 0
 1471              		@ frame_needed = 1, uses_anonymous_args = 0
 1472 0000 80B5     		push	{r7, lr}
 1473              		.cfi_def_cfa_offset 8
 1474              		.cfi_offset 7, -8
 1475              		.cfi_offset 14, -4
 1476 0002 00AF     		add	r7, sp, #0
 1477              		.cfi_def_cfa_register 7
 837:Generated_Source\PSoC4/USBUART_cdc.c ****     return (USBUART_linesCoding[USBUART_activeCom][USBUART_LINE_CODING_STOP_BITS]);
 1478              		.loc 1 837 0
 1479 0004 064B     		ldr	r3, .L89
 1480 0006 1B78     		ldrb	r3, [r3]
ARM GAS  C:\Users\HPz420\AppData\Local\Temp\ccOuTLU7.s 			page 42


 1481 0008 1900     		movs	r1, r3
 1482 000a 064A     		ldr	r2, .L89+4
 1483 000c 0B00     		movs	r3, r1
 1484 000e DB00     		lsls	r3, r3, #3
 1485 0010 5B1A     		subs	r3, r3, r1
 1486 0012 D318     		adds	r3, r2, r3
 1487 0014 0433     		adds	r3, r3, #4
 1488 0016 1B78     		ldrb	r3, [r3]
 1489 0018 DBB2     		uxtb	r3, r3
 838:Generated_Source\PSoC4/USBUART_cdc.c **** }
 1490              		.loc 1 838 0
 1491 001a 1800     		movs	r0, r3
 1492 001c BD46     		mov	sp, r7
 1493              		@ sp needed
 1494 001e 80BD     		pop	{r7, pc}
 1495              	.L90:
 1496              		.align	2
 1497              	.L89:
 1498 0020 00000000 		.word	USBUART_activeCom
 1499 0024 00000000 		.word	USBUART_linesCoding
 1500              		.cfi_endproc
 1501              	.LFE17:
 1502              		.size	USBUART_GetCharFormat, .-USBUART_GetCharFormat
 1503              		.section	.text.USBUART_GetParityType,"ax",%progbits
 1504              		.align	2
 1505              		.global	USBUART_GetParityType
 1506              		.code	16
 1507              		.thumb_func
 1508              		.type	USBUART_GetParityType, %function
 1509              	USBUART_GetParityType:
 1510              	.LFB18:
 839:Generated_Source\PSoC4/USBUART_cdc.c **** 
 840:Generated_Source\PSoC4/USBUART_cdc.c **** 
 841:Generated_Source\PSoC4/USBUART_cdc.c **** /*******************************************************************************
 842:Generated_Source\PSoC4/USBUART_cdc.c **** * Function Name: USBUART_GetParityType
 843:Generated_Source\PSoC4/USBUART_cdc.c **** ****************************************************************************//**
 844:Generated_Source\PSoC4/USBUART_cdc.c **** *
 845:Generated_Source\PSoC4/USBUART_cdc.c **** *  This function returns the parity type for the CDC port.
 846:Generated_Source\PSoC4/USBUART_cdc.c **** *
 847:Generated_Source\PSoC4/USBUART_cdc.c **** * \return
 848:Generated_Source\PSoC4/USBUART_cdc.c **** *  Returns the parity type.
 849:Generated_Source\PSoC4/USBUART_cdc.c **** *   Return               | Value Description
 850:Generated_Source\PSoC4/USBUART_cdc.c **** *  ----------------------|-------------------
 851:Generated_Source\PSoC4/USBUART_cdc.c **** *  USBUART_PARITY_NONE   | 1 stop bit
 852:Generated_Source\PSoC4/USBUART_cdc.c **** *  USBUART_PARITY_ODD    | 1,5 stop bits
 853:Generated_Source\PSoC4/USBUART_cdc.c **** *  USBUART_PARITY_EVEN   | 2 stop bits
 854:Generated_Source\PSoC4/USBUART_cdc.c **** *  USBUART_PARITY_MARK   | Mark
 855:Generated_Source\PSoC4/USBUART_cdc.c **** *  USBUART_PARITY_SPACE  | Space
 856:Generated_Source\PSoC4/USBUART_cdc.c **** *
 857:Generated_Source\PSoC4/USBUART_cdc.c **** * \globalvars
 858:Generated_Source\PSoC4/USBUART_cdc.c **** *  USBUART_linesCoding: used to get a parameter.
 859:Generated_Source\PSoC4/USBUART_cdc.c **** *
 860:Generated_Source\PSoC4/USBUART_cdc.c **** *******************************************************************************/
 861:Generated_Source\PSoC4/USBUART_cdc.c **** uint8 USBUART_GetParityType(void) 
 862:Generated_Source\PSoC4/USBUART_cdc.c **** {
 1511              		.loc 1 862 0
 1512              		.cfi_startproc
ARM GAS  C:\Users\HPz420\AppData\Local\Temp\ccOuTLU7.s 			page 43


 1513              		@ args = 0, pretend = 0, frame = 0
 1514              		@ frame_needed = 1, uses_anonymous_args = 0
 1515 0000 80B5     		push	{r7, lr}
 1516              		.cfi_def_cfa_offset 8
 1517              		.cfi_offset 7, -8
 1518              		.cfi_offset 14, -4
 1519 0002 00AF     		add	r7, sp, #0
 1520              		.cfi_def_cfa_register 7
 863:Generated_Source\PSoC4/USBUART_cdc.c ****     return (USBUART_linesCoding[USBUART_activeCom][USBUART_LINE_CODING_PARITY]);
 1521              		.loc 1 863 0
 1522 0004 064B     		ldr	r3, .L93
 1523 0006 1B78     		ldrb	r3, [r3]
 1524 0008 1900     		movs	r1, r3
 1525 000a 064A     		ldr	r2, .L93+4
 1526 000c 0B00     		movs	r3, r1
 1527 000e DB00     		lsls	r3, r3, #3
 1528 0010 5B1A     		subs	r3, r3, r1
 1529 0012 D318     		adds	r3, r2, r3
 1530 0014 0533     		adds	r3, r3, #5
 1531 0016 1B78     		ldrb	r3, [r3]
 1532 0018 DBB2     		uxtb	r3, r3
 864:Generated_Source\PSoC4/USBUART_cdc.c **** }
 1533              		.loc 1 864 0
 1534 001a 1800     		movs	r0, r3
 1535 001c BD46     		mov	sp, r7
 1536              		@ sp needed
 1537 001e 80BD     		pop	{r7, pc}
 1538              	.L94:
 1539              		.align	2
 1540              	.L93:
 1541 0020 00000000 		.word	USBUART_activeCom
 1542 0024 00000000 		.word	USBUART_linesCoding
 1543              		.cfi_endproc
 1544              	.LFE18:
 1545              		.size	USBUART_GetParityType, .-USBUART_GetParityType
 1546              		.section	.text.USBUART_GetDataBits,"ax",%progbits
 1547              		.align	2
 1548              		.global	USBUART_GetDataBits
 1549              		.code	16
 1550              		.thumb_func
 1551              		.type	USBUART_GetDataBits, %function
 1552              	USBUART_GetDataBits:
 1553              	.LFB19:
 865:Generated_Source\PSoC4/USBUART_cdc.c **** 
 866:Generated_Source\PSoC4/USBUART_cdc.c **** 
 867:Generated_Source\PSoC4/USBUART_cdc.c **** /***************************************************************************
 868:Generated_Source\PSoC4/USBUART_cdc.c **** * Function Name: USBUART_GetDataBits
 869:Generated_Source\PSoC4/USBUART_cdc.c **** ************************************************************************//**
 870:Generated_Source\PSoC4/USBUART_cdc.c **** *
 871:Generated_Source\PSoC4/USBUART_cdc.c **** *  This function returns the number of data bits for the CDC port.
 872:Generated_Source\PSoC4/USBUART_cdc.c **** *
 873:Generated_Source\PSoC4/USBUART_cdc.c **** * \return
 874:Generated_Source\PSoC4/USBUART_cdc.c **** *  Returns the number of data bits.
 875:Generated_Source\PSoC4/USBUART_cdc.c **** *  The number of data bits can be 5, 6, 7, 8 or 16.
 876:Generated_Source\PSoC4/USBUART_cdc.c **** *
 877:Generated_Source\PSoC4/USBUART_cdc.c **** * \globalvars
 878:Generated_Source\PSoC4/USBUART_cdc.c **** *  USBUART_linesCoding: used to get a parameter.
ARM GAS  C:\Users\HPz420\AppData\Local\Temp\ccOuTLU7.s 			page 44


 879:Generated_Source\PSoC4/USBUART_cdc.c **** *
 880:Generated_Source\PSoC4/USBUART_cdc.c **** *******************************************************************************/
 881:Generated_Source\PSoC4/USBUART_cdc.c **** uint8 USBUART_GetDataBits(void) 
 882:Generated_Source\PSoC4/USBUART_cdc.c **** {
 1554              		.loc 1 882 0
 1555              		.cfi_startproc
 1556              		@ args = 0, pretend = 0, frame = 0
 1557              		@ frame_needed = 1, uses_anonymous_args = 0
 1558 0000 80B5     		push	{r7, lr}
 1559              		.cfi_def_cfa_offset 8
 1560              		.cfi_offset 7, -8
 1561              		.cfi_offset 14, -4
 1562 0002 00AF     		add	r7, sp, #0
 1563              		.cfi_def_cfa_register 7
 883:Generated_Source\PSoC4/USBUART_cdc.c ****     return (USBUART_linesCoding[USBUART_activeCom][USBUART_LINE_CODING_DATA_BITS]);
 1564              		.loc 1 883 0
 1565 0004 064B     		ldr	r3, .L97
 1566 0006 1B78     		ldrb	r3, [r3]
 1567 0008 1900     		movs	r1, r3
 1568 000a 064A     		ldr	r2, .L97+4
 1569 000c 0B00     		movs	r3, r1
 1570 000e DB00     		lsls	r3, r3, #3
 1571 0010 5B1A     		subs	r3, r3, r1
 1572 0012 D318     		adds	r3, r2, r3
 1573 0014 0633     		adds	r3, r3, #6
 1574 0016 1B78     		ldrb	r3, [r3]
 1575 0018 DBB2     		uxtb	r3, r3
 884:Generated_Source\PSoC4/USBUART_cdc.c **** }
 1576              		.loc 1 884 0
 1577 001a 1800     		movs	r0, r3
 1578 001c BD46     		mov	sp, r7
 1579              		@ sp needed
 1580 001e 80BD     		pop	{r7, pc}
 1581              	.L98:
 1582              		.align	2
 1583              	.L97:
 1584 0020 00000000 		.word	USBUART_activeCom
 1585 0024 00000000 		.word	USBUART_linesCoding
 1586              		.cfi_endproc
 1587              	.LFE19:
 1588              		.size	USBUART_GetDataBits, .-USBUART_GetDataBits
 1589              		.section	.text.USBUART_GetLineControl,"ax",%progbits
 1590              		.align	2
 1591              		.global	USBUART_GetLineControl
 1592              		.code	16
 1593              		.thumb_func
 1594              		.type	USBUART_GetLineControl, %function
 1595              	USBUART_GetLineControl:
 1596              	.LFB20:
 885:Generated_Source\PSoC4/USBUART_cdc.c **** 
 886:Generated_Source\PSoC4/USBUART_cdc.c **** 
 887:Generated_Source\PSoC4/USBUART_cdc.c **** /***************************************************************************
 888:Generated_Source\PSoC4/USBUART_cdc.c **** * Function Name: USBUART_GetLineControl
 889:Generated_Source\PSoC4/USBUART_cdc.c **** ************************************************************************//**
 890:Generated_Source\PSoC4/USBUART_cdc.c **** *
 891:Generated_Source\PSoC4/USBUART_cdc.c **** *  This function returns Line control bitmap that the host sends to the
 892:Generated_Source\PSoC4/USBUART_cdc.c **** *  device.
ARM GAS  C:\Users\HPz420\AppData\Local\Temp\ccOuTLU7.s 			page 45


 893:Generated_Source\PSoC4/USBUART_cdc.c **** *
 894:Generated_Source\PSoC4/USBUART_cdc.c **** * \return
 895:Generated_Source\PSoC4/USBUART_cdc.c **** *  Returns Line control bitmap.
 896:Generated_Source\PSoC4/USBUART_cdc.c **** *  Return                   |Value Notes
 897:Generated_Source\PSoC4/USBUART_cdc.c **** *  -------------------------|-----------------------------------------------
 898:Generated_Source\PSoC4/USBUART_cdc.c **** *  USBUART_LINE_CONTROL_DTR |Indicates that a DTR signal is present. This signal corresponds to V.2
 899:Generated_Source\PSoC4/USBUART_cdc.c **** *  USBUART_LINE_CONTROL_RTS |Carrier control for half-duplex modems. This signal corresponds to V.2
 900:Generated_Source\PSoC4/USBUART_cdc.c **** *  RESERVED                 |The rest of the bits are reserved.
 901:Generated_Source\PSoC4/USBUART_cdc.c **** *
 902:Generated_Source\PSoC4/USBUART_cdc.c **** *  *Note* Some terminal emulation programs do not properly handle these
 903:Generated_Source\PSoC4/USBUART_cdc.c **** *  control signals. They update information about DTR and RTS state only
 904:Generated_Source\PSoC4/USBUART_cdc.c **** *  when the RTS signal changes the state.
 905:Generated_Source\PSoC4/USBUART_cdc.c **** *
 906:Generated_Source\PSoC4/USBUART_cdc.c **** * \globalvars
 907:Generated_Source\PSoC4/USBUART_cdc.c **** *  USBUART_linesControlBitmap: used to get a parameter.
 908:Generated_Source\PSoC4/USBUART_cdc.c **** *
 909:Generated_Source\PSoC4/USBUART_cdc.c **** *******************************************************************************/
 910:Generated_Source\PSoC4/USBUART_cdc.c **** uint16 USBUART_GetLineControl(void) 
 911:Generated_Source\PSoC4/USBUART_cdc.c **** {
 1597              		.loc 1 911 0
 1598              		.cfi_startproc
 1599              		@ args = 0, pretend = 0, frame = 0
 1600              		@ frame_needed = 1, uses_anonymous_args = 0
 1601 0000 80B5     		push	{r7, lr}
 1602              		.cfi_def_cfa_offset 8
 1603              		.cfi_offset 7, -8
 1604              		.cfi_offset 14, -4
 1605 0002 00AF     		add	r7, sp, #0
 1606              		.cfi_def_cfa_register 7
 912:Generated_Source\PSoC4/USBUART_cdc.c ****     return (USBUART_linesControlBitmap[USBUART_activeCom]);
 1607              		.loc 1 912 0
 1608 0004 044B     		ldr	r3, .L101
 1609 0006 1B78     		ldrb	r3, [r3]
 1610 0008 1A00     		movs	r2, r3
 1611 000a 044B     		ldr	r3, .L101+4
 1612 000c 5200     		lsls	r2, r2, #1
 1613 000e D35A     		ldrh	r3, [r2, r3]
 1614 0010 9BB2     		uxth	r3, r3
 913:Generated_Source\PSoC4/USBUART_cdc.c **** }
 1615              		.loc 1 913 0
 1616 0012 1800     		movs	r0, r3
 1617 0014 BD46     		mov	sp, r7
 1618              		@ sp needed
 1619 0016 80BD     		pop	{r7, pc}
 1620              	.L102:
 1621              		.align	2
 1622              	.L101:
 1623 0018 00000000 		.word	USBUART_activeCom
 1624 001c 00000000 		.word	USBUART_linesControlBitmap
 1625              		.cfi_endproc
 1626              	.LFE20:
 1627              		.size	USBUART_GetLineControl, .-USBUART_GetLineControl
 1628              		.section	.text.USBUART_SendSerialState,"ax",%progbits
 1629              		.align	2
 1630              		.global	USBUART_SendSerialState
 1631              		.code	16
 1632              		.thumb_func
ARM GAS  C:\Users\HPz420\AppData\Local\Temp\ccOuTLU7.s 			page 46


 1633              		.type	USBUART_SendSerialState, %function
 1634              	USBUART_SendSerialState:
 1635              	.LFB21:
 914:Generated_Source\PSoC4/USBUART_cdc.c **** 
 915:Generated_Source\PSoC4/USBUART_cdc.c **** 
 916:Generated_Source\PSoC4/USBUART_cdc.c **** /*******************************************************************************
 917:Generated_Source\PSoC4/USBUART_cdc.c **** * Function Name: USBUART_SendSerialState
 918:Generated_Source\PSoC4/USBUART_cdc.c **** ****************************************************************************//**
 919:Generated_Source\PSoC4/USBUART_cdc.c **** *
 920:Generated_Source\PSoC4/USBUART_cdc.c **** *  Sends the serial state notification to the host using the interrupt
 921:Generated_Source\PSoC4/USBUART_cdc.c **** *  endpoint for the COM port selected using the API SetComPort().The
 922:Generated_Source\PSoC4/USBUART_cdc.c **** *  USBUART_NotificationIsReady() API must be called to check if the
 923:Generated_Source\PSoC4/USBUART_cdc.c **** *  Component is ready to send more serial state to the host. The API will
 924:Generated_Source\PSoC4/USBUART_cdc.c **** *  not send the notification data if the interrupt endpoint Max Packet Size
 925:Generated_Source\PSoC4/USBUART_cdc.c **** *  is less than the required 10 bytes.
 926:Generated_Source\PSoC4/USBUART_cdc.c **** *
 927:Generated_Source\PSoC4/USBUART_cdc.c **** * \param uint16 serialState
 928:Generated_Source\PSoC4/USBUART_cdc.c **** *  16-bit value that will be sent from the device to the
 929:Generated_Source\PSoC4/USBUART_cdc.c **** *  host as SERIAL_STATE notification using the IN interrupt endpoint. Refer
 930:Generated_Source\PSoC4/USBUART_cdc.c **** *  to revision 1.2 of the CDC PSTN Subclass specification for bit field
 931:Generated_Source\PSoC4/USBUART_cdc.c **** *  definitions of the 16-bit serial state value.
 932:Generated_Source\PSoC4/USBUART_cdc.c **** *
 933:Generated_Source\PSoC4/USBUART_cdc.c **** *******************************************************************************/
 934:Generated_Source\PSoC4/USBUART_cdc.c **** void USBUART_SendSerialState (uint16 serialState) 
 935:Generated_Source\PSoC4/USBUART_cdc.c **** {
 1636              		.loc 1 935 0
 1637              		.cfi_startproc
 1638              		@ args = 0, pretend = 0, frame = 16
 1639              		@ frame_needed = 1, uses_anonymous_args = 0
 1640 0000 80B5     		push	{r7, lr}
 1641              		.cfi_def_cfa_offset 8
 1642              		.cfi_offset 7, -8
 1643              		.cfi_offset 14, -4
 1644 0002 84B0     		sub	sp, sp, #16
 1645              		.cfi_def_cfa_offset 24
 1646 0004 00AF     		add	r7, sp, #0
 1647              		.cfi_def_cfa_register 7
 1648 0006 0200     		movs	r2, r0
 1649 0008 BB1D     		adds	r3, r7, #6
 1650 000a 1A80     		strh	r2, [r3]
 936:Generated_Source\PSoC4/USBUART_cdc.c ****     uint8 epNumber = USBUART_cdcCommInInterruptEp[USBUART_activeCom];
 1651              		.loc 1 936 0
 1652 000c 264B     		ldr	r3, .L106
 1653 000e 1B78     		ldrb	r3, [r3]
 1654 0010 1900     		movs	r1, r3
 1655 0012 0F23     		movs	r3, #15
 1656 0014 FB18     		adds	r3, r7, r3
 1657 0016 254A     		ldr	r2, .L106+4
 1658 0018 525C     		ldrb	r2, [r2, r1]
 1659 001a 1A70     		strb	r2, [r3]
 937:Generated_Source\PSoC4/USBUART_cdc.c **** 
 938:Generated_Source\PSoC4/USBUART_cdc.c ****     if(USBUART_SERIAL_STATE_SIZE <= USBUART_EP[epNumber].bufferSize)
 1660              		.loc 1 938 0
 1661 001c 0F23     		movs	r3, #15
 1662 001e FB18     		adds	r3, r7, r3
 1663 0020 1A78     		ldrb	r2, [r3]
 1664 0022 2349     		ldr	r1, .L106+8
ARM GAS  C:\Users\HPz420\AppData\Local\Temp\ccOuTLU7.s 			page 47


 1665 0024 1300     		movs	r3, r2
 1666 0026 5B00     		lsls	r3, r3, #1
 1667 0028 9B18     		adds	r3, r3, r2
 1668 002a 9B00     		lsls	r3, r3, #2
 1669 002c CB18     		adds	r3, r1, r3
 1670 002e 0833     		adds	r3, r3, #8
 1671 0030 1B88     		ldrh	r3, [r3]
 1672 0032 9BB2     		uxth	r3, r3
 1673 0034 092B     		cmp	r3, #9
 1674 0036 33D9     		bls	.L105
 939:Generated_Source\PSoC4/USBUART_cdc.c ****     {
 940:Generated_Source\PSoC4/USBUART_cdc.c ****         /* Save current SERIAL_STATE bitmap. */
 941:Generated_Source\PSoC4/USBUART_cdc.c ****         USBUART_serialStateBitmap[USBUART_activeCom] = serialState;
 1675              		.loc 1 941 0
 1676 0038 1B4B     		ldr	r3, .L106
 1677 003a 1B78     		ldrb	r3, [r3]
 1678 003c 1A00     		movs	r2, r3
 1679 003e 1D4B     		ldr	r3, .L106+12
 1680 0040 5200     		lsls	r2, r2, #1
 1681 0042 B91D     		adds	r1, r7, #6
 1682 0044 0988     		ldrh	r1, [r1]
 1683 0046 D152     		strh	r1, [r2, r3]
 942:Generated_Source\PSoC4/USBUART_cdc.c **** 
 943:Generated_Source\PSoC4/USBUART_cdc.c ****         /* Add interface number */
 944:Generated_Source\PSoC4/USBUART_cdc.c ****         USBUART_serialStateNotification.wIndex = USBUART_EP[epNumber].interface;
 1684              		.loc 1 944 0
 1685 0048 0F23     		movs	r3, #15
 1686 004a FB18     		adds	r3, r7, r3
 1687 004c 1A78     		ldrb	r2, [r3]
 1688 004e 1849     		ldr	r1, .L106+8
 1689 0050 1300     		movs	r3, r2
 1690 0052 5B00     		lsls	r3, r3, #1
 1691 0054 9B18     		adds	r3, r3, r2
 1692 0056 9B00     		lsls	r3, r3, #2
 1693 0058 CB18     		adds	r3, r1, r3
 1694 005a 0A33     		adds	r3, r3, #10
 1695 005c 1B78     		ldrb	r3, [r3]
 1696 005e DAB2     		uxtb	r2, r3
 1697 0060 154B     		ldr	r3, .L106+16
 1698 0062 1A71     		strb	r2, [r3, #4]
 945:Generated_Source\PSoC4/USBUART_cdc.c **** 
 946:Generated_Source\PSoC4/USBUART_cdc.c ****         /*Form SERIAL_STATE data*/
 947:Generated_Source\PSoC4/USBUART_cdc.c ****         USBUART_serialStateNotification.wSerialState =    LO8(USBUART_serialStateBitmap[USBUART_act
 1699              		.loc 1 947 0
 1700 0064 104B     		ldr	r3, .L106
 1701 0066 1B78     		ldrb	r3, [r3]
 1702 0068 1A00     		movs	r2, r3
 1703 006a 124B     		ldr	r3, .L106+12
 1704 006c 5200     		lsls	r2, r2, #1
 1705 006e D35A     		ldrh	r3, [r2, r3]
 1706 0070 9BB2     		uxth	r3, r3
 1707 0072 DAB2     		uxtb	r2, r3
 1708 0074 104B     		ldr	r3, .L106+16
 1709 0076 1A72     		strb	r2, [r3, #8]
 948:Generated_Source\PSoC4/USBUART_cdc.c ****         USBUART_serialStateNotification.wSerialStateMSB = HI8(USBUART_serialStateBitmap[USBUART_act
 1710              		.loc 1 948 0
 1711 0078 0B4B     		ldr	r3, .L106
ARM GAS  C:\Users\HPz420\AppData\Local\Temp\ccOuTLU7.s 			page 48


 1712 007a 1B78     		ldrb	r3, [r3]
 1713 007c 1A00     		movs	r2, r3
 1714 007e 0D4B     		ldr	r3, .L106+12
 1715 0080 5200     		lsls	r2, r2, #1
 1716 0082 D35A     		ldrh	r3, [r2, r3]
 1717 0084 9BB2     		uxth	r3, r3
 1718 0086 1B0A     		lsrs	r3, r3, #8
 1719 0088 9BB2     		uxth	r3, r3
 1720 008a DAB2     		uxtb	r2, r3
 1721 008c 0A4B     		ldr	r3, .L106+16
 1722 008e 5A72     		strb	r2, [r3, #9]
 949:Generated_Source\PSoC4/USBUART_cdc.c **** 
 950:Generated_Source\PSoC4/USBUART_cdc.c ****         USBUART_LoadInEP(epNumber, (uint8 *) &USBUART_serialStateNotification, sizeof(USBUART_seria
 1723              		.loc 1 950 0
 1724 0090 0949     		ldr	r1, .L106+16
 1725 0092 0F23     		movs	r3, #15
 1726 0094 FB18     		adds	r3, r7, r3
 1727 0096 1B78     		ldrb	r3, [r3]
 1728 0098 0A22     		movs	r2, #10
 1729 009a 1800     		movs	r0, r3
 1730 009c FFF7FEFF 		bl	USBUART_LoadInEP
 1731              	.L105:
 951:Generated_Source\PSoC4/USBUART_cdc.c ****     }
 952:Generated_Source\PSoC4/USBUART_cdc.c **** }
 1732              		.loc 1 952 0
 1733 00a0 C046     		nop
 1734 00a2 BD46     		mov	sp, r7
 1735 00a4 04B0     		add	sp, sp, #16
 1736              		@ sp needed
 1737 00a6 80BD     		pop	{r7, pc}
 1738              	.L107:
 1739              		.align	2
 1740              	.L106:
 1741 00a8 00000000 		.word	USBUART_activeCom
 1742 00ac 00000000 		.word	USBUART_cdcCommInInterruptEp
 1743 00b0 00000000 		.word	USBUART_EP
 1744 00b4 00000000 		.word	USBUART_serialStateBitmap
 1745 00b8 10000000 		.word	USBUART_serialStateNotification
 1746              		.cfi_endproc
 1747              	.LFE21:
 1748              		.size	USBUART_SendSerialState, .-USBUART_SendSerialState
 1749              		.section	.text.USBUART_GetSerialState,"ax",%progbits
 1750              		.align	2
 1751              		.global	USBUART_GetSerialState
 1752              		.code	16
 1753              		.thumb_func
 1754              		.type	USBUART_GetSerialState, %function
 1755              	USBUART_GetSerialState:
 1756              	.LFB22:
 953:Generated_Source\PSoC4/USBUART_cdc.c **** 
 954:Generated_Source\PSoC4/USBUART_cdc.c **** 
 955:Generated_Source\PSoC4/USBUART_cdc.c **** /*******************************************************************************
 956:Generated_Source\PSoC4/USBUART_cdc.c **** * Function Name: USBUART_GetSerialState
 957:Generated_Source\PSoC4/USBUART_cdc.c **** ****************************************************************************//**
 958:Generated_Source\PSoC4/USBUART_cdc.c **** *
 959:Generated_Source\PSoC4/USBUART_cdc.c **** *  This function returns the current serial state value for the COM port
 960:Generated_Source\PSoC4/USBUART_cdc.c **** *  selected using the API SetComPort().
ARM GAS  C:\Users\HPz420\AppData\Local\Temp\ccOuTLU7.s 			page 49


 961:Generated_Source\PSoC4/USBUART_cdc.c **** *
 962:Generated_Source\PSoC4/USBUART_cdc.c **** * \return
 963:Generated_Source\PSoC4/USBUART_cdc.c **** *  16-bit serial state value. Refer to revision 1.2 of the CDC PSTN Subclass
 964:Generated_Source\PSoC4/USBUART_cdc.c **** *  specification for bit field definitions of the 16-bit serial state value.
 965:Generated_Source\PSoC4/USBUART_cdc.c **** *
 966:Generated_Source\PSoC4/USBUART_cdc.c **** *******************************************************************************/
 967:Generated_Source\PSoC4/USBUART_cdc.c **** uint16 USBUART_GetSerialState(void) 
 968:Generated_Source\PSoC4/USBUART_cdc.c **** {
 1757              		.loc 1 968 0
 1758              		.cfi_startproc
 1759              		@ args = 0, pretend = 0, frame = 0
 1760              		@ frame_needed = 1, uses_anonymous_args = 0
 1761 0000 80B5     		push	{r7, lr}
 1762              		.cfi_def_cfa_offset 8
 1763              		.cfi_offset 7, -8
 1764              		.cfi_offset 14, -4
 1765 0002 00AF     		add	r7, sp, #0
 1766              		.cfi_def_cfa_register 7
 969:Generated_Source\PSoC4/USBUART_cdc.c ****     return USBUART_serialStateBitmap[USBUART_activeCom];
 1767              		.loc 1 969 0
 1768 0004 044B     		ldr	r3, .L110
 1769 0006 1B78     		ldrb	r3, [r3]
 1770 0008 1A00     		movs	r2, r3
 1771 000a 044B     		ldr	r3, .L110+4
 1772 000c 5200     		lsls	r2, r2, #1
 1773 000e D35A     		ldrh	r3, [r2, r3]
 1774 0010 9BB2     		uxth	r3, r3
 970:Generated_Source\PSoC4/USBUART_cdc.c **** }
 1775              		.loc 1 970 0
 1776 0012 1800     		movs	r0, r3
 1777 0014 BD46     		mov	sp, r7
 1778              		@ sp needed
 1779 0016 80BD     		pop	{r7, pc}
 1780              	.L111:
 1781              		.align	2
 1782              	.L110:
 1783 0018 00000000 		.word	USBUART_activeCom
 1784 001c 00000000 		.word	USBUART_serialStateBitmap
 1785              		.cfi_endproc
 1786              	.LFE22:
 1787              		.size	USBUART_GetSerialState, .-USBUART_GetSerialState
 1788              		.section	.text.USBUART_NotificationIsReady,"ax",%progbits
 1789              		.align	2
 1790              		.global	USBUART_NotificationIsReady
 1791              		.code	16
 1792              		.thumb_func
 1793              		.type	USBUART_NotificationIsReady, %function
 1794              	USBUART_NotificationIsReady:
 1795              	.LFB23:
 971:Generated_Source\PSoC4/USBUART_cdc.c **** 
 972:Generated_Source\PSoC4/USBUART_cdc.c **** 
 973:Generated_Source\PSoC4/USBUART_cdc.c **** /*******************************************************************************
 974:Generated_Source\PSoC4/USBUART_cdc.c **** * Function Name: USBUART_NotificationIsReady
 975:Generated_Source\PSoC4/USBUART_cdc.c **** ****************************************************************************//**
 976:Generated_Source\PSoC4/USBUART_cdc.c **** *
 977:Generated_Source\PSoC4/USBUART_cdc.c **** *  This function returns a non-zero value if the Component is ready to send
 978:Generated_Source\PSoC4/USBUART_cdc.c **** *  more notifications to the host; otherwise, it returns zero. The function
ARM GAS  C:\Users\HPz420\AppData\Local\Temp\ccOuTLU7.s 			page 50


 979:Generated_Source\PSoC4/USBUART_cdc.c **** *  should be called before sending new notifications when using
 980:Generated_Source\PSoC4/USBUART_cdc.c **** *  USBUART_SendSerialState() to ensure that any previous
 981:Generated_Source\PSoC4/USBUART_cdc.c **** *  notification data has been already sent to the host.
 982:Generated_Source\PSoC4/USBUART_cdc.c **** *
 983:Generated_Source\PSoC4/USBUART_cdc.c **** * \return
 984:Generated_Source\PSoC4/USBUART_cdc.c **** *  If the buffer can accept new data(endpoint buffer not full), this
 985:Generated_Source\PSoC4/USBUART_cdc.c **** *  function returns a non-zero value. Otherwise, it returns zero.
 986:Generated_Source\PSoC4/USBUART_cdc.c **** *
 987:Generated_Source\PSoC4/USBUART_cdc.c **** * \globalvars
 988:Generated_Source\PSoC4/USBUART_cdc.c **** *   USBUART_cdcDataInEp: CDC IN endpoint number used.
 989:Generated_Source\PSoC4/USBUART_cdc.c **** *
 990:Generated_Source\PSoC4/USBUART_cdc.c **** *******************************************************************************/
 991:Generated_Source\PSoC4/USBUART_cdc.c **** uint8 USBUART_NotificationIsReady(void) 
 992:Generated_Source\PSoC4/USBUART_cdc.c **** {
 1796              		.loc 1 992 0
 1797              		.cfi_startproc
 1798              		@ args = 0, pretend = 0, frame = 0
 1799              		@ frame_needed = 1, uses_anonymous_args = 0
 1800 0000 80B5     		push	{r7, lr}
 1801              		.cfi_def_cfa_offset 8
 1802              		.cfi_offset 7, -8
 1803              		.cfi_offset 14, -4
 1804 0002 00AF     		add	r7, sp, #0
 1805              		.cfi_def_cfa_register 7
 993:Generated_Source\PSoC4/USBUART_cdc.c ****     return (USBUART_EP[USBUART_cdcCommInInterruptEp[USBUART_activeCom]].apiEpState);
 1806              		.loc 1 993 0
 1807 0004 094B     		ldr	r3, .L114
 1808 0006 1B78     		ldrb	r3, [r3]
 1809 0008 1A00     		movs	r2, r3
 1810 000a 094B     		ldr	r3, .L114+4
 1811 000c 9B5C     		ldrb	r3, [r3, r2]
 1812 000e DBB2     		uxtb	r3, r3
 1813 0010 1900     		movs	r1, r3
 1814 0012 084A     		ldr	r2, .L114+8
 1815 0014 0B00     		movs	r3, r1
 1816 0016 5B00     		lsls	r3, r3, #1
 1817 0018 5B18     		adds	r3, r3, r1
 1818 001a 9B00     		lsls	r3, r3, #2
 1819 001c D318     		adds	r3, r2, r3
 1820 001e 0133     		adds	r3, r3, #1
 1821 0020 1B78     		ldrb	r3, [r3]
 1822 0022 DBB2     		uxtb	r3, r3
 994:Generated_Source\PSoC4/USBUART_cdc.c **** }
 1823              		.loc 1 994 0
 1824 0024 1800     		movs	r0, r3
 1825 0026 BD46     		mov	sp, r7
 1826              		@ sp needed
 1827 0028 80BD     		pop	{r7, pc}
 1828              	.L115:
 1829 002a C046     		.align	2
 1830              	.L114:
 1831 002c 00000000 		.word	USBUART_activeCom
 1832 0030 00000000 		.word	USBUART_cdcCommInInterruptEp
 1833 0034 00000000 		.word	USBUART_EP
 1834              		.cfi_endproc
 1835              	.LFE23:
 1836              		.size	USBUART_NotificationIsReady, .-USBUART_NotificationIsReady
ARM GAS  C:\Users\HPz420\AppData\Local\Temp\ccOuTLU7.s 			page 51


 1837              		.section	.text.USBUART_SetComPort,"ax",%progbits
 1838              		.align	2
 1839              		.global	USBUART_SetComPort
 1840              		.code	16
 1841              		.thumb_func
 1842              		.type	USBUART_SetComPort, %function
 1843              	USBUART_SetComPort:
 1844              	.LFB24:
 995:Generated_Source\PSoC4/USBUART_cdc.c **** 
 996:Generated_Source\PSoC4/USBUART_cdc.c **** 
 997:Generated_Source\PSoC4/USBUART_cdc.c **** /*******************************************************************************
 998:Generated_Source\PSoC4/USBUART_cdc.c **** * Function Name: USBUART_SetComPort
 999:Generated_Source\PSoC4/USBUART_cdc.c **** ****************************************************************************//**
1000:Generated_Source\PSoC4/USBUART_cdc.c **** *
1001:Generated_Source\PSoC4/USBUART_cdc.c **** *  This function allows the user to select from one of the two COM ports
1002:Generated_Source\PSoC4/USBUART_cdc.c **** *  they wish to address in the instance of having multiple COM ports
1003:Generated_Source\PSoC4/USBUART_cdc.c **** *  instantiated though the use of a composite device. Once set, all future
1004:Generated_Source\PSoC4/USBUART_cdc.c **** *  function calls related to the USBUART will be affected. This addressed
1005:Generated_Source\PSoC4/USBUART_cdc.c **** *  COM port can be changed during run time.
1006:Generated_Source\PSoC4/USBUART_cdc.c **** *
1007:Generated_Source\PSoC4/USBUART_cdc.c **** * \param comNumber
1008:Generated_Source\PSoC4/USBUART_cdc.c **** *  Contains the COM interface the user wishes to address. Value can either
1009:Generated_Source\PSoC4/USBUART_cdc.c **** *  be 0 or 1 since a maximum of only 2 COM ports can be supported. Note that
1010:Generated_Source\PSoC4/USBUART_cdc.c **** *  this COM port number is not the COM port number assigned on the PC side
1011:Generated_Source\PSoC4/USBUART_cdc.c **** *  for the UART communication. If a value greater than 1 is passed, the
1012:Generated_Source\PSoC4/USBUART_cdc.c **** *  function returns without performing any action.
1013:Generated_Source\PSoC4/USBUART_cdc.c **** *
1014:Generated_Source\PSoC4/USBUART_cdc.c **** *******************************************************************************/
1015:Generated_Source\PSoC4/USBUART_cdc.c **** void USBUART_SetComPort(uint8 comNumber) 
1016:Generated_Source\PSoC4/USBUART_cdc.c **** {
 1845              		.loc 1 1016 0
 1846              		.cfi_startproc
 1847              		@ args = 0, pretend = 0, frame = 8
 1848              		@ frame_needed = 1, uses_anonymous_args = 0
 1849 0000 80B5     		push	{r7, lr}
 1850              		.cfi_def_cfa_offset 8
 1851              		.cfi_offset 7, -8
 1852              		.cfi_offset 14, -4
 1853 0002 82B0     		sub	sp, sp, #8
 1854              		.cfi_def_cfa_offset 16
 1855 0004 00AF     		add	r7, sp, #0
 1856              		.cfi_def_cfa_register 7
 1857 0006 0200     		movs	r2, r0
 1858 0008 FB1D     		adds	r3, r7, #7
 1859 000a 1A70     		strb	r2, [r3]
1017:Generated_Source\PSoC4/USBUART_cdc.c ****     if ((USBUART_activeCom != comNumber) && \
 1860              		.loc 1 1017 0
 1861 000c 084B     		ldr	r3, .L119
 1862 000e 1B78     		ldrb	r3, [r3]
 1863 0010 FA1D     		adds	r2, r7, #7
 1864 0012 1278     		ldrb	r2, [r2]
 1865 0014 9A42     		cmp	r2, r3
 1866 0016 07D0     		beq	.L118
 1867              		.loc 1 1017 0 is_stmt 0 discriminator 1
 1868 0018 FB1D     		adds	r3, r7, #7
 1869 001a 1B78     		ldrb	r3, [r3]
 1870 001c 012B     		cmp	r3, #1
ARM GAS  C:\Users\HPz420\AppData\Local\Temp\ccOuTLU7.s 			page 52


 1871 001e 03D8     		bhi	.L118
1018:Generated_Source\PSoC4/USBUART_cdc.c ****             (comNumber < USBUART_MAX_MULTI_COM_NUM ))
1019:Generated_Source\PSoC4/USBUART_cdc.c ****     {
1020:Generated_Source\PSoC4/USBUART_cdc.c ****         USBUART_activeCom = comNumber;
 1872              		.loc 1 1020 0 is_stmt 1
 1873 0020 034B     		ldr	r3, .L119
 1874 0022 FA1D     		adds	r2, r7, #7
 1875 0024 1278     		ldrb	r2, [r2]
 1876 0026 1A70     		strb	r2, [r3]
 1877              	.L118:
1021:Generated_Source\PSoC4/USBUART_cdc.c ****     }
1022:Generated_Source\PSoC4/USBUART_cdc.c **** }
 1878              		.loc 1 1022 0
 1879 0028 C046     		nop
 1880 002a BD46     		mov	sp, r7
 1881 002c 02B0     		add	sp, sp, #8
 1882              		@ sp needed
 1883 002e 80BD     		pop	{r7, pc}
 1884              	.L120:
 1885              		.align	2
 1886              	.L119:
 1887 0030 00000000 		.word	USBUART_activeCom
 1888              		.cfi_endproc
 1889              	.LFE24:
 1890              		.size	USBUART_SetComPort, .-USBUART_SetComPort
 1891              		.section	.text.USBUART_GetComPort,"ax",%progbits
 1892              		.align	2
 1893              		.global	USBUART_GetComPort
 1894              		.code	16
 1895              		.thumb_func
 1896              		.type	USBUART_GetComPort, %function
 1897              	USBUART_GetComPort:
 1898              	.LFB25:
1023:Generated_Source\PSoC4/USBUART_cdc.c **** 
1024:Generated_Source\PSoC4/USBUART_cdc.c **** 
1025:Generated_Source\PSoC4/USBUART_cdc.c **** /*******************************************************************************
1026:Generated_Source\PSoC4/USBUART_cdc.c **** * Function Name: USBUART_GetComPort
1027:Generated_Source\PSoC4/USBUART_cdc.c **** ****************************************************************************//**
1028:Generated_Source\PSoC4/USBUART_cdc.c **** *
1029:Generated_Source\PSoC4/USBUART_cdc.c **** *  This function returns the current selected COM port that the user is
1030:Generated_Source\PSoC4/USBUART_cdc.c **** *  currently addressing in the instance of having multiple COM ports
1031:Generated_Source\PSoC4/USBUART_cdc.c **** *  instantiated though the use of a composite device.
1032:Generated_Source\PSoC4/USBUART_cdc.c **** *
1033:Generated_Source\PSoC4/USBUART_cdc.c **** * \return
1034:Generated_Source\PSoC4/USBUART_cdc.c **** *  Returns the currently selected COM port. Value can either be 0 or 1 since
1035:Generated_Source\PSoC4/USBUART_cdc.c **** *  a maximum of only 2 COM ports can be supported. . Note that this COM port
1036:Generated_Source\PSoC4/USBUART_cdc.c **** *  number is not the COM port number assigned on the PC side for the UART
1037:Generated_Source\PSoC4/USBUART_cdc.c **** *  communication.
1038:Generated_Source\PSoC4/USBUART_cdc.c **** *
1039:Generated_Source\PSoC4/USBUART_cdc.c **** *******************************************************************************/
1040:Generated_Source\PSoC4/USBUART_cdc.c **** uint8 USBUART_GetComPort(void) 
1041:Generated_Source\PSoC4/USBUART_cdc.c **** {
 1899              		.loc 1 1041 0
 1900              		.cfi_startproc
 1901              		@ args = 0, pretend = 0, frame = 0
 1902              		@ frame_needed = 1, uses_anonymous_args = 0
 1903 0000 80B5     		push	{r7, lr}
ARM GAS  C:\Users\HPz420\AppData\Local\Temp\ccOuTLU7.s 			page 53


 1904              		.cfi_def_cfa_offset 8
 1905              		.cfi_offset 7, -8
 1906              		.cfi_offset 14, -4
 1907 0002 00AF     		add	r7, sp, #0
 1908              		.cfi_def_cfa_register 7
1042:Generated_Source\PSoC4/USBUART_cdc.c ****     return (USBUART_activeCom);
 1909              		.loc 1 1042 0
 1910 0004 024B     		ldr	r3, .L123
 1911 0006 1B78     		ldrb	r3, [r3]
1043:Generated_Source\PSoC4/USBUART_cdc.c **** }
 1912              		.loc 1 1043 0
 1913 0008 1800     		movs	r0, r3
 1914 000a BD46     		mov	sp, r7
 1915              		@ sp needed
 1916 000c 80BD     		pop	{r7, pc}
 1917              	.L124:
 1918 000e C046     		.align	2
 1919              	.L123:
 1920 0010 00000000 		.word	USBUART_activeCom
 1921              		.cfi_endproc
 1922              	.LFE25:
 1923              		.size	USBUART_GetComPort, .-USBUART_GetComPort
 1924              		.section	.text.USBUART_Cdc_EpInit,"ax",%progbits
 1925              		.align	2
 1926              		.global	USBUART_Cdc_EpInit
 1927              		.code	16
 1928              		.thumb_func
 1929              		.type	USBUART_Cdc_EpInit, %function
 1930              	USBUART_Cdc_EpInit:
 1931              	.LFB26:
1044:Generated_Source\PSoC4/USBUART_cdc.c **** 
1045:Generated_Source\PSoC4/USBUART_cdc.c **** 
1046:Generated_Source\PSoC4/USBUART_cdc.c **** #endif  /* (USBUART_ENABLE_CDC_CLASS_API) */
1047:Generated_Source\PSoC4/USBUART_cdc.c **** 
1048:Generated_Source\PSoC4/USBUART_cdc.c **** 
1049:Generated_Source\PSoC4/USBUART_cdc.c **** /***************************************************************************
1050:Generated_Source\PSoC4/USBUART_cdc.c **** * Function Name: USBUART_Cdc_EpInit
1051:Generated_Source\PSoC4/USBUART_cdc.c **** ************************************************************************//**
1052:Generated_Source\PSoC4/USBUART_cdc.c **** *
1053:Generated_Source\PSoC4/USBUART_cdc.c **** *  \internal
1054:Generated_Source\PSoC4/USBUART_cdc.c **** *  This routine decide type of endpoint (IN, OUT, Notification) and same to
1055:Generated_Source\PSoC4/USBUART_cdc.c **** *   appropriate global variables  according to COM port number.
1056:Generated_Source\PSoC4/USBUART_cdc.c **** *   USBUART_cdcDataInEp[], USBUART_cdcCommInInterruptEp[],
1057:Generated_Source\PSoC4/USBUART_cdc.c **** *   USBUART_cdcDataOutEp[]
1058:Generated_Source\PSoC4/USBUART_cdc.c **** *
1059:Generated_Source\PSoC4/USBUART_cdc.c **** * \param pEP: Pointer to structure with current EP description.
1060:Generated_Source\PSoC4/USBUART_cdc.c **** * \param epNum: EP number
1061:Generated_Source\PSoC4/USBUART_cdc.c **** * \param cdcComNums: Bit array of current COM ports for CDC IN, OUT,
1062:Generated_Source\PSoC4/USBUART_cdc.c **** *        and notification EPs(0 - COM port 1, 1- COM port 2)
1063:Generated_Source\PSoC4/USBUART_cdc.c **** *
1064:Generated_Source\PSoC4/USBUART_cdc.c **** * \return
1065:Generated_Source\PSoC4/USBUART_cdc.c **** *  Updated cdcComNums
1066:Generated_Source\PSoC4/USBUART_cdc.c **** *
1067:Generated_Source\PSoC4/USBUART_cdc.c **** * \reentrant
1068:Generated_Source\PSoC4/USBUART_cdc.c **** *  No.
1069:Generated_Source\PSoC4/USBUART_cdc.c **** *
1070:Generated_Source\PSoC4/USBUART_cdc.c **** ***************************************************************************/
ARM GAS  C:\Users\HPz420\AppData\Local\Temp\ccOuTLU7.s 			page 54


1071:Generated_Source\PSoC4/USBUART_cdc.c **** uint8 USBUART_Cdc_EpInit(const T_USBUART_EP_SETTINGS_BLOCK CYCODE *pEP, uint8 epNum, uint8 cdcComNu
1072:Generated_Source\PSoC4/USBUART_cdc.c **** {
 1932              		.loc 1 1072 0
 1933              		.cfi_startproc
 1934              		@ args = 0, pretend = 0, frame = 16
 1935              		@ frame_needed = 1, uses_anonymous_args = 0
 1936 0000 80B5     		push	{r7, lr}
 1937              		.cfi_def_cfa_offset 8
 1938              		.cfi_offset 7, -8
 1939              		.cfi_offset 14, -4
 1940 0002 84B0     		sub	sp, sp, #16
 1941              		.cfi_def_cfa_offset 24
 1942 0004 00AF     		add	r7, sp, #0
 1943              		.cfi_def_cfa_register 7
 1944 0006 7860     		str	r0, [r7, #4]
 1945 0008 0800     		movs	r0, r1
 1946 000a 1100     		movs	r1, r2
 1947 000c FB1C     		adds	r3, r7, #3
 1948 000e 021C     		adds	r2, r0, #0
 1949 0010 1A70     		strb	r2, [r3]
 1950 0012 BB1C     		adds	r3, r7, #2
 1951 0014 0A1C     		adds	r2, r1, #0
 1952 0016 1A70     		strb	r2, [r3]
1073:Generated_Source\PSoC4/USBUART_cdc.c ****     uint8 epType;
1074:Generated_Source\PSoC4/USBUART_cdc.c **** 
1075:Generated_Source\PSoC4/USBUART_cdc.c ****     epType = pEP->attributes & USBUART_EP_TYPE_MASK;
 1953              		.loc 1 1075 0
 1954 0018 7B68     		ldr	r3, [r7, #4]
 1955 001a DA78     		ldrb	r2, [r3, #3]
 1956 001c 0F23     		movs	r3, #15
 1957 001e FB18     		adds	r3, r7, r3
 1958 0020 0321     		movs	r1, #3
 1959 0022 0A40     		ands	r2, r1
 1960 0024 1A70     		strb	r2, [r3]
1076:Generated_Source\PSoC4/USBUART_cdc.c **** 
1077:Generated_Source\PSoC4/USBUART_cdc.c ****     if (0u != (pEP->addr & USBUART_DIR_IN))
 1961              		.loc 1 1077 0
 1962 0026 7B68     		ldr	r3, [r7, #4]
 1963 0028 9B78     		ldrb	r3, [r3, #2]
 1964 002a 5BB2     		sxtb	r3, r3
 1965 002c 002B     		cmp	r3, #0
 1966 002e 25DA     		bge	.L126
1078:Generated_Source\PSoC4/USBUART_cdc.c ****     {
1079:Generated_Source\PSoC4/USBUART_cdc.c ****         if (epType != USBUART_EP_TYPE_INT)
 1967              		.loc 1 1079 0
 1968 0030 0F23     		movs	r3, #15
 1969 0032 FB18     		adds	r3, r7, r3
 1970 0034 1B78     		ldrb	r3, [r3]
 1971 0036 032B     		cmp	r3, #3
 1972 0038 0ED0     		beq	.L127
1080:Generated_Source\PSoC4/USBUART_cdc.c ****         {
1081:Generated_Source\PSoC4/USBUART_cdc.c ****             USBUART_cdcDataInEp[USBUART_GET_EP_COM_NUM(cdcComNums, USBUART_CDC_IN_EP)] = epNum;
 1973              		.loc 1 1081 0
 1974 003a BB1C     		adds	r3, r7, #2
 1975 003c 1B78     		ldrb	r3, [r3]
 1976 003e 0122     		movs	r2, #1
 1977 0040 1340     		ands	r3, r2
ARM GAS  C:\Users\HPz420\AppData\Local\Temp\ccOuTLU7.s 			page 55


 1978 0042 1C4A     		ldr	r2, .L131
 1979 0044 F91C     		adds	r1, r7, #3
 1980 0046 0978     		ldrb	r1, [r1]
 1981 0048 D154     		strb	r1, [r2, r3]
1082:Generated_Source\PSoC4/USBUART_cdc.c ****             cdcComNums |= (uint8)(USBUART_COM_PORT2 << USBUART_CDC_IN_EP);
 1982              		.loc 1 1082 0
 1983 004a BB1C     		adds	r3, r7, #2
 1984 004c BA1C     		adds	r2, r7, #2
 1985 004e 1278     		ldrb	r2, [r2]
 1986 0050 0121     		movs	r1, #1
 1987 0052 0A43     		orrs	r2, r1
 1988 0054 1A70     		strb	r2, [r3]
 1989 0056 27E0     		b	.L129
 1990              	.L127:
1083:Generated_Source\PSoC4/USBUART_cdc.c ****         }
1084:Generated_Source\PSoC4/USBUART_cdc.c ****         else
1085:Generated_Source\PSoC4/USBUART_cdc.c ****         {
1086:Generated_Source\PSoC4/USBUART_cdc.c **** 
1087:Generated_Source\PSoC4/USBUART_cdc.c ****             USBUART_cdcCommInInterruptEp[USBUART_GET_EP_COM_NUM(cdcComNums, USBUART_CDC_NOTE_EP)] =
 1991              		.loc 1 1087 0
 1992 0058 BB1C     		adds	r3, r7, #2
 1993 005a 1B78     		ldrb	r3, [r3]
 1994 005c 9B08     		lsrs	r3, r3, #2
 1995 005e DBB2     		uxtb	r3, r3
 1996 0060 1A00     		movs	r2, r3
 1997 0062 0123     		movs	r3, #1
 1998 0064 1340     		ands	r3, r2
 1999 0066 144A     		ldr	r2, .L131+4
 2000 0068 F91C     		adds	r1, r7, #3
 2001 006a 0978     		ldrb	r1, [r1]
 2002 006c D154     		strb	r1, [r2, r3]
1088:Generated_Source\PSoC4/USBUART_cdc.c ****             cdcComNums |= (uint8)(USBUART_COM_PORT2 << USBUART_CDC_NOTE_EP);
 2003              		.loc 1 1088 0
 2004 006e BB1C     		adds	r3, r7, #2
 2005 0070 BA1C     		adds	r2, r7, #2
 2006 0072 1278     		ldrb	r2, [r2]
 2007 0074 0421     		movs	r1, #4
 2008 0076 0A43     		orrs	r2, r1
 2009 0078 1A70     		strb	r2, [r3]
 2010 007a 15E0     		b	.L129
 2011              	.L126:
1089:Generated_Source\PSoC4/USBUART_cdc.c ****         }
1090:Generated_Source\PSoC4/USBUART_cdc.c ****     }
1091:Generated_Source\PSoC4/USBUART_cdc.c ****     else
1092:Generated_Source\PSoC4/USBUART_cdc.c ****     {
1093:Generated_Source\PSoC4/USBUART_cdc.c ****         if (epType != USBUART_EP_TYPE_INT)
 2012              		.loc 1 1093 0
 2013 007c 0F23     		movs	r3, #15
 2014 007e FB18     		adds	r3, r7, r3
 2015 0080 1B78     		ldrb	r3, [r3]
 2016 0082 032B     		cmp	r3, #3
 2017 0084 10D0     		beq	.L129
1094:Generated_Source\PSoC4/USBUART_cdc.c ****         {
1095:Generated_Source\PSoC4/USBUART_cdc.c ****             USBUART_cdcDataOutEp[USBUART_GET_EP_COM_NUM(cdcComNums, USBUART_CDC_OUT_EP)] = epNum;
 2018              		.loc 1 1095 0
 2019 0086 BB1C     		adds	r3, r7, #2
 2020 0088 1B78     		ldrb	r3, [r3]
ARM GAS  C:\Users\HPz420\AppData\Local\Temp\ccOuTLU7.s 			page 56


 2021 008a 5B08     		lsrs	r3, r3, #1
 2022 008c DBB2     		uxtb	r3, r3
 2023 008e 1A00     		movs	r2, r3
 2024 0090 0123     		movs	r3, #1
 2025 0092 1340     		ands	r3, r2
 2026 0094 094A     		ldr	r2, .L131+8
 2027 0096 F91C     		adds	r1, r7, #3
 2028 0098 0978     		ldrb	r1, [r1]
 2029 009a D154     		strb	r1, [r2, r3]
1096:Generated_Source\PSoC4/USBUART_cdc.c ****             cdcComNums |= (uint8)(USBUART_COM_PORT2 << USBUART_CDC_OUT_EP);
 2030              		.loc 1 1096 0
 2031 009c BB1C     		adds	r3, r7, #2
 2032 009e BA1C     		adds	r2, r7, #2
 2033 00a0 1278     		ldrb	r2, [r2]
 2034 00a2 0221     		movs	r1, #2
 2035 00a4 0A43     		orrs	r2, r1
 2036 00a6 1A70     		strb	r2, [r3]
 2037              	.L129:
1097:Generated_Source\PSoC4/USBUART_cdc.c ****         }
1098:Generated_Source\PSoC4/USBUART_cdc.c ****     }
1099:Generated_Source\PSoC4/USBUART_cdc.c ****     return (cdcComNums);
 2038              		.loc 1 1099 0
 2039 00a8 BB1C     		adds	r3, r7, #2
 2040 00aa 1B78     		ldrb	r3, [r3]
1100:Generated_Source\PSoC4/USBUART_cdc.c **** }
 2041              		.loc 1 1100 0
 2042 00ac 1800     		movs	r0, r3
 2043 00ae BD46     		mov	sp, r7
 2044 00b0 04B0     		add	sp, sp, #16
 2045              		@ sp needed
 2046 00b2 80BD     		pop	{r7, pc}
 2047              	.L132:
 2048              		.align	2
 2049              	.L131:
 2050 00b4 00000000 		.word	USBUART_cdcDataInEp
 2051 00b8 00000000 		.word	USBUART_cdcCommInInterruptEp
 2052 00bc 00000000 		.word	USBUART_cdcDataOutEp
 2053              		.cfi_endproc
 2054              	.LFE26:
 2055              		.size	USBUART_Cdc_EpInit, .-USBUART_Cdc_EpInit
 2056              		.text
 2057              	.Letext0:
 2058              		.file 2 "Generated_Source\\PSoC4\\cytypes.h"
 2059              		.file 3 "Generated_Source\\PSoC4\\USBUART.h"
 2060              		.file 4 "Generated_Source\\PSoC4\\USBUART_pvt.h"
 2061              		.section	.debug_info,"",%progbits
 2062              	.Ldebug_info0:
 2063 0000 20090000 		.4byte	0x920
 2064 0004 0400     		.2byte	0x4
 2065 0006 00000000 		.4byte	.Ldebug_abbrev0
 2066 000a 04       		.byte	0x4
 2067 000b 01       		.uleb128 0x1
 2068 000c 3A030000 		.4byte	.LASF110
 2069 0010 0C       		.byte	0xc
 2070 0011 07070000 		.4byte	.LASF111
 2071 0015 76040000 		.4byte	.LASF112
 2072 0019 00000000 		.4byte	.Ldebug_ranges0+0
ARM GAS  C:\Users\HPz420\AppData\Local\Temp\ccOuTLU7.s 			page 57


 2073 001d 00000000 		.4byte	0
 2074 0021 00000000 		.4byte	.Ldebug_line0
 2075 0025 02       		.uleb128 0x2
 2076 0026 01       		.byte	0x1
 2077 0027 06       		.byte	0x6
 2078 0028 1C010000 		.4byte	.LASF0
 2079 002c 02       		.uleb128 0x2
 2080 002d 01       		.byte	0x1
 2081 002e 08       		.byte	0x8
 2082 002f 0C050000 		.4byte	.LASF1
 2083 0033 02       		.uleb128 0x2
 2084 0034 02       		.byte	0x2
 2085 0035 05       		.byte	0x5
 2086 0036 31050000 		.4byte	.LASF2
 2087 003a 02       		.uleb128 0x2
 2088 003b 02       		.byte	0x2
 2089 003c 07       		.byte	0x7
 2090 003d DD020000 		.4byte	.LASF3
 2091 0041 02       		.uleb128 0x2
 2092 0042 04       		.byte	0x4
 2093 0043 05       		.byte	0x5
 2094 0044 69010000 		.4byte	.LASF4
 2095 0048 02       		.uleb128 0x2
 2096 0049 04       		.byte	0x4
 2097 004a 07       		.byte	0x7
 2098 004b AC020000 		.4byte	.LASF5
 2099 004f 02       		.uleb128 0x2
 2100 0050 08       		.byte	0x8
 2101 0051 05       		.byte	0x5
 2102 0052 0E010000 		.4byte	.LASF6
 2103 0056 02       		.uleb128 0x2
 2104 0057 08       		.byte	0x8
 2105 0058 07       		.byte	0x7
 2106 0059 94000000 		.4byte	.LASF7
 2107 005d 03       		.uleb128 0x3
 2108 005e 04       		.byte	0x4
 2109 005f 05       		.byte	0x5
 2110 0060 696E7400 		.ascii	"int\000"
 2111 0064 02       		.uleb128 0x2
 2112 0065 04       		.byte	0x4
 2113 0066 07       		.byte	0x7
 2114 0067 8B020000 		.4byte	.LASF8
 2115 006b 04       		.uleb128 0x4
 2116 006c 92010000 		.4byte	.LASF9
 2117 0070 02       		.byte	0x2
 2118 0071 D201     		.2byte	0x1d2
 2119 0073 2C000000 		.4byte	0x2c
 2120 0077 04       		.uleb128 0x4
 2121 0078 26000000 		.4byte	.LASF10
 2122 007c 02       		.byte	0x2
 2123 007d D301     		.2byte	0x1d3
 2124 007f 3A000000 		.4byte	0x3a
 2125 0083 04       		.uleb128 0x4
 2126 0084 EE010000 		.4byte	.LASF11
 2127 0088 02       		.byte	0x2
 2128 0089 D401     		.2byte	0x1d4
 2129 008b 48000000 		.4byte	0x48
ARM GAS  C:\Users\HPz420\AppData\Local\Temp\ccOuTLU7.s 			page 58


 2130 008f 02       		.uleb128 0x2
 2131 0090 04       		.byte	0x4
 2132 0091 04       		.byte	0x4
 2133 0092 EB040000 		.4byte	.LASF12
 2134 0096 02       		.uleb128 0x2
 2135 0097 08       		.byte	0x8
 2136 0098 04       		.byte	0x4
 2137 0099 A8010000 		.4byte	.LASF13
 2138 009d 04       		.uleb128 0x4
 2139 009e 14060000 		.4byte	.LASF14
 2140 00a2 02       		.byte	0x2
 2141 00a3 E301     		.2byte	0x1e3
 2142 00a5 A9000000 		.4byte	0xa9
 2143 00a9 02       		.uleb128 0x2
 2144 00aa 01       		.byte	0x1
 2145 00ab 08       		.byte	0x8
 2146 00ac D3050000 		.4byte	.LASF15
 2147 00b0 05       		.uleb128 0x5
 2148 00b1 6B000000 		.4byte	0x6b
 2149 00b5 05       		.uleb128 0x5
 2150 00b6 77000000 		.4byte	0x77
 2151 00ba 02       		.uleb128 0x2
 2152 00bb 08       		.byte	0x8
 2153 00bc 04       		.byte	0x4
 2154 00bd F7030000 		.4byte	.LASF16
 2155 00c1 02       		.uleb128 0x2
 2156 00c2 04       		.byte	0x4
 2157 00c3 07       		.byte	0x7
 2158 00c4 EE030000 		.4byte	.LASF17
 2159 00c8 06       		.uleb128 0x6
 2160 00c9 0C       		.byte	0xc
 2161 00ca 03       		.byte	0x3
 2162 00cb 92       		.byte	0x92
 2163 00cc 3D010000 		.4byte	0x13d
 2164 00d0 07       		.uleb128 0x7
 2165 00d1 03040000 		.4byte	.LASF18
 2166 00d5 03       		.byte	0x3
 2167 00d6 94       		.byte	0x94
 2168 00d7 6B000000 		.4byte	0x6b
 2169 00db 00       		.byte	0
 2170 00dc 07       		.uleb128 0x7
 2171 00dd 01050000 		.4byte	.LASF19
 2172 00e1 03       		.byte	0x3
 2173 00e2 95       		.byte	0x95
 2174 00e3 6B000000 		.4byte	0x6b
 2175 00e7 01       		.byte	0x1
 2176 00e8 07       		.uleb128 0x7
 2177 00e9 E4030000 		.4byte	.LASF20
 2178 00ed 03       		.byte	0x3
 2179 00ee 96       		.byte	0x96
 2180 00ef 6B000000 		.4byte	0x6b
 2181 00f3 02       		.byte	0x2
 2182 00f4 07       		.uleb128 0x7
 2183 00f5 98010000 		.4byte	.LASF21
 2184 00f9 03       		.byte	0x3
 2185 00fa 97       		.byte	0x97
 2186 00fb 6B000000 		.4byte	0x6b
ARM GAS  C:\Users\HPz420\AppData\Local\Temp\ccOuTLU7.s 			page 59


 2187 00ff 03       		.byte	0x3
 2188 0100 07       		.uleb128 0x7
 2189 0101 AB000000 		.4byte	.LASF22
 2190 0105 03       		.byte	0x3
 2191 0106 98       		.byte	0x98
 2192 0107 6B000000 		.4byte	0x6b
 2193 010b 04       		.byte	0x4
 2194 010c 07       		.uleb128 0x7
 2195 010d 38020000 		.4byte	.LASF23
 2196 0111 03       		.byte	0x3
 2197 0112 99       		.byte	0x99
 2198 0113 6B000000 		.4byte	0x6b
 2199 0117 05       		.byte	0x5
 2200 0118 07       		.uleb128 0x7
 2201 0119 09060000 		.4byte	.LASF24
 2202 011d 03       		.byte	0x3
 2203 011e 9A       		.byte	0x9a
 2204 011f 77000000 		.4byte	0x77
 2205 0123 06       		.byte	0x6
 2206 0124 07       		.uleb128 0x7
 2207 0125 D8050000 		.4byte	.LASF25
 2208 0129 03       		.byte	0x3
 2209 012a 9B       		.byte	0x9b
 2210 012b 77000000 		.4byte	0x77
 2211 012f 08       		.byte	0x8
 2212 0130 07       		.uleb128 0x7
 2213 0131 C8030000 		.4byte	.LASF26
 2214 0135 03       		.byte	0x3
 2215 0136 9C       		.byte	0x9c
 2216 0137 6B000000 		.4byte	0x6b
 2217 013b 0A       		.byte	0xa
 2218 013c 00       		.byte	0
 2219 013d 08       		.uleb128 0x8
 2220 013e F2050000 		.4byte	.LASF27
 2221 0142 03       		.byte	0x3
 2222 0143 9D       		.byte	0x9d
 2223 0144 C8000000 		.4byte	0xc8
 2224 0148 06       		.uleb128 0x6
 2225 0149 08       		.byte	0x8
 2226 014a 03       		.byte	0x3
 2227 014b 9F       		.byte	0x9f
 2228 014c 99010000 		.4byte	0x199
 2229 0150 07       		.uleb128 0x7
 2230 0151 C8030000 		.4byte	.LASF26
 2231 0155 03       		.byte	0x3
 2232 0156 A1       		.byte	0xa1
 2233 0157 6B000000 		.4byte	0x6b
 2234 015b 00       		.byte	0
 2235 015c 07       		.uleb128 0x7
 2236 015d C8050000 		.4byte	.LASF28
 2237 0161 03       		.byte	0x3
 2238 0162 A2       		.byte	0xa2
 2239 0163 6B000000 		.4byte	0x6b
 2240 0167 01       		.byte	0x1
 2241 0168 07       		.uleb128 0x7
 2242 0169 AB000000 		.4byte	.LASF22
 2243 016d 03       		.byte	0x3
ARM GAS  C:\Users\HPz420\AppData\Local\Temp\ccOuTLU7.s 			page 60


 2244 016e A3       		.byte	0xa3
 2245 016f 6B000000 		.4byte	0x6b
 2246 0173 02       		.byte	0x2
 2247 0174 07       		.uleb128 0x7
 2248 0175 88050000 		.4byte	.LASF29
 2249 0179 03       		.byte	0x3
 2250 017a A4       		.byte	0xa4
 2251 017b 6B000000 		.4byte	0x6b
 2252 017f 03       		.byte	0x3
 2253 0180 07       		.uleb128 0x7
 2254 0181 D8050000 		.4byte	.LASF25
 2255 0185 03       		.byte	0x3
 2256 0186 A5       		.byte	0xa5
 2257 0187 77000000 		.4byte	0x77
 2258 018b 04       		.byte	0x4
 2259 018c 07       		.uleb128 0x7
 2260 018d 83060000 		.4byte	.LASF30
 2261 0191 03       		.byte	0x3
 2262 0192 A6       		.byte	0xa6
 2263 0193 6B000000 		.4byte	0x6b
 2264 0197 06       		.byte	0x6
 2265 0198 00       		.byte	0
 2266 0199 08       		.uleb128 0x8
 2267 019a 1A060000 		.4byte	.LASF31
 2268 019e 03       		.byte	0x3
 2269 019f A7       		.byte	0xa7
 2270 01a0 48010000 		.4byte	0x148
 2271 01a4 06       		.uleb128 0x6
 2272 01a5 04       		.byte	0x4
 2273 01a6 03       		.byte	0x3
 2274 01a7 A9       		.byte	0xa9
 2275 01a8 C5010000 		.4byte	0x1c5
 2276 01ac 07       		.uleb128 0x7
 2277 01ad 5C060000 		.4byte	.LASF32
 2278 01b1 03       		.byte	0x3
 2279 01b2 AB       		.byte	0xab
 2280 01b3 6B000000 		.4byte	0x6b
 2281 01b7 00       		.byte	0
 2282 01b8 07       		.uleb128 0x7
 2283 01b9 55060000 		.4byte	.LASF33
 2284 01bd 03       		.byte	0x3
 2285 01be AC       		.byte	0xac
 2286 01bf 77000000 		.4byte	0x77
 2287 01c3 02       		.byte	0x2
 2288 01c4 00       		.byte	0
 2289 01c5 08       		.uleb128 0x8
 2290 01c6 DE000000 		.4byte	.LASF34
 2291 01ca 03       		.byte	0x3
 2292 01cb AD       		.byte	0xad
 2293 01cc A4010000 		.4byte	0x1a4
 2294 01d0 06       		.uleb128 0x6
 2295 01d1 0C       		.byte	0xc
 2296 01d2 03       		.byte	0x3
 2297 01d3 AF       		.byte	0xaf
 2298 01d4 FD010000 		.4byte	0x1fd
 2299 01d8 07       		.uleb128 0x7
 2300 01d9 0D000000 		.4byte	.LASF35
ARM GAS  C:\Users\HPz420\AppData\Local\Temp\ccOuTLU7.s 			page 61


 2301 01dd 03       		.byte	0x3
 2302 01de B1       		.byte	0xb1
 2303 01df 77000000 		.4byte	0x77
 2304 01e3 00       		.byte	0
 2305 01e4 07       		.uleb128 0x7
 2306 01e5 32020000 		.4byte	.LASF36
 2307 01e9 03       		.byte	0x3
 2308 01ea B2       		.byte	0xb2
 2309 01eb FD010000 		.4byte	0x1fd
 2310 01ef 04       		.byte	0x4
 2311 01f0 07       		.uleb128 0x7
 2312 01f1 00000000 		.4byte	.LASF37
 2313 01f5 03       		.byte	0x3
 2314 01f6 B3       		.byte	0xb3
 2315 01f7 03020000 		.4byte	0x203
 2316 01fb 08       		.byte	0x8
 2317 01fc 00       		.byte	0
 2318 01fd 09       		.uleb128 0x9
 2319 01fe 04       		.byte	0x4
 2320 01ff B0000000 		.4byte	0xb0
 2321 0203 09       		.uleb128 0x9
 2322 0204 04       		.byte	0x4
 2323 0205 C5010000 		.4byte	0x1c5
 2324 0209 08       		.uleb128 0x8
 2325 020a 4B050000 		.4byte	.LASF38
 2326 020e 03       		.byte	0x3
 2327 020f B4       		.byte	0xb4
 2328 0210 D0010000 		.4byte	0x1d0
 2329 0214 06       		.uleb128 0x6
 2330 0215 20       		.byte	0x20
 2331 0216 03       		.byte	0x3
 2332 0217 CA       		.byte	0xca
 2333 0218 29020000 		.4byte	0x229
 2334 021c 07       		.uleb128 0x7
 2335 021d 7C060000 		.4byte	.LASF39
 2336 0221 03       		.byte	0x3
 2337 0222 CC       		.byte	0xcc
 2338 0223 29020000 		.4byte	0x229
 2339 0227 00       		.byte	0
 2340 0228 00       		.byte	0
 2341 0229 0A       		.uleb128 0xa
 2342 022a 83000000 		.4byte	0x83
 2343 022e 39020000 		.4byte	0x239
 2344 0232 0B       		.uleb128 0xb
 2345 0233 C1000000 		.4byte	0xc1
 2346 0237 07       		.byte	0x7
 2347 0238 00       		.byte	0
 2348 0239 08       		.uleb128 0x8
 2349 023a 51010000 		.4byte	.LASF40
 2350 023e 03       		.byte	0x3
 2351 023f CD       		.byte	0xcd
 2352 0240 14020000 		.4byte	0x214
 2353 0244 0C       		.uleb128 0xc
 2354 0245 0A       		.byte	0xa
 2355 0246 04       		.byte	0x4
 2356 0247 6D01     		.2byte	0x16d
 2357 0249 D0020000 		.4byte	0x2d0
ARM GAS  C:\Users\HPz420\AppData\Local\Temp\ccOuTLU7.s 			page 62


 2358 024d 0D       		.uleb128 0xd
 2359 024e B0000000 		.4byte	.LASF41
 2360 0252 04       		.byte	0x4
 2361 0253 6F01     		.2byte	0x16f
 2362 0255 6B000000 		.4byte	0x6b
 2363 0259 00       		.byte	0
 2364 025a 0D       		.uleb128 0xd
 2365 025b 6E060000 		.4byte	.LASF42
 2366 025f 04       		.byte	0x4
 2367 0260 7001     		.2byte	0x170
 2368 0262 6B000000 		.4byte	0x6b
 2369 0266 01       		.byte	0x1
 2370 0267 0D       		.uleb128 0xd
 2371 0268 A1010000 		.4byte	.LASF43
 2372 026c 04       		.byte	0x4
 2373 026d 7101     		.2byte	0x171
 2374 026f 6B000000 		.4byte	0x6b
 2375 0273 02       		.byte	0x2
 2376 0274 0D       		.uleb128 0xd
 2377 0275 41050000 		.4byte	.LASF44
 2378 0279 04       		.byte	0x4
 2379 027a 7201     		.2byte	0x172
 2380 027c 6B000000 		.4byte	0x6b
 2381 0280 03       		.byte	0x3
 2382 0281 0D       		.uleb128 0xd
 2383 0282 24050000 		.4byte	.LASF45
 2384 0286 04       		.byte	0x4
 2385 0287 7301     		.2byte	0x173
 2386 0289 6B000000 		.4byte	0x6b
 2387 028d 04       		.byte	0x4
 2388 028e 0D       		.uleb128 0xd
 2389 028f 43070000 		.4byte	.LASF46
 2390 0293 04       		.byte	0x4
 2391 0294 7401     		.2byte	0x174
 2392 0296 6B000000 		.4byte	0x6b
 2393 029a 05       		.byte	0x5
 2394 029b 0D       		.uleb128 0xd
 2395 029c 55060000 		.4byte	.LASF33
 2396 02a0 04       		.byte	0x4
 2397 02a1 7501     		.2byte	0x175
 2398 02a3 6B000000 		.4byte	0x6b
 2399 02a7 06       		.byte	0x6
 2400 02a8 0D       		.uleb128 0xd
 2401 02a9 63060000 		.4byte	.LASF47
 2402 02ad 04       		.byte	0x4
 2403 02ae 7601     		.2byte	0x176
 2404 02b0 6B000000 		.4byte	0x6b
 2405 02b4 07       		.byte	0x7
 2406 02b5 0D       		.uleb128 0xd
 2407 02b6 F5010000 		.4byte	.LASF48
 2408 02ba 04       		.byte	0x4
 2409 02bb 7701     		.2byte	0x177
 2410 02bd 6B000000 		.4byte	0x6b
 2411 02c1 08       		.byte	0x8
 2412 02c2 0D       		.uleb128 0xd
 2413 02c3 C3000000 		.4byte	.LASF49
 2414 02c7 04       		.byte	0x4
ARM GAS  C:\Users\HPz420\AppData\Local\Temp\ccOuTLU7.s 			page 63


 2415 02c8 7801     		.2byte	0x178
 2416 02ca 6B000000 		.4byte	0x6b
 2417 02ce 09       		.byte	0x9
 2418 02cf 00       		.byte	0
 2419 02d0 04       		.uleb128 0x4
 2420 02d1 A6060000 		.4byte	.LASF50
 2421 02d5 04       		.byte	0x4
 2422 02d6 7901     		.2byte	0x179
 2423 02d8 44020000 		.4byte	0x244
 2424 02dc 0E       		.uleb128 0xe
 2425 02dd 89060000 		.4byte	.LASF53
 2426 02e1 01       		.byte	0x1
 2427 02e2 9B       		.byte	0x9b
 2428 02e3 6B000000 		.4byte	0x6b
 2429 02e7 00000000 		.4byte	.LFB1
 2430 02eb F8000000 		.4byte	.LFE1-.LFB1
 2431 02ef 01       		.uleb128 0x1
 2432 02f0 9C       		.byte	0x9c
 2433 02f1 12030000 		.4byte	0x312
 2434 02f5 0F       		.uleb128 0xf
 2435 02f6 E3050000 		.4byte	.LASF51
 2436 02fa 01       		.byte	0x1
 2437 02fb 9D       		.byte	0x9d
 2438 02fc 6B000000 		.4byte	0x6b
 2439 0300 02       		.uleb128 0x2
 2440 0301 91       		.byte	0x91
 2441 0302 6F       		.sleb128 -17
 2442 0303 0F       		.uleb128 0xf
 2443 0304 33040000 		.4byte	.LASF52
 2444 0308 01       		.byte	0x1
 2445 0309 9E       		.byte	0x9e
 2446 030a 6B000000 		.4byte	0x6b
 2447 030e 02       		.uleb128 0x2
 2448 030f 91       		.byte	0x91
 2449 0310 6E       		.sleb128 -18
 2450 0311 00       		.byte	0
 2451 0312 10       		.uleb128 0x10
 2452 0313 2D000000 		.4byte	.LASF54
 2453 0317 01       		.byte	0x1
 2454 0318 EF       		.byte	0xef
 2455 0319 6B000000 		.4byte	0x6b
 2456 031d 00000000 		.4byte	.LFB2
 2457 0321 90000000 		.4byte	.LFE2-.LFB2
 2458 0325 01       		.uleb128 0x1
 2459 0326 9C       		.byte	0x9c
 2460 0327 64030000 		.4byte	0x364
 2461 032b 11       		.uleb128 0x11
 2462 032c C8030000 		.4byte	.LASF26
 2463 0330 01       		.byte	0x1
 2464 0331 EF       		.byte	0xef
 2465 0332 6B000000 		.4byte	0x6b
 2466 0336 02       		.uleb128 0x2
 2467 0337 91       		.byte	0x91
 2468 0338 6F       		.sleb128 -17
 2469 0339 0F       		.uleb128 0xf
 2470 033a 33040000 		.4byte	.LASF52
 2471 033e 01       		.byte	0x1
ARM GAS  C:\Users\HPz420\AppData\Local\Temp\ccOuTLU7.s 			page 64


 2472 033f F1       		.byte	0xf1
 2473 0340 6B000000 		.4byte	0x6b
 2474 0344 02       		.uleb128 0x2
 2475 0345 91       		.byte	0x91
 2476 0346 77       		.sleb128 -9
 2477 0347 12       		.uleb128 0x12
 2478 0348 72657300 		.ascii	"res\000"
 2479 034c 01       		.byte	0x1
 2480 034d F2       		.byte	0xf2
 2481 034e 6B000000 		.4byte	0x6b
 2482 0352 02       		.uleb128 0x2
 2483 0353 91       		.byte	0x91
 2484 0354 76       		.sleb128 -10
 2485 0355 0F       		.uleb128 0xf
 2486 0356 3B050000 		.4byte	.LASF55
 2487 035a 01       		.byte	0x1
 2488 035b F3       		.byte	0xf3
 2489 035c 6B000000 		.4byte	0x6b
 2490 0360 02       		.uleb128 0x2
 2491 0361 91       		.byte	0x91
 2492 0362 75       		.sleb128 -11
 2493 0363 00       		.byte	0
 2494 0364 13       		.uleb128 0x13
 2495 0365 A4050000 		.4byte	.LASF56
 2496 0369 01       		.byte	0x1
 2497 036a 2501     		.2byte	0x125
 2498 036c 6B000000 		.4byte	0x6b
 2499 0370 00000000 		.4byte	.LFB3
 2500 0374 C0000000 		.4byte	.LFE3-.LFB3
 2501 0378 01       		.uleb128 0x1
 2502 0379 9C       		.byte	0x9c
 2503 037a AC030000 		.4byte	0x3ac
 2504 037e 14       		.uleb128 0x14
 2505 037f 33040000 		.4byte	.LASF52
 2506 0383 01       		.byte	0x1
 2507 0384 2701     		.2byte	0x127
 2508 0386 6B000000 		.4byte	0x6b
 2509 038a 02       		.uleb128 0x2
 2510 038b 91       		.byte	0x91
 2511 038c 77       		.sleb128 -9
 2512 038d 14       		.uleb128 0x14
 2513 038e 2B050000 		.4byte	.LASF57
 2514 0392 01       		.byte	0x1
 2515 0393 2801     		.2byte	0x128
 2516 0395 6B000000 		.4byte	0x6b
 2517 0399 02       		.uleb128 0x2
 2518 039a 91       		.byte	0x91
 2519 039b 75       		.sleb128 -11
 2520 039c 15       		.uleb128 0x15
 2521 039d 72657400 		.ascii	"ret\000"
 2522 03a1 01       		.byte	0x1
 2523 03a2 2901     		.2byte	0x129
 2524 03a4 6B000000 		.4byte	0x6b
 2525 03a8 02       		.uleb128 0x2
 2526 03a9 91       		.byte	0x91
 2527 03aa 76       		.sleb128 -10
 2528 03ab 00       		.byte	0
ARM GAS  C:\Users\HPz420\AppData\Local\Temp\ccOuTLU7.s 			page 65


 2529 03ac 16       		.uleb128 0x16
 2530 03ad 82010000 		.4byte	.LASF60
 2531 03b1 01       		.byte	0x1
 2532 03b2 6601     		.2byte	0x166
 2533 03b4 00000000 		.4byte	.LFB4
 2534 03b8 84000000 		.4byte	.LFE4-.LFB4
 2535 03bc 01       		.uleb128 0x1
 2536 03bd 9C       		.byte	0x9c
 2537 03be F0030000 		.4byte	0x3f0
 2538 03c2 17       		.uleb128 0x17
 2539 03c3 32020000 		.4byte	.LASF36
 2540 03c7 01       		.byte	0x1
 2541 03c8 6601     		.2byte	0x166
 2542 03ca F0030000 		.4byte	0x3f0
 2543 03ce 02       		.uleb128 0x2
 2544 03cf 91       		.byte	0x91
 2545 03d0 6C       		.sleb128 -20
 2546 03d1 17       		.uleb128 0x17
 2547 03d2 55060000 		.4byte	.LASF33
 2548 03d6 01       		.byte	0x1
 2549 03d7 6601     		.2byte	0x166
 2550 03d9 77000000 		.4byte	0x77
 2551 03dd 02       		.uleb128 0x2
 2552 03de 91       		.byte	0x91
 2553 03df 6A       		.sleb128 -22
 2554 03e0 14       		.uleb128 0x14
 2555 03e1 BE020000 		.4byte	.LASF58
 2556 03e5 01       		.byte	0x1
 2557 03e6 6801     		.2byte	0x168
 2558 03e8 6B000000 		.4byte	0x6b
 2559 03ec 02       		.uleb128 0x2
 2560 03ed 91       		.byte	0x91
 2561 03ee 77       		.sleb128 -9
 2562 03ef 00       		.byte	0
 2563 03f0 09       		.uleb128 0x9
 2564 03f1 04       		.byte	0x4
 2565 03f2 F6030000 		.4byte	0x3f6
 2566 03f6 18       		.uleb128 0x18
 2567 03f7 6B000000 		.4byte	0x6b
 2568 03fb 19       		.uleb128 0x19
 2569 03fc 46060000 		.4byte	.LASF113
 2570 0400 01       		.byte	0x1
 2571 0401 8401     		.2byte	0x184
 2572 0403 77000000 		.4byte	0x77
 2573 0407 00000000 		.4byte	.LFB5
 2574 040b 3E000000 		.4byte	.LFE5-.LFB5
 2575 040f 01       		.uleb128 0x1
 2576 0410 9C       		.byte	0x9c
 2577 0411 34040000 		.4byte	0x434
 2578 0415 17       		.uleb128 0x17
 2579 0416 5D000000 		.4byte	.LASF59
 2580 041a 01       		.byte	0x1
 2581 041b 8401     		.2byte	0x184
 2582 041d 34040000 		.4byte	0x434
 2583 0421 02       		.uleb128 0x2
 2584 0422 91       		.byte	0x91
 2585 0423 6C       		.sleb128 -20
ARM GAS  C:\Users\HPz420\AppData\Local\Temp\ccOuTLU7.s 			page 66


 2586 0424 15       		.uleb128 0x15
 2587 0425 6C656E00 		.ascii	"len\000"
 2588 0429 01       		.byte	0x1
 2589 042a 8601     		.2byte	0x186
 2590 042c 77000000 		.4byte	0x77
 2591 0430 02       		.uleb128 0x2
 2592 0431 91       		.byte	0x91
 2593 0432 76       		.sleb128 -10
 2594 0433 00       		.byte	0
 2595 0434 09       		.uleb128 0x9
 2596 0435 04       		.byte	0x4
 2597 0436 3A040000 		.4byte	0x43a
 2598 043a 18       		.uleb128 0x18
 2599 043b 9D000000 		.4byte	0x9d
 2600 043f 16       		.uleb128 0x16
 2601 0440 64040000 		.4byte	.LASF61
 2602 0444 01       		.byte	0x1
 2603 0445 A901     		.2byte	0x1a9
 2604 0447 00000000 		.4byte	.LFB6
 2605 044b 40010000 		.4byte	.LFE6-.LFB6
 2606 044f 01       		.uleb128 0x1
 2607 0450 9C       		.byte	0x9c
 2608 0451 A1040000 		.4byte	0x4a1
 2609 0455 17       		.uleb128 0x17
 2610 0456 5D000000 		.4byte	.LASF59
 2611 045a 01       		.byte	0x1
 2612 045b A901     		.2byte	0x1a9
 2613 045d 34040000 		.4byte	0x434
 2614 0461 02       		.uleb128 0x2
 2615 0462 91       		.byte	0x91
 2616 0463 64       		.sleb128 -28
 2617 0464 14       		.uleb128 0x14
 2618 0465 9A050000 		.4byte	.LASF62
 2619 0469 01       		.byte	0x1
 2620 046a AB01     		.2byte	0x1ab
 2621 046c 77000000 		.4byte	0x77
 2622 0470 02       		.uleb128 0x2
 2623 0471 91       		.byte	0x91
 2624 0472 6E       		.sleb128 -18
 2625 0473 14       		.uleb128 0x14
 2626 0474 E2060000 		.4byte	.LASF63
 2627 0478 01       		.byte	0x1
 2628 0479 AC01     		.2byte	0x1ac
 2629 047b 77000000 		.4byte	0x77
 2630 047f 02       		.uleb128 0x2
 2631 0480 91       		.byte	0x91
 2632 0481 68       		.sleb128 -24
 2633 0482 14       		.uleb128 0x14
 2634 0483 FC020000 		.4byte	.LASF64
 2635 0487 01       		.byte	0x1
 2636 0488 AD01     		.2byte	0x1ad
 2637 048a 77000000 		.4byte	0x77
 2638 048e 02       		.uleb128 0x2
 2639 048f 91       		.byte	0x91
 2640 0490 6C       		.sleb128 -20
 2641 0491 14       		.uleb128 0x14
 2642 0492 BE020000 		.4byte	.LASF58
ARM GAS  C:\Users\HPz420\AppData\Local\Temp\ccOuTLU7.s 			page 67


 2643 0496 01       		.byte	0x1
 2644 0497 AF01     		.2byte	0x1af
 2645 0499 6B000000 		.4byte	0x6b
 2646 049d 02       		.uleb128 0x2
 2647 049e 91       		.byte	0x91
 2648 049f 6B       		.sleb128 -21
 2649 04a0 00       		.byte	0
 2650 04a1 16       		.uleb128 0x16
 2651 04a2 F1040000 		.4byte	.LASF65
 2652 04a6 01       		.byte	0x1
 2653 04a7 E801     		.2byte	0x1e8
 2654 04a9 00000000 		.4byte	.LFB7
 2655 04ad 40000000 		.4byte	.LFE7-.LFB7
 2656 04b1 01       		.uleb128 0x1
 2657 04b2 9C       		.byte	0x9c
 2658 04b3 D6040000 		.4byte	0x4d6
 2659 04b7 17       		.uleb128 0x17
 2660 04b8 49000000 		.4byte	.LASF66
 2661 04bc 01       		.byte	0x1
 2662 04bd E801     		.2byte	0x1e8
 2663 04bf 9D000000 		.4byte	0x9d
 2664 04c3 02       		.uleb128 0x2
 2665 04c4 91       		.byte	0x91
 2666 04c5 6F       		.sleb128 -17
 2667 04c6 14       		.uleb128 0x14
 2668 04c7 54000000 		.4byte	.LASF67
 2669 04cb 01       		.byte	0x1
 2670 04cc EA01     		.2byte	0x1ea
 2671 04ce 6B000000 		.4byte	0x6b
 2672 04d2 02       		.uleb128 0x2
 2673 04d3 91       		.byte	0x91
 2674 04d4 77       		.sleb128 -9
 2675 04d5 00       		.byte	0
 2676 04d6 16       		.uleb128 0x16
 2677 04d7 78050000 		.4byte	.LASF68
 2678 04db 01       		.byte	0x1
 2679 04dc 0102     		.2byte	0x201
 2680 04de 00000000 		.4byte	.LFB8
 2681 04e2 40000000 		.4byte	.LFE8-.LFB8
 2682 04e6 01       		.uleb128 0x1
 2683 04e7 9C       		.byte	0x9c
 2684 04e8 FC040000 		.4byte	0x4fc
 2685 04ec 14       		.uleb128 0x14
 2686 04ed 00070000 		.4byte	.LASF69
 2687 04f1 01       		.byte	0x1
 2688 04f2 0302     		.2byte	0x203
 2689 04f4 0C050000 		.4byte	0x50c
 2690 04f8 02       		.uleb128 0x2
 2691 04f9 91       		.byte	0x91
 2692 04fa 74       		.sleb128 -12
 2693 04fb 00       		.byte	0
 2694 04fc 0A       		.uleb128 0xa
 2695 04fd F6030000 		.4byte	0x3f6
 2696 0501 0C050000 		.4byte	0x50c
 2697 0505 0B       		.uleb128 0xb
 2698 0506 C1000000 		.4byte	0xc1
 2699 050a 01       		.byte	0x1
ARM GAS  C:\Users\HPz420\AppData\Local\Temp\ccOuTLU7.s 			page 68


 2700 050b 00       		.byte	0
 2701 050c 18       		.uleb128 0x18
 2702 050d FC040000 		.4byte	0x4fc
 2703 0511 13       		.uleb128 0x13
 2704 0512 0A040000 		.4byte	.LASF70
 2705 0516 01       		.byte	0x1
 2706 0517 1B02     		.2byte	0x21b
 2707 0519 77000000 		.4byte	0x77
 2708 051d 00000000 		.4byte	.LFB9
 2709 0521 60000000 		.4byte	.LFE9-.LFB9
 2710 0525 01       		.uleb128 0x1
 2711 0526 9C       		.byte	0x9c
 2712 0527 4A050000 		.4byte	0x54a
 2713 052b 14       		.uleb128 0x14
 2714 052c 2D010000 		.4byte	.LASF71
 2715 0530 01       		.byte	0x1
 2716 0531 1D02     		.2byte	0x21d
 2717 0533 77000000 		.4byte	0x77
 2718 0537 02       		.uleb128 0x2
 2719 0538 91       		.byte	0x91
 2720 0539 6E       		.sleb128 -18
 2721 053a 14       		.uleb128 0x14
 2722 053b BE020000 		.4byte	.LASF58
 2723 053f 01       		.byte	0x1
 2724 0540 1F02     		.2byte	0x21f
 2725 0542 6B000000 		.4byte	0x6b
 2726 0546 02       		.uleb128 0x2
 2727 0547 91       		.byte	0x91
 2728 0548 6D       		.sleb128 -19
 2729 0549 00       		.byte	0
 2730 054a 1A       		.uleb128 0x1a
 2731 054b 98020000 		.4byte	.LASF72
 2732 054f 01       		.byte	0x1
 2733 0550 4102     		.2byte	0x241
 2734 0552 6B000000 		.4byte	0x6b
 2735 0556 00000000 		.4byte	.LFB10
 2736 055a 28000000 		.4byte	.LFE10-.LFB10
 2737 055e 01       		.uleb128 0x1
 2738 055f 9C       		.byte	0x9c
 2739 0560 1A       		.uleb128 0x1a
 2740 0561 38010000 		.4byte	.LASF73
 2741 0565 01       		.byte	0x1
 2742 0566 5A02     		.2byte	0x25a
 2743 0568 6B000000 		.4byte	0x6b
 2744 056c 00000000 		.4byte	.LFB11
 2745 0570 28000000 		.4byte	.LFE11-.LFB11
 2746 0574 01       		.uleb128 0x1
 2747 0575 9C       		.byte	0x9c
 2748 0576 13       		.uleb128 0x13
 2749 0577 36060000 		.4byte	.LASF74
 2750 057b 01       		.byte	0x1
 2751 057c 7D02     		.2byte	0x27d
 2752 057e 77000000 		.4byte	0x77
 2753 0582 00000000 		.4byte	.LFB12
 2754 0586 4C000000 		.4byte	.LFE12-.LFB12
 2755 058a 01       		.uleb128 0x1
 2756 058b 9C       		.byte	0x9c
ARM GAS  C:\Users\HPz420\AppData\Local\Temp\ccOuTLU7.s 			page 69


 2757 058c BE050000 		.4byte	0x5be
 2758 0590 17       		.uleb128 0x17
 2759 0591 32020000 		.4byte	.LASF36
 2760 0595 01       		.byte	0x1
 2761 0596 7D02     		.2byte	0x27d
 2762 0598 BE050000 		.4byte	0x5be
 2763 059c 02       		.uleb128 0x2
 2764 059d 91       		.byte	0x91
 2765 059e 64       		.sleb128 -28
 2766 059f 17       		.uleb128 0x17
 2767 05a0 55060000 		.4byte	.LASF33
 2768 05a4 01       		.byte	0x1
 2769 05a5 7D02     		.2byte	0x27d
 2770 05a7 77000000 		.4byte	0x77
 2771 05ab 02       		.uleb128 0x2
 2772 05ac 91       		.byte	0x91
 2773 05ad 62       		.sleb128 -30
 2774 05ae 14       		.uleb128 0x14
 2775 05af BE020000 		.4byte	.LASF58
 2776 05b3 01       		.byte	0x1
 2777 05b4 7F02     		.2byte	0x27f
 2778 05b6 6B000000 		.4byte	0x6b
 2779 05ba 02       		.uleb128 0x2
 2780 05bb 91       		.byte	0x91
 2781 05bc 6F       		.sleb128 -17
 2782 05bd 00       		.byte	0
 2783 05be 09       		.uleb128 0x9
 2784 05bf 04       		.byte	0x4
 2785 05c0 6B000000 		.4byte	0x6b
 2786 05c4 13       		.uleb128 0x13
 2787 05c5 05030000 		.4byte	.LASF75
 2788 05c9 01       		.byte	0x1
 2789 05ca AA02     		.2byte	0x2aa
 2790 05cc 77000000 		.4byte	0x77
 2791 05d0 00000000 		.4byte	.LFB13
 2792 05d4 60000000 		.4byte	.LFE13-.LFB13
 2793 05d8 01       		.uleb128 0x1
 2794 05d9 9C       		.byte	0x9c
 2795 05da 0C060000 		.4byte	0x60c
 2796 05de 17       		.uleb128 0x17
 2797 05df 32020000 		.4byte	.LASF36
 2798 05e3 01       		.byte	0x1
 2799 05e4 AA02     		.2byte	0x2aa
 2800 05e6 BE050000 		.4byte	0x5be
 2801 05ea 02       		.uleb128 0x2
 2802 05eb 91       		.byte	0x91
 2803 05ec 64       		.sleb128 -28
 2804 05ed 14       		.uleb128 0x14
 2805 05ee BE020000 		.4byte	.LASF58
 2806 05f2 01       		.byte	0x1
 2807 05f3 AC02     		.2byte	0x2ac
 2808 05f5 6B000000 		.4byte	0x6b
 2809 05f9 02       		.uleb128 0x2
 2810 05fa 91       		.byte	0x91
 2811 05fb 6F       		.sleb128 -17
 2812 05fc 14       		.uleb128 0x14
 2813 05fd AF010000 		.4byte	.LASF76
ARM GAS  C:\Users\HPz420\AppData\Local\Temp\ccOuTLU7.s 			page 70


 2814 0601 01       		.byte	0x1
 2815 0602 AD02     		.2byte	0x2ad
 2816 0604 77000000 		.4byte	0x77
 2817 0608 02       		.uleb128 0x2
 2818 0609 91       		.byte	0x91
 2819 060a 6C       		.sleb128 -20
 2820 060b 00       		.byte	0
 2821 060c 13       		.uleb128 0x13
 2822 060d 72010000 		.4byte	.LASF77
 2823 0611 01       		.byte	0x1
 2824 0612 D102     		.2byte	0x2d1
 2825 0614 6B000000 		.4byte	0x6b
 2826 0618 00000000 		.4byte	.LFB14
 2827 061c 38000000 		.4byte	.LFE14-.LFB14
 2828 0620 01       		.uleb128 0x1
 2829 0621 9C       		.byte	0x9c
 2830 0622 45060000 		.4byte	0x645
 2831 0626 14       		.uleb128 0x14
 2832 0627 93050000 		.4byte	.LASF78
 2833 062b 01       		.byte	0x1
 2834 062c D302     		.2byte	0x2d3
 2835 062e 6B000000 		.4byte	0x6b
 2836 0632 02       		.uleb128 0x2
 2837 0633 91       		.byte	0x91
 2838 0634 76       		.sleb128 -10
 2839 0635 14       		.uleb128 0x14
 2840 0636 BE020000 		.4byte	.LASF58
 2841 063a 01       		.byte	0x1
 2842 063b D402     		.2byte	0x2d4
 2843 063d 6B000000 		.4byte	0x6b
 2844 0641 02       		.uleb128 0x2
 2845 0642 91       		.byte	0x91
 2846 0643 77       		.sleb128 -9
 2847 0644 00       		.byte	0
 2848 0645 1B       		.uleb128 0x1b
 2849 0646 75020000 		.4byte	.LASF79
 2850 064a 01       		.byte	0x1
 2851 064b 0203     		.2byte	0x302
 2852 064d 6B000000 		.4byte	0x6b
 2853 0651 00000000 		.4byte	.LFB15
 2854 0655 58000000 		.4byte	.LFE15-.LFB15
 2855 0659 01       		.uleb128 0x1
 2856 065a 9C       		.byte	0x9c
 2857 065b 6F060000 		.4byte	0x66f
 2858 065f 14       		.uleb128 0x14
 2859 0660 4B010000 		.4byte	.LASF80
 2860 0664 01       		.byte	0x1
 2861 0665 0403     		.2byte	0x304
 2862 0667 6B000000 		.4byte	0x6b
 2863 066b 02       		.uleb128 0x2
 2864 066c 91       		.byte	0x91
 2865 066d 77       		.sleb128 -9
 2866 066e 00       		.byte	0
 2867 066f 1B       		.uleb128 0x1b
 2868 0670 62020000 		.4byte	.LASF81
 2869 0674 01       		.byte	0x1
 2870 0675 2303     		.2byte	0x323
ARM GAS  C:\Users\HPz420\AppData\Local\Temp\ccOuTLU7.s 			page 71


 2871 0677 83000000 		.4byte	0x83
 2872 067b 00000000 		.4byte	.LFB16
 2873 067f 88000000 		.4byte	.LFE16-.LFB16
 2874 0683 01       		.uleb128 0x1
 2875 0684 9C       		.byte	0x9c
 2876 0685 99060000 		.4byte	0x699
 2877 0689 14       		.uleb128 0x14
 2878 068a 28010000 		.4byte	.LASF82
 2879 068e 01       		.byte	0x1
 2880 068f 2503     		.2byte	0x325
 2881 0691 83000000 		.4byte	0x83
 2882 0695 02       		.uleb128 0x2
 2883 0696 91       		.byte	0x91
 2884 0697 74       		.sleb128 -12
 2885 0698 00       		.byte	0
 2886 0699 1C       		.uleb128 0x1c
 2887 069a 7E000000 		.4byte	.LASF83
 2888 069e 01       		.byte	0x1
 2889 069f 4303     		.2byte	0x343
 2890 06a1 6B000000 		.4byte	0x6b
 2891 06a5 00000000 		.4byte	.LFB17
 2892 06a9 28000000 		.4byte	.LFE17-.LFB17
 2893 06ad 01       		.uleb128 0x1
 2894 06ae 9C       		.byte	0x9c
 2895 06af 1C       		.uleb128 0x1c
 2896 06b0 C7020000 		.4byte	.LASF84
 2897 06b4 01       		.byte	0x1
 2898 06b5 5D03     		.2byte	0x35d
 2899 06b7 6B000000 		.4byte	0x6b
 2900 06bb 00000000 		.4byte	.LFB18
 2901 06bf 28000000 		.4byte	.LFE18-.LFB18
 2902 06c3 01       		.uleb128 0x1
 2903 06c4 9C       		.byte	0x9c
 2904 06c5 1C       		.uleb128 0x1c
 2905 06c6 3B040000 		.4byte	.LASF85
 2906 06ca 01       		.byte	0x1
 2907 06cb 7103     		.2byte	0x371
 2908 06cd 6B000000 		.4byte	0x6b
 2909 06d1 00000000 		.4byte	.LFB19
 2910 06d5 28000000 		.4byte	.LFE19-.LFB19
 2911 06d9 01       		.uleb128 0x1
 2912 06da 9C       		.byte	0x9c
 2913 06db 1C       		.uleb128 0x1c
 2914 06dc BA010000 		.4byte	.LASF86
 2915 06e0 01       		.byte	0x1
 2916 06e1 8E03     		.2byte	0x38e
 2917 06e3 77000000 		.4byte	0x77
 2918 06e7 00000000 		.4byte	.LFB20
 2919 06eb 20000000 		.4byte	.LFE20-.LFB20
 2920 06ef 01       		.uleb128 0x1
 2921 06f0 9C       		.byte	0x9c
 2922 06f1 16       		.uleb128 0x16
 2923 06f2 1B040000 		.4byte	.LASF87
 2924 06f6 01       		.byte	0x1
 2925 06f7 A603     		.2byte	0x3a6
 2926 06f9 00000000 		.4byte	.LFB21
 2927 06fd BC000000 		.4byte	.LFE21-.LFB21
ARM GAS  C:\Users\HPz420\AppData\Local\Temp\ccOuTLU7.s 			page 72


 2928 0701 01       		.uleb128 0x1
 2929 0702 9C       		.byte	0x9c
 2930 0703 26070000 		.4byte	0x726
 2931 0707 17       		.uleb128 0x17
 2932 0708 F0020000 		.4byte	.LASF88
 2933 070c 01       		.byte	0x1
 2934 070d A603     		.2byte	0x3a6
 2935 070f 77000000 		.4byte	0x77
 2936 0713 02       		.uleb128 0x2
 2937 0714 91       		.byte	0x91
 2938 0715 6E       		.sleb128 -18
 2939 0716 14       		.uleb128 0x14
 2940 0717 BE020000 		.4byte	.LASF58
 2941 071b 01       		.byte	0x1
 2942 071c A803     		.2byte	0x3a8
 2943 071e 6B000000 		.4byte	0x6b
 2944 0722 02       		.uleb128 0x2
 2945 0723 91       		.byte	0x91
 2946 0724 77       		.sleb128 -9
 2947 0725 00       		.byte	0
 2948 0726 1C       		.uleb128 0x1c
 2949 0727 2C070000 		.4byte	.LASF89
 2950 072b 01       		.byte	0x1
 2951 072c C703     		.2byte	0x3c7
 2952 072e 77000000 		.4byte	0x77
 2953 0732 00000000 		.4byte	.LFB22
 2954 0736 20000000 		.4byte	.LFE22-.LFB22
 2955 073a 01       		.uleb128 0x1
 2956 073b 9C       		.byte	0x9c
 2957 073c 1C       		.uleb128 0x1c
 2958 073d 46020000 		.4byte	.LASF90
 2959 0741 01       		.byte	0x1
 2960 0742 DF03     		.2byte	0x3df
 2961 0744 6B000000 		.4byte	0x6b
 2962 0748 00000000 		.4byte	.LFB23
 2963 074c 38000000 		.4byte	.LFE23-.LFB23
 2964 0750 01       		.uleb128 0x1
 2965 0751 9C       		.byte	0x9c
 2966 0752 1D       		.uleb128 0x1d
 2967 0753 B5050000 		.4byte	.LASF91
 2968 0757 01       		.byte	0x1
 2969 0758 F703     		.2byte	0x3f7
 2970 075a 00000000 		.4byte	.LFB24
 2971 075e 34000000 		.4byte	.LFE24-.LFB24
 2972 0762 01       		.uleb128 0x1
 2973 0763 9C       		.byte	0x9c
 2974 0764 78070000 		.4byte	0x778
 2975 0768 17       		.uleb128 0x17
 2976 0769 1A050000 		.4byte	.LASF92
 2977 076d 01       		.byte	0x1
 2978 076e F703     		.2byte	0x3f7
 2979 0770 6B000000 		.4byte	0x6b
 2980 0774 02       		.uleb128 0x2
 2981 0775 91       		.byte	0x91
 2982 0776 77       		.sleb128 -9
 2983 0777 00       		.byte	0
 2984 0778 1C       		.uleb128 0x1c
ARM GAS  C:\Users\HPz420\AppData\Local\Temp\ccOuTLU7.s 			page 73


 2985 0779 13000000 		.4byte	.LASF93
 2986 077d 01       		.byte	0x1
 2987 077e 1004     		.2byte	0x410
 2988 0780 6B000000 		.4byte	0x6b
 2989 0784 00000000 		.4byte	.LFB25
 2990 0788 14000000 		.4byte	.LFE25-.LFB25
 2991 078c 01       		.uleb128 0x1
 2992 078d 9C       		.byte	0x9c
 2993 078e 1B       		.uleb128 0x1b
 2994 078f ED060000 		.4byte	.LASF94
 2995 0793 01       		.byte	0x1
 2996 0794 2F04     		.2byte	0x42f
 2997 0796 6B000000 		.4byte	0x6b
 2998 079a 00000000 		.4byte	.LFB26
 2999 079e C0000000 		.4byte	.LFE26-.LFB26
 3000 07a2 01       		.uleb128 0x1
 3001 07a3 9C       		.byte	0x9c
 3002 07a4 E5070000 		.4byte	0x7e5
 3003 07a8 1E       		.uleb128 0x1e
 3004 07a9 70455000 		.ascii	"pEP\000"
 3005 07ad 01       		.byte	0x1
 3006 07ae 2F04     		.2byte	0x42f
 3007 07b0 E5070000 		.4byte	0x7e5
 3008 07b4 02       		.uleb128 0x2
 3009 07b5 91       		.byte	0x91
 3010 07b6 6C       		.sleb128 -20
 3011 07b7 17       		.uleb128 0x17
 3012 07b8 BD000000 		.4byte	.LASF95
 3013 07bc 01       		.byte	0x1
 3014 07bd 2F04     		.2byte	0x42f
 3015 07bf 6B000000 		.4byte	0x6b
 3016 07c3 02       		.uleb128 0x2
 3017 07c4 91       		.byte	0x91
 3018 07c5 6B       		.sleb128 -21
 3019 07c6 17       		.uleb128 0x17
 3020 07c7 C1060000 		.4byte	.LASF96
 3021 07cb 01       		.byte	0x1
 3022 07cc 2F04     		.2byte	0x42f
 3023 07ce 6B000000 		.4byte	0x6b
 3024 07d2 02       		.uleb128 0x2
 3025 07d3 91       		.byte	0x91
 3026 07d4 6A       		.sleb128 -22
 3027 07d5 14       		.uleb128 0x14
 3028 07d6 3F020000 		.4byte	.LASF97
 3029 07da 01       		.byte	0x1
 3030 07db 3104     		.2byte	0x431
 3031 07dd 6B000000 		.4byte	0x6b
 3032 07e1 02       		.uleb128 0x2
 3033 07e2 91       		.byte	0x91
 3034 07e3 77       		.sleb128 -9
 3035 07e4 00       		.byte	0
 3036 07e5 09       		.uleb128 0x9
 3037 07e6 04       		.byte	0x4
 3038 07e7 EB070000 		.4byte	0x7eb
 3039 07eb 18       		.uleb128 0x18
 3040 07ec 99010000 		.4byte	0x199
 3041 07f0 0F       		.uleb128 0xf
ARM GAS  C:\Users\HPz420\AppData\Local\Temp\ccOuTLU7.s 			page 74


 3042 07f1 58050000 		.4byte	.LASF98
 3043 07f5 01       		.byte	0x1
 3044 07f6 67       		.byte	0x67
 3045 07f7 D0020000 		.4byte	0x2d0
 3046 07fb 05       		.uleb128 0x5
 3047 07fc 03       		.byte	0x3
 3048 07fd 10000000 		.4byte	USBUART_serialStateNotification
 3049 0801 0F       		.uleb128 0xf
 3050 0802 D2030000 		.4byte	.LASF99
 3051 0806 01       		.byte	0x1
 3052 0807 75       		.byte	0x75
 3053 0808 6B000000 		.4byte	0x6b
 3054 080c 05       		.uleb128 0x5
 3055 080d 03       		.byte	0x3
 3056 080e 00000000 		.4byte	USBUART_activeCom
 3057 0812 1F       		.uleb128 0x1f
 3058 0813 CC060000 		.4byte	.LASF100
 3059 0817 03       		.byte	0x3
 3060 0818 D802     		.2byte	0x2d8
 3061 081a B0000000 		.4byte	0xb0
 3062 081e 0A       		.uleb128 0xa
 3063 081f B0000000 		.4byte	0xb0
 3064 0823 34080000 		.4byte	0x834
 3065 0827 0B       		.uleb128 0xb
 3066 0828 C1000000 		.4byte	0xc1
 3067 082c 01       		.byte	0x1
 3068 082d 0B       		.uleb128 0xb
 3069 082e C1000000 		.4byte	0xc1
 3070 0832 06       		.byte	0x6
 3071 0833 00       		.byte	0
 3072 0834 20       		.uleb128 0x20
 3073 0835 FA000000 		.4byte	.LASF101
 3074 0839 01       		.byte	0x1
 3075 083a 24       		.byte	0x24
 3076 083b 45080000 		.4byte	0x845
 3077 083f 05       		.uleb128 0x5
 3078 0840 03       		.byte	0x3
 3079 0841 00000000 		.4byte	USBUART_linesCoding
 3080 0845 05       		.uleb128 0x5
 3081 0846 1E080000 		.4byte	0x81e
 3082 084a 0A       		.uleb128 0xa
 3083 084b B0000000 		.4byte	0xb0
 3084 084f 5A080000 		.4byte	0x85a
 3085 0853 0B       		.uleb128 0xb
 3086 0854 C1000000 		.4byte	0xc1
 3087 0858 01       		.byte	0x1
 3088 0859 00       		.byte	0
 3089 085a 20       		.uleb128 0x20
 3090 085b 4F040000 		.4byte	.LASF102
 3091 085f 01       		.byte	0x1
 3092 0860 3A       		.byte	0x3a
 3093 0861 6B080000 		.4byte	0x86b
 3094 0865 05       		.uleb128 0x5
 3095 0866 03       		.byte	0x3
 3096 0867 00000000 		.4byte	USBUART_linesChanged
 3097 086b 05       		.uleb128 0x5
 3098 086c 4A080000 		.4byte	0x84a
ARM GAS  C:\Users\HPz420\AppData\Local\Temp\ccOuTLU7.s 			page 75


 3099 0870 0A       		.uleb128 0xa
 3100 0871 B5000000 		.4byte	0xb5
 3101 0875 80080000 		.4byte	0x880
 3102 0879 0B       		.uleb128 0xb
 3103 087a C1000000 		.4byte	0xc1
 3104 087e 01       		.byte	0x1
 3105 087f 00       		.byte	0
 3106 0880 20       		.uleb128 0x20
 3107 0881 02020000 		.4byte	.LASF103
 3108 0885 01       		.byte	0x1
 3109 0886 40       		.byte	0x40
 3110 0887 91080000 		.4byte	0x891
 3111 088b 05       		.uleb128 0x5
 3112 088c 03       		.byte	0x3
 3113 088d 00000000 		.4byte	USBUART_linesControlBitmap
 3114 0891 05       		.uleb128 0x5
 3115 0892 70080000 		.4byte	0x870
 3116 0896 20       		.uleb128 0x20
 3117 0897 64000000 		.4byte	.LASF104
 3118 089b 01       		.byte	0x1
 3119 089c 45       		.byte	0x45
 3120 089d A7080000 		.4byte	0x8a7
 3121 08a1 05       		.uleb128 0x5
 3122 08a2 03       		.byte	0x3
 3123 08a3 00000000 		.4byte	USBUART_serialStateBitmap
 3124 08a7 05       		.uleb128 0x5
 3125 08a8 70080000 		.4byte	0x870
 3126 08ac 20       		.uleb128 0x20
 3127 08ad 26030000 		.4byte	.LASF105
 3128 08b1 01       		.byte	0x1
 3129 08b2 4A       		.byte	0x4a
 3130 08b3 BD080000 		.4byte	0x8bd
 3131 08b7 05       		.uleb128 0x5
 3132 08b8 03       		.byte	0x3
 3133 08b9 00000000 		.4byte	USBUART_cdcDataInEp
 3134 08bd 05       		.uleb128 0x5
 3135 08be 4A080000 		.4byte	0x84a
 3136 08c2 20       		.uleb128 0x20
 3137 08c3 1D020000 		.4byte	.LASF106
 3138 08c7 01       		.byte	0x1
 3139 08c8 4F       		.byte	0x4f
 3140 08c9 D3080000 		.4byte	0x8d3
 3141 08cd 05       		.uleb128 0x5
 3142 08ce 03       		.byte	0x3
 3143 08cf 00000000 		.4byte	USBUART_cdcDataOutEp
 3144 08d3 05       		.uleb128 0x5
 3145 08d4 4A080000 		.4byte	0x84a
 3146 08d8 20       		.uleb128 0x20
 3147 08d9 D1010000 		.4byte	.LASF107
 3148 08dd 01       		.byte	0x1
 3149 08de 55       		.byte	0x55
 3150 08df E9080000 		.4byte	0x8e9
 3151 08e3 05       		.uleb128 0x5
 3152 08e4 03       		.byte	0x3
 3153 08e5 00000000 		.4byte	USBUART_cdcCommInInterruptEp
 3154 08e9 05       		.uleb128 0x5
 3155 08ea 4A080000 		.4byte	0x84a
ARM GAS  C:\Users\HPz420\AppData\Local\Temp\ccOuTLU7.s 			page 76


 3156 08ee 0A       		.uleb128 0xa
 3157 08ef FE080000 		.4byte	0x8fe
 3158 08f3 FE080000 		.4byte	0x8fe
 3159 08f7 0B       		.uleb128 0xb
 3160 08f8 C1000000 		.4byte	0xc1
 3161 08fc 08       		.byte	0x8
 3162 08fd 00       		.byte	0
 3163 08fe 05       		.uleb128 0x5
 3164 08ff 3D010000 		.4byte	0x13d
 3165 0903 21       		.uleb128 0x21
 3166 0904 D3000000 		.4byte	.LASF108
 3167 0908 04       		.byte	0x4
 3168 0909 7A       		.byte	0x7a
 3169 090a 0E090000 		.4byte	0x90e
 3170 090e 05       		.uleb128 0x5
 3171 090f EE080000 		.4byte	0x8ee
 3172 0913 21       		.uleb128 0x21
 3173 0914 14030000 		.4byte	.LASF109
 3174 0918 04       		.byte	0x4
 3175 0919 7B       		.byte	0x7b
 3176 091a 1E090000 		.4byte	0x91e
 3177 091e 05       		.uleb128 0x5
 3178 091f 09020000 		.4byte	0x209
 3179 0923 00       		.byte	0
 3180              		.section	.debug_abbrev,"",%progbits
 3181              	.Ldebug_abbrev0:
 3182 0000 01       		.uleb128 0x1
 3183 0001 11       		.uleb128 0x11
 3184 0002 01       		.byte	0x1
 3185 0003 25       		.uleb128 0x25
 3186 0004 0E       		.uleb128 0xe
 3187 0005 13       		.uleb128 0x13
 3188 0006 0B       		.uleb128 0xb
 3189 0007 03       		.uleb128 0x3
 3190 0008 0E       		.uleb128 0xe
 3191 0009 1B       		.uleb128 0x1b
 3192 000a 0E       		.uleb128 0xe
 3193 000b 55       		.uleb128 0x55
 3194 000c 17       		.uleb128 0x17
 3195 000d 11       		.uleb128 0x11
 3196 000e 01       		.uleb128 0x1
 3197 000f 10       		.uleb128 0x10
 3198 0010 17       		.uleb128 0x17
 3199 0011 00       		.byte	0
 3200 0012 00       		.byte	0
 3201 0013 02       		.uleb128 0x2
 3202 0014 24       		.uleb128 0x24
 3203 0015 00       		.byte	0
 3204 0016 0B       		.uleb128 0xb
 3205 0017 0B       		.uleb128 0xb
 3206 0018 3E       		.uleb128 0x3e
 3207 0019 0B       		.uleb128 0xb
 3208 001a 03       		.uleb128 0x3
 3209 001b 0E       		.uleb128 0xe
 3210 001c 00       		.byte	0
 3211 001d 00       		.byte	0
 3212 001e 03       		.uleb128 0x3
ARM GAS  C:\Users\HPz420\AppData\Local\Temp\ccOuTLU7.s 			page 77


 3213 001f 24       		.uleb128 0x24
 3214 0020 00       		.byte	0
 3215 0021 0B       		.uleb128 0xb
 3216 0022 0B       		.uleb128 0xb
 3217 0023 3E       		.uleb128 0x3e
 3218 0024 0B       		.uleb128 0xb
 3219 0025 03       		.uleb128 0x3
 3220 0026 08       		.uleb128 0x8
 3221 0027 00       		.byte	0
 3222 0028 00       		.byte	0
 3223 0029 04       		.uleb128 0x4
 3224 002a 16       		.uleb128 0x16
 3225 002b 00       		.byte	0
 3226 002c 03       		.uleb128 0x3
 3227 002d 0E       		.uleb128 0xe
 3228 002e 3A       		.uleb128 0x3a
 3229 002f 0B       		.uleb128 0xb
 3230 0030 3B       		.uleb128 0x3b
 3231 0031 05       		.uleb128 0x5
 3232 0032 49       		.uleb128 0x49
 3233 0033 13       		.uleb128 0x13
 3234 0034 00       		.byte	0
 3235 0035 00       		.byte	0
 3236 0036 05       		.uleb128 0x5
 3237 0037 35       		.uleb128 0x35
 3238 0038 00       		.byte	0
 3239 0039 49       		.uleb128 0x49
 3240 003a 13       		.uleb128 0x13
 3241 003b 00       		.byte	0
 3242 003c 00       		.byte	0
 3243 003d 06       		.uleb128 0x6
 3244 003e 13       		.uleb128 0x13
 3245 003f 01       		.byte	0x1
 3246 0040 0B       		.uleb128 0xb
 3247 0041 0B       		.uleb128 0xb
 3248 0042 3A       		.uleb128 0x3a
 3249 0043 0B       		.uleb128 0xb
 3250 0044 3B       		.uleb128 0x3b
 3251 0045 0B       		.uleb128 0xb
 3252 0046 01       		.uleb128 0x1
 3253 0047 13       		.uleb128 0x13
 3254 0048 00       		.byte	0
 3255 0049 00       		.byte	0
 3256 004a 07       		.uleb128 0x7
 3257 004b 0D       		.uleb128 0xd
 3258 004c 00       		.byte	0
 3259 004d 03       		.uleb128 0x3
 3260 004e 0E       		.uleb128 0xe
 3261 004f 3A       		.uleb128 0x3a
 3262 0050 0B       		.uleb128 0xb
 3263 0051 3B       		.uleb128 0x3b
 3264 0052 0B       		.uleb128 0xb
 3265 0053 49       		.uleb128 0x49
 3266 0054 13       		.uleb128 0x13
 3267 0055 38       		.uleb128 0x38
 3268 0056 0B       		.uleb128 0xb
 3269 0057 00       		.byte	0
ARM GAS  C:\Users\HPz420\AppData\Local\Temp\ccOuTLU7.s 			page 78


 3270 0058 00       		.byte	0
 3271 0059 08       		.uleb128 0x8
 3272 005a 16       		.uleb128 0x16
 3273 005b 00       		.byte	0
 3274 005c 03       		.uleb128 0x3
 3275 005d 0E       		.uleb128 0xe
 3276 005e 3A       		.uleb128 0x3a
 3277 005f 0B       		.uleb128 0xb
 3278 0060 3B       		.uleb128 0x3b
 3279 0061 0B       		.uleb128 0xb
 3280 0062 49       		.uleb128 0x49
 3281 0063 13       		.uleb128 0x13
 3282 0064 00       		.byte	0
 3283 0065 00       		.byte	0
 3284 0066 09       		.uleb128 0x9
 3285 0067 0F       		.uleb128 0xf
 3286 0068 00       		.byte	0
 3287 0069 0B       		.uleb128 0xb
 3288 006a 0B       		.uleb128 0xb
 3289 006b 49       		.uleb128 0x49
 3290 006c 13       		.uleb128 0x13
 3291 006d 00       		.byte	0
 3292 006e 00       		.byte	0
 3293 006f 0A       		.uleb128 0xa
 3294 0070 01       		.uleb128 0x1
 3295 0071 01       		.byte	0x1
 3296 0072 49       		.uleb128 0x49
 3297 0073 13       		.uleb128 0x13
 3298 0074 01       		.uleb128 0x1
 3299 0075 13       		.uleb128 0x13
 3300 0076 00       		.byte	0
 3301 0077 00       		.byte	0
 3302 0078 0B       		.uleb128 0xb
 3303 0079 21       		.uleb128 0x21
 3304 007a 00       		.byte	0
 3305 007b 49       		.uleb128 0x49
 3306 007c 13       		.uleb128 0x13
 3307 007d 2F       		.uleb128 0x2f
 3308 007e 0B       		.uleb128 0xb
 3309 007f 00       		.byte	0
 3310 0080 00       		.byte	0
 3311 0081 0C       		.uleb128 0xc
 3312 0082 13       		.uleb128 0x13
 3313 0083 01       		.byte	0x1
 3314 0084 0B       		.uleb128 0xb
 3315 0085 0B       		.uleb128 0xb
 3316 0086 3A       		.uleb128 0x3a
 3317 0087 0B       		.uleb128 0xb
 3318 0088 3B       		.uleb128 0x3b
 3319 0089 05       		.uleb128 0x5
 3320 008a 01       		.uleb128 0x1
 3321 008b 13       		.uleb128 0x13
 3322 008c 00       		.byte	0
 3323 008d 00       		.byte	0
 3324 008e 0D       		.uleb128 0xd
 3325 008f 0D       		.uleb128 0xd
 3326 0090 00       		.byte	0
ARM GAS  C:\Users\HPz420\AppData\Local\Temp\ccOuTLU7.s 			page 79


 3327 0091 03       		.uleb128 0x3
 3328 0092 0E       		.uleb128 0xe
 3329 0093 3A       		.uleb128 0x3a
 3330 0094 0B       		.uleb128 0xb
 3331 0095 3B       		.uleb128 0x3b
 3332 0096 05       		.uleb128 0x5
 3333 0097 49       		.uleb128 0x49
 3334 0098 13       		.uleb128 0x13
 3335 0099 38       		.uleb128 0x38
 3336 009a 0B       		.uleb128 0xb
 3337 009b 00       		.byte	0
 3338 009c 00       		.byte	0
 3339 009d 0E       		.uleb128 0xe
 3340 009e 2E       		.uleb128 0x2e
 3341 009f 01       		.byte	0x1
 3342 00a0 3F       		.uleb128 0x3f
 3343 00a1 19       		.uleb128 0x19
 3344 00a2 03       		.uleb128 0x3
 3345 00a3 0E       		.uleb128 0xe
 3346 00a4 3A       		.uleb128 0x3a
 3347 00a5 0B       		.uleb128 0xb
 3348 00a6 3B       		.uleb128 0x3b
 3349 00a7 0B       		.uleb128 0xb
 3350 00a8 27       		.uleb128 0x27
 3351 00a9 19       		.uleb128 0x19
 3352 00aa 49       		.uleb128 0x49
 3353 00ab 13       		.uleb128 0x13
 3354 00ac 11       		.uleb128 0x11
 3355 00ad 01       		.uleb128 0x1
 3356 00ae 12       		.uleb128 0x12
 3357 00af 06       		.uleb128 0x6
 3358 00b0 40       		.uleb128 0x40
 3359 00b1 18       		.uleb128 0x18
 3360 00b2 9642     		.uleb128 0x2116
 3361 00b4 19       		.uleb128 0x19
 3362 00b5 01       		.uleb128 0x1
 3363 00b6 13       		.uleb128 0x13
 3364 00b7 00       		.byte	0
 3365 00b8 00       		.byte	0
 3366 00b9 0F       		.uleb128 0xf
 3367 00ba 34       		.uleb128 0x34
 3368 00bb 00       		.byte	0
 3369 00bc 03       		.uleb128 0x3
 3370 00bd 0E       		.uleb128 0xe
 3371 00be 3A       		.uleb128 0x3a
 3372 00bf 0B       		.uleb128 0xb
 3373 00c0 3B       		.uleb128 0x3b
 3374 00c1 0B       		.uleb128 0xb
 3375 00c2 49       		.uleb128 0x49
 3376 00c3 13       		.uleb128 0x13
 3377 00c4 02       		.uleb128 0x2
 3378 00c5 18       		.uleb128 0x18
 3379 00c6 00       		.byte	0
 3380 00c7 00       		.byte	0
 3381 00c8 10       		.uleb128 0x10
 3382 00c9 2E       		.uleb128 0x2e
 3383 00ca 01       		.byte	0x1
ARM GAS  C:\Users\HPz420\AppData\Local\Temp\ccOuTLU7.s 			page 80


 3384 00cb 3F       		.uleb128 0x3f
 3385 00cc 19       		.uleb128 0x19
 3386 00cd 03       		.uleb128 0x3
 3387 00ce 0E       		.uleb128 0xe
 3388 00cf 3A       		.uleb128 0x3a
 3389 00d0 0B       		.uleb128 0xb
 3390 00d1 3B       		.uleb128 0x3b
 3391 00d2 0B       		.uleb128 0xb
 3392 00d3 27       		.uleb128 0x27
 3393 00d4 19       		.uleb128 0x19
 3394 00d5 49       		.uleb128 0x49
 3395 00d6 13       		.uleb128 0x13
 3396 00d7 11       		.uleb128 0x11
 3397 00d8 01       		.uleb128 0x1
 3398 00d9 12       		.uleb128 0x12
 3399 00da 06       		.uleb128 0x6
 3400 00db 40       		.uleb128 0x40
 3401 00dc 18       		.uleb128 0x18
 3402 00dd 9742     		.uleb128 0x2117
 3403 00df 19       		.uleb128 0x19
 3404 00e0 01       		.uleb128 0x1
 3405 00e1 13       		.uleb128 0x13
 3406 00e2 00       		.byte	0
 3407 00e3 00       		.byte	0
 3408 00e4 11       		.uleb128 0x11
 3409 00e5 05       		.uleb128 0x5
 3410 00e6 00       		.byte	0
 3411 00e7 03       		.uleb128 0x3
 3412 00e8 0E       		.uleb128 0xe
 3413 00e9 3A       		.uleb128 0x3a
 3414 00ea 0B       		.uleb128 0xb
 3415 00eb 3B       		.uleb128 0x3b
 3416 00ec 0B       		.uleb128 0xb
 3417 00ed 49       		.uleb128 0x49
 3418 00ee 13       		.uleb128 0x13
 3419 00ef 02       		.uleb128 0x2
 3420 00f0 18       		.uleb128 0x18
 3421 00f1 00       		.byte	0
 3422 00f2 00       		.byte	0
 3423 00f3 12       		.uleb128 0x12
 3424 00f4 34       		.uleb128 0x34
 3425 00f5 00       		.byte	0
 3426 00f6 03       		.uleb128 0x3
 3427 00f7 08       		.uleb128 0x8
 3428 00f8 3A       		.uleb128 0x3a
 3429 00f9 0B       		.uleb128 0xb
 3430 00fa 3B       		.uleb128 0x3b
 3431 00fb 0B       		.uleb128 0xb
 3432 00fc 49       		.uleb128 0x49
 3433 00fd 13       		.uleb128 0x13
 3434 00fe 02       		.uleb128 0x2
 3435 00ff 18       		.uleb128 0x18
 3436 0100 00       		.byte	0
 3437 0101 00       		.byte	0
 3438 0102 13       		.uleb128 0x13
 3439 0103 2E       		.uleb128 0x2e
 3440 0104 01       		.byte	0x1
ARM GAS  C:\Users\HPz420\AppData\Local\Temp\ccOuTLU7.s 			page 81


 3441 0105 3F       		.uleb128 0x3f
 3442 0106 19       		.uleb128 0x19
 3443 0107 03       		.uleb128 0x3
 3444 0108 0E       		.uleb128 0xe
 3445 0109 3A       		.uleb128 0x3a
 3446 010a 0B       		.uleb128 0xb
 3447 010b 3B       		.uleb128 0x3b
 3448 010c 05       		.uleb128 0x5
 3449 010d 27       		.uleb128 0x27
 3450 010e 19       		.uleb128 0x19
 3451 010f 49       		.uleb128 0x49
 3452 0110 13       		.uleb128 0x13
 3453 0111 11       		.uleb128 0x11
 3454 0112 01       		.uleb128 0x1
 3455 0113 12       		.uleb128 0x12
 3456 0114 06       		.uleb128 0x6
 3457 0115 40       		.uleb128 0x40
 3458 0116 18       		.uleb128 0x18
 3459 0117 9642     		.uleb128 0x2116
 3460 0119 19       		.uleb128 0x19
 3461 011a 01       		.uleb128 0x1
 3462 011b 13       		.uleb128 0x13
 3463 011c 00       		.byte	0
 3464 011d 00       		.byte	0
 3465 011e 14       		.uleb128 0x14
 3466 011f 34       		.uleb128 0x34
 3467 0120 00       		.byte	0
 3468 0121 03       		.uleb128 0x3
 3469 0122 0E       		.uleb128 0xe
 3470 0123 3A       		.uleb128 0x3a
 3471 0124 0B       		.uleb128 0xb
 3472 0125 3B       		.uleb128 0x3b
 3473 0126 05       		.uleb128 0x5
 3474 0127 49       		.uleb128 0x49
 3475 0128 13       		.uleb128 0x13
 3476 0129 02       		.uleb128 0x2
 3477 012a 18       		.uleb128 0x18
 3478 012b 00       		.byte	0
 3479 012c 00       		.byte	0
 3480 012d 15       		.uleb128 0x15
 3481 012e 34       		.uleb128 0x34
 3482 012f 00       		.byte	0
 3483 0130 03       		.uleb128 0x3
 3484 0131 08       		.uleb128 0x8
 3485 0132 3A       		.uleb128 0x3a
 3486 0133 0B       		.uleb128 0xb
 3487 0134 3B       		.uleb128 0x3b
 3488 0135 05       		.uleb128 0x5
 3489 0136 49       		.uleb128 0x49
 3490 0137 13       		.uleb128 0x13
 3491 0138 02       		.uleb128 0x2
 3492 0139 18       		.uleb128 0x18
 3493 013a 00       		.byte	0
 3494 013b 00       		.byte	0
 3495 013c 16       		.uleb128 0x16
 3496 013d 2E       		.uleb128 0x2e
 3497 013e 01       		.byte	0x1
ARM GAS  C:\Users\HPz420\AppData\Local\Temp\ccOuTLU7.s 			page 82


 3498 013f 3F       		.uleb128 0x3f
 3499 0140 19       		.uleb128 0x19
 3500 0141 03       		.uleb128 0x3
 3501 0142 0E       		.uleb128 0xe
 3502 0143 3A       		.uleb128 0x3a
 3503 0144 0B       		.uleb128 0xb
 3504 0145 3B       		.uleb128 0x3b
 3505 0146 05       		.uleb128 0x5
 3506 0147 27       		.uleb128 0x27
 3507 0148 19       		.uleb128 0x19
 3508 0149 11       		.uleb128 0x11
 3509 014a 01       		.uleb128 0x1
 3510 014b 12       		.uleb128 0x12
 3511 014c 06       		.uleb128 0x6
 3512 014d 40       		.uleb128 0x40
 3513 014e 18       		.uleb128 0x18
 3514 014f 9642     		.uleb128 0x2116
 3515 0151 19       		.uleb128 0x19
 3516 0152 01       		.uleb128 0x1
 3517 0153 13       		.uleb128 0x13
 3518 0154 00       		.byte	0
 3519 0155 00       		.byte	0
 3520 0156 17       		.uleb128 0x17
 3521 0157 05       		.uleb128 0x5
 3522 0158 00       		.byte	0
 3523 0159 03       		.uleb128 0x3
 3524 015a 0E       		.uleb128 0xe
 3525 015b 3A       		.uleb128 0x3a
 3526 015c 0B       		.uleb128 0xb
 3527 015d 3B       		.uleb128 0x3b
 3528 015e 05       		.uleb128 0x5
 3529 015f 49       		.uleb128 0x49
 3530 0160 13       		.uleb128 0x13
 3531 0161 02       		.uleb128 0x2
 3532 0162 18       		.uleb128 0x18
 3533 0163 00       		.byte	0
 3534 0164 00       		.byte	0
 3535 0165 18       		.uleb128 0x18
 3536 0166 26       		.uleb128 0x26
 3537 0167 00       		.byte	0
 3538 0168 49       		.uleb128 0x49
 3539 0169 13       		.uleb128 0x13
 3540 016a 00       		.byte	0
 3541 016b 00       		.byte	0
 3542 016c 19       		.uleb128 0x19
 3543 016d 2E       		.uleb128 0x2e
 3544 016e 01       		.byte	0x1
 3545 016f 03       		.uleb128 0x3
 3546 0170 0E       		.uleb128 0xe
 3547 0171 3A       		.uleb128 0x3a
 3548 0172 0B       		.uleb128 0xb
 3549 0173 3B       		.uleb128 0x3b
 3550 0174 05       		.uleb128 0x5
 3551 0175 27       		.uleb128 0x27
 3552 0176 19       		.uleb128 0x19
 3553 0177 49       		.uleb128 0x49
 3554 0178 13       		.uleb128 0x13
ARM GAS  C:\Users\HPz420\AppData\Local\Temp\ccOuTLU7.s 			page 83


 3555 0179 11       		.uleb128 0x11
 3556 017a 01       		.uleb128 0x1
 3557 017b 12       		.uleb128 0x12
 3558 017c 06       		.uleb128 0x6
 3559 017d 40       		.uleb128 0x40
 3560 017e 18       		.uleb128 0x18
 3561 017f 9742     		.uleb128 0x2117
 3562 0181 19       		.uleb128 0x19
 3563 0182 01       		.uleb128 0x1
 3564 0183 13       		.uleb128 0x13
 3565 0184 00       		.byte	0
 3566 0185 00       		.byte	0
 3567 0186 1A       		.uleb128 0x1a
 3568 0187 2E       		.uleb128 0x2e
 3569 0188 00       		.byte	0
 3570 0189 3F       		.uleb128 0x3f
 3571 018a 19       		.uleb128 0x19
 3572 018b 03       		.uleb128 0x3
 3573 018c 0E       		.uleb128 0xe
 3574 018d 3A       		.uleb128 0x3a
 3575 018e 0B       		.uleb128 0xb
 3576 018f 3B       		.uleb128 0x3b
 3577 0190 05       		.uleb128 0x5
 3578 0191 27       		.uleb128 0x27
 3579 0192 19       		.uleb128 0x19
 3580 0193 49       		.uleb128 0x49
 3581 0194 13       		.uleb128 0x13
 3582 0195 11       		.uleb128 0x11
 3583 0196 01       		.uleb128 0x1
 3584 0197 12       		.uleb128 0x12
 3585 0198 06       		.uleb128 0x6
 3586 0199 40       		.uleb128 0x40
 3587 019a 18       		.uleb128 0x18
 3588 019b 9642     		.uleb128 0x2116
 3589 019d 19       		.uleb128 0x19
 3590 019e 00       		.byte	0
 3591 019f 00       		.byte	0
 3592 01a0 1B       		.uleb128 0x1b
 3593 01a1 2E       		.uleb128 0x2e
 3594 01a2 01       		.byte	0x1
 3595 01a3 3F       		.uleb128 0x3f
 3596 01a4 19       		.uleb128 0x19
 3597 01a5 03       		.uleb128 0x3
 3598 01a6 0E       		.uleb128 0xe
 3599 01a7 3A       		.uleb128 0x3a
 3600 01a8 0B       		.uleb128 0xb
 3601 01a9 3B       		.uleb128 0x3b
 3602 01aa 05       		.uleb128 0x5
 3603 01ab 27       		.uleb128 0x27
 3604 01ac 19       		.uleb128 0x19
 3605 01ad 49       		.uleb128 0x49
 3606 01ae 13       		.uleb128 0x13
 3607 01af 11       		.uleb128 0x11
 3608 01b0 01       		.uleb128 0x1
 3609 01b1 12       		.uleb128 0x12
 3610 01b2 06       		.uleb128 0x6
 3611 01b3 40       		.uleb128 0x40
ARM GAS  C:\Users\HPz420\AppData\Local\Temp\ccOuTLU7.s 			page 84


 3612 01b4 18       		.uleb128 0x18
 3613 01b5 9742     		.uleb128 0x2117
 3614 01b7 19       		.uleb128 0x19
 3615 01b8 01       		.uleb128 0x1
 3616 01b9 13       		.uleb128 0x13
 3617 01ba 00       		.byte	0
 3618 01bb 00       		.byte	0
 3619 01bc 1C       		.uleb128 0x1c
 3620 01bd 2E       		.uleb128 0x2e
 3621 01be 00       		.byte	0
 3622 01bf 3F       		.uleb128 0x3f
 3623 01c0 19       		.uleb128 0x19
 3624 01c1 03       		.uleb128 0x3
 3625 01c2 0E       		.uleb128 0xe
 3626 01c3 3A       		.uleb128 0x3a
 3627 01c4 0B       		.uleb128 0xb
 3628 01c5 3B       		.uleb128 0x3b
 3629 01c6 05       		.uleb128 0x5
 3630 01c7 27       		.uleb128 0x27
 3631 01c8 19       		.uleb128 0x19
 3632 01c9 49       		.uleb128 0x49
 3633 01ca 13       		.uleb128 0x13
 3634 01cb 11       		.uleb128 0x11
 3635 01cc 01       		.uleb128 0x1
 3636 01cd 12       		.uleb128 0x12
 3637 01ce 06       		.uleb128 0x6
 3638 01cf 40       		.uleb128 0x40
 3639 01d0 18       		.uleb128 0x18
 3640 01d1 9742     		.uleb128 0x2117
 3641 01d3 19       		.uleb128 0x19
 3642 01d4 00       		.byte	0
 3643 01d5 00       		.byte	0
 3644 01d6 1D       		.uleb128 0x1d
 3645 01d7 2E       		.uleb128 0x2e
 3646 01d8 01       		.byte	0x1
 3647 01d9 3F       		.uleb128 0x3f
 3648 01da 19       		.uleb128 0x19
 3649 01db 03       		.uleb128 0x3
 3650 01dc 0E       		.uleb128 0xe
 3651 01dd 3A       		.uleb128 0x3a
 3652 01de 0B       		.uleb128 0xb
 3653 01df 3B       		.uleb128 0x3b
 3654 01e0 05       		.uleb128 0x5
 3655 01e1 27       		.uleb128 0x27
 3656 01e2 19       		.uleb128 0x19
 3657 01e3 11       		.uleb128 0x11
 3658 01e4 01       		.uleb128 0x1
 3659 01e5 12       		.uleb128 0x12
 3660 01e6 06       		.uleb128 0x6
 3661 01e7 40       		.uleb128 0x40
 3662 01e8 18       		.uleb128 0x18
 3663 01e9 9742     		.uleb128 0x2117
 3664 01eb 19       		.uleb128 0x19
 3665 01ec 01       		.uleb128 0x1
 3666 01ed 13       		.uleb128 0x13
 3667 01ee 00       		.byte	0
 3668 01ef 00       		.byte	0
ARM GAS  C:\Users\HPz420\AppData\Local\Temp\ccOuTLU7.s 			page 85


 3669 01f0 1E       		.uleb128 0x1e
 3670 01f1 05       		.uleb128 0x5
 3671 01f2 00       		.byte	0
 3672 01f3 03       		.uleb128 0x3
 3673 01f4 08       		.uleb128 0x8
 3674 01f5 3A       		.uleb128 0x3a
 3675 01f6 0B       		.uleb128 0xb
 3676 01f7 3B       		.uleb128 0x3b
 3677 01f8 05       		.uleb128 0x5
 3678 01f9 49       		.uleb128 0x49
 3679 01fa 13       		.uleb128 0x13
 3680 01fb 02       		.uleb128 0x2
 3681 01fc 18       		.uleb128 0x18
 3682 01fd 00       		.byte	0
 3683 01fe 00       		.byte	0
 3684 01ff 1F       		.uleb128 0x1f
 3685 0200 34       		.uleb128 0x34
 3686 0201 00       		.byte	0
 3687 0202 03       		.uleb128 0x3
 3688 0203 0E       		.uleb128 0xe
 3689 0204 3A       		.uleb128 0x3a
 3690 0205 0B       		.uleb128 0xb
 3691 0206 3B       		.uleb128 0x3b
 3692 0207 05       		.uleb128 0x5
 3693 0208 49       		.uleb128 0x49
 3694 0209 13       		.uleb128 0x13
 3695 020a 3F       		.uleb128 0x3f
 3696 020b 19       		.uleb128 0x19
 3697 020c 3C       		.uleb128 0x3c
 3698 020d 19       		.uleb128 0x19
 3699 020e 00       		.byte	0
 3700 020f 00       		.byte	0
 3701 0210 20       		.uleb128 0x20
 3702 0211 34       		.uleb128 0x34
 3703 0212 00       		.byte	0
 3704 0213 03       		.uleb128 0x3
 3705 0214 0E       		.uleb128 0xe
 3706 0215 3A       		.uleb128 0x3a
 3707 0216 0B       		.uleb128 0xb
 3708 0217 3B       		.uleb128 0x3b
 3709 0218 0B       		.uleb128 0xb
 3710 0219 49       		.uleb128 0x49
 3711 021a 13       		.uleb128 0x13
 3712 021b 3F       		.uleb128 0x3f
 3713 021c 19       		.uleb128 0x19
 3714 021d 02       		.uleb128 0x2
 3715 021e 18       		.uleb128 0x18
 3716 021f 00       		.byte	0
 3717 0220 00       		.byte	0
 3718 0221 21       		.uleb128 0x21
 3719 0222 34       		.uleb128 0x34
 3720 0223 00       		.byte	0
 3721 0224 03       		.uleb128 0x3
 3722 0225 0E       		.uleb128 0xe
 3723 0226 3A       		.uleb128 0x3a
 3724 0227 0B       		.uleb128 0xb
 3725 0228 3B       		.uleb128 0x3b
ARM GAS  C:\Users\HPz420\AppData\Local\Temp\ccOuTLU7.s 			page 86


 3726 0229 0B       		.uleb128 0xb
 3727 022a 49       		.uleb128 0x49
 3728 022b 13       		.uleb128 0x13
 3729 022c 3F       		.uleb128 0x3f
 3730 022d 19       		.uleb128 0x19
 3731 022e 3C       		.uleb128 0x3c
 3732 022f 19       		.uleb128 0x19
 3733 0230 00       		.byte	0
 3734 0231 00       		.byte	0
 3735 0232 00       		.byte	0
 3736              		.section	.debug_aranges,"",%progbits
 3737 0000 E4000000 		.4byte	0xe4
 3738 0004 0200     		.2byte	0x2
 3739 0006 00000000 		.4byte	.Ldebug_info0
 3740 000a 04       		.byte	0x4
 3741 000b 00       		.byte	0
 3742 000c 0000     		.2byte	0
 3743 000e 0000     		.2byte	0
 3744 0010 00000000 		.4byte	.LFB1
 3745 0014 F8000000 		.4byte	.LFE1-.LFB1
 3746 0018 00000000 		.4byte	.LFB2
 3747 001c 90000000 		.4byte	.LFE2-.LFB2
 3748 0020 00000000 		.4byte	.LFB3
 3749 0024 C0000000 		.4byte	.LFE3-.LFB3
 3750 0028 00000000 		.4byte	.LFB4
 3751 002c 84000000 		.4byte	.LFE4-.LFB4
 3752 0030 00000000 		.4byte	.LFB5
 3753 0034 3E000000 		.4byte	.LFE5-.LFB5
 3754 0038 00000000 		.4byte	.LFB6
 3755 003c 40010000 		.4byte	.LFE6-.LFB6
 3756 0040 00000000 		.4byte	.LFB7
 3757 0044 40000000 		.4byte	.LFE7-.LFB7
 3758 0048 00000000 		.4byte	.LFB8
 3759 004c 40000000 		.4byte	.LFE8-.LFB8
 3760 0050 00000000 		.4byte	.LFB9
 3761 0054 60000000 		.4byte	.LFE9-.LFB9
 3762 0058 00000000 		.4byte	.LFB10
 3763 005c 28000000 		.4byte	.LFE10-.LFB10
 3764 0060 00000000 		.4byte	.LFB11
 3765 0064 28000000 		.4byte	.LFE11-.LFB11
 3766 0068 00000000 		.4byte	.LFB12
 3767 006c 4C000000 		.4byte	.LFE12-.LFB12
 3768 0070 00000000 		.4byte	.LFB13
 3769 0074 60000000 		.4byte	.LFE13-.LFB13
 3770 0078 00000000 		.4byte	.LFB14
 3771 007c 38000000 		.4byte	.LFE14-.LFB14
 3772 0080 00000000 		.4byte	.LFB15
 3773 0084 58000000 		.4byte	.LFE15-.LFB15
 3774 0088 00000000 		.4byte	.LFB16
 3775 008c 88000000 		.4byte	.LFE16-.LFB16
 3776 0090 00000000 		.4byte	.LFB17
 3777 0094 28000000 		.4byte	.LFE17-.LFB17
 3778 0098 00000000 		.4byte	.LFB18
 3779 009c 28000000 		.4byte	.LFE18-.LFB18
 3780 00a0 00000000 		.4byte	.LFB19
 3781 00a4 28000000 		.4byte	.LFE19-.LFB19
 3782 00a8 00000000 		.4byte	.LFB20
ARM GAS  C:\Users\HPz420\AppData\Local\Temp\ccOuTLU7.s 			page 87


 3783 00ac 20000000 		.4byte	.LFE20-.LFB20
 3784 00b0 00000000 		.4byte	.LFB21
 3785 00b4 BC000000 		.4byte	.LFE21-.LFB21
 3786 00b8 00000000 		.4byte	.LFB22
 3787 00bc 20000000 		.4byte	.LFE22-.LFB22
 3788 00c0 00000000 		.4byte	.LFB23
 3789 00c4 38000000 		.4byte	.LFE23-.LFB23
 3790 00c8 00000000 		.4byte	.LFB24
 3791 00cc 34000000 		.4byte	.LFE24-.LFB24
 3792 00d0 00000000 		.4byte	.LFB25
 3793 00d4 14000000 		.4byte	.LFE25-.LFB25
 3794 00d8 00000000 		.4byte	.LFB26
 3795 00dc C0000000 		.4byte	.LFE26-.LFB26
 3796 00e0 00000000 		.4byte	0
 3797 00e4 00000000 		.4byte	0
 3798              		.section	.debug_ranges,"",%progbits
 3799              	.Ldebug_ranges0:
 3800 0000 00000000 		.4byte	.LFB1
 3801 0004 F8000000 		.4byte	.LFE1
 3802 0008 00000000 		.4byte	.LFB2
 3803 000c 90000000 		.4byte	.LFE2
 3804 0010 00000000 		.4byte	.LFB3
 3805 0014 C0000000 		.4byte	.LFE3
 3806 0018 00000000 		.4byte	.LFB4
 3807 001c 84000000 		.4byte	.LFE4
 3808 0020 00000000 		.4byte	.LFB5
 3809 0024 3E000000 		.4byte	.LFE5
 3810 0028 00000000 		.4byte	.LFB6
 3811 002c 40010000 		.4byte	.LFE6
 3812 0030 00000000 		.4byte	.LFB7
 3813 0034 40000000 		.4byte	.LFE7
 3814 0038 00000000 		.4byte	.LFB8
 3815 003c 40000000 		.4byte	.LFE8
 3816 0040 00000000 		.4byte	.LFB9
 3817 0044 60000000 		.4byte	.LFE9
 3818 0048 00000000 		.4byte	.LFB10
 3819 004c 28000000 		.4byte	.LFE10
 3820 0050 00000000 		.4byte	.LFB11
 3821 0054 28000000 		.4byte	.LFE11
 3822 0058 00000000 		.4byte	.LFB12
 3823 005c 4C000000 		.4byte	.LFE12
 3824 0060 00000000 		.4byte	.LFB13
 3825 0064 60000000 		.4byte	.LFE13
 3826 0068 00000000 		.4byte	.LFB14
 3827 006c 38000000 		.4byte	.LFE14
 3828 0070 00000000 		.4byte	.LFB15
 3829 0074 58000000 		.4byte	.LFE15
 3830 0078 00000000 		.4byte	.LFB16
 3831 007c 88000000 		.4byte	.LFE16
 3832 0080 00000000 		.4byte	.LFB17
 3833 0084 28000000 		.4byte	.LFE17
 3834 0088 00000000 		.4byte	.LFB18
 3835 008c 28000000 		.4byte	.LFE18
 3836 0090 00000000 		.4byte	.LFB19
 3837 0094 28000000 		.4byte	.LFE19
 3838 0098 00000000 		.4byte	.LFB20
 3839 009c 20000000 		.4byte	.LFE20
ARM GAS  C:\Users\HPz420\AppData\Local\Temp\ccOuTLU7.s 			page 88


 3840 00a0 00000000 		.4byte	.LFB21
 3841 00a4 BC000000 		.4byte	.LFE21
 3842 00a8 00000000 		.4byte	.LFB22
 3843 00ac 20000000 		.4byte	.LFE22
 3844 00b0 00000000 		.4byte	.LFB23
 3845 00b4 38000000 		.4byte	.LFE23
 3846 00b8 00000000 		.4byte	.LFB24
 3847 00bc 34000000 		.4byte	.LFE24
 3848 00c0 00000000 		.4byte	.LFB25
 3849 00c4 14000000 		.4byte	.LFE25
 3850 00c8 00000000 		.4byte	.LFB26
 3851 00cc C0000000 		.4byte	.LFE26
 3852 00d0 00000000 		.4byte	0
 3853 00d4 00000000 		.4byte	0
 3854              		.section	.debug_line,"",%progbits
 3855              	.Ldebug_line0:
 3856 0000 0A030000 		.section	.debug_str,"MS",%progbits,1
 3856      02006600 
 3856      00000201 
 3856      FB0E0D00 
 3856      01010101 
 3857              	.LASF37:
 3858 0000 70537461 		.ascii	"pStatusBlock\000"
 3858      74757342 
 3858      6C6F636B 
 3858      00
 3859              	.LASF35:
 3860 000d 636F756E 		.ascii	"count\000"
 3860      7400
 3861              	.LASF93:
 3862 0013 55534255 		.ascii	"USBUART_GetComPort\000"
 3862      4152545F 
 3862      47657443 
 3862      6F6D506F 
 3862      727400
 3863              	.LASF10:
 3864 0026 75696E74 		.ascii	"uint16\000"
 3864      313600
 3865              	.LASF54:
 3866 002d 55534255 		.ascii	"USBUART_GetInterfaceComPort\000"
 3866      4152545F 
 3866      47657449 
 3866      6E746572 
 3866      66616365 
 3867              	.LASF66:
 3868 0049 74784461 		.ascii	"txDataByte\000"
 3868      74614279 
 3868      746500
 3869              	.LASF67:
 3870 0054 64617461 		.ascii	"dataByte\000"
 3870      42797465 
 3870      00
 3871              	.LASF59:
 3872 005d 73747269 		.ascii	"string\000"
 3872      6E6700
 3873              	.LASF104:
 3874 0064 55534255 		.ascii	"USBUART_serialStateBitmap\000"
ARM GAS  C:\Users\HPz420\AppData\Local\Temp\ccOuTLU7.s 			page 89


 3874      4152545F 
 3874      73657269 
 3874      616C5374 
 3874      61746542 
 3875              	.LASF83:
 3876 007e 55534255 		.ascii	"USBUART_GetCharFormat\000"
 3876      4152545F 
 3876      47657443 
 3876      68617246 
 3876      6F726D61 
 3877              	.LASF7:
 3878 0094 6C6F6E67 		.ascii	"long long unsigned int\000"
 3878      206C6F6E 
 3878      6720756E 
 3878      7369676E 
 3878      65642069 
 3879              	.LASF22:
 3880 00ab 61646472 		.ascii	"addr\000"
 3880      00
 3881              	.LASF41:
 3882 00b0 62526571 		.ascii	"bRequestType\000"
 3882      75657374 
 3882      54797065 
 3882      00
 3883              	.LASF95:
 3884 00bd 65704E75 		.ascii	"epNum\000"
 3884      6D00
 3885              	.LASF49:
 3886 00c3 77536572 		.ascii	"wSerialStateMSB\000"
 3886      69616C53 
 3886      74617465 
 3886      4D534200 
 3887              	.LASF108:
 3888 00d3 55534255 		.ascii	"USBUART_EP\000"
 3888      4152545F 
 3888      455000
 3889              	.LASF34:
 3890 00de 545F5553 		.ascii	"T_USBUART_XFER_STATUS_BLOCK\000"
 3890      42554152 
 3890      545F5846 
 3890      45525F53 
 3890      54415455 
 3891              	.LASF101:
 3892 00fa 55534255 		.ascii	"USBUART_linesCoding\000"
 3892      4152545F 
 3892      6C696E65 
 3892      73436F64 
 3892      696E6700 
 3893              	.LASF6:
 3894 010e 6C6F6E67 		.ascii	"long long int\000"
 3894      206C6F6E 
 3894      6720696E 
 3894      7400
 3895              	.LASF0:
 3896 011c 7369676E 		.ascii	"signed char\000"
 3896      65642063 
 3896      68617200 
ARM GAS  C:\Users\HPz420\AppData\Local\Temp\ccOuTLU7.s 			page 90


 3897              	.LASF82:
 3898 0128 72617465 		.ascii	"rate\000"
 3898      00
 3899              	.LASF71:
 3900 012d 62797465 		.ascii	"bytesCount\000"
 3900      73436F75 
 3900      6E7400
 3901              	.LASF73:
 3902 0138 55534255 		.ascii	"USBUART_CDCIsReady\000"
 3902      4152545F 
 3902      43444349 
 3902      73526561 
 3902      647900
 3903              	.LASF80:
 3904 014b 73746174 		.ascii	"state\000"
 3904      6500
 3905              	.LASF40:
 3906 0151 55534255 		.ascii	"USBUART_ep0_data_struct\000"
 3906      4152545F 
 3906      6570305F 
 3906      64617461 
 3906      5F737472 
 3907              	.LASF4:
 3908 0169 6C6F6E67 		.ascii	"long int\000"
 3908      20696E74 
 3908      00
 3909              	.LASF77:
 3910 0172 55534255 		.ascii	"USBUART_GetChar\000"
 3910      4152545F 
 3910      47657443 
 3910      68617200 
 3911              	.LASF60:
 3912 0182 55534255 		.ascii	"USBUART_PutData\000"
 3912      4152545F 
 3912      50757444 
 3912      61746100 
 3913              	.LASF9:
 3914 0192 75696E74 		.ascii	"uint8\000"
 3914      3800
 3915              	.LASF21:
 3916 0198 6570546F 		.ascii	"epToggle\000"
 3916      67676C65 
 3916      00
 3917              	.LASF43:
 3918 01a1 7756616C 		.ascii	"wValue\000"
 3918      756500
 3919              	.LASF13:
 3920 01a8 646F7562 		.ascii	"double\000"
 3920      6C6500
 3921              	.LASF76:
 3922 01af 64617461 		.ascii	"dataLength\000"
 3922      4C656E67 
 3922      746800
 3923              	.LASF86:
 3924 01ba 55534255 		.ascii	"USBUART_GetLineControl\000"
 3924      4152545F 
 3924      4765744C 
ARM GAS  C:\Users\HPz420\AppData\Local\Temp\ccOuTLU7.s 			page 91


 3924      696E6543 
 3924      6F6E7472 
 3925              	.LASF107:
 3926 01d1 55534255 		.ascii	"USBUART_cdcCommInInterruptEp\000"
 3926      4152545F 
 3926      63646343 
 3926      6F6D6D49 
 3926      6E496E74 
 3927              	.LASF11:
 3928 01ee 75696E74 		.ascii	"uint32\000"
 3928      333200
 3929              	.LASF48:
 3930 01f5 77536572 		.ascii	"wSerialState\000"
 3930      69616C53 
 3930      74617465 
 3930      00
 3931              	.LASF103:
 3932 0202 55534255 		.ascii	"USBUART_linesControlBitmap\000"
 3932      4152545F 
 3932      6C696E65 
 3932      73436F6E 
 3932      74726F6C 
 3933              	.LASF106:
 3934 021d 55534255 		.ascii	"USBUART_cdcDataOutEp\000"
 3934      4152545F 
 3934      63646344 
 3934      6174614F 
 3934      75744570 
 3935              	.LASF36:
 3936 0232 70446174 		.ascii	"pData\000"
 3936      6100
 3937              	.LASF23:
 3938 0238 65704D6F 		.ascii	"epMode\000"
 3938      646500
 3939              	.LASF97:
 3940 023f 65705479 		.ascii	"epType\000"
 3940      706500
 3941              	.LASF90:
 3942 0246 55534255 		.ascii	"USBUART_NotificationIsReady\000"
 3942      4152545F 
 3942      4E6F7469 
 3942      66696361 
 3942      74696F6E 
 3943              	.LASF81:
 3944 0262 55534255 		.ascii	"USBUART_GetDTERate\000"
 3944      4152545F 
 3944      47657444 
 3944      54455261 
 3944      746500
 3945              	.LASF79:
 3946 0275 55534255 		.ascii	"USBUART_IsLineChanged\000"
 3946      4152545F 
 3946      49734C69 
 3946      6E654368 
 3946      616E6765 
 3947              	.LASF8:
 3948 028b 756E7369 		.ascii	"unsigned int\000"
ARM GAS  C:\Users\HPz420\AppData\Local\Temp\ccOuTLU7.s 			page 92


 3948      676E6564 
 3948      20696E74 
 3948      00
 3949              	.LASF72:
 3950 0298 55534255 		.ascii	"USBUART_DataIsReady\000"
 3950      4152545F 
 3950      44617461 
 3950      49735265 
 3950      61647900 
 3951              	.LASF5:
 3952 02ac 6C6F6E67 		.ascii	"long unsigned int\000"
 3952      20756E73 
 3952      69676E65 
 3952      6420696E 
 3952      7400
 3953              	.LASF58:
 3954 02be 65704E75 		.ascii	"epNumber\000"
 3954      6D626572 
 3954      00
 3955              	.LASF84:
 3956 02c7 55534255 		.ascii	"USBUART_GetParityType\000"
 3956      4152545F 
 3956      47657450 
 3956      61726974 
 3956      79547970 
 3957              	.LASF3:
 3958 02dd 73686F72 		.ascii	"short unsigned int\000"
 3958      7420756E 
 3958      7369676E 
 3958      65642069 
 3958      6E7400
 3959              	.LASF88:
 3960 02f0 73657269 		.ascii	"serialState\000"
 3960      616C5374 
 3960      61746500 
 3961              	.LASF64:
 3962 02fc 62756649 		.ascii	"bufIndex\000"
 3962      6E646578 
 3962      00
 3963              	.LASF75:
 3964 0305 55534255 		.ascii	"USBUART_GetAll\000"
 3964      4152545F 
 3964      47657441 
 3964      6C6C00
 3965              	.LASF109:
 3966 0314 55534255 		.ascii	"USBUART_currentTD\000"
 3966      4152545F 
 3966      63757272 
 3966      656E7454 
 3966      4400
 3967              	.LASF105:
 3968 0326 55534255 		.ascii	"USBUART_cdcDataInEp\000"
 3968      4152545F 
 3968      63646344 
 3968      61746149 
 3968      6E457000 
 3969              	.LASF110:
ARM GAS  C:\Users\HPz420\AppData\Local\Temp\ccOuTLU7.s 			page 93


 3970 033a 474E5520 		.ascii	"GNU C11 5.4.1 20160609 (release) [ARM/embedded-5-br"
 3970      43313120 
 3970      352E342E 
 3970      31203230 
 3970      31363036 
 3971 036d 616E6368 		.ascii	"anch revision 237715] -mcpu=cortex-m0 -mthumb -g -O"
 3971      20726576 
 3971      6973696F 
 3971      6E203233 
 3971      37373135 
 3972 03a0 30202D66 		.ascii	"0 -ffunction-sections -ffat-lto-objects\000"
 3972      66756E63 
 3972      74696F6E 
 3972      2D736563 
 3972      74696F6E 
 3973              	.LASF26:
 3974 03c8 696E7465 		.ascii	"interface\000"
 3974      72666163 
 3974      6500
 3975              	.LASF99:
 3976 03d2 55534255 		.ascii	"USBUART_activeCom\000"
 3976      4152545F 
 3976      61637469 
 3976      7665436F 
 3976      6D00
 3977              	.LASF20:
 3978 03e4 68774570 		.ascii	"hwEpState\000"
 3978      53746174 
 3978      6500
 3979              	.LASF17:
 3980 03ee 73697A65 		.ascii	"sizetype\000"
 3980      74797065 
 3980      00
 3981              	.LASF16:
 3982 03f7 6C6F6E67 		.ascii	"long double\000"
 3982      20646F75 
 3982      626C6500 
 3983              	.LASF18:
 3984 0403 61747472 		.ascii	"attrib\000"
 3984      696200
 3985              	.LASF70:
 3986 040a 55534255 		.ascii	"USBUART_GetCount\000"
 3986      4152545F 
 3986      47657443 
 3986      6F756E74 
 3986      00
 3987              	.LASF87:
 3988 041b 55534255 		.ascii	"USBUART_SendSerialState\000"
 3988      4152545F 
 3988      53656E64 
 3988      53657269 
 3988      616C5374 
 3989              	.LASF52:
 3990 0433 636F6D50 		.ascii	"comPort\000"
 3990      6F727400 
 3991              	.LASF85:
 3992 043b 55534255 		.ascii	"USBUART_GetDataBits\000"
ARM GAS  C:\Users\HPz420\AppData\Local\Temp\ccOuTLU7.s 			page 94


 3992      4152545F 
 3992      47657444 
 3992      61746142 
 3992      69747300 
 3993              	.LASF102:
 3994 044f 55534255 		.ascii	"USBUART_linesChanged\000"
 3994      4152545F 
 3994      6C696E65 
 3994      73436861 
 3994      6E676564 
 3995              	.LASF61:
 3996 0464 55534255 		.ascii	"USBUART_PutString\000"
 3996      4152545F 
 3996      50757453 
 3996      7472696E 
 3996      6700
 3997              	.LASF112:
 3998 0476 433A5C55 		.ascii	"C:\\Users\\HPz420\\Documents\\GitHub\\land-boards\\"
 3998      73657273 
 3998      5C48507A 
 3998      3432305C 
 3998      446F6375 
 3999 04a3 6C622D62 		.ascii	"lb-boards\\FPGA Cards\\RETRO-EP4CE15\\PSOC\\USBFS_U"
 3999      6F617264 
 3999      735C4650 
 3999      47412043 
 3999      61726473 
 4000 04d2 41525430 		.ascii	"ART01\\USBFS_UART01.cydsn\000"
 4000      315C5553 
 4000      4246535F 
 4000      55415254 
 4000      30312E63 
 4001              	.LASF12:
 4002 04eb 666C6F61 		.ascii	"float\000"
 4002      7400
 4003              	.LASF65:
 4004 04f1 55534255 		.ascii	"USBUART_PutChar\000"
 4004      4152545F 
 4004      50757443 
 4004      68617200 
 4005              	.LASF19:
 4006 0501 61706945 		.ascii	"apiEpState\000"
 4006      70537461 
 4006      746500
 4007              	.LASF1:
 4008 050c 756E7369 		.ascii	"unsigned char\000"
 4008      676E6564 
 4008      20636861 
 4008      7200
 4009              	.LASF92:
 4010 051a 636F6D4E 		.ascii	"comNumber\000"
 4010      756D6265 
 4010      7200
 4011              	.LASF45:
 4012 0524 77496E64 		.ascii	"wIndex\000"
 4012      657800
 4013              	.LASF57:
ARM GAS  C:\Users\HPz420\AppData\Local\Temp\ccOuTLU7.s 			page 95


 4014 052b 6F757445 		.ascii	"outEp\000"
 4014      7000
 4015              	.LASF2:
 4016 0531 73686F72 		.ascii	"short int\000"
 4016      7420696E 
 4016      7400
 4017              	.LASF55:
 4018 053b 6E6F7445 		.ascii	"notEp\000"
 4018      7000
 4019              	.LASF44:
 4020 0541 7756616C 		.ascii	"wValueMSB\000"
 4020      75654D53 
 4020      4200
 4021              	.LASF38:
 4022 054b 545F5553 		.ascii	"T_USBUART_TD\000"
 4022      42554152 
 4022      545F5444 
 4022      00
 4023              	.LASF98:
 4024 0558 55534255 		.ascii	"USBUART_serialStateNotification\000"
 4024      4152545F 
 4024      73657269 
 4024      616C5374 
 4024      6174654E 
 4025              	.LASF68:
 4026 0578 55534255 		.ascii	"USBUART_PutCRLF\000"
 4026      4152545F 
 4026      50757443 
 4026      524C4600 
 4027              	.LASF29:
 4028 0588 61747472 		.ascii	"attributes\000"
 4028      69627574 
 4028      657300
 4029              	.LASF78:
 4030 0593 72784461 		.ascii	"rxData\000"
 4030      746100
 4031              	.LASF62:
 4032 059a 7374724C 		.ascii	"strLength\000"
 4032      656E6774 
 4032      6800
 4033              	.LASF56:
 4034 05a4 55534255 		.ascii	"USBUART_CDC_Init\000"
 4034      4152545F 
 4034      4344435F 
 4034      496E6974 
 4034      00
 4035              	.LASF91:
 4036 05b5 55534255 		.ascii	"USBUART_SetComPort\000"
 4036      4152545F 
 4036      53657443 
 4036      6F6D506F 
 4036      727400
 4037              	.LASF28:
 4038 05c8 616C7453 		.ascii	"altSetting\000"
 4038      65747469 
 4038      6E6700
 4039              	.LASF15:
ARM GAS  C:\Users\HPz420\AppData\Local\Temp\ccOuTLU7.s 			page 96


 4040 05d3 63686172 		.ascii	"char\000"
 4040      00
 4041              	.LASF25:
 4042 05d8 62756666 		.ascii	"bufferSize\000"
 4042      65725369 
 4042      7A6500
 4043              	.LASF51:
 4044 05e3 72657175 		.ascii	"requestHandled\000"
 4044      65737448 
 4044      616E646C 
 4044      656400
 4045              	.LASF27:
 4046 05f2 545F5553 		.ascii	"T_USBUART_EP_CTL_BLOCK\000"
 4046      42554152 
 4046      545F4550 
 4046      5F43544C 
 4046      5F424C4F 
 4047              	.LASF24:
 4048 0609 62756666 		.ascii	"buffOffset\000"
 4048      4F666673 
 4048      657400
 4049              	.LASF14:
 4050 0614 63686172 		.ascii	"char8\000"
 4050      3800
 4051              	.LASF31:
 4052 061a 545F5553 		.ascii	"T_USBUART_EP_SETTINGS_BLOCK\000"
 4052      42554152 
 4052      545F4550 
 4052      5F534554 
 4052      54494E47 
 4053              	.LASF74:
 4054 0636 55534255 		.ascii	"USBUART_GetData\000"
 4054      4152545F 
 4054      47657444 
 4054      61746100 
 4055              	.LASF113:
 4056 0646 55534255 		.ascii	"USBUART_StrLen\000"
 4056      4152545F 
 4056      5374724C 
 4056      656E00
 4057              	.LASF33:
 4058 0655 6C656E67 		.ascii	"length\000"
 4058      746800
 4059              	.LASF32:
 4060 065c 73746174 		.ascii	"status\000"
 4060      757300
 4061              	.LASF47:
 4062 0663 774C656E 		.ascii	"wLengthMSB\000"
 4062      6774684D 
 4062      534200
 4063              	.LASF42:
 4064 066e 624E6F74 		.ascii	"bNotification\000"
 4064      69666963 
 4064      6174696F 
 4064      6E00
 4065              	.LASF39:
 4066 067c 65704461 		.ascii	"epData\000"
ARM GAS  C:\Users\HPz420\AppData\Local\Temp\ccOuTLU7.s 			page 97


 4066      746100
 4067              	.LASF30:
 4068 0683 624D6973 		.ascii	"bMisc\000"
 4068      6300
 4069              	.LASF53:
 4070 0689 55534255 		.ascii	"USBUART_DispatchCDCClassRqst\000"
 4070      4152545F 
 4070      44697370 
 4070      61746368 
 4070      43444343 
 4071              	.LASF50:
 4072 06a6 745F5553 		.ascii	"t_USBUART_cdc_notification\000"
 4072      42554152 
 4072      545F6364 
 4072      635F6E6F 
 4072      74696669 
 4073              	.LASF96:
 4074 06c1 63646343 		.ascii	"cdcComNums\000"
 4074      6F6D4E75 
 4074      6D7300
 4075              	.LASF100:
 4076 06cc 55534255 		.ascii	"USBUART_transferState\000"
 4076      4152545F 
 4076      7472616E 
 4076      73666572 
 4076      53746174 
 4077              	.LASF63:
 4078 06e2 73656E64 		.ascii	"sendLength\000"
 4078      4C656E67 
 4078      746800
 4079              	.LASF94:
 4080 06ed 55534255 		.ascii	"USBUART_Cdc_EpInit\000"
 4080      4152545F 
 4080      4364635F 
 4080      4570496E 
 4080      697400
 4081              	.LASF69:
 4082 0700 74784461 		.ascii	"txData\000"
 4082      746100
 4083              	.LASF111:
 4084 0707 47656E65 		.ascii	"Generated_Source\\PSoC4\\USBUART_cdc.c\000"
 4084      72617465 
 4084      645F536F 
 4084      75726365 
 4084      5C50536F 
 4085              	.LASF89:
 4086 072c 55534255 		.ascii	"USBUART_GetSerialState\000"
 4086      4152545F 
 4086      47657453 
 4086      65726961 
 4086      6C537461 
 4087              	.LASF46:
 4088 0743 77496E64 		.ascii	"wIndexMSB\000"
 4088      65784D53 
 4088      4200
 4089              		.ident	"GCC: (GNU Tools for ARM Embedded Processors) 5.4.1 20160609 (release) [ARM/embedded-5-bran
