ARM GAS  C:\Users\HPz420\AppData\Local\Temp\ccW977cQ.s 			page 1


   1              		.syntax unified
   2              		.cpu cortex-m0
   3              		.fpu softvfp
   4              		.eabi_attribute 20, 1
   5              		.eabi_attribute 21, 1
   6              		.eabi_attribute 23, 3
   7              		.eabi_attribute 24, 1
   8              		.eabi_attribute 25, 1
   9              		.eabi_attribute 26, 1
  10              		.eabi_attribute 30, 6
  11              		.eabi_attribute 34, 0
  12              		.eabi_attribute 18, 4
  13              		.thumb
  14              		.syntax unified
  15              		.file	"USBUART_msc.c"
  16              		.text
  17              	.Ltext0:
  18              		.cfi_sections	.debug_frame
  19              		.bss
  20              	USBUART_lunCount:
  21 0000 00       		.space	1
  22              		.section	.text.USBUART_DispatchMSCClassRqst,"ax",%progbits
  23              		.align	2
  24              		.global	USBUART_DispatchMSCClassRqst
  25              		.code	16
  26              		.thumb_func
  27              		.type	USBUART_DispatchMSCClassRqst, %function
  28              	USBUART_DispatchMSCClassRqst:
  29              	.LFB1:
  30              		.file 1 "Generated_Source\\PSoC4\\USBUART_msc.c"
   1:Generated_Source\PSoC4/USBUART_msc.c **** /***************************************************************************//**
   2:Generated_Source\PSoC4/USBUART_msc.c **** * \file USBUART_cdc.c
   3:Generated_Source\PSoC4/USBUART_msc.c **** * \version 3.10
   4:Generated_Source\PSoC4/USBUART_msc.c **** *
   5:Generated_Source\PSoC4/USBUART_msc.c **** * \brief
   6:Generated_Source\PSoC4/USBUART_msc.c **** *  This file contains the USB MSC Class request handler and global API for MSC 
   7:Generated_Source\PSoC4/USBUART_msc.c **** *  class.
   8:Generated_Source\PSoC4/USBUART_msc.c **** *
   9:Generated_Source\PSoC4/USBUART_msc.c **** * Related Document:
  10:Generated_Source\PSoC4/USBUART_msc.c **** *  Universal Serial Bus Class Definitions for Communication Devices Version 1.1
  11:Generated_Source\PSoC4/USBUART_msc.c **** *
  12:Generated_Source\PSoC4/USBUART_msc.c **** ********************************************************************************
  13:Generated_Source\PSoC4/USBUART_msc.c **** * \copyright
  14:Generated_Source\PSoC4/USBUART_msc.c **** * Copyright 2012-2016, Cypress Semiconductor Corporation.  All rights reserved.
  15:Generated_Source\PSoC4/USBUART_msc.c **** * You may use this file only in accordance with the license, terms, conditions,
  16:Generated_Source\PSoC4/USBUART_msc.c **** * disclaimers, and limitations in the end user license agreement accompanying
  17:Generated_Source\PSoC4/USBUART_msc.c **** * the software package with which this file was provided.
  18:Generated_Source\PSoC4/USBUART_msc.c **** *******************************************************************************/
  19:Generated_Source\PSoC4/USBUART_msc.c **** 
  20:Generated_Source\PSoC4/USBUART_msc.c **** #include "USBUART_msc.h"
  21:Generated_Source\PSoC4/USBUART_msc.c **** #include "USBUART_pvt.h"
  22:Generated_Source\PSoC4/USBUART_msc.c **** #include "cyapicallbacks.h"
  23:Generated_Source\PSoC4/USBUART_msc.c **** 
  24:Generated_Source\PSoC4/USBUART_msc.c **** #if (USBUART_HANDLE_MSC_REQUESTS)
  25:Generated_Source\PSoC4/USBUART_msc.c **** 
  26:Generated_Source\PSoC4/USBUART_msc.c **** /***************************************
  27:Generated_Source\PSoC4/USBUART_msc.c **** *          Internal variables
ARM GAS  C:\Users\HPz420\AppData\Local\Temp\ccW977cQ.s 			page 2


  28:Generated_Source\PSoC4/USBUART_msc.c **** ***************************************/
  29:Generated_Source\PSoC4/USBUART_msc.c **** 
  30:Generated_Source\PSoC4/USBUART_msc.c **** static uint8 USBUART_lunCount = USBUART_MSC_LUN_NUMBER;
  31:Generated_Source\PSoC4/USBUART_msc.c **** 
  32:Generated_Source\PSoC4/USBUART_msc.c **** 
  33:Generated_Source\PSoC4/USBUART_msc.c **** /*******************************************************************************
  34:Generated_Source\PSoC4/USBUART_msc.c **** * Function Name: USBUART_DispatchMSCClassRqst
  35:Generated_Source\PSoC4/USBUART_msc.c **** ****************************************************************************//**
  36:Generated_Source\PSoC4/USBUART_msc.c **** *   
  37:Generated_Source\PSoC4/USBUART_msc.c **** *  \internal 
  38:Generated_Source\PSoC4/USBUART_msc.c **** *  This routine dispatches MSC class requests.
  39:Generated_Source\PSoC4/USBUART_msc.c **** *
  40:Generated_Source\PSoC4/USBUART_msc.c **** * \return
  41:Generated_Source\PSoC4/USBUART_msc.c **** *  Status of request processing: handled or not handled.
  42:Generated_Source\PSoC4/USBUART_msc.c **** *
  43:Generated_Source\PSoC4/USBUART_msc.c **** * \globalvars
  44:Generated_Source\PSoC4/USBUART_msc.c **** *  USBUART_lunCount - stores number of LUN (logical units).
  45:Generated_Source\PSoC4/USBUART_msc.c **** *
  46:Generated_Source\PSoC4/USBUART_msc.c **** * \reentrant
  47:Generated_Source\PSoC4/USBUART_msc.c **** *  No.
  48:Generated_Source\PSoC4/USBUART_msc.c **** *
  49:Generated_Source\PSoC4/USBUART_msc.c **** *******************************************************************************/
  50:Generated_Source\PSoC4/USBUART_msc.c **** uint8 USBUART_DispatchMSCClassRqst(void) 
  51:Generated_Source\PSoC4/USBUART_msc.c **** {
  31              		.loc 1 51 0
  32              		.cfi_startproc
  33              		@ args = 0, pretend = 0, frame = 8
  34              		@ frame_needed = 1, uses_anonymous_args = 0
  35 0000 90B5     		push	{r4, r7, lr}
  36              		.cfi_def_cfa_offset 12
  37              		.cfi_offset 4, -12
  38              		.cfi_offset 7, -8
  39              		.cfi_offset 14, -4
  40 0002 83B0     		sub	sp, sp, #12
  41              		.cfi_def_cfa_offset 24
  42 0004 00AF     		add	r7, sp, #0
  43              		.cfi_def_cfa_register 7
  52:Generated_Source\PSoC4/USBUART_msc.c ****     uint8 requestHandled = USBUART_FALSE;
  44              		.loc 1 52 0
  45 0006 FB1D     		adds	r3, r7, #7
  46 0008 0022     		movs	r2, #0
  47 000a 1A70     		strb	r2, [r3]
  53:Generated_Source\PSoC4/USBUART_msc.c ****     
  54:Generated_Source\PSoC4/USBUART_msc.c ****     /* Get request data. */
  55:Generated_Source\PSoC4/USBUART_msc.c ****     uint16 value  = USBUART_GET_UINT16(USBUART_wValueHiReg,  USBUART_wValueLoReg);
  48              		.loc 1 55 0
  49 000c 294B     		ldr	r3, .L6
  50 000e DB68     		ldr	r3, [r3, #12]
  51 0010 9BB2     		uxth	r3, r3
  52 0012 1B02     		lsls	r3, r3, #8
  53 0014 99B2     		uxth	r1, r3
  54 0016 274B     		ldr	r3, .L6
  55 0018 9B68     		ldr	r3, [r3, #8]
  56 001a 9BB2     		uxth	r3, r3
  57 001c FF22     		movs	r2, #255
  58 001e 1340     		ands	r3, r2
  59 0020 9AB2     		uxth	r2, r3
ARM GAS  C:\Users\HPz420\AppData\Local\Temp\ccW977cQ.s 			page 3


  60 0022 3B1D     		adds	r3, r7, #4
  61 0024 0A43     		orrs	r2, r1
  62 0026 1A80     		strh	r2, [r3]
  56:Generated_Source\PSoC4/USBUART_msc.c ****     uint16 dataLength = USBUART_GET_UINT16(USBUART_wLengthHiReg, USBUART_wLengthLoReg);
  63              		.loc 1 56 0
  64 0028 224B     		ldr	r3, .L6
  65 002a DB69     		ldr	r3, [r3, #28]
  66 002c 9BB2     		uxth	r3, r3
  67 002e 1B02     		lsls	r3, r3, #8
  68 0030 99B2     		uxth	r1, r3
  69 0032 204B     		ldr	r3, .L6
  70 0034 9B69     		ldr	r3, [r3, #24]
  71 0036 9BB2     		uxth	r3, r3
  72 0038 FF22     		movs	r2, #255
  73 003a 1340     		ands	r3, r2
  74 003c 9AB2     		uxth	r2, r3
  75 003e BB1C     		adds	r3, r7, #2
  76 0040 0A43     		orrs	r2, r1
  77 0042 1A80     		strh	r2, [r3]
  57:Generated_Source\PSoC4/USBUART_msc.c ****        
  58:Generated_Source\PSoC4/USBUART_msc.c ****     /* Check request direction: D2H or H2D. */
  59:Generated_Source\PSoC4/USBUART_msc.c ****     if (0u != (USBUART_bmRequestTypeReg & USBUART_RQST_DIR_D2H))
  78              		.loc 1 59 0
  79 0044 1B4B     		ldr	r3, .L6
  80 0046 1B68     		ldr	r3, [r3]
  81 0048 8022     		movs	r2, #128
  82 004a 1340     		ands	r3, r2
  83 004c 17D0     		beq	.L2
  60:Generated_Source\PSoC4/USBUART_msc.c ****     {
  61:Generated_Source\PSoC4/USBUART_msc.c ****         /* Handle direction from device to host. */
  62:Generated_Source\PSoC4/USBUART_msc.c ****         
  63:Generated_Source\PSoC4/USBUART_msc.c ****         if (USBUART_MSC_GET_MAX_LUN == USBUART_bRequestReg)
  84              		.loc 1 63 0
  85 004e 194B     		ldr	r3, .L6
  86 0050 5B68     		ldr	r3, [r3, #4]
  87 0052 FE2B     		cmp	r3, #254
  88 0054 27D1     		bne	.L4
  64:Generated_Source\PSoC4/USBUART_msc.c ****         {
  65:Generated_Source\PSoC4/USBUART_msc.c ****             /* Check request fields. */
  66:Generated_Source\PSoC4/USBUART_msc.c ****             if ((value  == USBUART_MSC_GET_MAX_LUN_WVALUE) &&
  89              		.loc 1 66 0
  90 0056 3B1D     		adds	r3, r7, #4
  91 0058 1B88     		ldrh	r3, [r3]
  92 005a 002B     		cmp	r3, #0
  93 005c 23D1     		bne	.L4
  94              		.loc 1 66 0 is_stmt 0 discriminator 1
  95 005e BB1C     		adds	r3, r7, #2
  96 0060 1B88     		ldrh	r3, [r3]
  97 0062 012B     		cmp	r3, #1
  98 0064 1FD1     		bne	.L4
  67:Generated_Source\PSoC4/USBUART_msc.c ****                 (dataLength == USBUART_MSC_GET_MAX_LUN_WLENGTH))
  68:Generated_Source\PSoC4/USBUART_msc.c ****             {
  69:Generated_Source\PSoC4/USBUART_msc.c ****                 /* Reply to Get Max LUN request: setup control read. */
  70:Generated_Source\PSoC4/USBUART_msc.c ****                 USBUART_currentTD.pData = &USBUART_lunCount;
  99              		.loc 1 70 0 is_stmt 1
 100 0066 144B     		ldr	r3, .L6+4
 101 0068 144A     		ldr	r2, .L6+8
ARM GAS  C:\Users\HPz420\AppData\Local\Temp\ccW977cQ.s 			page 4


 102 006a 5A60     		str	r2, [r3, #4]
  71:Generated_Source\PSoC4/USBUART_msc.c ****                 USBUART_currentTD.count =  USBUART_MSC_GET_MAX_LUN_WLENGTH;
 103              		.loc 1 71 0
 104 006c 124B     		ldr	r3, .L6+4
 105 006e 0122     		movs	r2, #1
 106 0070 1A80     		strh	r2, [r3]
  72:Generated_Source\PSoC4/USBUART_msc.c ****                 
  73:Generated_Source\PSoC4/USBUART_msc.c ****                 requestHandled  = USBUART_InitControlRead();
 107              		.loc 1 73 0
 108 0072 FC1D     		adds	r4, r7, #7
 109 0074 FFF7FEFF 		bl	USBUART_InitControlRead
 110 0078 0300     		movs	r3, r0
 111 007a 2370     		strb	r3, [r4]
 112 007c 13E0     		b	.L4
 113              	.L2:
  74:Generated_Source\PSoC4/USBUART_msc.c ****             }
  75:Generated_Source\PSoC4/USBUART_msc.c ****         }
  76:Generated_Source\PSoC4/USBUART_msc.c ****     }
  77:Generated_Source\PSoC4/USBUART_msc.c ****     else
  78:Generated_Source\PSoC4/USBUART_msc.c ****     {
  79:Generated_Source\PSoC4/USBUART_msc.c ****         /* Handle direction from host to device. */
  80:Generated_Source\PSoC4/USBUART_msc.c ****         
  81:Generated_Source\PSoC4/USBUART_msc.c ****         if (USBUART_MSC_RESET == USBUART_bRequestReg)
 114              		.loc 1 81 0
 115 007e 0D4B     		ldr	r3, .L6
 116 0080 5B68     		ldr	r3, [r3, #4]
 117 0082 FF2B     		cmp	r3, #255
 118 0084 0FD1     		bne	.L4
  82:Generated_Source\PSoC4/USBUART_msc.c ****         {
  83:Generated_Source\PSoC4/USBUART_msc.c ****             /* Check request fields. */
  84:Generated_Source\PSoC4/USBUART_msc.c ****             if ((value  == USBUART_MSC_RESET_WVALUE) &&
 119              		.loc 1 84 0
 120 0086 3B1D     		adds	r3, r7, #4
 121 0088 1B88     		ldrh	r3, [r3]
 122 008a 002B     		cmp	r3, #0
 123 008c 0BD1     		bne	.L4
 124              		.loc 1 84 0 is_stmt 0 discriminator 1
 125 008e BB1C     		adds	r3, r7, #2
 126 0090 1B88     		ldrh	r3, [r3]
 127 0092 002B     		cmp	r3, #0
 128 0094 07D1     		bne	.L4
  85:Generated_Source\PSoC4/USBUART_msc.c ****                 (dataLength == USBUART_MSC_RESET_WLENGTH))
  86:Generated_Source\PSoC4/USBUART_msc.c ****             {
  87:Generated_Source\PSoC4/USBUART_msc.c ****                 /* Handle to Bulk-Only Reset request: no data control transfer. */
  88:Generated_Source\PSoC4/USBUART_msc.c ****                 USBUART_currentTD.count = USBUART_MSC_RESET_WLENGTH;
 129              		.loc 1 88 0 is_stmt 1
 130 0096 084B     		ldr	r3, .L6+4
 131 0098 0022     		movs	r2, #0
 132 009a 1A80     		strh	r2, [r3]
  89:Generated_Source\PSoC4/USBUART_msc.c ****                 
  90:Generated_Source\PSoC4/USBUART_msc.c ****             #ifdef USBUART_DISPATCH_MSC_CLASS_MSC_RESET_RQST_CALLBACK
  91:Generated_Source\PSoC4/USBUART_msc.c ****                 USBUART_DispatchMSCClass_MSC_RESET_RQST_Callback();
  92:Generated_Source\PSoC4/USBUART_msc.c ****             #endif /* (USBUART_DISPATCH_MSC_CLASS_MSC_RESET_RQST_CALLBACK) */
  93:Generated_Source\PSoC4/USBUART_msc.c ****                 
  94:Generated_Source\PSoC4/USBUART_msc.c ****                 requestHandled = USBUART_InitNoDataControlTransfer();
 133              		.loc 1 94 0
 134 009c FC1D     		adds	r4, r7, #7
ARM GAS  C:\Users\HPz420\AppData\Local\Temp\ccW977cQ.s 			page 5


 135 009e FFF7FEFF 		bl	USBUART_InitNoDataControlTransfer
 136 00a2 0300     		movs	r3, r0
 137 00a4 2370     		strb	r3, [r4]
 138              	.L4:
  95:Generated_Source\PSoC4/USBUART_msc.c ****             }
  96:Generated_Source\PSoC4/USBUART_msc.c ****         }
  97:Generated_Source\PSoC4/USBUART_msc.c ****     }
  98:Generated_Source\PSoC4/USBUART_msc.c ****     
  99:Generated_Source\PSoC4/USBUART_msc.c ****     return (requestHandled);
 139              		.loc 1 99 0
 140 00a6 FB1D     		adds	r3, r7, #7
 141 00a8 1B78     		ldrb	r3, [r3]
 100:Generated_Source\PSoC4/USBUART_msc.c **** }
 142              		.loc 1 100 0
 143 00aa 1800     		movs	r0, r3
 144 00ac BD46     		mov	sp, r7
 145 00ae 03B0     		add	sp, sp, #12
 146              		@ sp needed
 147 00b0 90BD     		pop	{r4, r7, pc}
 148              	.L7:
 149 00b2 C046     		.align	2
 150              	.L6:
 151 00b4 00002C40 		.word	1076625408
 152 00b8 00000000 		.word	USBUART_currentTD
 153 00bc 00000000 		.word	USBUART_lunCount
 154              		.cfi_endproc
 155              	.LFE1:
 156              		.size	USBUART_DispatchMSCClassRqst, .-USBUART_DispatchMSCClassRqst
 157              		.section	.text.USBUART_MSC_SetLunCount,"ax",%progbits
 158              		.align	2
 159              		.global	USBUART_MSC_SetLunCount
 160              		.code	16
 161              		.thumb_func
 162              		.type	USBUART_MSC_SetLunCount, %function
 163              	USBUART_MSC_SetLunCount:
 164              	.LFB2:
 101:Generated_Source\PSoC4/USBUART_msc.c **** 
 102:Generated_Source\PSoC4/USBUART_msc.c **** 
 103:Generated_Source\PSoC4/USBUART_msc.c **** /*******************************************************************************
 104:Generated_Source\PSoC4/USBUART_msc.c **** * Function Name: USBUART_MSC_SetLunCount
 105:Generated_Source\PSoC4/USBUART_msc.c **** ****************************************************************************//**
 106:Generated_Source\PSoC4/USBUART_msc.c **** *
 107:Generated_Source\PSoC4/USBUART_msc.c **** *  This function sets the number of logical units supported in the application. 
 108:Generated_Source\PSoC4/USBUART_msc.c **** *  The default number of logical units is set in the component customizer.
 109:Generated_Source\PSoC4/USBUART_msc.c **** *
 110:Generated_Source\PSoC4/USBUART_msc.c **** *  \param lunCount: Count of the logical units. Valid range is between 1 and 16.
 111:Generated_Source\PSoC4/USBUART_msc.c **** *
 112:Generated_Source\PSoC4/USBUART_msc.c **** *
 113:Generated_Source\PSoC4/USBUART_msc.c **** * \globalvars
 114:Generated_Source\PSoC4/USBUART_msc.c **** *  USBUART_lunCount - stores number of LUN (logical units).
 115:Generated_Source\PSoC4/USBUART_msc.c **** *
 116:Generated_Source\PSoC4/USBUART_msc.c **** * \reentrant
 117:Generated_Source\PSoC4/USBUART_msc.c **** *  No.
 118:Generated_Source\PSoC4/USBUART_msc.c **** *
 119:Generated_Source\PSoC4/USBUART_msc.c **** *******************************************************************************/
 120:Generated_Source\PSoC4/USBUART_msc.c **** void USBUART_MSC_SetLunCount(uint8 lunCount) 
 121:Generated_Source\PSoC4/USBUART_msc.c **** {
ARM GAS  C:\Users\HPz420\AppData\Local\Temp\ccW977cQ.s 			page 6


 165              		.loc 1 121 0
 166              		.cfi_startproc
 167              		@ args = 0, pretend = 0, frame = 8
 168              		@ frame_needed = 1, uses_anonymous_args = 0
 169 0000 80B5     		push	{r7, lr}
 170              		.cfi_def_cfa_offset 8
 171              		.cfi_offset 7, -8
 172              		.cfi_offset 14, -4
 173 0002 82B0     		sub	sp, sp, #8
 174              		.cfi_def_cfa_offset 16
 175 0004 00AF     		add	r7, sp, #0
 176              		.cfi_def_cfa_register 7
 177 0006 0200     		movs	r2, r0
 178 0008 FB1D     		adds	r3, r7, #7
 179 000a 1A70     		strb	r2, [r3]
 122:Generated_Source\PSoC4/USBUART_msc.c ****     USBUART_lunCount = (lunCount - 1u);
 180              		.loc 1 122 0
 181 000c FB1D     		adds	r3, r7, #7
 182 000e 1B78     		ldrb	r3, [r3]
 183 0010 013B     		subs	r3, r3, #1
 184 0012 DAB2     		uxtb	r2, r3
 185 0014 024B     		ldr	r3, .L9
 186 0016 1A70     		strb	r2, [r3]
 123:Generated_Source\PSoC4/USBUART_msc.c **** }
 187              		.loc 1 123 0
 188 0018 C046     		nop
 189 001a BD46     		mov	sp, r7
 190 001c 02B0     		add	sp, sp, #8
 191              		@ sp needed
 192 001e 80BD     		pop	{r7, pc}
 193              	.L10:
 194              		.align	2
 195              	.L9:
 196 0020 00000000 		.word	USBUART_lunCount
 197              		.cfi_endproc
 198              	.LFE2:
 199              		.size	USBUART_MSC_SetLunCount, .-USBUART_MSC_SetLunCount
 200              		.section	.text.USBUART_MSC_GetLunCount,"ax",%progbits
 201              		.align	2
 202              		.global	USBUART_MSC_GetLunCount
 203              		.code	16
 204              		.thumb_func
 205              		.type	USBUART_MSC_GetLunCount, %function
 206              	USBUART_MSC_GetLunCount:
 207              	.LFB3:
 124:Generated_Source\PSoC4/USBUART_msc.c **** 
 125:Generated_Source\PSoC4/USBUART_msc.c **** 
 126:Generated_Source\PSoC4/USBUART_msc.c **** /*******************************************************************************
 127:Generated_Source\PSoC4/USBUART_msc.c **** * Function Name: USBUART_MSC_GetLunCount
 128:Generated_Source\PSoC4/USBUART_msc.c **** ****************************************************************************//**
 129:Generated_Source\PSoC4/USBUART_msc.c **** *
 130:Generated_Source\PSoC4/USBUART_msc.c **** *  This function returns the number of logical units.
 131:Generated_Source\PSoC4/USBUART_msc.c **** *
 132:Generated_Source\PSoC4/USBUART_msc.c **** * \return
 133:Generated_Source\PSoC4/USBUART_msc.c **** *   Number of the logical units.
 134:Generated_Source\PSoC4/USBUART_msc.c **** *
 135:Generated_Source\PSoC4/USBUART_msc.c **** * \globalvars
ARM GAS  C:\Users\HPz420\AppData\Local\Temp\ccW977cQ.s 			page 7


 136:Generated_Source\PSoC4/USBUART_msc.c **** *  USBUART_lunCount - stores number of LUN (logical units).
 137:Generated_Source\PSoC4/USBUART_msc.c **** *
 138:Generated_Source\PSoC4/USBUART_msc.c **** * \reentrant
 139:Generated_Source\PSoC4/USBUART_msc.c **** *  No.
 140:Generated_Source\PSoC4/USBUART_msc.c **** *
 141:Generated_Source\PSoC4/USBUART_msc.c **** *******************************************************************************/
 142:Generated_Source\PSoC4/USBUART_msc.c **** uint8 USBUART_MSC_GetLunCount(void) 
 143:Generated_Source\PSoC4/USBUART_msc.c **** {
 208              		.loc 1 143 0
 209              		.cfi_startproc
 210              		@ args = 0, pretend = 0, frame = 0
 211              		@ frame_needed = 1, uses_anonymous_args = 0
 212 0000 80B5     		push	{r7, lr}
 213              		.cfi_def_cfa_offset 8
 214              		.cfi_offset 7, -8
 215              		.cfi_offset 14, -4
 216 0002 00AF     		add	r7, sp, #0
 217              		.cfi_def_cfa_register 7
 144:Generated_Source\PSoC4/USBUART_msc.c ****     return (USBUART_lunCount + 1u);
 218              		.loc 1 144 0
 219 0004 034B     		ldr	r3, .L13
 220 0006 1B78     		ldrb	r3, [r3]
 221 0008 0133     		adds	r3, r3, #1
 222 000a DBB2     		uxtb	r3, r3
 145:Generated_Source\PSoC4/USBUART_msc.c **** }   
 223              		.loc 1 145 0
 224 000c 1800     		movs	r0, r3
 225 000e BD46     		mov	sp, r7
 226              		@ sp needed
 227 0010 80BD     		pop	{r7, pc}
 228              	.L14:
 229 0012 C046     		.align	2
 230              	.L13:
 231 0014 00000000 		.word	USBUART_lunCount
 232              		.cfi_endproc
 233              	.LFE3:
 234              		.size	USBUART_MSC_GetLunCount, .-USBUART_MSC_GetLunCount
 235              		.text
 236              	.Letext0:
 237              		.file 2 "Generated_Source\\PSoC4\\cytypes.h"
 238              		.file 3 "Generated_Source\\PSoC4\\USBUART.h"
 239              		.file 4 "Generated_Source\\PSoC4\\USBUART_pvt.h"