ARM GAS  C:\Users\HPz420\AppData\Local\Temp\cch0eSs9.s 			page 1


   1              		.syntax unified
   2              		.cpu cortex-m0
   3              		.fpu softvfp
   4              		.eabi_attribute 20, 1
   5              		.eabi_attribute 21, 1
   6              		.eabi_attribute 23, 3
   7              		.eabi_attribute 24, 1
   8              		.eabi_attribute 25, 1
   9              		.eabi_attribute 26, 1
  10              		.eabi_attribute 30, 6
  11              		.eabi_attribute 34, 0
  12              		.eabi_attribute 18, 4
  13              		.thumb
  14              		.syntax unified
  15              		.file	"USBUART_Dp_PM.c"
  16              		.text
  17              	.Ltext0:
  18              		.cfi_sections	.debug_frame
  19              		.bss
  20              		.align	2
  21              	USBUART_Dp_backup:
  22 0000 00000000 		.space	12
  22      00000000 
  22      00000000 
  23              		.section	.text.USBUART_Dp_Sleep,"ax",%progbits
  24              		.align	2
  25              		.global	USBUART_Dp_Sleep
  26              		.code	16
  27              		.thumb_func
  28              		.type	USBUART_Dp_Sleep, %function
  29              	USBUART_Dp_Sleep:
  30              	.LFB0:
  31              		.file 1 "Generated_Source\\PSoC4\\USBUART_Dp_PM.c"
   1:Generated_Source\PSoC4/USBUART_Dp_PM.c **** /*******************************************************************************
   2:Generated_Source\PSoC4/USBUART_Dp_PM.c **** * File Name: USBUART_Dp.c  
   3:Generated_Source\PSoC4/USBUART_Dp_PM.c **** * Version 2.20
   4:Generated_Source\PSoC4/USBUART_Dp_PM.c **** *
   5:Generated_Source\PSoC4/USBUART_Dp_PM.c **** * Description:
   6:Generated_Source\PSoC4/USBUART_Dp_PM.c **** *  This file contains APIs to set up the Pins component for low power modes.
   7:Generated_Source\PSoC4/USBUART_Dp_PM.c **** *
   8:Generated_Source\PSoC4/USBUART_Dp_PM.c **** * Note:
   9:Generated_Source\PSoC4/USBUART_Dp_PM.c **** *
  10:Generated_Source\PSoC4/USBUART_Dp_PM.c **** ********************************************************************************
  11:Generated_Source\PSoC4/USBUART_Dp_PM.c **** * Copyright 2015, Cypress Semiconductor Corporation.  All rights reserved.
  12:Generated_Source\PSoC4/USBUART_Dp_PM.c **** * You may use this file only in accordance with the license, terms, conditions, 
  13:Generated_Source\PSoC4/USBUART_Dp_PM.c **** * disclaimers, and limitations in the end user license agreement accompanying 
  14:Generated_Source\PSoC4/USBUART_Dp_PM.c **** * the software package with which this file was provided.
  15:Generated_Source\PSoC4/USBUART_Dp_PM.c **** *******************************************************************************/
  16:Generated_Source\PSoC4/USBUART_Dp_PM.c **** 
  17:Generated_Source\PSoC4/USBUART_Dp_PM.c **** #include "cytypes.h"
  18:Generated_Source\PSoC4/USBUART_Dp_PM.c **** #include "USBUART_Dp.h"
  19:Generated_Source\PSoC4/USBUART_Dp_PM.c **** 
  20:Generated_Source\PSoC4/USBUART_Dp_PM.c **** static USBUART_Dp_BACKUP_STRUCT  USBUART_Dp_backup = {0u, 0u, 0u};
  21:Generated_Source\PSoC4/USBUART_Dp_PM.c **** 
  22:Generated_Source\PSoC4/USBUART_Dp_PM.c **** 
  23:Generated_Source\PSoC4/USBUART_Dp_PM.c **** /*******************************************************************************
  24:Generated_Source\PSoC4/USBUART_Dp_PM.c **** * Function Name: USBUART_Dp_Sleep
ARM GAS  C:\Users\HPz420\AppData\Local\Temp\cch0eSs9.s 			page 2


  25:Generated_Source\PSoC4/USBUART_Dp_PM.c **** ****************************************************************************//**
  26:Generated_Source\PSoC4/USBUART_Dp_PM.c **** *
  27:Generated_Source\PSoC4/USBUART_Dp_PM.c **** * \brief Stores the pin configuration and prepares the pin for entering chip 
  28:Generated_Source\PSoC4/USBUART_Dp_PM.c **** *  deep-sleep/hibernate modes. This function applies only to SIO and USBIO pins.
  29:Generated_Source\PSoC4/USBUART_Dp_PM.c **** *  It should not be called for GPIO or GPIO_OVT pins.
  30:Generated_Source\PSoC4/USBUART_Dp_PM.c **** *
  31:Generated_Source\PSoC4/USBUART_Dp_PM.c **** * <b>Note</b> This function is available in PSoC 4 only.
  32:Generated_Source\PSoC4/USBUART_Dp_PM.c **** *
  33:Generated_Source\PSoC4/USBUART_Dp_PM.c **** * \return 
  34:Generated_Source\PSoC4/USBUART_Dp_PM.c **** *  None 
  35:Generated_Source\PSoC4/USBUART_Dp_PM.c **** *  
  36:Generated_Source\PSoC4/USBUART_Dp_PM.c **** * \sideeffect
  37:Generated_Source\PSoC4/USBUART_Dp_PM.c **** *  For SIO pins, this function configures the pin input threshold to CMOS and
  38:Generated_Source\PSoC4/USBUART_Dp_PM.c **** *  drive level to Vddio. This is needed for SIO pins when in device 
  39:Generated_Source\PSoC4/USBUART_Dp_PM.c **** *  deep-sleep/hibernate modes.
  40:Generated_Source\PSoC4/USBUART_Dp_PM.c **** *
  41:Generated_Source\PSoC4/USBUART_Dp_PM.c **** * \funcusage
  42:Generated_Source\PSoC4/USBUART_Dp_PM.c **** *  \snippet USBUART_Dp_SUT.c usage_USBUART_Dp_Sleep_Wakeup
  43:Generated_Source\PSoC4/USBUART_Dp_PM.c **** *******************************************************************************/
  44:Generated_Source\PSoC4/USBUART_Dp_PM.c **** void USBUART_Dp_Sleep(void)
  45:Generated_Source\PSoC4/USBUART_Dp_PM.c **** {
  32              		.loc 1 45 0
  33              		.cfi_startproc
  34              		@ args = 0, pretend = 0, frame = 0
  35              		@ frame_needed = 1, uses_anonymous_args = 0
  36 0000 80B5     		push	{r7, lr}
  37              		.cfi_def_cfa_offset 8
  38              		.cfi_offset 7, -8
  39              		.cfi_offset 14, -4
  40 0002 00AF     		add	r7, sp, #0
  41              		.cfi_def_cfa_register 7
  46:Generated_Source\PSoC4/USBUART_Dp_PM.c ****     #if defined(USBUART_Dp__PC)
  47:Generated_Source\PSoC4/USBUART_Dp_PM.c ****         USBUART_Dp_backup.pcState = USBUART_Dp_PC;
  48:Generated_Source\PSoC4/USBUART_Dp_PM.c ****     #else
  49:Generated_Source\PSoC4/USBUART_Dp_PM.c ****         #if (CY_PSOC4_4200L)
  50:Generated_Source\PSoC4/USBUART_Dp_PM.c ****             /* Save the regulator state and put the PHY into suspend mode */
  51:Generated_Source\PSoC4/USBUART_Dp_PM.c ****             USBUART_Dp_backup.usbState = USBUART_Dp_CR1_REG;
  42              		.loc 1 51 0
  43 0004 094B     		ldr	r3, .L2
  44 0006 1A68     		ldr	r2, [r3]
  45 0008 094B     		ldr	r3, .L2+4
  46 000a 9A60     		str	r2, [r3, #8]
  52:Generated_Source\PSoC4/USBUART_Dp_PM.c ****             USBUART_Dp_USB_POWER_REG |= USBUART_Dp_USBIO_ENTER_SLEEP;
  47              		.loc 1 52 0
  48 000c 094B     		ldr	r3, .L2+8
  49 000e 094A     		ldr	r2, .L2+8
  50 0010 1268     		ldr	r2, [r2]
  51 0012 0C21     		movs	r1, #12
  52 0014 0A43     		orrs	r2, r1
  53 0016 1A60     		str	r2, [r3]
  53:Generated_Source\PSoC4/USBUART_Dp_PM.c ****             USBUART_Dp_CR1_REG &= USBUART_Dp_USBIO_CR1_OFF;
  54              		.loc 1 53 0
  55 0018 044B     		ldr	r3, .L2
  56 001a 044A     		ldr	r2, .L2
  57 001c 1268     		ldr	r2, [r2]
  58 001e 0121     		movs	r1, #1
  59 0020 8A43     		bics	r2, r1
ARM GAS  C:\Users\HPz420\AppData\Local\Temp\cch0eSs9.s 			page 3


  60 0022 1A60     		str	r2, [r3]
  54:Generated_Source\PSoC4/USBUART_Dp_PM.c ****         #endif
  55:Generated_Source\PSoC4/USBUART_Dp_PM.c ****     #endif
  56:Generated_Source\PSoC4/USBUART_Dp_PM.c ****     #if defined(CYIPBLOCK_m0s8ioss_VERSION) && defined(USBUART_Dp__SIO)
  57:Generated_Source\PSoC4/USBUART_Dp_PM.c ****         USBUART_Dp_backup.sioState = USBUART_Dp_SIO_REG;
  58:Generated_Source\PSoC4/USBUART_Dp_PM.c ****         /* SIO requires unregulated output buffer and single ended input buffer */
  59:Generated_Source\PSoC4/USBUART_Dp_PM.c ****         USBUART_Dp_SIO_REG &= (uint32)(~USBUART_Dp_SIO_LPM_MASK);
  60:Generated_Source\PSoC4/USBUART_Dp_PM.c ****     #endif  
  61:Generated_Source\PSoC4/USBUART_Dp_PM.c **** }
  61              		.loc 1 61 0
  62 0024 C046     		nop
  63 0026 BD46     		mov	sp, r7
  64              		@ sp needed
  65 0028 80BD     		pop	{r7, pc}
  66              	.L3:
  67 002a C046     		.align	2
  68              	.L2:
  69 002c 24002C40 		.word	1076625444
  70 0030 00000000 		.word	USBUART_Dp_backup
  71 0034 00202C40 		.word	1076633600
  72              		.cfi_endproc
  73              	.LFE0:
  74              		.size	USBUART_Dp_Sleep, .-USBUART_Dp_Sleep
  75              		.section	.text.USBUART_Dp_Wakeup,"ax",%progbits
  76              		.align	2
  77              		.global	USBUART_Dp_Wakeup
  78              		.code	16
  79              		.thumb_func
  80              		.type	USBUART_Dp_Wakeup, %function
  81              	USBUART_Dp_Wakeup:
  82              	.LFB1:
  62:Generated_Source\PSoC4/USBUART_Dp_PM.c **** 
  63:Generated_Source\PSoC4/USBUART_Dp_PM.c **** 
  64:Generated_Source\PSoC4/USBUART_Dp_PM.c **** /*******************************************************************************
  65:Generated_Source\PSoC4/USBUART_Dp_PM.c **** * Function Name: USBUART_Dp_Wakeup
  66:Generated_Source\PSoC4/USBUART_Dp_PM.c **** ****************************************************************************//**
  67:Generated_Source\PSoC4/USBUART_Dp_PM.c **** *
  68:Generated_Source\PSoC4/USBUART_Dp_PM.c **** * \brief Restores the pin configuration that was saved during Pin_Sleep(). This 
  69:Generated_Source\PSoC4/USBUART_Dp_PM.c **** * function applies only to SIO and USBIO pins. It should not be called for
  70:Generated_Source\PSoC4/USBUART_Dp_PM.c **** * GPIO or GPIO_OVT pins.
  71:Generated_Source\PSoC4/USBUART_Dp_PM.c **** *
  72:Generated_Source\PSoC4/USBUART_Dp_PM.c **** * For USBIO pins, the wakeup is only triggered for falling edge interrupts.
  73:Generated_Source\PSoC4/USBUART_Dp_PM.c **** *
  74:Generated_Source\PSoC4/USBUART_Dp_PM.c **** * <b>Note</b> This function is available in PSoC 4 only.
  75:Generated_Source\PSoC4/USBUART_Dp_PM.c **** *
  76:Generated_Source\PSoC4/USBUART_Dp_PM.c **** * \return 
  77:Generated_Source\PSoC4/USBUART_Dp_PM.c **** *  None
  78:Generated_Source\PSoC4/USBUART_Dp_PM.c **** *  
  79:Generated_Source\PSoC4/USBUART_Dp_PM.c **** * \funcusage
  80:Generated_Source\PSoC4/USBUART_Dp_PM.c **** *  Refer to USBUART_Dp_Sleep() for an example usage.
  81:Generated_Source\PSoC4/USBUART_Dp_PM.c **** *******************************************************************************/
  82:Generated_Source\PSoC4/USBUART_Dp_PM.c **** void USBUART_Dp_Wakeup(void)
  83:Generated_Source\PSoC4/USBUART_Dp_PM.c **** {
  83              		.loc 1 83 0
  84              		.cfi_startproc
  85              		@ args = 0, pretend = 0, frame = 0
  86              		@ frame_needed = 1, uses_anonymous_args = 0
ARM GAS  C:\Users\HPz420\AppData\Local\Temp\cch0eSs9.s 			page 4


  87 0000 80B5     		push	{r7, lr}
  88              		.cfi_def_cfa_offset 8
  89              		.cfi_offset 7, -8
  90              		.cfi_offset 14, -4
  91 0002 00AF     		add	r7, sp, #0
  92              		.cfi_def_cfa_register 7
  84:Generated_Source\PSoC4/USBUART_Dp_PM.c ****     #if defined(USBUART_Dp__PC)
  85:Generated_Source\PSoC4/USBUART_Dp_PM.c ****         USBUART_Dp_PC = USBUART_Dp_backup.pcState;
  86:Generated_Source\PSoC4/USBUART_Dp_PM.c ****     #else
  87:Generated_Source\PSoC4/USBUART_Dp_PM.c ****         #if (CY_PSOC4_4200L)
  88:Generated_Source\PSoC4/USBUART_Dp_PM.c ****             /* Restore the regulator state and come out of suspend mode */
  89:Generated_Source\PSoC4/USBUART_Dp_PM.c ****             USBUART_Dp_USB_POWER_REG &= USBUART_Dp_USBIO_EXIT_SLEEP_PH1;
  93              		.loc 1 89 0
  94 0004 094B     		ldr	r3, .L5
  95 0006 094A     		ldr	r2, .L5
  96 0008 1268     		ldr	r2, [r2]
  97 000a 0421     		movs	r1, #4
  98 000c 8A43     		bics	r2, r1
  99 000e 1A60     		str	r2, [r3]
  90:Generated_Source\PSoC4/USBUART_Dp_PM.c ****             USBUART_Dp_CR1_REG = USBUART_Dp_backup.usbState;
 100              		.loc 1 90 0
 101 0010 074A     		ldr	r2, .L5+4
 102 0012 084B     		ldr	r3, .L5+8
 103 0014 9B68     		ldr	r3, [r3, #8]
 104 0016 1360     		str	r3, [r2]
  91:Generated_Source\PSoC4/USBUART_Dp_PM.c ****             USBUART_Dp_USB_POWER_REG &= USBUART_Dp_USBIO_EXIT_SLEEP_PH2;
 105              		.loc 1 91 0
 106 0018 044B     		ldr	r3, .L5
 107 001a 044A     		ldr	r2, .L5
 108 001c 1268     		ldr	r2, [r2]
 109 001e 0821     		movs	r1, #8
 110 0020 8A43     		bics	r2, r1
 111 0022 1A60     		str	r2, [r3]
  92:Generated_Source\PSoC4/USBUART_Dp_PM.c ****         #endif
  93:Generated_Source\PSoC4/USBUART_Dp_PM.c ****     #endif
  94:Generated_Source\PSoC4/USBUART_Dp_PM.c ****     #if defined(CYIPBLOCK_m0s8ioss_VERSION) && defined(USBUART_Dp__SIO)
  95:Generated_Source\PSoC4/USBUART_Dp_PM.c ****         USBUART_Dp_SIO_REG = USBUART_Dp_backup.sioState;
  96:Generated_Source\PSoC4/USBUART_Dp_PM.c ****     #endif
  97:Generated_Source\PSoC4/USBUART_Dp_PM.c **** }
 112              		.loc 1 97 0
 113 0024 C046     		nop
 114 0026 BD46     		mov	sp, r7
 115              		@ sp needed
 116 0028 80BD     		pop	{r7, pc}
 117              	.L6:
 118 002a C046     		.align	2
 119              	.L5:
 120 002c 00202C40 		.word	1076633600
 121 0030 24002C40 		.word	1076625444
 122 0034 00000000 		.word	USBUART_Dp_backup
 123              		.cfi_endproc
 124              	.LFE1:
 125              		.size	USBUART_Dp_Wakeup, .-USBUART_Dp_Wakeup
 126              		.text
 127              	.Letext0:
 128              		.file 2 "Generated_Source\\PSoC4\\cytypes.h"
 129              		.file 3 "Generated_Source\\PSoC4\\USBUART_Dp.h"
ARM GAS  C:\Users\HPz420\AppData\Local\Temp\cch0eSs9.s 			page 5

