ARM GAS  C:\Users\HPz420\AppData\Local\Temp\ccOuTLU7.s 			page 1


   1              		.syntax unified
   2              		.cpu cortex-m0
   3              		.fpu softvfp
   4              		.eabi_attribute 20, 1
   5              		.eabi_attribute 21, 1
   6              		.eabi_attribute 23, 3
   7              		.eabi_attribute 24, 1
   8              		.eabi_attribute 25, 1
   9              		.eabi_attribute 26, 1
  10              		.eabi_attribute 30, 6
  11              		.eabi_attribute 34, 0
  12              		.eabi_attribute 18, 4
  13              		.thumb
  14              		.syntax unified
  15              		.file	"USBUART_cdc.c"
  16              		.text
  17              	.Ltext0:
  18              		.cfi_sections	.debug_frame
  19              		.global	USBUART_linesCoding
  20              		.data
  21              		.align	2
  22              		.type	USBUART_linesCoding, %object
  23              		.size	USBUART_linesCoding, 14
  24              	USBUART_linesCoding:
  25 0000 00       		.byte	0
  26 0001 C2       		.byte	-62
  27 0002 01       		.byte	1
  28 0003 00       		.byte	0
  29 0004 00       		.byte	0
  30 0005 00       		.byte	0
  31 0006 08       		.byte	8
  32 0007 00       		.byte	0
  33 0008 C2       		.byte	-62
  34 0009 01       		.byte	1
  35 000a 00       		.byte	0
  36 000b 00       		.byte	0
  37 000c 00       		.byte	0
  38 000d 08       		.byte	8
  39              		.comm	USBUART_linesChanged,2,4
  40              		.comm	USBUART_linesControlBitmap,4,4
  41              		.comm	USBUART_serialStateBitmap,4,4
  42              		.comm	USBUART_cdcDataInEp,2,4
  43              		.comm	USBUART_cdcDataOutEp,2,4
  44              		.comm	USBUART_cdcCommInInterruptEp,2,4
  45 000e 0000     		.align	2
  46              		.type	USBUART_serialStateNotification, %object
  47              		.size	USBUART_serialStateNotification, 10
  48              	USBUART_serialStateNotification:
  49 0010 A1       		.byte	-95
  50 0011 20       		.byte	32
  51 0012 00       		.byte	0
  52 0013 00       		.byte	0
  53 0014 00       		.byte	0
  54 0015 00       		.byte	0
  55 0016 02       		.byte	2
  56 0017 00       		.byte	0
  57 0018 00       		.byte	0
ARM GAS  C:\Users\HPz420\AppData\Local\Temp\ccOuTLU7.s 			page 2


  58 0019 00       		.byte	0
  59              		.bss
  60              	USBUART_activeCom:
  61 0000 00       		.space	1
  62              		.section	.text.USBUART_DispatchCDCClassRqst,"ax",%progbits
  63              		.align	2
  64              		.global	USBUART_DispatchCDCClassRqst
  65              		.code	16
  66              		.thumb_func
  67              		.type	USBUART_DispatchCDCClassRqst, %function
  68              	USBUART_DispatchCDCClassRqst:
  69              	.LFB1:
  70              		.file 1 "Generated_Source\\PSoC4\\USBUART_cdc.c"
   1:Generated_Source\PSoC4/USBUART_cdc.c **** /***************************************************************************//**
   2:Generated_Source\PSoC4/USBUART_cdc.c **** * \file USBUART_cdc.c
   3:Generated_Source\PSoC4/USBUART_cdc.c **** * \version 3.10
   4:Generated_Source\PSoC4/USBUART_cdc.c **** *
   5:Generated_Source\PSoC4/USBUART_cdc.c **** * \brief
   6:Generated_Source\PSoC4/USBUART_cdc.c **** *  This file contains the USB CDC class request handler.
   7:Generated_Source\PSoC4/USBUART_cdc.c **** *
   8:Generated_Source\PSoC4/USBUART_cdc.c **** * Related Document:
   9:Generated_Source\PSoC4/USBUART_cdc.c **** *  Universal Serial Bus Class Definitions for Communication Devices Version 1.1
  10:Generated_Source\PSoC4/USBUART_cdc.c **** *
  11:Generated_Source\PSoC4/USBUART_cdc.c **** ********************************************************************************
  12:Generated_Source\PSoC4/USBUART_cdc.c **** * \copyright
  13:Generated_Source\PSoC4/USBUART_cdc.c **** * Copyright 2012-2016, Cypress Semiconductor Corporation.  All rights reserved.
  14:Generated_Source\PSoC4/USBUART_cdc.c **** * You may use this file only in accordance with the license, terms, conditions,
  15:Generated_Source\PSoC4/USBUART_cdc.c **** * disclaimers, and limitations in the end user license agreement accompanying
  16:Generated_Source\PSoC4/USBUART_cdc.c **** * the software package with which this file was provided.
  17:Generated_Source\PSoC4/USBUART_cdc.c **** *******************************************************************************/
  18:Generated_Source\PSoC4/USBUART_cdc.c **** 
  19:Generated_Source\PSoC4/USBUART_cdc.c **** #include "USBUART_cdc.h"
  20:Generated_Source\PSoC4/USBUART_cdc.c **** #include "USBUART_pvt.h"
  21:Generated_Source\PSoC4/USBUART_cdc.c **** #include "cyapicallbacks.h"
  22:Generated_Source\PSoC4/USBUART_cdc.c **** 
  23:Generated_Source\PSoC4/USBUART_cdc.c **** #if defined(USBUART_ENABLE_CDC_CLASS)
  24:Generated_Source\PSoC4/USBUART_cdc.c **** 
  25:Generated_Source\PSoC4/USBUART_cdc.c **** /*******************************************************************************
  26:Generated_Source\PSoC4/USBUART_cdc.c **** *    CDC Variables
  27:Generated_Source\PSoC4/USBUART_cdc.c **** *******************************************************************************/
  28:Generated_Source\PSoC4/USBUART_cdc.c **** 
  29:Generated_Source\PSoC4/USBUART_cdc.c **** /*PUBLIC*/
  30:Generated_Source\PSoC4/USBUART_cdc.c **** /** Contains the current line coding structure. The host sets it using a
  31:Generated_Source\PSoC4/USBUART_cdc.c ****  * SET_LINE_CODING request and returns it to the user code using the
  32:Generated_Source\PSoC4/USBUART_cdc.c ****  * USBUART_GetDTERate(), USBUART_GetCharFormat(),
  33:Generated_Source\PSoC4/USBUART_cdc.c ****  * USBUART_GetParityType(), and USBUART_GetDataBits() APIs.
  34:Generated_Source\PSoC4/USBUART_cdc.c ****  * It is an array of 2 elements for COM port 1 and COM port 2 for MultiCOM port
  35:Generated_Source\PSoC4/USBUART_cdc.c ****  * support. In case of 1 COM port, data is in 0 element.*/
  36:Generated_Source\PSoC4/USBUART_cdc.c **** volatile uint8 USBUART_linesCoding[USBUART_MAX_MULTI_COM_NUM][USBUART_LINE_CODING_SIZE] =
  37:Generated_Source\PSoC4/USBUART_cdc.c **** {
  38:Generated_Source\PSoC4/USBUART_cdc.c ****     /*COM Port 1*/
  39:Generated_Source\PSoC4/USBUART_cdc.c ****     {
  40:Generated_Source\PSoC4/USBUART_cdc.c ****     0x00u, 0xC2u, 0x01u, 0x00u,     /* Data terminal rate 115200 */
  41:Generated_Source\PSoC4/USBUART_cdc.c ****     0x00u,                          /* 1 Stop bit */
  42:Generated_Source\PSoC4/USBUART_cdc.c ****     0x00u,                          /* None parity */
  43:Generated_Source\PSoC4/USBUART_cdc.c ****     0x08u                           /* 8 data bits */
  44:Generated_Source\PSoC4/USBUART_cdc.c ****     },
ARM GAS  C:\Users\HPz420\AppData\Local\Temp\ccOuTLU7.s 			page 3


  45:Generated_Source\PSoC4/USBUART_cdc.c ****     /*COM Port 2*/
  46:Generated_Source\PSoC4/USBUART_cdc.c ****     {
  47:Generated_Source\PSoC4/USBUART_cdc.c ****     0x00u, 0xC2u, 0x01u, 0x00u,     /* Data terminal rate 115200 */
  48:Generated_Source\PSoC4/USBUART_cdc.c ****     0x00u,                          /* 1 Stop bit */
  49:Generated_Source\PSoC4/USBUART_cdc.c ****     0x00u,                          /* None parity */
  50:Generated_Source\PSoC4/USBUART_cdc.c ****     0x08u                           /* 8 data bits */
  51:Generated_Source\PSoC4/USBUART_cdc.c ****     }
  52:Generated_Source\PSoC4/USBUART_cdc.c **** };
  53:Generated_Source\PSoC4/USBUART_cdc.c **** 
  54:Generated_Source\PSoC4/USBUART_cdc.c **** /**Used as a flag for the USBUART_IsLineChanged() API, to inform it that the
  55:Generated_Source\PSoC4/USBUART_cdc.c ****  * host has been sent a request to change line coding or control bitmap. It is 
  56:Generated_Source\PSoC4/USBUART_cdc.c ****  * an array of 2 elements for COM port 1 and COM port 2 for MultiCOM port 
  57:Generated_Source\PSoC4/USBUART_cdc.c ****  * support. In case of 1 COM port, data is in 0 element.*/
  58:Generated_Source\PSoC4/USBUART_cdc.c **** volatile uint8  USBUART_linesChanged[USBUART_MAX_MULTI_COM_NUM];
  59:Generated_Source\PSoC4/USBUART_cdc.c **** /** Contains the current control-signal bitmap. The host sets it using a
  60:Generated_Source\PSoC4/USBUART_cdc.c ****  * SET_CONTROL_LINE request and returns it to the user code using the 
  61:Generated_Source\PSoC4/USBUART_cdc.c ****  * USBUART_GetLineControl() API. It is an array of 2 elements for COM 
  62:Generated_Source\PSoC4/USBUART_cdc.c ****  * port 1 and COM port 2 for MultiCOM port support. In case of 1 COM port, data 
  63:Generated_Source\PSoC4/USBUART_cdc.c ****  * is in 0 element.*/
  64:Generated_Source\PSoC4/USBUART_cdc.c **** volatile uint16 USBUART_linesControlBitmap[USBUART_MAX_MULTI_COM_NUM];
  65:Generated_Source\PSoC4/USBUART_cdc.c **** /** Contains the 16-bit serial state value that was sent using the 
  66:Generated_Source\PSoC4/USBUART_cdc.c ****  * \ref USBUART_SendSerialState() API. . It is an array of 2 elements 
  67:Generated_Source\PSoC4/USBUART_cdc.c ****  * for COM port 1 and COM port 2 for MultiCOM port support. In case of 1 COM 
  68:Generated_Source\PSoC4/USBUART_cdc.c ****  * port, data is in 0 element.*/
  69:Generated_Source\PSoC4/USBUART_cdc.c **** volatile uint16 USBUART_serialStateBitmap[USBUART_MAX_MULTI_COM_NUM];
  70:Generated_Source\PSoC4/USBUART_cdc.c **** /** Contains the data IN endpoint number. It is initialized after a 
  71:Generated_Source\PSoC4/USBUART_cdc.c ****  * SET_CONFIGURATION request based on a user descriptor. It is used in CDC APIs 
  72:Generated_Source\PSoC4/USBUART_cdc.c ****  * to send data to the PC. It is an array of 2 elements for COM port 1 and COM 
  73:Generated_Source\PSoC4/USBUART_cdc.c ****  * port 2 for MultiCOM port support. In case of 1 COM port, data is in 0 element.*/
  74:Generated_Source\PSoC4/USBUART_cdc.c **** volatile uint8  USBUART_cdcDataInEp[USBUART_MAX_MULTI_COM_NUM];
  75:Generated_Source\PSoC4/USBUART_cdc.c **** /** Contains the data OUT endpoint number. It is initialized after a 
  76:Generated_Source\PSoC4/USBUART_cdc.c ****  * SET_CONFIGURATION request based on user descriptor. It is used in CDC APIs to 
  77:Generated_Source\PSoC4/USBUART_cdc.c ****  * receive data from the PC. It is an array of 2 elements for COM port 1 and COM  
  78:Generated_Source\PSoC4/USBUART_cdc.c ****  * port 2 for MultiCOM port support. In case of 1 COM port, data is in 0 element.*/
  79:Generated_Source\PSoC4/USBUART_cdc.c **** volatile uint8  USBUART_cdcDataOutEp[USBUART_MAX_MULTI_COM_NUM];
  80:Generated_Source\PSoC4/USBUART_cdc.c **** /** Contains the data IN endpoint number for COMMUNICATION interface. It is 
  81:Generated_Source\PSoC4/USBUART_cdc.c ****  * initialized after a SET_CONFIGURATION request based on a user descriptor. It 
  82:Generated_Source\PSoC4/USBUART_cdc.c ****  * is used in CDC APIs to send data to the PC. It is an array of 2 elements for 
  83:Generated_Source\PSoC4/USBUART_cdc.c ****  * COM port 1 and COM port 2 for MultiCOM port support. In case of 1 COM port, 
  84:Generated_Source\PSoC4/USBUART_cdc.c ****  * data is in 0 element.*/
  85:Generated_Source\PSoC4/USBUART_cdc.c **** volatile uint8  USBUART_cdcCommInInterruptEp[USBUART_MAX_MULTI_COM_NUM];
  86:Generated_Source\PSoC4/USBUART_cdc.c **** 
  87:Generated_Source\PSoC4/USBUART_cdc.c **** /*PRIVATE*/
  88:Generated_Source\PSoC4/USBUART_cdc.c **** 
  89:Generated_Source\PSoC4/USBUART_cdc.c **** #define USBUART_CDC_IN_EP      (0u)
  90:Generated_Source\PSoC4/USBUART_cdc.c **** #define USBUART_CDC_OUT_EP     (1u)
  91:Generated_Source\PSoC4/USBUART_cdc.c **** #define USBUART_CDC_NOTE_EP    (2u)
  92:Generated_Source\PSoC4/USBUART_cdc.c **** 
  93:Generated_Source\PSoC4/USBUART_cdc.c **** #define USBUART_CDC_EP_MASK    (0x01u)
  94:Generated_Source\PSoC4/USBUART_cdc.c **** 
  95:Generated_Source\PSoC4/USBUART_cdc.c **** #define USBUART_GET_EP_COM_NUM(cdcComNums, epType) (((cdcComNums) >> (epType)) & USBUART_CDC_EP_MAS
  96:Generated_Source\PSoC4/USBUART_cdc.c **** 
  97:Generated_Source\PSoC4/USBUART_cdc.c **** 
  98:Generated_Source\PSoC4/USBUART_cdc.c **** /***************************************
  99:Generated_Source\PSoC4/USBUART_cdc.c **** *     Static Function Prototypes
 100:Generated_Source\PSoC4/USBUART_cdc.c **** ***************************************/
 101:Generated_Source\PSoC4/USBUART_cdc.c **** #if (USBUART_ENABLE_CDC_CLASS_API != 0u)
ARM GAS  C:\Users\HPz420\AppData\Local\Temp\ccOuTLU7.s 			page 4


 102:Generated_Source\PSoC4/USBUART_cdc.c ****     static uint16 USBUART_StrLen(const char8 string[]) ;
 103:Generated_Source\PSoC4/USBUART_cdc.c ****     static t_USBUART_cdc_notification USBUART_serialStateNotification =
 104:Generated_Source\PSoC4/USBUART_cdc.c ****     {
 105:Generated_Source\PSoC4/USBUART_cdc.c **** 
 106:Generated_Source\PSoC4/USBUART_cdc.c ****         USBUART_SERIAL_STATE_REQUEST_TYPE, /* bRequestType    */
 107:Generated_Source\PSoC4/USBUART_cdc.c ****         USBUART_SERIAL_STATE,              /* bNotification   */
 108:Generated_Source\PSoC4/USBUART_cdc.c ****         0u,                                         /* wValue          */
 109:Generated_Source\PSoC4/USBUART_cdc.c ****         0u,                                         /* wValueMSB       */
 110:Generated_Source\PSoC4/USBUART_cdc.c ****         0u,                                         /* wIndex          */
 111:Generated_Source\PSoC4/USBUART_cdc.c ****         0u,                                         /* wIndexMSB       */
 112:Generated_Source\PSoC4/USBUART_cdc.c ****         USBUART_SERIAL_STATE_LENGTH,       /* wLength         */
 113:Generated_Source\PSoC4/USBUART_cdc.c ****         0u,                                         /* wLengthMSB      */
 114:Generated_Source\PSoC4/USBUART_cdc.c ****         0u,                                         /* wSerialState    */
 115:Generated_Source\PSoC4/USBUART_cdc.c ****         0u,                                         /* wSerialStateMSB */
 116:Generated_Source\PSoC4/USBUART_cdc.c ****     };
 117:Generated_Source\PSoC4/USBUART_cdc.c ****     static uint8 USBUART_activeCom = 0u;
 118:Generated_Source\PSoC4/USBUART_cdc.c **** #endif /* (USBUART_ENABLE_CDC_CLASS_API != 0u) */
 119:Generated_Source\PSoC4/USBUART_cdc.c **** 
 120:Generated_Source\PSoC4/USBUART_cdc.c **** 
 121:Generated_Source\PSoC4/USBUART_cdc.c **** /***************************************
 122:Generated_Source\PSoC4/USBUART_cdc.c **** * Custom Declarations
 123:Generated_Source\PSoC4/USBUART_cdc.c **** ***************************************/
 124:Generated_Source\PSoC4/USBUART_cdc.c **** 
 125:Generated_Source\PSoC4/USBUART_cdc.c **** /* `#START CDC_CUSTOM_DECLARATIONS` Place your declaration here */
 126:Generated_Source\PSoC4/USBUART_cdc.c **** 
 127:Generated_Source\PSoC4/USBUART_cdc.c **** /* `#END` */
 128:Generated_Source\PSoC4/USBUART_cdc.c **** 
 129:Generated_Source\PSoC4/USBUART_cdc.c **** 
 130:Generated_Source\PSoC4/USBUART_cdc.c **** /*******************************************************************************
 131:Generated_Source\PSoC4/USBUART_cdc.c **** * Function Name: USBUART_DispatchCDCClassRqst
 132:Generated_Source\PSoC4/USBUART_cdc.c **** ****************************************************************************//**
 133:Generated_Source\PSoC4/USBUART_cdc.c **** *
 134:Generated_Source\PSoC4/USBUART_cdc.c **** *  This routine dispatches CDC class requests.
 135:Generated_Source\PSoC4/USBUART_cdc.c **** *
 136:Generated_Source\PSoC4/USBUART_cdc.c **** * \return
 137:Generated_Source\PSoC4/USBUART_cdc.c **** *  requestHandled
 138:Generated_Source\PSoC4/USBUART_cdc.c **** *
 139:Generated_Source\PSoC4/USBUART_cdc.c **** * \globalvars
 140:Generated_Source\PSoC4/USBUART_cdc.c **** *   USBUART_linesCoding: Contains the current line coding structure.
 141:Generated_Source\PSoC4/USBUART_cdc.c **** *     It is set by the Host using SET_LINE_CODING request and returned to the
 142:Generated_Source\PSoC4/USBUART_cdc.c **** *     user code by the USBFS_GetDTERate(), USBFS_GetCharFormat(),
 143:Generated_Source\PSoC4/USBUART_cdc.c **** *     USBFS_GetParityType(), USBFS_GetDataBits() APIs.
 144:Generated_Source\PSoC4/USBUART_cdc.c **** *   USBUART_linesControlBitmap: Contains the current control signal
 145:Generated_Source\PSoC4/USBUART_cdc.c **** *     bitmap. It is set by the Host using SET_CONTROL_LINE request and returned
 146:Generated_Source\PSoC4/USBUART_cdc.c **** *     to the user code by the USBFS_GetLineControl() API.
 147:Generated_Source\PSoC4/USBUART_cdc.c **** *   USBUART_linesChanged: This variable is used as a flag for the
 148:Generated_Source\PSoC4/USBUART_cdc.c **** *     USBFS_IsLineChanged() API, to be aware that Host has been sent request
 149:Generated_Source\PSoC4/USBUART_cdc.c **** *     for changing Line Coding or Control Bitmap.
 150:Generated_Source\PSoC4/USBUART_cdc.c **** *
 151:Generated_Source\PSoC4/USBUART_cdc.c **** * \reentrant
 152:Generated_Source\PSoC4/USBUART_cdc.c **** *  No.
 153:Generated_Source\PSoC4/USBUART_cdc.c **** *
 154:Generated_Source\PSoC4/USBUART_cdc.c **** *******************************************************************************/
 155:Generated_Source\PSoC4/USBUART_cdc.c **** uint8 USBUART_DispatchCDCClassRqst(void) 
 156:Generated_Source\PSoC4/USBUART_cdc.c **** {
  71              		.loc 1 156 0
  72              		.cfi_startproc
ARM GAS  C:\Users\HPz420\AppData\Local\Temp\ccOuTLU7.s 			page 5


  73              		@ args = 0, pretend = 0, frame = 8
  74              		@ frame_needed = 1, uses_anonymous_args = 0
  75 0000 90B5     		push	{r4, r7, lr}
  76              		.cfi_def_cfa_offset 12
  77              		.cfi_offset 4, -12
  78              		.cfi_offset 7, -8
  79              		.cfi_offset 14, -4
  80 0002 83B0     		sub	sp, sp, #12
  81              		.cfi_def_cfa_offset 24
  82 0004 00AF     		add	r7, sp, #0
  83              		.cfi_def_cfa_register 7
 157:Generated_Source\PSoC4/USBUART_cdc.c ****     uint8 requestHandled = USBUART_FALSE;
  84              		.loc 1 157 0
  85 0006 FB1D     		adds	r3, r7, #7
  86 0008 0022     		movs	r2, #0
  87 000a 1A70     		strb	r2, [r3]
 158:Generated_Source\PSoC4/USBUART_cdc.c ****     uint8 comPort;
 159:Generated_Source\PSoC4/USBUART_cdc.c **** 
 160:Generated_Source\PSoC4/USBUART_cdc.c ****     comPort = USBUART_GetInterfaceComPort((uint8)USBUART_wIndexLoReg);
  88              		.loc 1 160 0
  89 000c 354B     		ldr	r3, .L11
  90 000e 1B69     		ldr	r3, [r3, #16]
  91 0010 DBB2     		uxtb	r3, r3
  92 0012 BC1D     		adds	r4, r7, #6
  93 0014 1800     		movs	r0, r3
  94 0016 FFF7FEFF 		bl	USBUART_GetInterfaceComPort
  95 001a 0300     		movs	r3, r0
  96 001c 2370     		strb	r3, [r4]
 161:Generated_Source\PSoC4/USBUART_cdc.c **** 
 162:Generated_Source\PSoC4/USBUART_cdc.c ****     /* Check request direction: D2H or H2D. */
 163:Generated_Source\PSoC4/USBUART_cdc.c ****     if (0u != (USBUART_bmRequestTypeReg & USBUART_RQST_DIR_D2H))
  97              		.loc 1 163 0
  98 001e 314B     		ldr	r3, .L11
  99 0020 1B68     		ldr	r3, [r3]
 100 0022 8022     		movs	r2, #128
 101 0024 1340     		ands	r3, r2
 102 0026 16D0     		beq	.L2
 164:Generated_Source\PSoC4/USBUART_cdc.c ****     {
 165:Generated_Source\PSoC4/USBUART_cdc.c ****         /* Handle direction from device to host. */
 166:Generated_Source\PSoC4/USBUART_cdc.c **** 
 167:Generated_Source\PSoC4/USBUART_cdc.c ****         switch (USBUART_bRequestReg)
 103              		.loc 1 167 0
 104 0028 2E4B     		ldr	r3, .L11
 105 002a 5B68     		ldr	r3, [r3, #4]
 106 002c 212B     		cmp	r3, #33
 107 002e 00D0     		beq	.L4
 168:Generated_Source\PSoC4/USBUART_cdc.c ****         {
 169:Generated_Source\PSoC4/USBUART_cdc.c ****             case USBUART_CDC_GET_LINE_CODING:
 170:Generated_Source\PSoC4/USBUART_cdc.c ****                 USBUART_currentTD.count = USBUART_LINE_CODING_SIZE;
 171:Generated_Source\PSoC4/USBUART_cdc.c ****                 USBUART_currentTD.pData = USBUART_linesCoding[comPort];
 172:Generated_Source\PSoC4/USBUART_cdc.c ****                 requestHandled  = USBUART_InitControlRead();
 173:Generated_Source\PSoC4/USBUART_cdc.c ****                 break;
 174:Generated_Source\PSoC4/USBUART_cdc.c **** 
 175:Generated_Source\PSoC4/USBUART_cdc.c ****             /* `#START CDC_READ_REQUESTS` Place other request handler here */
 176:Generated_Source\PSoC4/USBUART_cdc.c **** 
 177:Generated_Source\PSoC4/USBUART_cdc.c ****             /* `#END` */
 178:Generated_Source\PSoC4/USBUART_cdc.c **** 
ARM GAS  C:\Users\HPz420\AppData\Local\Temp\ccOuTLU7.s 			page 6


 179:Generated_Source\PSoC4/USBUART_cdc.c ****             default:
 180:Generated_Source\PSoC4/USBUART_cdc.c ****             /* Do not handle this request unless callback is defined. */
 181:Generated_Source\PSoC4/USBUART_cdc.c ****             #ifdef USBUART_DISPATCH_CDC_CLASS_CDC_READ_REQUESTS_CALLBACK
 182:Generated_Source\PSoC4/USBUART_cdc.c ****                 requestHandled = USBUART_DispatchCDCClass_CDC_READ_REQUESTS_Callback();
 183:Generated_Source\PSoC4/USBUART_cdc.c ****             #endif /* (USBUART_DISPATCH_CDC_CLASS_CDC_READ_REQUESTS_CALLBACK) */
 184:Generated_Source\PSoC4/USBUART_cdc.c ****                 break;
 108              		.loc 1 184 0
 109 0030 51E0     		b	.L6
 110              	.L4:
 170:Generated_Source\PSoC4/USBUART_cdc.c ****                 USBUART_currentTD.pData = USBUART_linesCoding[comPort];
 111              		.loc 1 170 0
 112 0032 2D4B     		ldr	r3, .L11+4
 113 0034 0722     		movs	r2, #7
 114 0036 1A80     		strh	r2, [r3]
 171:Generated_Source\PSoC4/USBUART_cdc.c ****                 requestHandled  = USBUART_InitControlRead();
 115              		.loc 1 171 0
 116 0038 BB1D     		adds	r3, r7, #6
 117 003a 1A78     		ldrb	r2, [r3]
 118 003c 1300     		movs	r3, r2
 119 003e DB00     		lsls	r3, r3, #3
 120 0040 9B1A     		subs	r3, r3, r2
 121 0042 2A4A     		ldr	r2, .L11+8
 122 0044 9A18     		adds	r2, r3, r2
 123 0046 284B     		ldr	r3, .L11+4
 124 0048 5A60     		str	r2, [r3, #4]
 172:Generated_Source\PSoC4/USBUART_cdc.c ****                 break;
 125              		.loc 1 172 0
 126 004a FC1D     		adds	r4, r7, #7
 127 004c FFF7FEFF 		bl	USBUART_InitControlRead
 128 0050 0300     		movs	r3, r0
 129 0052 2370     		strb	r3, [r4]
 173:Generated_Source\PSoC4/USBUART_cdc.c **** 
 130              		.loc 1 173 0
 131 0054 3FE0     		b	.L6
 132              	.L2:
 185:Generated_Source\PSoC4/USBUART_cdc.c ****         }
 186:Generated_Source\PSoC4/USBUART_cdc.c ****     }
 187:Generated_Source\PSoC4/USBUART_cdc.c ****     else
 188:Generated_Source\PSoC4/USBUART_cdc.c ****     {
 189:Generated_Source\PSoC4/USBUART_cdc.c ****         /* Handle direction from host to device. */
 190:Generated_Source\PSoC4/USBUART_cdc.c **** 
 191:Generated_Source\PSoC4/USBUART_cdc.c ****         switch (USBUART_bRequestReg)
 133              		.loc 1 191 0
 134 0056 234B     		ldr	r3, .L11
 135 0058 5B68     		ldr	r3, [r3, #4]
 136 005a 202B     		cmp	r3, #32
 137 005c 02D0     		beq	.L8
 138 005e 222B     		cmp	r3, #34
 139 0060 1ED0     		beq	.L9
 192:Generated_Source\PSoC4/USBUART_cdc.c ****         {
 193:Generated_Source\PSoC4/USBUART_cdc.c ****             case USBUART_CDC_SET_LINE_CODING:
 194:Generated_Source\PSoC4/USBUART_cdc.c ****                 USBUART_currentTD.count  = USBUART_LINE_CODING_SIZE;
 195:Generated_Source\PSoC4/USBUART_cdc.c ****                 USBUART_currentTD.pData  = USBUART_linesCoding[comPort];
 196:Generated_Source\PSoC4/USBUART_cdc.c ****                 USBUART_linesChanged[comPort] |= USBUART_LINE_CODING_CHANGED;
 197:Generated_Source\PSoC4/USBUART_cdc.c **** 
 198:Generated_Source\PSoC4/USBUART_cdc.c ****                 requestHandled = USBUART_InitControlWrite();
 199:Generated_Source\PSoC4/USBUART_cdc.c ****                 break;
ARM GAS  C:\Users\HPz420\AppData\Local\Temp\ccOuTLU7.s 			page 7


 200:Generated_Source\PSoC4/USBUART_cdc.c **** 
 201:Generated_Source\PSoC4/USBUART_cdc.c ****             case USBUART_CDC_SET_CONTROL_LINE_STATE:
 202:Generated_Source\PSoC4/USBUART_cdc.c ****                 USBUART_linesControlBitmap[comPort] = (uint8) USBUART_wValueLoReg;
 203:Generated_Source\PSoC4/USBUART_cdc.c ****                 USBUART_linesChanged[comPort]      |= USBUART_LINE_CONTROL_CHANGED;
 204:Generated_Source\PSoC4/USBUART_cdc.c **** 
 205:Generated_Source\PSoC4/USBUART_cdc.c ****                 requestHandled = USBUART_InitNoDataControlTransfer();
 206:Generated_Source\PSoC4/USBUART_cdc.c ****                 break;
 207:Generated_Source\PSoC4/USBUART_cdc.c **** 
 208:Generated_Source\PSoC4/USBUART_cdc.c ****             /* `#START CDC_WRITE_REQUESTS` Place other request handler here */
 209:Generated_Source\PSoC4/USBUART_cdc.c **** 
 210:Generated_Source\PSoC4/USBUART_cdc.c ****             /* `#END` */
 211:Generated_Source\PSoC4/USBUART_cdc.c **** 
 212:Generated_Source\PSoC4/USBUART_cdc.c ****             default:
 213:Generated_Source\PSoC4/USBUART_cdc.c ****                 /* Do not handle this request unless callback is defined. */
 214:Generated_Source\PSoC4/USBUART_cdc.c ****             #ifdef USBUART_DISPATCH_CDC_CLASS_CDC_WRITE_REQUESTS_CALLBACK
 215:Generated_Source\PSoC4/USBUART_cdc.c ****                 requestHandled = USBUART_DispatchCDCClass_CDC_WRITE_REQUESTS_Callback();
 216:Generated_Source\PSoC4/USBUART_cdc.c ****             #endif /* (USBUART_DISPATCH_CDC_CLASS_CDC_WRITE_REQUESTS_CALLBACK) */
 217:Generated_Source\PSoC4/USBUART_cdc.c ****                 break;
 140              		.loc 1 217 0
 141 0062 38E0     		b	.L6
 142              	.L8:
 194:Generated_Source\PSoC4/USBUART_cdc.c ****                 USBUART_currentTD.pData  = USBUART_linesCoding[comPort];
 143              		.loc 1 194 0
 144 0064 204B     		ldr	r3, .L11+4
 145 0066 0722     		movs	r2, #7
 146 0068 1A80     		strh	r2, [r3]
 195:Generated_Source\PSoC4/USBUART_cdc.c ****                 USBUART_linesChanged[comPort] |= USBUART_LINE_CODING_CHANGED;
 147              		.loc 1 195 0
 148 006a BB1D     		adds	r3, r7, #6
 149 006c 1A78     		ldrb	r2, [r3]
 150 006e 1300     		movs	r3, r2
 151 0070 DB00     		lsls	r3, r3, #3
 152 0072 9B1A     		subs	r3, r3, r2
 153 0074 1D4A     		ldr	r2, .L11+8
 154 0076 9A18     		adds	r2, r3, r2
 155 0078 1B4B     		ldr	r3, .L11+4
 156 007a 5A60     		str	r2, [r3, #4]
 196:Generated_Source\PSoC4/USBUART_cdc.c **** 
 157              		.loc 1 196 0
 158 007c BB1D     		adds	r3, r7, #6
 159 007e 1B78     		ldrb	r3, [r3]
 160 0080 BA1D     		adds	r2, r7, #6
 161 0082 1278     		ldrb	r2, [r2]
 162 0084 1A49     		ldr	r1, .L11+12
 163 0086 8A5C     		ldrb	r2, [r1, r2]
 164 0088 D2B2     		uxtb	r2, r2
 165 008a 0121     		movs	r1, #1
 166 008c 0A43     		orrs	r2, r1
 167 008e D1B2     		uxtb	r1, r2
 168 0090 174A     		ldr	r2, .L11+12
 169 0092 D154     		strb	r1, [r2, r3]
 198:Generated_Source\PSoC4/USBUART_cdc.c ****                 break;
 170              		.loc 1 198 0
 171 0094 FC1D     		adds	r4, r7, #7
 172 0096 FFF7FEFF 		bl	USBUART_InitControlWrite
 173 009a 0300     		movs	r3, r0
 174 009c 2370     		strb	r3, [r4]
ARM GAS  C:\Users\HPz420\AppData\Local\Temp\ccOuTLU7.s 			page 8


 199:Generated_Source\PSoC4/USBUART_cdc.c **** 
 175              		.loc 1 199 0
 176 009e 1AE0     		b	.L6
 177              	.L9:
 202:Generated_Source\PSoC4/USBUART_cdc.c ****                 USBUART_linesChanged[comPort]      |= USBUART_LINE_CONTROL_CHANGED;
 178              		.loc 1 202 0
 179 00a0 BB1D     		adds	r3, r7, #6
 180 00a2 1A78     		ldrb	r2, [r3]
 181 00a4 0F4B     		ldr	r3, .L11
 182 00a6 9B68     		ldr	r3, [r3, #8]
 183 00a8 DBB2     		uxtb	r3, r3
 184 00aa 99B2     		uxth	r1, r3
 185 00ac 114B     		ldr	r3, .L11+16
 186 00ae 5200     		lsls	r2, r2, #1
 187 00b0 D152     		strh	r1, [r2, r3]
 203:Generated_Source\PSoC4/USBUART_cdc.c **** 
 188              		.loc 1 203 0
 189 00b2 BB1D     		adds	r3, r7, #6
 190 00b4 1B78     		ldrb	r3, [r3]
 191 00b6 BA1D     		adds	r2, r7, #6
 192 00b8 1278     		ldrb	r2, [r2]
 193 00ba 0D49     		ldr	r1, .L11+12
 194 00bc 8A5C     		ldrb	r2, [r1, r2]
 195 00be D2B2     		uxtb	r2, r2
 196 00c0 0221     		movs	r1, #2
 197 00c2 0A43     		orrs	r2, r1
 198 00c4 D1B2     		uxtb	r1, r2
 199 00c6 0A4A     		ldr	r2, .L11+12
 200 00c8 D154     		strb	r1, [r2, r3]
 205:Generated_Source\PSoC4/USBUART_cdc.c ****                 break;
 201              		.loc 1 205 0
 202 00ca FC1D     		adds	r4, r7, #7
 203 00cc FFF7FEFF 		bl	USBUART_InitNoDataControlTransfer
 204 00d0 0300     		movs	r3, r0
 205 00d2 2370     		strb	r3, [r4]
 206:Generated_Source\PSoC4/USBUART_cdc.c **** 
 206              		.loc 1 206 0
 207 00d4 C046     		nop
 208              	.L6:
 218:Generated_Source\PSoC4/USBUART_cdc.c ****         }
 219:Generated_Source\PSoC4/USBUART_cdc.c ****     }
 220:Generated_Source\PSoC4/USBUART_cdc.c **** 
 221:Generated_Source\PSoC4/USBUART_cdc.c ****     return(requestHandled);
 209              		.loc 1 221 0
 210 00d6 FB1D     		adds	r3, r7, #7
 211 00d8 1B78     		ldrb	r3, [r3]
 222:Generated_Source\PSoC4/USBUART_cdc.c **** }
 212              		.loc 1 222 0
 213 00da 1800     		movs	r0, r3
 214 00dc BD46     		mov	sp, r7
 215 00de 03B0     		add	sp, sp, #12
 216              		@ sp needed
 217 00e0 90BD     		pop	{r4, r7, pc}
 218              	.L12:
 219 00e2 C046     		.align	2
 220              	.L11:
 221 00e4 00002C40 		.word	1076625408
ARM GAS  C:\Users\HPz420\AppData\Local\Temp\ccOuTLU7.s 			page 9


 222 00e8 00000000 		.word	USBUART_currentTD
 223 00ec 00000000 		.word	USBUART_linesCoding
 224 00f0 00000000 		.word	USBUART_linesChanged
 225 00f4 00000000 		.word	USBUART_linesControlBitmap
 226              		.cfi_endproc
 227              	.LFE1:
 228              		.size	USBUART_DispatchCDCClassRqst, .-USBUART_DispatchCDCClassRqst
 229              		.section	.text.USBUART_GetInterfaceComPort,"ax",%progbits
 230              		.align	2
 231              		.global	USBUART_GetInterfaceComPort
 232              		.code	16
 233              		.thumb_func
 234              		.type	USBUART_GetInterfaceComPort, %function
 235              	USBUART_GetInterfaceComPort:
 236              	.LFB2:
 223:Generated_Source\PSoC4/USBUART_cdc.c **** 
 224:Generated_Source\PSoC4/USBUART_cdc.c **** 
 225:Generated_Source\PSoC4/USBUART_cdc.c **** /***************************************************************************
 226:Generated_Source\PSoC4/USBUART_cdc.c **** * Function Name: USBUART_GetInterfaceComPort
 227:Generated_Source\PSoC4/USBUART_cdc.c **** ************************************************************************//**
 228:Generated_Source\PSoC4/USBUART_cdc.c **** *   \internal
 229:Generated_Source\PSoC4/USBUART_cdc.c **** *  Internal function which gets number of COM port by specified interface
 230:Generated_Source\PSoC4/USBUART_cdc.c **** *   number.
 231:Generated_Source\PSoC4/USBUART_cdc.c **** *
 232:Generated_Source\PSoC4/USBUART_cdc.c **** * \param uint8 interface
 233:Generated_Source\PSoC4/USBUART_cdc.c **** *  Interface number
 234:Generated_Source\PSoC4/USBUART_cdc.c **** *
 235:Generated_Source\PSoC4/USBUART_cdc.c **** * \return
 236:Generated_Source\PSoC4/USBUART_cdc.c **** *  COM port number (0 or 1) or error 0xFF
 237:Generated_Source\PSoC4/USBUART_cdc.c **** *
 238:Generated_Source\PSoC4/USBUART_cdc.c **** ***************************************************************************/
 239:Generated_Source\PSoC4/USBUART_cdc.c **** uint8 USBUART_GetInterfaceComPort(uint8 interface) 
 240:Generated_Source\PSoC4/USBUART_cdc.c **** {
 237              		.loc 1 240 0
 238              		.cfi_startproc
 239              		@ args = 0, pretend = 0, frame = 16
 240              		@ frame_needed = 1, uses_anonymous_args = 0
 241 0000 80B5     		push	{r7, lr}
 242              		.cfi_def_cfa_offset 8
 243              		.cfi_offset 7, -8
 244              		.cfi_offset 14, -4
 245 0002 84B0     		sub	sp, sp, #16
 246              		.cfi_def_cfa_offset 24
 247 0004 00AF     		add	r7, sp, #0
 248              		.cfi_def_cfa_register 7
 249 0006 0200     		movs	r2, r0
 250 0008 FB1D     		adds	r3, r7, #7
 251 000a 1A70     		strb	r2, [r3]
 241:Generated_Source\PSoC4/USBUART_cdc.c ****     uint8 comPort = 0u;
 252              		.loc 1 241 0
 253 000c 0F23     		movs	r3, #15
 254 000e FB18     		adds	r3, r7, r3
 255 0010 0022     		movs	r2, #0
 256 0012 1A70     		strb	r2, [r3]
 242:Generated_Source\PSoC4/USBUART_cdc.c ****     uint8 res = 0xFFu;
 257              		.loc 1 242 0
 258 0014 0E23     		movs	r3, #14
ARM GAS  C:\Users\HPz420\AppData\Local\Temp\ccOuTLU7.s 			page 10


 259 0016 FB18     		adds	r3, r7, r3
 260 0018 FF22     		movs	r2, #255
 261 001a 1A70     		strb	r2, [r3]
 243:Generated_Source\PSoC4/USBUART_cdc.c ****     uint8 notEp;
 244:Generated_Source\PSoC4/USBUART_cdc.c **** 
 245:Generated_Source\PSoC4/USBUART_cdc.c ****     while (comPort < USBUART_MAX_MULTI_COM_NUM)
 262              		.loc 1 245 0
 263 001c 28E0     		b	.L14
 264              	.L16:
 246:Generated_Source\PSoC4/USBUART_cdc.c ****     {
 247:Generated_Source\PSoC4/USBUART_cdc.c ****         notEp = USBUART_cdcCommInInterruptEp[comPort];
 265              		.loc 1 247 0
 266 001e 0F23     		movs	r3, #15
 267 0020 FB18     		adds	r3, r7, r3
 268 0022 1A78     		ldrb	r2, [r3]
 269 0024 0D23     		movs	r3, #13
 270 0026 FB18     		adds	r3, r7, r3
 271 0028 1749     		ldr	r1, .L18
 272 002a 8A5C     		ldrb	r2, [r1, r2]
 273 002c 1A70     		strb	r2, [r3]
 248:Generated_Source\PSoC4/USBUART_cdc.c **** 
 249:Generated_Source\PSoC4/USBUART_cdc.c ****         if (USBUART_EP[notEp].interface == interface)
 274              		.loc 1 249 0
 275 002e 0D23     		movs	r3, #13
 276 0030 FB18     		adds	r3, r7, r3
 277 0032 1A78     		ldrb	r2, [r3]
 278 0034 1549     		ldr	r1, .L18+4
 279 0036 1300     		movs	r3, r2
 280 0038 5B00     		lsls	r3, r3, #1
 281 003a 9B18     		adds	r3, r3, r2
 282 003c 9B00     		lsls	r3, r3, #2
 283 003e CB18     		adds	r3, r1, r3
 284 0040 0A33     		adds	r3, r3, #10
 285 0042 1B78     		ldrb	r3, [r3]
 286 0044 DBB2     		uxtb	r3, r3
 287 0046 FA1D     		adds	r2, r7, #7
 288 0048 1278     		ldrb	r2, [r2]
 289 004a 9A42     		cmp	r2, r3
 290 004c 09D1     		bne	.L15
 250:Generated_Source\PSoC4/USBUART_cdc.c ****         {
 251:Generated_Source\PSoC4/USBUART_cdc.c ****             res = comPort;
 291              		.loc 1 251 0
 292 004e 0E23     		movs	r3, #14
 293 0050 FB18     		adds	r3, r7, r3
 294 0052 0F22     		movs	r2, #15
 295 0054 BA18     		adds	r2, r7, r2
 296 0056 1278     		ldrb	r2, [r2]
 297 0058 1A70     		strb	r2, [r3]
 252:Generated_Source\PSoC4/USBUART_cdc.c ****             comPort = USBUART_MAX_MULTI_COM_NUM;
 298              		.loc 1 252 0
 299 005a 0F23     		movs	r3, #15
 300 005c FB18     		adds	r3, r7, r3
 301 005e 0222     		movs	r2, #2
 302 0060 1A70     		strb	r2, [r3]
 303              	.L15:
 253:Generated_Source\PSoC4/USBUART_cdc.c ****         }
 254:Generated_Source\PSoC4/USBUART_cdc.c **** 
ARM GAS  C:\Users\HPz420\AppData\Local\Temp\ccOuTLU7.s 			page 11


 255:Generated_Source\PSoC4/USBUART_cdc.c ****         comPort++;
 304              		.loc 1 255 0
 305 0062 0F23     		movs	r3, #15
 306 0064 FB18     		adds	r3, r7, r3
 307 0066 1A78     		ldrb	r2, [r3]
 308 0068 0F23     		movs	r3, #15
 309 006a FB18     		adds	r3, r7, r3
 310 006c 0132     		adds	r2, r2, #1
 311 006e 1A70     		strb	r2, [r3]
 312              	.L14:
 245:Generated_Source\PSoC4/USBUART_cdc.c ****     {
 313              		.loc 1 245 0
 314 0070 0F23     		movs	r3, #15
 315 0072 FB18     		adds	r3, r7, r3
 316 0074 1B78     		ldrb	r3, [r3]
 317 0076 012B     		cmp	r3, #1
 318 0078 D1D9     		bls	.L16
 256:Generated_Source\PSoC4/USBUART_cdc.c ****     }
 257:Generated_Source\PSoC4/USBUART_cdc.c ****     return (res);
 319              		.loc 1 257 0
 320 007a 0E23     		movs	r3, #14
 321 007c FB18     		adds	r3, r7, r3
 322 007e 1B78     		ldrb	r3, [r3]
 258:Generated_Source\PSoC4/USBUART_cdc.c **** }
 323              		.loc 1 258 0
 324 0080 1800     		movs	r0, r3
 325 0082 BD46     		mov	sp, r7
 326 0084 04B0     		add	sp, sp, #16
 327              		@ sp needed
 328 0086 80BD     		pop	{r7, pc}
 329              	.L19:
 330              		.align	2
 331              	.L18:
 332 0088 00000000 		.word	USBUART_cdcCommInInterruptEp
 333 008c 00000000 		.word	USBUART_EP
 334              		.cfi_endproc
 335              	.LFE2:
 336              		.size	USBUART_GetInterfaceComPort, .-USBUART_GetInterfaceComPort
 337              		.section	.text.USBUART_CDC_Init,"ax",%progbits
 338              		.align	2
 339              		.global	USBUART_CDC_Init
 340              		.code	16
 341              		.thumb_func
 342              		.type	USBUART_CDC_Init, %function
 343              	USBUART_CDC_Init:
 344              	.LFB3:
 259:Generated_Source\PSoC4/USBUART_cdc.c **** 
 260:Generated_Source\PSoC4/USBUART_cdc.c **** 
 261:Generated_Source\PSoC4/USBUART_cdc.c **** /***************************************
 262:Generated_Source\PSoC4/USBUART_cdc.c **** * Optional CDC APIs
 263:Generated_Source\PSoC4/USBUART_cdc.c **** ***************************************/
 264:Generated_Source\PSoC4/USBUART_cdc.c **** #if (USBUART_ENABLE_CDC_CLASS_API != 0u)
 265:Generated_Source\PSoC4/USBUART_cdc.c **** /***************************************************************************
 266:Generated_Source\PSoC4/USBUART_cdc.c **** * Function Name: USBUART_CDC_Init
 267:Generated_Source\PSoC4/USBUART_cdc.c **** ************************************************************************//**
 268:Generated_Source\PSoC4/USBUART_cdc.c **** *
 269:Generated_Source\PSoC4/USBUART_cdc.c **** *  This function initializes the CDC interface to be ready to receive data
ARM GAS  C:\Users\HPz420\AppData\Local\Temp\ccOuTLU7.s 			page 12


 270:Generated_Source\PSoC4/USBUART_cdc.c **** *  from the PC. The API set active communication port to 0 in the case of 
 271:Generated_Source\PSoC4/USBUART_cdc.c **** *  multiple communication port support.This API should be called after the 
 272:Generated_Source\PSoC4/USBUART_cdc.c **** *  device has been started and configured using USBUART_Start() API to 
 273:Generated_Source\PSoC4/USBUART_cdc.c **** *  initialize and start the USBFS component operation. Then call the 
 274:Generated_Source\PSoC4/USBUART_cdc.c **** *  USBUART_GetConfiguration() API to wait until the host has enumerated and 
 275:Generated_Source\PSoC4/USBUART_cdc.c **** *  configured the device. For example:
 276:Generated_Source\PSoC4/USBUART_cdc.c **** *
 277:Generated_Source\PSoC4/USBUART_cdc.c **** *  \snippet /USBFS_sut_02.cydsn/main.c wait for enumeration
 278:Generated_Source\PSoC4/USBUART_cdc.c **** *
 279:Generated_Source\PSoC4/USBUART_cdc.c **** * \return
 280:Generated_Source\PSoC4/USBUART_cdc.c **** *  cystatus:
 281:Generated_Source\PSoC4/USBUART_cdc.c **** *   Return Value    Description
 282:Generated_Source\PSoC4/USBUART_cdc.c **** *   USBUART_SUCCESS   CDC interface was initialized correctly
 283:Generated_Source\PSoC4/USBUART_cdc.c **** *   USBUART_FAILURE   CDC interface was not initialized
 284:Generated_Source\PSoC4/USBUART_cdc.c **** *
 285:Generated_Source\PSoC4/USBUART_cdc.c **** * \globalvars
 286:Generated_Source\PSoC4/USBUART_cdc.c **** *   USBUART_linesChanged: Initialized to zero.
 287:Generated_Source\PSoC4/USBUART_cdc.c **** *   USBUART_cdcDataOutEp: Used as an OUT endpoint number.
 288:Generated_Source\PSoC4/USBUART_cdc.c **** *
 289:Generated_Source\PSoC4/USBUART_cdc.c **** * \reentrant
 290:Generated_Source\PSoC4/USBUART_cdc.c **** *  No.
 291:Generated_Source\PSoC4/USBUART_cdc.c **** *
 292:Generated_Source\PSoC4/USBUART_cdc.c **** *******************************************************************************/
 293:Generated_Source\PSoC4/USBUART_cdc.c **** uint8 USBUART_CDC_Init(void) 
 294:Generated_Source\PSoC4/USBUART_cdc.c **** {
 345              		.loc 1 294 0
 346              		.cfi_startproc
 347              		@ args = 0, pretend = 0, frame = 8
 348              		@ frame_needed = 1, uses_anonymous_args = 0
 349 0000 80B5     		push	{r7, lr}
 350              		.cfi_def_cfa_offset 8
 351              		.cfi_offset 7, -8
 352              		.cfi_offset 14, -4
 353 0002 82B0     		sub	sp, sp, #8
 354              		.cfi_def_cfa_offset 16
 355 0004 00AF     		add	r7, sp, #0
 356              		.cfi_def_cfa_register 7
 295:Generated_Source\PSoC4/USBUART_cdc.c ****     uint8 comPort;
 296:Generated_Source\PSoC4/USBUART_cdc.c ****     uint8 outEp;
 297:Generated_Source\PSoC4/USBUART_cdc.c ****     uint8 ret = USBUART_SUCCESS;
 357              		.loc 1 297 0
 358 0006 BB1D     		adds	r3, r7, #6
 359 0008 0022     		movs	r2, #0
 360 000a 1A70     		strb	r2, [r3]
 298:Generated_Source\PSoC4/USBUART_cdc.c **** 
 299:Generated_Source\PSoC4/USBUART_cdc.c ****     USBUART_activeCom = 0u;
 361              		.loc 1 299 0
 362 000c 274B     		ldr	r3, .L27
 363 000e 0022     		movs	r2, #0
 364 0010 1A70     		strb	r2, [r3]
 300:Generated_Source\PSoC4/USBUART_cdc.c ****     USBUART_linesChanged[USBUART_COM_PORT1] = 0u;
 365              		.loc 1 300 0
 366 0012 274B     		ldr	r3, .L27+4
 367 0014 0022     		movs	r2, #0
 368 0016 1A70     		strb	r2, [r3]
 301:Generated_Source\PSoC4/USBUART_cdc.c ****     USBUART_linesChanged[USBUART_COM_PORT2] = 0u;
 369              		.loc 1 301 0
ARM GAS  C:\Users\HPz420\AppData\Local\Temp\ccOuTLU7.s 			page 13


 370 0018 254B     		ldr	r3, .L27+4
 371 001a 0022     		movs	r2, #0
 372 001c 5A70     		strb	r2, [r3, #1]
 302:Generated_Source\PSoC4/USBUART_cdc.c **** 
 303:Generated_Source\PSoC4/USBUART_cdc.c ****     for(comPort = 0u; comPort<USBUART_MAX_MULTI_COM_NUM; comPort++)
 373              		.loc 1 303 0
 374 001e FB1D     		adds	r3, r7, #7
 375 0020 0022     		movs	r2, #0
 376 0022 1A70     		strb	r2, [r3]
 377 0024 17E0     		b	.L21
 378              	.L23:
 304:Generated_Source\PSoC4/USBUART_cdc.c ****     {
 305:Generated_Source\PSoC4/USBUART_cdc.c ****         outEp = USBUART_cdcDataOutEp[comPort];
 379              		.loc 1 305 0
 380 0026 FB1D     		adds	r3, r7, #7
 381 0028 1A78     		ldrb	r2, [r3]
 382 002a 7B1D     		adds	r3, r7, #5
 383 002c 2149     		ldr	r1, .L27+8
 384 002e 8A5C     		ldrb	r2, [r1, r2]
 385 0030 1A70     		strb	r2, [r3]
 306:Generated_Source\PSoC4/USBUART_cdc.c ****         if((0u != outEp) && (USBUART_MAX_EP > outEp))
 386              		.loc 1 306 0
 387 0032 7B1D     		adds	r3, r7, #5
 388 0034 1B78     		ldrb	r3, [r3]
 389 0036 002B     		cmp	r3, #0
 390 0038 08D0     		beq	.L22
 391              		.loc 1 306 0 is_stmt 0 discriminator 1
 392 003a 7B1D     		adds	r3, r7, #5
 393 003c 1B78     		ldrb	r3, [r3]
 394 003e 082B     		cmp	r3, #8
 395 0040 04D8     		bhi	.L22
 307:Generated_Source\PSoC4/USBUART_cdc.c ****         {
 308:Generated_Source\PSoC4/USBUART_cdc.c ****             USBUART_EnableOutEP(outEp);
 396              		.loc 1 308 0 is_stmt 1
 397 0042 7B1D     		adds	r3, r7, #5
 398 0044 1B78     		ldrb	r3, [r3]
 399 0046 1800     		movs	r0, r3
 400 0048 FFF7FEFF 		bl	USBUART_EnableOutEP
 401              	.L22:
 303:Generated_Source\PSoC4/USBUART_cdc.c ****     {
 402              		.loc 1 303 0 discriminator 2
 403 004c FB1D     		adds	r3, r7, #7
 404 004e 1A78     		ldrb	r2, [r3]
 405 0050 FB1D     		adds	r3, r7, #7
 406 0052 0132     		adds	r2, r2, #1
 407 0054 1A70     		strb	r2, [r3]
 408              	.L21:
 303:Generated_Source\PSoC4/USBUART_cdc.c ****     {
 409              		.loc 1 303 0 is_stmt 0 discriminator 1
 410 0056 FB1D     		adds	r3, r7, #7
 411 0058 1B78     		ldrb	r3, [r3]
 412 005a 012B     		cmp	r3, #1
 413 005c E3D9     		bls	.L23
 309:Generated_Source\PSoC4/USBUART_cdc.c ****         }
 310:Generated_Source\PSoC4/USBUART_cdc.c **** 
 311:Generated_Source\PSoC4/USBUART_cdc.c ****     }
 312:Generated_Source\PSoC4/USBUART_cdc.c **** 
ARM GAS  C:\Users\HPz420\AppData\Local\Temp\ccOuTLU7.s 			page 14


 313:Generated_Source\PSoC4/USBUART_cdc.c ****     /* COM Port 1 should be correct to proceed. */
 314:Generated_Source\PSoC4/USBUART_cdc.c ****     if ((0u == USBUART_cdcDataInEp[USBUART_COM_PORT1]) \
 414              		.loc 1 314 0 is_stmt 1
 415 005e 164B     		ldr	r3, .L27+12
 416 0060 1B78     		ldrb	r3, [r3]
 417 0062 DBB2     		uxtb	r3, r3
 418 0064 002B     		cmp	r3, #0
 419 0066 18D0     		beq	.L24
 315:Generated_Source\PSoC4/USBUART_cdc.c ****             || (0u == USBUART_cdcDataOutEp[USBUART_COM_PORT1]) \
 420              		.loc 1 315 0
 421 0068 124B     		ldr	r3, .L27+8
 422 006a 1B78     		ldrb	r3, [r3]
 423 006c DBB2     		uxtb	r3, r3
 424 006e 002B     		cmp	r3, #0
 425 0070 13D0     		beq	.L24
 316:Generated_Source\PSoC4/USBUART_cdc.c ****             || (0u ==  USBUART_cdcCommInInterruptEp[USBUART_COM_PORT1])
 426              		.loc 1 316 0
 427 0072 124B     		ldr	r3, .L27+16
 428 0074 1B78     		ldrb	r3, [r3]
 429 0076 DBB2     		uxtb	r3, r3
 430 0078 002B     		cmp	r3, #0
 431 007a 0ED0     		beq	.L24
 317:Generated_Source\PSoC4/USBUART_cdc.c ****             || (USBUART_cdcDataInEp[USBUART_COM_PORT1] >= USBUART_MAX_EP)
 432              		.loc 1 317 0
 433 007c 0E4B     		ldr	r3, .L27+12
 434 007e 1B78     		ldrb	r3, [r3]
 435 0080 DBB2     		uxtb	r3, r3
 436 0082 082B     		cmp	r3, #8
 437 0084 09D8     		bhi	.L24
 318:Generated_Source\PSoC4/USBUART_cdc.c ****             || (USBUART_cdcDataOutEp[USBUART_COM_PORT1] >= USBUART_MAX_EP)
 438              		.loc 1 318 0
 439 0086 0B4B     		ldr	r3, .L27+8
 440 0088 1B78     		ldrb	r3, [r3]
 441 008a DBB2     		uxtb	r3, r3
 442 008c 082B     		cmp	r3, #8
 443 008e 04D8     		bhi	.L24
 319:Generated_Source\PSoC4/USBUART_cdc.c ****             || (USBUART_cdcCommInInterruptEp[USBUART_COM_PORT1] >= USBUART_MAX_EP))
 444              		.loc 1 319 0
 445 0090 0A4B     		ldr	r3, .L27+16
 446 0092 1B78     		ldrb	r3, [r3]
 447 0094 DBB2     		uxtb	r3, r3
 448 0096 082B     		cmp	r3, #8
 449 0098 02D9     		bls	.L25
 450              	.L24:
 320:Generated_Source\PSoC4/USBUART_cdc.c ****     {
 321:Generated_Source\PSoC4/USBUART_cdc.c ****         ret = USBUART_FAILURE;
 451              		.loc 1 321 0
 452 009a BB1D     		adds	r3, r7, #6
 453 009c 0122     		movs	r2, #1
 454 009e 1A70     		strb	r2, [r3]
 455              	.L25:
 322:Generated_Source\PSoC4/USBUART_cdc.c ****     }
 323:Generated_Source\PSoC4/USBUART_cdc.c **** 
 324:Generated_Source\PSoC4/USBUART_cdc.c ****     return (ret);
 456              		.loc 1 324 0
 457 00a0 BB1D     		adds	r3, r7, #6
 458 00a2 1B78     		ldrb	r3, [r3]
ARM GAS  C:\Users\HPz420\AppData\Local\Temp\ccOuTLU7.s 			page 15


 325:Generated_Source\PSoC4/USBUART_cdc.c **** }
 459              		.loc 1 325 0
 460 00a4 1800     		movs	r0, r3
 461 00a6 BD46     		mov	sp, r7
 462 00a8 02B0     		add	sp, sp, #8
 463              		@ sp needed
 464 00aa 80BD     		pop	{r7, pc}
 465              	.L28:
 466              		.align	2
 467              	.L27:
 468 00ac 00000000 		.word	USBUART_activeCom
 469 00b0 00000000 		.word	USBUART_linesChanged
 470 00b4 00000000 		.word	USBUART_cdcDataOutEp
 471 00b8 00000000 		.word	USBUART_cdcDataInEp
 472 00bc 00000000 		.word	USBUART_cdcCommInInterruptEp
 473              		.cfi_endproc
 474              	.LFE3:
 475              		.size	USBUART_CDC_Init, .-USBUART_CDC_Init
 476              		.section	.text.USBUART_PutData,"ax",%progbits
 477              		.align	2
 478              		.global	USBUART_PutData
 479              		.code	16
 480              		.thumb_func
 481              		.type	USBUART_PutData, %function
 482              	USBUART_PutData:
 483              	.LFB4:
 326:Generated_Source\PSoC4/USBUART_cdc.c **** 
 327:Generated_Source\PSoC4/USBUART_cdc.c **** 
 328:Generated_Source\PSoC4/USBUART_cdc.c **** /*******************************************************************************
 329:Generated_Source\PSoC4/USBUART_cdc.c **** * Function Name: USBUART_PutData
 330:Generated_Source\PSoC4/USBUART_cdc.c **** ****************************************************************************//**
 331:Generated_Source\PSoC4/USBUART_cdc.c **** *
 332:Generated_Source\PSoC4/USBUART_cdc.c **** *  This function sends a specified number of bytes from the location specified
 333:Generated_Source\PSoC4/USBUART_cdc.c **** *  by a pointer to the PC. The USBUART_CDCIsReady() function should be
 334:Generated_Source\PSoC4/USBUART_cdc.c **** *  called before sending new data, to be sure that the previous data has
 335:Generated_Source\PSoC4/USBUART_cdc.c **** *  finished sending.
 336:Generated_Source\PSoC4/USBUART_cdc.c **** *  If the last sent packet is less than maximum packet size the USB transfer
 337:Generated_Source\PSoC4/USBUART_cdc.c **** *  of this short packet will identify the end of the segment. If the last sent
 338:Generated_Source\PSoC4/USBUART_cdc.c **** *  packet is exactly maximum packet size, it shall be followed by a zero-length
 339:Generated_Source\PSoC4/USBUART_cdc.c **** *  packet (which is a short packet) to assure the end of segment is properly
 340:Generated_Source\PSoC4/USBUART_cdc.c **** *  identified. To send zero-length packet, use USBUART_PutData() API
 341:Generated_Source\PSoC4/USBUART_cdc.c **** *  with length parameter set to zero.
 342:Generated_Source\PSoC4/USBUART_cdc.c **** *
 343:Generated_Source\PSoC4/USBUART_cdc.c **** *  \param pData: pointer to the buffer containing data to be sent.
 344:Generated_Source\PSoC4/USBUART_cdc.c **** *  \param length: Specifies the number of bytes to send from the pData
 345:Generated_Source\PSoC4/USBUART_cdc.c **** *  buffer. Maximum length will be limited by the maximum packet
 346:Generated_Source\PSoC4/USBUART_cdc.c **** *  size for the endpoint. Data will be lost if length is greater than Max
 347:Generated_Source\PSoC4/USBUART_cdc.c **** *  Packet Size.
 348:Generated_Source\PSoC4/USBUART_cdc.c **** *
 349:Generated_Source\PSoC4/USBUART_cdc.c **** * \globalvars
 350:Generated_Source\PSoC4/USBUART_cdc.c **** *
 351:Generated_Source\PSoC4/USBUART_cdc.c **** *   USBUART_cdcDataInEp: CDC IN endpoint number used for sending
 352:Generated_Source\PSoC4/USBUART_cdc.c **** *     data.
 353:Generated_Source\PSoC4/USBUART_cdc.c **** *
 354:Generated_Source\PSoC4/USBUART_cdc.c **** * \reentrant
 355:Generated_Source\PSoC4/USBUART_cdc.c **** *  No.
 356:Generated_Source\PSoC4/USBUART_cdc.c **** *
ARM GAS  C:\Users\HPz420\AppData\Local\Temp\ccOuTLU7.s 			page 16


 357:Generated_Source\PSoC4/USBUART_cdc.c **** *******************************************************************************/
 358:Generated_Source\PSoC4/USBUART_cdc.c **** void USBUART_PutData(const uint8* pData, uint16 length) 
 359:Generated_Source\PSoC4/USBUART_cdc.c **** {
 484              		.loc 1 359 0
 485              		.cfi_startproc
 486              		@ args = 0, pretend = 0, frame = 16
 487              		@ frame_needed = 1, uses_anonymous_args = 0
 488 0000 80B5     		push	{r7, lr}
 489              		.cfi_def_cfa_offset 8
 490              		.cfi_offset 7, -8
 491              		.cfi_offset 14, -4
 492 0002 84B0     		sub	sp, sp, #16
 493              		.cfi_def_cfa_offset 24
 494 0004 00AF     		add	r7, sp, #0
 495              		.cfi_def_cfa_register 7
 496 0006 7860     		str	r0, [r7, #4]
 497 0008 0A00     		movs	r2, r1
 498 000a BB1C     		adds	r3, r7, #2
 499 000c 1A80     		strh	r2, [r3]
 360:Generated_Source\PSoC4/USBUART_cdc.c ****     uint8 epNumber = USBUART_cdcDataInEp[USBUART_activeCom];
 500              		.loc 1 360 0
 501 000e 1A4B     		ldr	r3, .L31
 502 0010 1B78     		ldrb	r3, [r3]
 503 0012 1900     		movs	r1, r3
 504 0014 0F23     		movs	r3, #15
 505 0016 FB18     		adds	r3, r7, r3
 506 0018 184A     		ldr	r2, .L31+4
 507 001a 525C     		ldrb	r2, [r2, r1]
 508 001c 1A70     		strb	r2, [r3]
 361:Generated_Source\PSoC4/USBUART_cdc.c **** 
 362:Generated_Source\PSoC4/USBUART_cdc.c ****     /* Limit length to maximum packet size for endpoint. */
 363:Generated_Source\PSoC4/USBUART_cdc.c ****     if (length > USBUART_EP[epNumber].bufferSize)
 509              		.loc 1 363 0
 510 001e 0F23     		movs	r3, #15
 511 0020 FB18     		adds	r3, r7, r3
 512 0022 1A78     		ldrb	r2, [r3]
 513 0024 1649     		ldr	r1, .L31+8
 514 0026 1300     		movs	r3, r2
 515 0028 5B00     		lsls	r3, r3, #1
 516 002a 9B18     		adds	r3, r3, r2
 517 002c 9B00     		lsls	r3, r3, #2
 518 002e CB18     		adds	r3, r1, r3
 519 0030 0833     		adds	r3, r3, #8
 520 0032 1B88     		ldrh	r3, [r3]
 521 0034 9BB2     		uxth	r3, r3
 522 0036 BA1C     		adds	r2, r7, #2
 523 0038 1288     		ldrh	r2, [r2]
 524 003a 9A42     		cmp	r2, r3
 525 003c 0FD9     		bls	.L30
 364:Generated_Source\PSoC4/USBUART_cdc.c ****     {
 365:Generated_Source\PSoC4/USBUART_cdc.c ****         /* Caution: Data will be lost if length is greater than Max Packet Size. */
 366:Generated_Source\PSoC4/USBUART_cdc.c ****         length = USBUART_EP[epNumber].bufferSize;
 526              		.loc 1 366 0
 527 003e 0F23     		movs	r3, #15
 528 0040 FB18     		adds	r3, r7, r3
 529 0042 1A78     		ldrb	r2, [r3]
 530 0044 B91C     		adds	r1, r7, #2
ARM GAS  C:\Users\HPz420\AppData\Local\Temp\ccOuTLU7.s 			page 17


 531 0046 0E48     		ldr	r0, .L31+8
 532 0048 1300     		movs	r3, r2
 533 004a 5B00     		lsls	r3, r3, #1
 534 004c 9B18     		adds	r3, r3, r2
 535 004e 9B00     		lsls	r3, r3, #2
 536 0050 C318     		adds	r3, r0, r3
 537 0052 0833     		adds	r3, r3, #8
 538 0054 1B88     		ldrh	r3, [r3]
 539 0056 0B80     		strh	r3, [r1]
 367:Generated_Source\PSoC4/USBUART_cdc.c **** 
 368:Generated_Source\PSoC4/USBUART_cdc.c ****         /* Halt CPU in debug mode */
 369:Generated_Source\PSoC4/USBUART_cdc.c ****         CYASSERT(0u != 0u);
 540              		.loc 1 369 0
 541 0058 0020     		movs	r0, #0
 542 005a FFF7FEFF 		bl	CyHalt
 543              	.L30:
 370:Generated_Source\PSoC4/USBUART_cdc.c ****     }
 371:Generated_Source\PSoC4/USBUART_cdc.c **** 
 372:Generated_Source\PSoC4/USBUART_cdc.c ****     USBUART_LoadInEP(epNumber, pData, length);
 544              		.loc 1 372 0
 545 005e BB1C     		adds	r3, r7, #2
 546 0060 1A88     		ldrh	r2, [r3]
 547 0062 7968     		ldr	r1, [r7, #4]
 548 0064 0F23     		movs	r3, #15
 549 0066 FB18     		adds	r3, r7, r3
 550 0068 1B78     		ldrb	r3, [r3]
 551 006a 1800     		movs	r0, r3
 552 006c FFF7FEFF 		bl	USBUART_LoadInEP
 373:Generated_Source\PSoC4/USBUART_cdc.c **** }
 553              		.loc 1 373 0
 554 0070 C046     		nop
 555 0072 BD46     		mov	sp, r7
 556 0074 04B0     		add	sp, sp, #16
 557              		@ sp needed
 558 0076 80BD     		pop	{r7, pc}
 559              	.L32:
 560              		.align	2
 561              	.L31:
 562 0078 00000000 		.word	USBUART_activeCom
 563 007c 00000000 		.word	USBUART_cdcDataInEp
 564 0080 00000000 		.word	USBUART_EP
 565              		.cfi_endproc
 566              	.LFE4:
 567              		.size	USBUART_PutData, .-USBUART_PutData
 568              		.section	.text.USBUART_StrLen,"ax",%progbits
 569              		.align	2
 570              		.code	16
 571              		.thumb_func
 572              		.type	USBUART_StrLen, %function
 573              	USBUART_StrLen:
 574              	.LFB5:
 374:Generated_Source\PSoC4/USBUART_cdc.c **** 
 375:Generated_Source\PSoC4/USBUART_cdc.c **** 
 376:Generated_Source\PSoC4/USBUART_cdc.c **** /*******************************************************************************
 377:Generated_Source\PSoC4/USBUART_cdc.c **** * Function Name: USBUART_StrLen
 378:Generated_Source\PSoC4/USBUART_cdc.c **** ****************************************************************************//**
 379:Generated_Source\PSoC4/USBUART_cdc.c **** *
ARM GAS  C:\Users\HPz420\AppData\Local\Temp\ccOuTLU7.s 			page 18


 380:Generated_Source\PSoC4/USBUART_cdc.c **** *  Calculates length of a null terminated string.
 381:Generated_Source\PSoC4/USBUART_cdc.c **** *
 382:Generated_Source\PSoC4/USBUART_cdc.c **** *  \param string: pointer to the string.
 383:Generated_Source\PSoC4/USBUART_cdc.c **** *
 384:Generated_Source\PSoC4/USBUART_cdc.c **** * \return
 385:Generated_Source\PSoC4/USBUART_cdc.c **** *  Length of the string
 386:Generated_Source\PSoC4/USBUART_cdc.c **** *
 387:Generated_Source\PSoC4/USBUART_cdc.c **** *******************************************************************************/
 388:Generated_Source\PSoC4/USBUART_cdc.c **** static uint16 USBUART_StrLen(const char8 string[]) 
 389:Generated_Source\PSoC4/USBUART_cdc.c **** {
 575              		.loc 1 389 0
 576              		.cfi_startproc
 577              		@ args = 0, pretend = 0, frame = 16
 578              		@ frame_needed = 1, uses_anonymous_args = 0
 579 0000 80B5     		push	{r7, lr}
 580              		.cfi_def_cfa_offset 8
 581              		.cfi_offset 7, -8
 582              		.cfi_offset 14, -4
 583 0002 84B0     		sub	sp, sp, #16
 584              		.cfi_def_cfa_offset 24
 585 0004 00AF     		add	r7, sp, #0
 586              		.cfi_def_cfa_register 7
 587 0006 7860     		str	r0, [r7, #4]
 390:Generated_Source\PSoC4/USBUART_cdc.c ****     uint16 len = 0u;
 588              		.loc 1 390 0
 589 0008 0E23     		movs	r3, #14
 590 000a FB18     		adds	r3, r7, r3
 591 000c 0022     		movs	r2, #0
 592 000e 1A80     		strh	r2, [r3]
 391:Generated_Source\PSoC4/USBUART_cdc.c **** 
 392:Generated_Source\PSoC4/USBUART_cdc.c ****     while (string[len] != (char8)0)
 593              		.loc 1 392 0
 594 0010 06E0     		b	.L34
 595              	.L35:
 393:Generated_Source\PSoC4/USBUART_cdc.c ****     {
 394:Generated_Source\PSoC4/USBUART_cdc.c ****         len++;
 596              		.loc 1 394 0
 597 0012 0E23     		movs	r3, #14
 598 0014 FB18     		adds	r3, r7, r3
 599 0016 1A88     		ldrh	r2, [r3]
 600 0018 0E23     		movs	r3, #14
 601 001a FB18     		adds	r3, r7, r3
 602 001c 0132     		adds	r2, r2, #1
 603 001e 1A80     		strh	r2, [r3]
 604              	.L34:
 392:Generated_Source\PSoC4/USBUART_cdc.c ****     {
 605              		.loc 1 392 0
 606 0020 0E23     		movs	r3, #14
 607 0022 FB18     		adds	r3, r7, r3
 608 0024 1B88     		ldrh	r3, [r3]
 609 0026 7A68     		ldr	r2, [r7, #4]
 610 0028 D318     		adds	r3, r2, r3
 611 002a 1B78     		ldrb	r3, [r3]
 612 002c 002B     		cmp	r3, #0
 613 002e F0D1     		bne	.L35
 395:Generated_Source\PSoC4/USBUART_cdc.c ****     }
 396:Generated_Source\PSoC4/USBUART_cdc.c **** 
ARM GAS  C:\Users\HPz420\AppData\Local\Temp\ccOuTLU7.s 			page 19


 397:Generated_Source\PSoC4/USBUART_cdc.c ****     return ((uint16) len);
 614              		.loc 1 397 0
 615 0030 0E23     		movs	r3, #14
 616 0032 FB18     		adds	r3, r7, r3
 617 0034 1B88     		ldrh	r3, [r3]
 398:Generated_Source\PSoC4/USBUART_cdc.c **** }
 618              		.loc 1 398 0
 619 0036 1800     		movs	r0, r3
 620 0038 BD46     		mov	sp, r7
 621 003a 04B0     		add	sp, sp, #16
 622              		@ sp needed
 623 003c 80BD     		pop	{r7, pc}
 624              		.cfi_endproc
 625              	.LFE5:
 626              		.size	USBUART_StrLen, .-USBUART_StrLen
 627 003e C046     		.section	.text.USBUART_PutString,"ax",%progbits
 628              		.align	2
 629              		.global	USBUART_PutString
 630              		.code	16
 631              		.thumb_func
 632              		.type	USBUART_PutString, %function
 633              	USBUART_PutString:
 634              	.LFB6:
 399:Generated_Source\PSoC4/USBUART_cdc.c **** 
 400:Generated_Source\PSoC4/USBUART_cdc.c **** 
 401:Generated_Source\PSoC4/USBUART_cdc.c **** /***************************************************************************
 402:Generated_Source\PSoC4/USBUART_cdc.c **** * Function Name: USBUART_PutString
 403:Generated_Source\PSoC4/USBUART_cdc.c **** ************************************************************************//**
 404:Generated_Source\PSoC4/USBUART_cdc.c **** *
 405:Generated_Source\PSoC4/USBUART_cdc.c **** *  This function sends a null terminated string to the PC. This function will
 406:Generated_Source\PSoC4/USBUART_cdc.c **** *  block if there is not enough memory to place the whole string. It will block
 407:Generated_Source\PSoC4/USBUART_cdc.c **** *  until the entire string has been written to the transmit buffer.
 408:Generated_Source\PSoC4/USBUART_cdc.c **** *  The USBUART_CDCIsReady() function should be called before
 409:Generated_Source\PSoC4/USBUART_cdc.c **** *  sending data with a new call to USBUART_PutString(), to be sure
 410:Generated_Source\PSoC4/USBUART_cdc.c **** *  that the previous data has finished sending. This function sends
 411:Generated_Source\PSoC4/USBUART_cdc.c **** *  zero-length packet automatically, if the length of the last packet, sent
 412:Generated_Source\PSoC4/USBUART_cdc.c **** *  by this API, is equal to Max Packet Size
 413:Generated_Source\PSoC4/USBUART_cdc.c **** *
 414:Generated_Source\PSoC4/USBUART_cdc.c **** *  \param string: pointer to the string to be sent to the PC.
 415:Generated_Source\PSoC4/USBUART_cdc.c **** *
 416:Generated_Source\PSoC4/USBUART_cdc.c **** * \globalvars
 417:Generated_Source\PSoC4/USBUART_cdc.c **** *
 418:Generated_Source\PSoC4/USBUART_cdc.c **** *   USBUART_cdcDataInEp: CDC IN endpoint number used for sending
 419:Generated_Source\PSoC4/USBUART_cdc.c **** *     data.
 420:Generated_Source\PSoC4/USBUART_cdc.c **** *
 421:Generated_Source\PSoC4/USBUART_cdc.c **** * \reentrant
 422:Generated_Source\PSoC4/USBUART_cdc.c **** *  No.
 423:Generated_Source\PSoC4/USBUART_cdc.c **** *
 424:Generated_Source\PSoC4/USBUART_cdc.c **** ***************************************************************************/
 425:Generated_Source\PSoC4/USBUART_cdc.c **** void USBUART_PutString(const char8 string[]) 
 426:Generated_Source\PSoC4/USBUART_cdc.c **** {
 635              		.loc 1 426 0
 636              		.cfi_startproc
 637              		@ args = 0, pretend = 0, frame = 16
 638              		@ frame_needed = 1, uses_anonymous_args = 0
 639 0000 90B5     		push	{r4, r7, lr}
 640              		.cfi_def_cfa_offset 12
ARM GAS  C:\Users\HPz420\AppData\Local\Temp\ccOuTLU7.s 			page 20


 641              		.cfi_offset 4, -12
 642              		.cfi_offset 7, -8
 643              		.cfi_offset 14, -4
 644 0002 85B0     		sub	sp, sp, #20
 645              		.cfi_def_cfa_offset 32
 646 0004 00AF     		add	r7, sp, #0
 647              		.cfi_def_cfa_register 7
 648 0006 7860     		str	r0, [r7, #4]
 427:Generated_Source\PSoC4/USBUART_cdc.c ****     uint16 strLength;
 428:Generated_Source\PSoC4/USBUART_cdc.c ****     uint16 sendLength;
 429:Generated_Source\PSoC4/USBUART_cdc.c ****     uint16 bufIndex = 0u;
 649              		.loc 1 429 0
 650 0008 0C23     		movs	r3, #12
 651 000a FB18     		adds	r3, r7, r3
 652 000c 0022     		movs	r2, #0
 653 000e 1A80     		strh	r2, [r3]
 430:Generated_Source\PSoC4/USBUART_cdc.c **** 
 431:Generated_Source\PSoC4/USBUART_cdc.c ****     uint8  epNumber = USBUART_cdcDataInEp[USBUART_activeCom];
 654              		.loc 1 431 0
 655 0010 484B     		ldr	r3, .L44
 656 0012 1B78     		ldrb	r3, [r3]
 657 0014 1900     		movs	r1, r3
 658 0016 0B23     		movs	r3, #11
 659 0018 FB18     		adds	r3, r7, r3
 660 001a 474A     		ldr	r2, .L44+4
 661 001c 525C     		ldrb	r2, [r2, r1]
 662 001e 1A70     		strb	r2, [r3]
 432:Generated_Source\PSoC4/USBUART_cdc.c **** 
 433:Generated_Source\PSoC4/USBUART_cdc.c ****     /* Get length string length (it is terminated with zero). */
 434:Generated_Source\PSoC4/USBUART_cdc.c ****     strLength = USBUART_StrLen(string);
 663              		.loc 1 434 0
 664 0020 0E23     		movs	r3, #14
 665 0022 FC18     		adds	r4, r7, r3
 666 0024 7B68     		ldr	r3, [r7, #4]
 667 0026 1800     		movs	r0, r3
 668 0028 FFF7FEFF 		bl	USBUART_StrLen
 669 002c 0300     		movs	r3, r0
 670 002e 2380     		strh	r3, [r4]
 671              	.L43:
 435:Generated_Source\PSoC4/USBUART_cdc.c **** 
 436:Generated_Source\PSoC4/USBUART_cdc.c ****     do
 437:Generated_Source\PSoC4/USBUART_cdc.c ****     {
 438:Generated_Source\PSoC4/USBUART_cdc.c ****         /* Limit length to maximum packet size of endpoint. */
 439:Generated_Source\PSoC4/USBUART_cdc.c ****         sendLength = (strLength > USBUART_EP[epNumber].bufferSize) ?
 672              		.loc 1 439 0
 673 0030 0B23     		movs	r3, #11
 674 0032 FB18     		adds	r3, r7, r3
 675 0034 1A78     		ldrb	r2, [r3]
 676 0036 4149     		ldr	r1, .L44+8
 677 0038 1300     		movs	r3, r2
 678 003a 5B00     		lsls	r3, r3, #1
 679 003c 9B18     		adds	r3, r3, r2
 680 003e 9B00     		lsls	r3, r3, #2
 681 0040 CB18     		adds	r3, r1, r3
 682 0042 0833     		adds	r3, r3, #8
 683 0044 1B88     		ldrh	r3, [r3]
 684 0046 9BB2     		uxth	r3, r3
ARM GAS  C:\Users\HPz420\AppData\Local\Temp\ccOuTLU7.s 			page 21


 685 0048 0E22     		movs	r2, #14
 686 004a BA18     		adds	r2, r7, r2
 687 004c 1288     		ldrh	r2, [r2]
 688 004e 9A42     		cmp	r2, r3
 689 0050 0CD9     		bls	.L38
 440:Generated_Source\PSoC4/USBUART_cdc.c ****                                   USBUART_EP[epNumber].bufferSize : strLength;
 690              		.loc 1 440 0 discriminator 1
 691 0052 0B23     		movs	r3, #11
 692 0054 FB18     		adds	r3, r7, r3
 693 0056 1A78     		ldrb	r2, [r3]
 439:Generated_Source\PSoC4/USBUART_cdc.c ****                                   USBUART_EP[epNumber].bufferSize : strLength;
 694              		.loc 1 439 0 discriminator 1
 695 0058 3849     		ldr	r1, .L44+8
 696 005a 1300     		movs	r3, r2
 697 005c 5B00     		lsls	r3, r3, #1
 698 005e 9B18     		adds	r3, r3, r2
 699 0060 9B00     		lsls	r3, r3, #2
 700 0062 CB18     		adds	r3, r1, r3
 701 0064 0833     		adds	r3, r3, #8
 702 0066 1B88     		ldrh	r3, [r3]
 703 0068 9BB2     		uxth	r3, r3
 704 006a 02E0     		b	.L39
 705              	.L38:
 439:Generated_Source\PSoC4/USBUART_cdc.c ****                                   USBUART_EP[epNumber].bufferSize : strLength;
 706              		.loc 1 439 0 is_stmt 0 discriminator 2
 707 006c 0E23     		movs	r3, #14
 708 006e FB18     		adds	r3, r7, r3
 709 0070 1B88     		ldrh	r3, [r3]
 710              	.L39:
 439:Generated_Source\PSoC4/USBUART_cdc.c ****                                   USBUART_EP[epNumber].bufferSize : strLength;
 711              		.loc 1 439 0 discriminator 4
 712 0072 0822     		movs	r2, #8
 713 0074 BA18     		adds	r2, r7, r2
 714 0076 1380     		strh	r3, [r2]
 441:Generated_Source\PSoC4/USBUART_cdc.c **** 
 442:Generated_Source\PSoC4/USBUART_cdc.c ****         /* Load IN endpoint and expose it to host. */
 443:Generated_Source\PSoC4/USBUART_cdc.c ****         USBUART_LoadInEP(epNumber, (const uint8 *)&string[bufIndex], sendLength);
 715              		.loc 1 443 0 is_stmt 1 discriminator 4
 716 0078 0C23     		movs	r3, #12
 717 007a FB18     		adds	r3, r7, r3
 718 007c 1B88     		ldrh	r3, [r3]
 719 007e 7A68     		ldr	r2, [r7, #4]
 720 0080 D118     		adds	r1, r2, r3
 721 0082 0823     		movs	r3, #8
 722 0084 FB18     		adds	r3, r7, r3
 723 0086 1A88     		ldrh	r2, [r3]
 724 0088 0B23     		movs	r3, #11
 725 008a FB18     		adds	r3, r7, r3
 726 008c 1B78     		ldrb	r3, [r3]
 727 008e 1800     		movs	r0, r3
 728 0090 FFF7FEFF 		bl	USBUART_LoadInEP
 444:Generated_Source\PSoC4/USBUART_cdc.c ****         strLength -= sendLength;
 729              		.loc 1 444 0 discriminator 4
 730 0094 0E23     		movs	r3, #14
 731 0096 FB18     		adds	r3, r7, r3
 732 0098 0E22     		movs	r2, #14
 733 009a B918     		adds	r1, r7, r2
ARM GAS  C:\Users\HPz420\AppData\Local\Temp\ccOuTLU7.s 			page 22


 734 009c 0822     		movs	r2, #8
 735 009e BA18     		adds	r2, r7, r2
 736 00a0 0988     		ldrh	r1, [r1]
 737 00a2 1288     		ldrh	r2, [r2]
 738 00a4 8A1A     		subs	r2, r1, r2
 739 00a6 1A80     		strh	r2, [r3]
 445:Generated_Source\PSoC4/USBUART_cdc.c **** 
 446:Generated_Source\PSoC4/USBUART_cdc.c ****         /* If more data are present to send or full packet was sent */
 447:Generated_Source\PSoC4/USBUART_cdc.c ****         if ((strLength > 0u) || (sendLength == USBUART_EP[epNumber].bufferSize))
 740              		.loc 1 447 0 discriminator 4
 741 00a8 0E23     		movs	r3, #14
 742 00aa FB18     		adds	r3, r7, r3
 743 00ac 1B88     		ldrh	r3, [r3]
 744 00ae 002B     		cmp	r3, #0
 745 00b0 10D1     		bne	.L40
 746              		.loc 1 447 0 is_stmt 0 discriminator 1
 747 00b2 0B23     		movs	r3, #11
 748 00b4 FB18     		adds	r3, r7, r3
 749 00b6 1A78     		ldrb	r2, [r3]
 750 00b8 2049     		ldr	r1, .L44+8
 751 00ba 1300     		movs	r3, r2
 752 00bc 5B00     		lsls	r3, r3, #1
 753 00be 9B18     		adds	r3, r3, r2
 754 00c0 9B00     		lsls	r3, r3, #2
 755 00c2 CB18     		adds	r3, r1, r3
 756 00c4 0833     		adds	r3, r3, #8
 757 00c6 1B88     		ldrh	r3, [r3]
 758 00c8 9BB2     		uxth	r3, r3
 759 00ca 0822     		movs	r2, #8
 760 00cc BA18     		adds	r2, r7, r2
 761 00ce 1288     		ldrh	r2, [r2]
 762 00d0 9A42     		cmp	r2, r3
 763 00d2 25D1     		bne	.L41
 764              	.L40:
 448:Generated_Source\PSoC4/USBUART_cdc.c ****         {
 449:Generated_Source\PSoC4/USBUART_cdc.c ****             bufIndex += sendLength;
 765              		.loc 1 449 0 is_stmt 1
 766 00d4 0C23     		movs	r3, #12
 767 00d6 FB18     		adds	r3, r7, r3
 768 00d8 0C22     		movs	r2, #12
 769 00da B918     		adds	r1, r7, r2
 770 00dc 0822     		movs	r2, #8
 771 00de BA18     		adds	r2, r7, r2
 772 00e0 0988     		ldrh	r1, [r1]
 773 00e2 1288     		ldrh	r2, [r2]
 774 00e4 8A18     		adds	r2, r1, r2
 775 00e6 1A80     		strh	r2, [r3]
 450:Generated_Source\PSoC4/USBUART_cdc.c **** 
 451:Generated_Source\PSoC4/USBUART_cdc.c ****             /* Wait until host read data from IN endpoint buffer. */
 452:Generated_Source\PSoC4/USBUART_cdc.c ****             while (USBUART_IN_BUFFER_FULL == USBUART_EP[epNumber].apiEpState)
 776              		.loc 1 452 0
 777 00e8 C046     		nop
 778              	.L42:
 779              		.loc 1 452 0 is_stmt 0 discriminator 1
 780 00ea 0B23     		movs	r3, #11
 781 00ec FB18     		adds	r3, r7, r3
 782 00ee 1A78     		ldrb	r2, [r3]
ARM GAS  C:\Users\HPz420\AppData\Local\Temp\ccOuTLU7.s 			page 23


 783 00f0 1249     		ldr	r1, .L44+8
 784 00f2 1300     		movs	r3, r2
 785 00f4 5B00     		lsls	r3, r3, #1
 786 00f6 9B18     		adds	r3, r3, r2
 787 00f8 9B00     		lsls	r3, r3, #2
 788 00fa CB18     		adds	r3, r1, r3
 789 00fc 0133     		adds	r3, r3, #1
 790 00fe 1B78     		ldrb	r3, [r3]
 791 0100 DBB2     		uxtb	r3, r3
 792 0102 002B     		cmp	r3, #0
 793 0104 F1D0     		beq	.L42
 453:Generated_Source\PSoC4/USBUART_cdc.c ****             {
 454:Generated_Source\PSoC4/USBUART_cdc.c ****             }
 455:Generated_Source\PSoC4/USBUART_cdc.c **** 
 456:Generated_Source\PSoC4/USBUART_cdc.c ****             /* If last packet is exactly maximum packet size, it shall be followed
 457:Generated_Source\PSoC4/USBUART_cdc.c ****             * by a zero-length packet to assure the end of segment is properly
 458:Generated_Source\PSoC4/USBUART_cdc.c ****             * identified by the terminal.
 459:Generated_Source\PSoC4/USBUART_cdc.c ****             */
 460:Generated_Source\PSoC4/USBUART_cdc.c ****             if (0u == strLength)
 794              		.loc 1 460 0 is_stmt 1
 795 0106 0E23     		movs	r3, #14
 796 0108 FB18     		adds	r3, r7, r3
 797 010a 1B88     		ldrh	r3, [r3]
 798 010c 002B     		cmp	r3, #0
 799 010e 07D1     		bne	.L41
 461:Generated_Source\PSoC4/USBUART_cdc.c ****             {
 462:Generated_Source\PSoC4/USBUART_cdc.c ****                 USBUART_LoadInEP(epNumber, NULL, 0u);
 800              		.loc 1 462 0
 801 0110 0B23     		movs	r3, #11
 802 0112 FB18     		adds	r3, r7, r3
 803 0114 1B78     		ldrb	r3, [r3]
 804 0116 0022     		movs	r2, #0
 805 0118 0021     		movs	r1, #0
 806 011a 1800     		movs	r0, r3
 807 011c FFF7FEFF 		bl	USBUART_LoadInEP
 808              	.L41:
 463:Generated_Source\PSoC4/USBUART_cdc.c ****             }
 464:Generated_Source\PSoC4/USBUART_cdc.c ****         }
 465:Generated_Source\PSoC4/USBUART_cdc.c ****     }
 466:Generated_Source\PSoC4/USBUART_cdc.c ****     while (strLength > 0u);
 809              		.loc 1 466 0
 810 0120 0E23     		movs	r3, #14
 811 0122 FB18     		adds	r3, r7, r3
 812 0124 1B88     		ldrh	r3, [r3]
 813 0126 002B     		cmp	r3, #0
 814 0128 00D0     		beq	.LCB675
 815 012a 81E7     		b	.L43	@long jump
 816              	.LCB675:
 467:Generated_Source\PSoC4/USBUART_cdc.c **** }
 817              		.loc 1 467 0
 818 012c C046     		nop
 819 012e BD46     		mov	sp, r7
 820 0130 05B0     		add	sp, sp, #20
 821              		@ sp needed
 822 0132 90BD     		pop	{r4, r7, pc}
 823              	.L45:
 824              		.align	2
ARM GAS  C:\Users\HPz420\AppData\Local\Temp\ccOuTLU7.s 			page 24


 825              	.L44:
 826 0134 00000000 		.word	USBUART_activeCom
 827 0138 00000000 		.word	USBUART_cdcDataInEp
 828 013c 00000000 		.word	USBUART_EP
 829              		.cfi_endproc
 830              	.LFE6:
 831              		.size	USBUART_PutString, .-USBUART_PutString
 832              		.section	.text.USBUART_PutChar,"ax",%progbits
 833              		.align	2
 834              		.global	USBUART_PutChar
 835              		.code	16
 836              		.thumb_func
 837              		.type	USBUART_PutChar, %function
 838              	USBUART_PutChar:
 839              	.LFB7:
 468:Generated_Source\PSoC4/USBUART_cdc.c **** 
 469:Generated_Source\PSoC4/USBUART_cdc.c **** 
 470:Generated_Source\PSoC4/USBUART_cdc.c **** /***************************************************************************
 471:Generated_Source\PSoC4/USBUART_cdc.c **** * Function Name: USBUART_PutChar
 472:Generated_Source\PSoC4/USBUART_cdc.c **** ************************************************************************//**
 473:Generated_Source\PSoC4/USBUART_cdc.c **** *
 474:Generated_Source\PSoC4/USBUART_cdc.c **** *  This function writes a single character to the PC at a time. This is an
 475:Generated_Source\PSoC4/USBUART_cdc.c **** *  inefficient way to send large amounts of data.
 476:Generated_Source\PSoC4/USBUART_cdc.c **** *
 477:Generated_Source\PSoC4/USBUART_cdc.c **** *  \param txDataByte: Character to be sent to the PC.
 478:Generated_Source\PSoC4/USBUART_cdc.c **** *
 479:Generated_Source\PSoC4/USBUART_cdc.c **** *  \globalvars
 480:Generated_Source\PSoC4/USBUART_cdc.c **** *
 481:Generated_Source\PSoC4/USBUART_cdc.c **** *   USBUART_cdcDataInEp: CDC IN endpoint number used for sending
 482:Generated_Source\PSoC4/USBUART_cdc.c **** *     data.
 483:Generated_Source\PSoC4/USBUART_cdc.c **** *
 484:Generated_Source\PSoC4/USBUART_cdc.c **** *  \reentrant
 485:Generated_Source\PSoC4/USBUART_cdc.c **** *  No.
 486:Generated_Source\PSoC4/USBUART_cdc.c **** *
 487:Generated_Source\PSoC4/USBUART_cdc.c **** ***************************************************************************/
 488:Generated_Source\PSoC4/USBUART_cdc.c **** void USBUART_PutChar(char8 txDataByte) 
 489:Generated_Source\PSoC4/USBUART_cdc.c **** {
 840              		.loc 1 489 0
 841              		.cfi_startproc
 842              		@ args = 0, pretend = 0, frame = 16
 843              		@ frame_needed = 1, uses_anonymous_args = 0
 844 0000 80B5     		push	{r7, lr}
 845              		.cfi_def_cfa_offset 8
 846              		.cfi_offset 7, -8
 847              		.cfi_offset 14, -4
 848 0002 84B0     		sub	sp, sp, #16
 849              		.cfi_def_cfa_offset 24
 850 0004 00AF     		add	r7, sp, #0
 851              		.cfi_def_cfa_register 7
 852 0006 0200     		movs	r2, r0
 853 0008 FB1D     		adds	r3, r7, #7
 854 000a 1A70     		strb	r2, [r3]
 490:Generated_Source\PSoC4/USBUART_cdc.c ****     uint8 dataByte;
 491:Generated_Source\PSoC4/USBUART_cdc.c ****     dataByte = (uint8) txDataByte;
 855              		.loc 1 491 0
 856 000c 0F23     		movs	r3, #15
 857 000e FB18     		adds	r3, r7, r3
ARM GAS  C:\Users\HPz420\AppData\Local\Temp\ccOuTLU7.s 			page 25


 858 0010 FA1D     		adds	r2, r7, #7
 859 0012 1278     		ldrb	r2, [r2]
 860 0014 1A70     		strb	r2, [r3]
 492:Generated_Source\PSoC4/USBUART_cdc.c **** 
 493:Generated_Source\PSoC4/USBUART_cdc.c ****     USBUART_LoadInEP(USBUART_cdcDataInEp[USBUART_activeCom], &dataByte, 1u);
 861              		.loc 1 493 0
 862 0016 084B     		ldr	r3, .L47
 863 0018 1B78     		ldrb	r3, [r3]
 864 001a 1A00     		movs	r2, r3
 865 001c 074B     		ldr	r3, .L47+4
 866 001e 9B5C     		ldrb	r3, [r3, r2]
 867 0020 DBB2     		uxtb	r3, r3
 868 0022 0F22     		movs	r2, #15
 869 0024 B918     		adds	r1, r7, r2
 870 0026 0122     		movs	r2, #1
 871 0028 1800     		movs	r0, r3
 872 002a FFF7FEFF 		bl	USBUART_LoadInEP
 494:Generated_Source\PSoC4/USBUART_cdc.c **** }
 873              		.loc 1 494 0
 874 002e C046     		nop
 875 0030 BD46     		mov	sp, r7
 876 0032 04B0     		add	sp, sp, #16
 877              		@ sp needed
 878 0034 80BD     		pop	{r7, pc}
 879              	.L48:
 880 0036 C046     		.align	2
 881              	.L47:
 882 0038 00000000 		.word	USBUART_activeCom
 883 003c 00000000 		.word	USBUART_cdcDataInEp
 884              		.cfi_endproc
 885              	.LFE7:
 886              		.size	USBUART_PutChar, .-USBUART_PutChar
 887              		.section	.rodata
 888              		.align	2
 889              	.LC0:
 890 0000 0D       		.byte	13
 891 0001 0A       		.byte	10
 892              		.section	.text.USBUART_PutCRLF,"ax",%progbits
 893              		.align	2
 894              		.global	USBUART_PutCRLF
 895              		.code	16
 896              		.thumb_func
 897              		.type	USBUART_PutCRLF, %function
 898              	USBUART_PutCRLF:
 899              	.LFB8:
 495:Generated_Source\PSoC4/USBUART_cdc.c **** 
 496:Generated_Source\PSoC4/USBUART_cdc.c **** 
 497:Generated_Source\PSoC4/USBUART_cdc.c **** /*******************************************************************************
 498:Generated_Source\PSoC4/USBUART_cdc.c **** * Function Name: USBUART_PutCRLF
 499:Generated_Source\PSoC4/USBUART_cdc.c **** ****************************************************************************//**
 500:Generated_Source\PSoC4/USBUART_cdc.c **** *
 501:Generated_Source\PSoC4/USBUART_cdc.c **** *  This function sends a carriage return (0x0D) and line feed (0x0A) to the
 502:Generated_Source\PSoC4/USBUART_cdc.c **** *  PC. This APIis provided to mimic API provided by our other UART components
 503:Generated_Source\PSoC4/USBUART_cdc.c **** *
 504:Generated_Source\PSoC4/USBUART_cdc.c **** * \globalvars
 505:Generated_Source\PSoC4/USBUART_cdc.c **** *
 506:Generated_Source\PSoC4/USBUART_cdc.c **** *   USBUART_cdcDataInEp: CDC IN endpoint number used for sending
ARM GAS  C:\Users\HPz420\AppData\Local\Temp\ccOuTLU7.s 			page 26


 507:Generated_Source\PSoC4/USBUART_cdc.c **** *     data.
 508:Generated_Source\PSoC4/USBUART_cdc.c **** *
 509:Generated_Source\PSoC4/USBUART_cdc.c **** * \reentrant
 510:Generated_Source\PSoC4/USBUART_cdc.c **** *  No.
 511:Generated_Source\PSoC4/USBUART_cdc.c **** *
 512:Generated_Source\PSoC4/USBUART_cdc.c **** *******************************************************************************/
 513:Generated_Source\PSoC4/USBUART_cdc.c **** void USBUART_PutCRLF(void) 
 514:Generated_Source\PSoC4/USBUART_cdc.c **** {
 900              		.loc 1 514 0
 901              		.cfi_startproc
 902              		@ args = 0, pretend = 0, frame = 8
 903              		@ frame_needed = 1, uses_anonymous_args = 0
 904 0000 80B5     		push	{r7, lr}
 905              		.cfi_def_cfa_offset 8
 906              		.cfi_offset 7, -8
 907              		.cfi_offset 14, -4
 908 0002 82B0     		sub	sp, sp, #8
 909              		.cfi_def_cfa_offset 16
 910 0004 00AF     		add	r7, sp, #0
 911              		.cfi_def_cfa_register 7
 515:Generated_Source\PSoC4/USBUART_cdc.c ****     const uint8 CYCODE txData[] = {0x0Du, 0x0Au};
 912              		.loc 1 515 0
 913 0006 3A1D     		adds	r2, r7, #4
 914 0008 0A4B     		ldr	r3, .L50
 915 000a 1000     		movs	r0, r2
 916 000c 1900     		movs	r1, r3
 917 000e 0223     		movs	r3, #2
 918 0010 1A00     		movs	r2, r3
 919 0012 FFF7FEFF 		bl	memcpy
 516:Generated_Source\PSoC4/USBUART_cdc.c **** 
 517:Generated_Source\PSoC4/USBUART_cdc.c ****     USBUART_LoadInEP(USBUART_cdcDataInEp[USBUART_activeCom], (const uint8 *)txData, 2u);
 920              		.loc 1 517 0
 921 0016 084B     		ldr	r3, .L50+4
 922 0018 1B78     		ldrb	r3, [r3]
 923 001a 1A00     		movs	r2, r3
 924 001c 074B     		ldr	r3, .L50+8
 925 001e 9B5C     		ldrb	r3, [r3, r2]
 926 0020 DBB2     		uxtb	r3, r3
 927 0022 391D     		adds	r1, r7, #4
 928 0024 0222     		movs	r2, #2
 929 0026 1800     		movs	r0, r3
 930 0028 FFF7FEFF 		bl	USBUART_LoadInEP
 518:Generated_Source\PSoC4/USBUART_cdc.c **** }
 931              		.loc 1 518 0
 932 002c C046     		nop
 933 002e BD46     		mov	sp, r7
 934 0030 02B0     		add	sp, sp, #8
 935              		@ sp needed
 936 0032 80BD     		pop	{r7, pc}
 937              	.L51:
 938              		.align	2
 939              	.L50:
 940 0034 00000000 		.word	.LC0
 941 0038 00000000 		.word	USBUART_activeCom
 942 003c 00000000 		.word	USBUART_cdcDataInEp
 943              		.cfi_endproc
 944              	.LFE8:
ARM GAS  C:\Users\HPz420\AppData\Local\Temp\ccOuTLU7.s 			page 27


 945              		.size	USBUART_PutCRLF, .-USBUART_PutCRLF
 946              		.section	.text.USBUART_GetCount,"ax",%progbits
 947              		.align	2
 948              		.global	USBUART_GetCount
 949              		.code	16
 950              		.thumb_func
 951              		.type	USBUART_GetCount, %function
 952              	USBUART_GetCount:
 953              	.LFB9:
 519:Generated_Source\PSoC4/USBUART_cdc.c **** 
 520:Generated_Source\PSoC4/USBUART_cdc.c **** 
 521:Generated_Source\PSoC4/USBUART_cdc.c **** /*******************************************************************************
 522:Generated_Source\PSoC4/USBUART_cdc.c **** * Function Name: USBUART_GetCount
 523:Generated_Source\PSoC4/USBUART_cdc.c **** ****************************************************************************//**
 524:Generated_Source\PSoC4/USBUART_cdc.c **** *
 525:Generated_Source\PSoC4/USBUART_cdc.c **** *  This function returns the number of bytes that were received from the PC.
 526:Generated_Source\PSoC4/USBUART_cdc.c **** *  The returned length value should be passed to USBUART_GetData() as
 527:Generated_Source\PSoC4/USBUART_cdc.c **** *  a parameter to read all received data. If all of the received data is not
 528:Generated_Source\PSoC4/USBUART_cdc.c **** *  read at one time by the USBUART_GetData() API, the unread data will
 529:Generated_Source\PSoC4/USBUART_cdc.c **** *  be lost.
 530:Generated_Source\PSoC4/USBUART_cdc.c **** *
 531:Generated_Source\PSoC4/USBUART_cdc.c **** * \return
 532:Generated_Source\PSoC4/USBUART_cdc.c **** *  Returns the number of received bytes. The maximum amount of received data at
 533:Generated_Source\PSoC4/USBUART_cdc.c **** *  a time is limited by the maximum packet size for the endpoint.
 534:Generated_Source\PSoC4/USBUART_cdc.c **** *
 535:Generated_Source\PSoC4/USBUART_cdc.c **** * \globalvars
 536:Generated_Source\PSoC4/USBUART_cdc.c **** *   USBUART_cdcDataOutEp: CDC OUT endpoint number used.
 537:Generated_Source\PSoC4/USBUART_cdc.c **** *
 538:Generated_Source\PSoC4/USBUART_cdc.c **** *******************************************************************************/
 539:Generated_Source\PSoC4/USBUART_cdc.c **** uint16 USBUART_GetCount(void) 
 540:Generated_Source\PSoC4/USBUART_cdc.c **** {
 954              		.loc 1 540 0
 955              		.cfi_startproc
 956              		@ args = 0, pretend = 0, frame = 8
 957              		@ frame_needed = 1, uses_anonymous_args = 0
 958 0000 90B5     		push	{r4, r7, lr}
 959              		.cfi_def_cfa_offset 12
 960              		.cfi_offset 4, -12
 961              		.cfi_offset 7, -8
 962              		.cfi_offset 14, -4
 963 0002 83B0     		sub	sp, sp, #12
 964              		.cfi_def_cfa_offset 24
 965 0004 00AF     		add	r7, sp, #0
 966              		.cfi_def_cfa_register 7
 541:Generated_Source\PSoC4/USBUART_cdc.c ****     uint16 bytesCount;
 542:Generated_Source\PSoC4/USBUART_cdc.c **** 
 543:Generated_Source\PSoC4/USBUART_cdc.c ****     uint8  epNumber = USBUART_cdcDataOutEp[USBUART_activeCom];
 967              		.loc 1 543 0
 968 0006 134B     		ldr	r3, .L56
 969 0008 1B78     		ldrb	r3, [r3]
 970 000a 1900     		movs	r1, r3
 971 000c 7B1D     		adds	r3, r7, #5
 972 000e 124A     		ldr	r2, .L56+4
 973 0010 525C     		ldrb	r2, [r2, r1]
 974 0012 1A70     		strb	r2, [r3]
 544:Generated_Source\PSoC4/USBUART_cdc.c **** 
 545:Generated_Source\PSoC4/USBUART_cdc.c ****     if (USBUART_OUT_BUFFER_FULL == USBUART_EP[epNumber].apiEpState)
ARM GAS  C:\Users\HPz420\AppData\Local\Temp\ccOuTLU7.s 			page 28


 975              		.loc 1 545 0
 976 0014 7B1D     		adds	r3, r7, #5
 977 0016 1A78     		ldrb	r2, [r3]
 978 0018 1049     		ldr	r1, .L56+8
 979 001a 1300     		movs	r3, r2
 980 001c 5B00     		lsls	r3, r3, #1
 981 001e 9B18     		adds	r3, r3, r2
 982 0020 9B00     		lsls	r3, r3, #2
 983 0022 CB18     		adds	r3, r1, r3
 984 0024 0133     		adds	r3, r3, #1
 985 0026 1B78     		ldrb	r3, [r3]
 986 0028 DBB2     		uxtb	r3, r3
 987 002a 012B     		cmp	r3, #1
 988 002c 08D1     		bne	.L53
 546:Generated_Source\PSoC4/USBUART_cdc.c ****     {
 547:Generated_Source\PSoC4/USBUART_cdc.c ****         bytesCount = USBUART_GetEPCount(epNumber);
 989              		.loc 1 547 0
 990 002e BC1D     		adds	r4, r7, #6
 991 0030 7B1D     		adds	r3, r7, #5
 992 0032 1B78     		ldrb	r3, [r3]
 993 0034 1800     		movs	r0, r3
 994 0036 FFF7FEFF 		bl	USBUART_GetEPCount
 995 003a 0300     		movs	r3, r0
 996 003c 2380     		strh	r3, [r4]
 997 003e 02E0     		b	.L54
 998              	.L53:
 548:Generated_Source\PSoC4/USBUART_cdc.c ****     }
 549:Generated_Source\PSoC4/USBUART_cdc.c ****     else
 550:Generated_Source\PSoC4/USBUART_cdc.c ****     {
 551:Generated_Source\PSoC4/USBUART_cdc.c ****         bytesCount = 0u;
 999              		.loc 1 551 0
 1000 0040 BB1D     		adds	r3, r7, #6
 1001 0042 0022     		movs	r2, #0
 1002 0044 1A80     		strh	r2, [r3]
 1003              	.L54:
 552:Generated_Source\PSoC4/USBUART_cdc.c ****     }
 553:Generated_Source\PSoC4/USBUART_cdc.c **** 
 554:Generated_Source\PSoC4/USBUART_cdc.c ****     return (bytesCount);
 1004              		.loc 1 554 0
 1005 0046 BB1D     		adds	r3, r7, #6
 1006 0048 1B88     		ldrh	r3, [r3]
 555:Generated_Source\PSoC4/USBUART_cdc.c **** }
 1007              		.loc 1 555 0
 1008 004a 1800     		movs	r0, r3
 1009 004c BD46     		mov	sp, r7
 1010 004e 03B0     		add	sp, sp, #12
 1011              		@ sp needed
 1012 0050 90BD     		pop	{r4, r7, pc}
 1013              	.L57:
 1014 0052 C046     		.align	2
 1015              	.L56:
 1016 0054 00000000 		.word	USBUART_activeCom
 1017 0058 00000000 		.word	USBUART_cdcDataOutEp
 1018 005c 00000000 		.word	USBUART_EP
 1019              		.cfi_endproc
 1020              	.LFE9:
 1021              		.size	USBUART_GetCount, .-USBUART_GetCount
ARM GAS  C:\Users\HPz420\AppData\Local\Temp\ccOuTLU7.s 			page 29


 1022              		.section	.text.USBUART_DataIsReady,"ax",%progbits
 1023              		.align	2
 1024              		.global	USBUART_DataIsReady
 1025              		.code	16
 1026              		.thumb_func
 1027              		.type	USBUART_DataIsReady, %function
 1028              	USBUART_DataIsReady:
 1029              	.LFB10:
 556:Generated_Source\PSoC4/USBUART_cdc.c **** 
 557:Generated_Source\PSoC4/USBUART_cdc.c **** 
 558:Generated_Source\PSoC4/USBUART_cdc.c **** /*******************************************************************************
 559:Generated_Source\PSoC4/USBUART_cdc.c **** * Function Name: USBUART_DataIsReady
 560:Generated_Source\PSoC4/USBUART_cdc.c **** ****************************************************************************//**
 561:Generated_Source\PSoC4/USBUART_cdc.c **** *
 562:Generated_Source\PSoC4/USBUART_cdc.c **** *  This function returns a non-zero value if the component received data or
 563:Generated_Source\PSoC4/USBUART_cdc.c **** *  received zero-length packet. The USBUART_GetAll() or
 564:Generated_Source\PSoC4/USBUART_cdc.c **** *  USBUART_GetData() API should be called to read data from the buffer
 565:Generated_Source\PSoC4/USBUART_cdc.c **** *  and reinitialize the OUT endpoint even when a zero-length packet is
 566:Generated_Source\PSoC4/USBUART_cdc.c **** *  received. These APIs will return zero value when zero-length packet is
 567:Generated_Source\PSoC4/USBUART_cdc.c **** *  received.
 568:Generated_Source\PSoC4/USBUART_cdc.c **** *
 569:Generated_Source\PSoC4/USBUART_cdc.c **** * \return
 570:Generated_Source\PSoC4/USBUART_cdc.c **** *  If the OUT packet is received, this function returns a non-zero value.
 571:Generated_Source\PSoC4/USBUART_cdc.c **** *  Otherwise, it returns zero.
 572:Generated_Source\PSoC4/USBUART_cdc.c **** *
 573:Generated_Source\PSoC4/USBUART_cdc.c **** * \globalvars
 574:Generated_Source\PSoC4/USBUART_cdc.c **** *   USBUART_cdcDataOutEp: CDC OUT endpoint number used.
 575:Generated_Source\PSoC4/USBUART_cdc.c **** *
 576:Generated_Source\PSoC4/USBUART_cdc.c **** *******************************************************************************/
 577:Generated_Source\PSoC4/USBUART_cdc.c **** uint8 USBUART_DataIsReady(void) 
 578:Generated_Source\PSoC4/USBUART_cdc.c **** {
 1030              		.loc 1 578 0
 1031              		.cfi_startproc
 1032              		@ args = 0, pretend = 0, frame = 0
 1033              		@ frame_needed = 1, uses_anonymous_args = 0
 1034 0000 80B5     		push	{r7, lr}
 1035              		.cfi_def_cfa_offset 8
 1036              		.cfi_offset 7, -8
 1037              		.cfi_offset 14, -4
 1038 0002 00AF     		add	r7, sp, #0
 1039              		.cfi_def_cfa_register 7
 579:Generated_Source\PSoC4/USBUART_cdc.c ****     return (USBUART_GetEPState(USBUART_cdcDataOutEp[USBUART_activeCom]));
 1040              		.loc 1 579 0
 1041 0004 064B     		ldr	r3, .L60
 1042 0006 1B78     		ldrb	r3, [r3]
 1043 0008 1A00     		movs	r2, r3
 1044 000a 064B     		ldr	r3, .L60+4
 1045 000c 9B5C     		ldrb	r3, [r3, r2]
 1046 000e DBB2     		uxtb	r3, r3
 1047 0010 1800     		movs	r0, r3
 1048 0012 FFF7FEFF 		bl	USBUART_GetEPState
 1049 0016 0300     		movs	r3, r0
 580:Generated_Source\PSoC4/USBUART_cdc.c **** }
 1050              		.loc 1 580 0
 1051 0018 1800     		movs	r0, r3
 1052 001a BD46     		mov	sp, r7
 1053              		@ sp needed
ARM GAS  C:\Users\HPz420\AppData\Local\Temp\ccOuTLU7.s 			page 30


 1054 001c 80BD     		pop	{r7, pc}
 1055              	.L61:
 1056 001e C046     		.align	2
 1057              	.L60:
 1058 0020 00000000 		.word	USBUART_activeCom
 1059 0024 00000000 		.word	USBUART_cdcDataOutEp
 1060              		.cfi_endproc
 1061              	.LFE10:
 1062              		.size	USBUART_DataIsReady, .-USBUART_DataIsReady
 1063              		.section	.text.USBUART_CDCIsReady,"ax",%progbits
 1064              		.align	2
 1065              		.global	USBUART_CDCIsReady
 1066              		.code	16
 1067              		.thumb_func
 1068              		.type	USBUART_CDCIsReady, %function
 1069              	USBUART_CDCIsReady:
 1070              	.LFB11:
 581:Generated_Source\PSoC4/USBUART_cdc.c **** 
 582:Generated_Source\PSoC4/USBUART_cdc.c **** 
 583:Generated_Source\PSoC4/USBUART_cdc.c **** /*******************************************************************************
 584:Generated_Source\PSoC4/USBUART_cdc.c **** * Function Name: USBUART_CDCIsReady
 585:Generated_Source\PSoC4/USBUART_cdc.c **** ****************************************************************************//**
 586:Generated_Source\PSoC4/USBUART_cdc.c **** *
 587:Generated_Source\PSoC4/USBUART_cdc.c **** *  This function returns a non-zero value if the component is ready to send more
 588:Generated_Source\PSoC4/USBUART_cdc.c **** *  data to the PC; otherwise, it returns zero. The function should be called
 589:Generated_Source\PSoC4/USBUART_cdc.c **** *  before sending new data when using any of the following APIs:
 590:Generated_Source\PSoC4/USBUART_cdc.c **** *  USBUART_PutData(),USBUART_PutString(),
 591:Generated_Source\PSoC4/USBUART_cdc.c **** *  USBUART_PutChar or USBUART_PutCRLF(),
 592:Generated_Source\PSoC4/USBUART_cdc.c **** *  to be sure that the previous data has finished sending.
 593:Generated_Source\PSoC4/USBUART_cdc.c **** *
 594:Generated_Source\PSoC4/USBUART_cdc.c **** * \return
 595:Generated_Source\PSoC4/USBUART_cdc.c **** *  If the buffer can accept new data, this function returns a non-zero value.
 596:Generated_Source\PSoC4/USBUART_cdc.c **** *  Otherwise, it returns zero.
 597:Generated_Source\PSoC4/USBUART_cdc.c **** *
 598:Generated_Source\PSoC4/USBUART_cdc.c **** * \globalvars
 599:Generated_Source\PSoC4/USBUART_cdc.c **** *   USBUART_cdcDataInEp: CDC IN endpoint number used.
 600:Generated_Source\PSoC4/USBUART_cdc.c **** *
 601:Generated_Source\PSoC4/USBUART_cdc.c **** *******************************************************************************/
 602:Generated_Source\PSoC4/USBUART_cdc.c **** uint8 USBUART_CDCIsReady(void) 
 603:Generated_Source\PSoC4/USBUART_cdc.c **** {
 1071              		.loc 1 603 0
 1072              		.cfi_startproc
 1073              		@ args = 0, pretend = 0, frame = 0
 1074              		@ frame_needed = 1, uses_anonymous_args = 0
 1075 0000 80B5     		push	{r7, lr}
 1076              		.cfi_def_cfa_offset 8
 1077              		.cfi_offset 7, -8
 1078              		.cfi_offset 14, -4
 1079 0002 00AF     		add	r7, sp, #0
 1080              		.cfi_def_cfa_register 7
 604:Generated_Source\PSoC4/USBUART_cdc.c ****     return (USBUART_GetEPState(USBUART_cdcDataInEp[USBUART_activeCom]));
 1081              		.loc 1 604 0
 1082 0004 064B     		ldr	r3, .L64
 1083 0006 1B78     		ldrb	r3, [r3]
 1084 0008 1A00     		movs	r2, r3
 1085 000a 064B     		ldr	r3, .L64+4
 1086 000c 9B5C     		ldrb	r3, [r3, r2]
ARM GAS  C:\Users\HPz420\AppData\Local\Temp\ccOuTLU7.s 			page 31


 1087 000e DBB2     		uxtb	r3, r3
 1088 0010 1800     		movs	r0, r3
 1089 0012 FFF7FEFF 		bl	USBUART_GetEPState
 1090 0016 0300     		movs	r3, r0
 605:Generated_Source\PSoC4/USBUART_cdc.c **** }
 1091              		.loc 1 605 0
 1092 0018 1800     		movs	r0, r3
 1093 001a BD46     		mov	sp, r7
 1094              		@ sp needed
 1095 001c 80BD     		pop	{r7, pc}
 1096              	.L65:
 1097 001e C046     		.align	2
 1098              	.L64:
 1099 0020 00000000 		.word	USBUART_activeCom
 1100 0024 00000000 		.word	USBUART_cdcDataInEp
 1101              		.cfi_endproc
 1102              	.LFE11:
 1103              		.size	USBUART_CDCIsReady, .-USBUART_CDCIsReady
 1104              		.section	.text.USBUART_GetData,"ax",%progbits
 1105              		.align	2
 1106              		.global	USBUART_GetData
 1107              		.code	16
 1108              		.thumb_func
 1109              		.type	USBUART_GetData, %function
 1110              	USBUART_GetData:
 1111              	.LFB12:
 606:Generated_Source\PSoC4/USBUART_cdc.c **** 
 607:Generated_Source\PSoC4/USBUART_cdc.c **** 
 608:Generated_Source\PSoC4/USBUART_cdc.c **** /***************************************************************************
 609:Generated_Source\PSoC4/USBUART_cdc.c **** * Function Name: USBUART_GetData
 610:Generated_Source\PSoC4/USBUART_cdc.c **** ************************************************************************//**
 611:Generated_Source\PSoC4/USBUART_cdc.c **** *
 612:Generated_Source\PSoC4/USBUART_cdc.c **** *  This function gets a specified number of bytes from the input buffer and
 613:Generated_Source\PSoC4/USBUART_cdc.c **** *  places them in a data array specified by the passed pointer.
 614:Generated_Source\PSoC4/USBUART_cdc.c **** *  The USBUART_DataIsReady() API should be called first, to be sure
 615:Generated_Source\PSoC4/USBUART_cdc.c **** *  that data is received from the host. If all received data will not be read at
 616:Generated_Source\PSoC4/USBUART_cdc.c **** *  once, the unread data will be lost. The USBUART_GetData() API should
 617:Generated_Source\PSoC4/USBUART_cdc.c **** *  be called to get the number of bytes that were received.
 618:Generated_Source\PSoC4/USBUART_cdc.c **** *
 619:Generated_Source\PSoC4/USBUART_cdc.c **** *  \param pData: Pointer to the data array where data will be placed.
 620:Generated_Source\PSoC4/USBUART_cdc.c **** *  \param Length: Number of bytes to read into the data array from the RX buffer.
 621:Generated_Source\PSoC4/USBUART_cdc.c **** *          Maximum length is limited by the the number of received bytes
 622:Generated_Source\PSoC4/USBUART_cdc.c **** *          or 64 bytes.
 623:Generated_Source\PSoC4/USBUART_cdc.c **** *
 624:Generated_Source\PSoC4/USBUART_cdc.c **** * \return
 625:Generated_Source\PSoC4/USBUART_cdc.c **** *         Number of bytes which function moves from endpoint RAM into the
 626:Generated_Source\PSoC4/USBUART_cdc.c **** *         data array. The function moves fewer than the requested number
 627:Generated_Source\PSoC4/USBUART_cdc.c **** *         of bytes if the host sends fewer bytes than requested or sends
 628:Generated_Source\PSoC4/USBUART_cdc.c **** *         zero-length packet.
 629:Generated_Source\PSoC4/USBUART_cdc.c **** *
 630:Generated_Source\PSoC4/USBUART_cdc.c **** * \globalvars
 631:Generated_Source\PSoC4/USBUART_cdc.c **** *   USBUART_cdcDataOutEp: CDC OUT endpoint number used.
 632:Generated_Source\PSoC4/USBUART_cdc.c **** *
 633:Generated_Source\PSoC4/USBUART_cdc.c **** * \reentrant
 634:Generated_Source\PSoC4/USBUART_cdc.c **** *  No.
 635:Generated_Source\PSoC4/USBUART_cdc.c **** *
 636:Generated_Source\PSoC4/USBUART_cdc.c **** ***************************************************************************/
ARM GAS  C:\Users\HPz420\AppData\Local\Temp\ccOuTLU7.s 			page 32


 637:Generated_Source\PSoC4/USBUART_cdc.c **** uint16 USBUART_GetData(uint8* pData, uint16 length) 
 638:Generated_Source\PSoC4/USBUART_cdc.c **** {
 1112              		.loc 1 638 0
 1113              		.cfi_startproc
 1114              		@ args = 0, pretend = 0, frame = 16
 1115              		@ frame_needed = 1, uses_anonymous_args = 0
 1116 0000 90B5     		push	{r4, r7, lr}
 1117              		.cfi_def_cfa_offset 12
 1118              		.cfi_offset 4, -12
 1119              		.cfi_offset 7, -8
 1120              		.cfi_offset 14, -4
 1121 0002 85B0     		sub	sp, sp, #20
 1122              		.cfi_def_cfa_offset 32
 1123 0004 00AF     		add	r7, sp, #0
 1124              		.cfi_def_cfa_register 7
 1125 0006 7860     		str	r0, [r7, #4]
 1126 0008 0A00     		movs	r2, r1
 1127 000a BB1C     		adds	r3, r7, #2
 1128 000c 1A80     		strh	r2, [r3]
 639:Generated_Source\PSoC4/USBUART_cdc.c ****     uint8 epNumber = USBUART_cdcDataOutEp[USBUART_activeCom];
 1129              		.loc 1 639 0
 1130 000e 0D4B     		ldr	r3, .L68
 1131 0010 1B78     		ldrb	r3, [r3]
 1132 0012 1900     		movs	r1, r3
 1133 0014 0F23     		movs	r3, #15
 1134 0016 FB18     		adds	r3, r7, r3
 1135 0018 0B4A     		ldr	r2, .L68+4
 1136 001a 525C     		ldrb	r2, [r2, r1]
 1137 001c 1A70     		strb	r2, [r3]
 640:Generated_Source\PSoC4/USBUART_cdc.c **** 
 641:Generated_Source\PSoC4/USBUART_cdc.c ****     /* Read data from OUT endpoint buffer. */
 642:Generated_Source\PSoC4/USBUART_cdc.c ****     length = USBUART_ReadOutEP(epNumber, pData, length);
 1138              		.loc 1 642 0
 1139 001e BC1C     		adds	r4, r7, #2
 1140 0020 BB1C     		adds	r3, r7, #2
 1141 0022 1A88     		ldrh	r2, [r3]
 1142 0024 7968     		ldr	r1, [r7, #4]
 1143 0026 0F23     		movs	r3, #15
 1144 0028 FB18     		adds	r3, r7, r3
 1145 002a 1B78     		ldrb	r3, [r3]
 1146 002c 1800     		movs	r0, r3
 1147 002e FFF7FEFF 		bl	USBUART_ReadOutEP
 1148 0032 0300     		movs	r3, r0
 1149 0034 2380     		strh	r3, [r4]
 643:Generated_Source\PSoC4/USBUART_cdc.c **** 
 644:Generated_Source\PSoC4/USBUART_cdc.c **** #if (USBUART_EP_MANAGEMENT_DMA_MANUAL)
 645:Generated_Source\PSoC4/USBUART_cdc.c ****     /* Wait until DMA complete transferring data from OUT endpoint buffer. */
 646:Generated_Source\PSoC4/USBUART_cdc.c ****     while (USBUART_OUT_BUFFER_FULL == USBUART_GetEPState(epNumber))
 647:Generated_Source\PSoC4/USBUART_cdc.c ****     {
 648:Generated_Source\PSoC4/USBUART_cdc.c ****     }
 649:Generated_Source\PSoC4/USBUART_cdc.c **** 
 650:Generated_Source\PSoC4/USBUART_cdc.c ****     /* Enable OUT endpoint to communicate with host. */
 651:Generated_Source\PSoC4/USBUART_cdc.c ****     USBUART_EnableOutEP(epNumber);
 652:Generated_Source\PSoC4/USBUART_cdc.c **** #endif /* (USBUART_EP_MANAGEMENT_DMA_MANUAL) */
 653:Generated_Source\PSoC4/USBUART_cdc.c **** 
 654:Generated_Source\PSoC4/USBUART_cdc.c ****     return (length);
 1150              		.loc 1 654 0
ARM GAS  C:\Users\HPz420\AppData\Local\Temp\ccOuTLU7.s 			page 33


 1151 0036 BB1C     		adds	r3, r7, #2
 1152 0038 1B88     		ldrh	r3, [r3]
 655:Generated_Source\PSoC4/USBUART_cdc.c **** }
 1153              		.loc 1 655 0
 1154 003a 1800     		movs	r0, r3
 1155 003c BD46     		mov	sp, r7
 1156 003e 05B0     		add	sp, sp, #20
 1157              		@ sp needed
 1158 0040 90BD     		pop	{r4, r7, pc}
 1159              	.L69:
 1160 0042 C046     		.align	2
 1161              	.L68:
 1162 0044 00000000 		.word	USBUART_activeCom
 1163 0048 00000000 		.word	USBUART_cdcDataOutEp
 1164              		.cfi_endproc
 1165              	.LFE12:
 1166              		.size	USBUART_GetData, .-USBUART_GetData
 1167              		.section	.text.USBUART_GetAll,"ax",%progbits
 1168              		.align	2
 1169              		.global	USBUART_GetAll
 1170              		.code	16
 1171              		.thumb_func
 1172              		.type	USBUART_GetAll, %function
 1173              	USBUART_GetAll:
 1174              	.LFB13:
 656:Generated_Source\PSoC4/USBUART_cdc.c **** 
 657:Generated_Source\PSoC4/USBUART_cdc.c **** 
 658:Generated_Source\PSoC4/USBUART_cdc.c **** /*******************************************************************************
 659:Generated_Source\PSoC4/USBUART_cdc.c **** * Function Name: USBUART_GetAll
 660:Generated_Source\PSoC4/USBUART_cdc.c **** ****************************************************************************//**
 661:Generated_Source\PSoC4/USBUART_cdc.c **** *
 662:Generated_Source\PSoC4/USBUART_cdc.c **** *  This function gets all bytes of received data from the input buffer and
 663:Generated_Source\PSoC4/USBUART_cdc.c **** *  places them into a specified data array. The
 664:Generated_Source\PSoC4/USBUART_cdc.c **** *  USBUART_DataIsReady() API should be called first, to be sure
 665:Generated_Source\PSoC4/USBUART_cdc.c **** *  that data is received from the host.
 666:Generated_Source\PSoC4/USBUART_cdc.c **** *
 667:Generated_Source\PSoC4/USBUART_cdc.c **** *  \param pData: Pointer to the data array where data will be placed.
 668:Generated_Source\PSoC4/USBUART_cdc.c **** *
 669:Generated_Source\PSoC4/USBUART_cdc.c **** * \return
 670:Generated_Source\PSoC4/USBUART_cdc.c **** *  Number of bytes received. The maximum amount of the received at a time
 671:Generated_Source\PSoC4/USBUART_cdc.c **** *  data is 64 bytes.
 672:Generated_Source\PSoC4/USBUART_cdc.c **** *
 673:Generated_Source\PSoC4/USBUART_cdc.c **** * \globalvars
 674:Generated_Source\PSoC4/USBUART_cdc.c **** *   - \ref USBUART_cdcDataOutEp: CDC OUT endpoint number used.
 675:Generated_Source\PSoC4/USBUART_cdc.c **** *   - \ref USBUART_EP[].bufferSize: EP max packet size is used as a
 676:Generated_Source\PSoC4/USBUART_cdc.c **** *     length to read all data from the EP buffer.
 677:Generated_Source\PSoC4/USBUART_cdc.c **** *
 678:Generated_Source\PSoC4/USBUART_cdc.c **** * \reentrant
 679:Generated_Source\PSoC4/USBUART_cdc.c **** *  No.
 680:Generated_Source\PSoC4/USBUART_cdc.c **** *
 681:Generated_Source\PSoC4/USBUART_cdc.c **** *******************************************************************************/
 682:Generated_Source\PSoC4/USBUART_cdc.c **** uint16 USBUART_GetAll(uint8* pData) 
 683:Generated_Source\PSoC4/USBUART_cdc.c **** {
 1175              		.loc 1 683 0
 1176              		.cfi_startproc
 1177              		@ args = 0, pretend = 0, frame = 16
 1178              		@ frame_needed = 1, uses_anonymous_args = 0
ARM GAS  C:\Users\HPz420\AppData\Local\Temp\ccOuTLU7.s 			page 34


 1179 0000 90B5     		push	{r4, r7, lr}
 1180              		.cfi_def_cfa_offset 12
 1181              		.cfi_offset 4, -12
 1182              		.cfi_offset 7, -8
 1183              		.cfi_offset 14, -4
 1184 0002 85B0     		sub	sp, sp, #20
 1185              		.cfi_def_cfa_offset 32
 1186 0004 00AF     		add	r7, sp, #0
 1187              		.cfi_def_cfa_register 7
 1188 0006 7860     		str	r0, [r7, #4]
 684:Generated_Source\PSoC4/USBUART_cdc.c ****     uint8 epNumber = USBUART_cdcDataOutEp[USBUART_activeCom];
 1189              		.loc 1 684 0
 1190 0008 124B     		ldr	r3, .L72
 1191 000a 1B78     		ldrb	r3, [r3]
 1192 000c 1900     		movs	r1, r3
 1193 000e 0F23     		movs	r3, #15
 1194 0010 FB18     		adds	r3, r7, r3
 1195 0012 114A     		ldr	r2, .L72+4
 1196 0014 525C     		ldrb	r2, [r2, r1]
 1197 0016 1A70     		strb	r2, [r3]
 685:Generated_Source\PSoC4/USBUART_cdc.c ****     uint16 dataLength;
 686:Generated_Source\PSoC4/USBUART_cdc.c **** 
 687:Generated_Source\PSoC4/USBUART_cdc.c ****     /* Read data from OUT endpoint buffer. */
 688:Generated_Source\PSoC4/USBUART_cdc.c ****     dataLength = USBUART_ReadOutEP(epNumber, pData, USBUART_EP[epNumber].bufferSize);
 1198              		.loc 1 688 0
 1199 0018 0F23     		movs	r3, #15
 1200 001a FB18     		adds	r3, r7, r3
 1201 001c 1A78     		ldrb	r2, [r3]
 1202 001e 0F49     		ldr	r1, .L72+8
 1203 0020 1300     		movs	r3, r2
 1204 0022 5B00     		lsls	r3, r3, #1
 1205 0024 9B18     		adds	r3, r3, r2
 1206 0026 9B00     		lsls	r3, r3, #2
 1207 0028 CB18     		adds	r3, r1, r3
 1208 002a 0833     		adds	r3, r3, #8
 1209 002c 1B88     		ldrh	r3, [r3]
 1210 002e 9AB2     		uxth	r2, r3
 1211 0030 0C23     		movs	r3, #12
 1212 0032 FC18     		adds	r4, r7, r3
 1213 0034 7968     		ldr	r1, [r7, #4]
 1214 0036 0F23     		movs	r3, #15
 1215 0038 FB18     		adds	r3, r7, r3
 1216 003a 1B78     		ldrb	r3, [r3]
 1217 003c 1800     		movs	r0, r3
 1218 003e FFF7FEFF 		bl	USBUART_ReadOutEP
 1219 0042 0300     		movs	r3, r0
 1220 0044 2380     		strh	r3, [r4]
 689:Generated_Source\PSoC4/USBUART_cdc.c **** 
 690:Generated_Source\PSoC4/USBUART_cdc.c **** #if (USBUART_EP_MANAGEMENT_DMA_MANUAL)
 691:Generated_Source\PSoC4/USBUART_cdc.c ****     /* Wait until DMA complete transferring data from OUT endpoint buffer. */
 692:Generated_Source\PSoC4/USBUART_cdc.c ****     while (USBUART_OUT_BUFFER_FULL == USBUART_GetEPState(epNumber))
 693:Generated_Source\PSoC4/USBUART_cdc.c ****     {
 694:Generated_Source\PSoC4/USBUART_cdc.c ****     }
 695:Generated_Source\PSoC4/USBUART_cdc.c **** 
 696:Generated_Source\PSoC4/USBUART_cdc.c ****     /* Enable OUT endpoint to communicate with host. */
 697:Generated_Source\PSoC4/USBUART_cdc.c ****     USBUART_EnableOutEP(epNumber);
 698:Generated_Source\PSoC4/USBUART_cdc.c **** #endif /* (USBUART_EP_MANAGEMENT_DMA_MANUAL) */
ARM GAS  C:\Users\HPz420\AppData\Local\Temp\ccOuTLU7.s 			page 35


 699:Generated_Source\PSoC4/USBUART_cdc.c **** 
 700:Generated_Source\PSoC4/USBUART_cdc.c ****     return (dataLength);
 1221              		.loc 1 700 0
 1222 0046 0C23     		movs	r3, #12
 1223 0048 FB18     		adds	r3, r7, r3
 1224 004a 1B88     		ldrh	r3, [r3]
 701:Generated_Source\PSoC4/USBUART_cdc.c **** }
 1225              		.loc 1 701 0
 1226 004c 1800     		movs	r0, r3
 1227 004e BD46     		mov	sp, r7
 1228 0050 05B0     		add	sp, sp, #20
 1229              		@ sp needed
 1230 0052 90BD     		pop	{r4, r7, pc}
 1231              	.L73:
 1232              		.align	2
 1233              	.L72:
 1234 0054 00000000 		.word	USBUART_activeCom
 1235 0058 00000000 		.word	USBUART_cdcDataOutEp
 1236 005c 00000000 		.word	USBUART_EP
 1237              		.cfi_endproc
 1238              	.LFE13:
 1239              		.size	USBUART_GetAll, .-USBUART_GetAll
 1240              		.section	.text.USBUART_GetChar,"ax",%progbits
 1241              		.align	2
 1242              		.global	USBUART_GetChar
 1243              		.code	16
 1244              		.thumb_func
 1245              		.type	USBUART_GetChar, %function
 1246              	USBUART_GetChar:
 1247              	.LFB14:
 702:Generated_Source\PSoC4/USBUART_cdc.c **** 
 703:Generated_Source\PSoC4/USBUART_cdc.c **** 
 704:Generated_Source\PSoC4/USBUART_cdc.c **** /***************************************************************************
 705:Generated_Source\PSoC4/USBUART_cdc.c **** * Function Name: USBUART_GetChar
 706:Generated_Source\PSoC4/USBUART_cdc.c **** ************************************************************************//**
 707:Generated_Source\PSoC4/USBUART_cdc.c **** *
 708:Generated_Source\PSoC4/USBUART_cdc.c **** *  This function reads one byte of received data from the buffer. If more than
 709:Generated_Source\PSoC4/USBUART_cdc.c **** *  one byte has been received from the host, the rest of the data will be lost.
 710:Generated_Source\PSoC4/USBUART_cdc.c **** *
 711:Generated_Source\PSoC4/USBUART_cdc.c **** * \return
 712:Generated_Source\PSoC4/USBUART_cdc.c **** *  Received one character.
 713:Generated_Source\PSoC4/USBUART_cdc.c **** *
 714:Generated_Source\PSoC4/USBUART_cdc.c **** * \globalvars
 715:Generated_Source\PSoC4/USBUART_cdc.c **** *   USBUART_cdcDataOutEp: CDC OUT endpoint number used.
 716:Generated_Source\PSoC4/USBUART_cdc.c **** *
 717:Generated_Source\PSoC4/USBUART_cdc.c **** * \reentrant
 718:Generated_Source\PSoC4/USBUART_cdc.c **** *  No.
 719:Generated_Source\PSoC4/USBUART_cdc.c **** *
 720:Generated_Source\PSoC4/USBUART_cdc.c **** ***************************************************************************/
 721:Generated_Source\PSoC4/USBUART_cdc.c **** uint8 USBUART_GetChar(void) 
 722:Generated_Source\PSoC4/USBUART_cdc.c **** {
 1248              		.loc 1 722 0
 1249              		.cfi_startproc
 1250              		@ args = 0, pretend = 0, frame = 8
 1251              		@ frame_needed = 1, uses_anonymous_args = 0
 1252 0000 80B5     		push	{r7, lr}
 1253              		.cfi_def_cfa_offset 8
ARM GAS  C:\Users\HPz420\AppData\Local\Temp\ccOuTLU7.s 			page 36


 1254              		.cfi_offset 7, -8
 1255              		.cfi_offset 14, -4
 1256 0002 82B0     		sub	sp, sp, #8
 1257              		.cfi_def_cfa_offset 16
 1258 0004 00AF     		add	r7, sp, #0
 1259              		.cfi_def_cfa_register 7
 723:Generated_Source\PSoC4/USBUART_cdc.c ****      uint8 rxData;
 724:Generated_Source\PSoC4/USBUART_cdc.c ****      uint8 epNumber = USBUART_cdcDataOutEp[USBUART_activeCom];
 1260              		.loc 1 724 0
 1261 0006 0A4B     		ldr	r3, .L76
 1262 0008 1B78     		ldrb	r3, [r3]
 1263 000a 1900     		movs	r1, r3
 1264 000c FB1D     		adds	r3, r7, #7
 1265 000e 094A     		ldr	r2, .L76+4
 1266 0010 525C     		ldrb	r2, [r2, r1]
 1267 0012 1A70     		strb	r2, [r3]
 725:Generated_Source\PSoC4/USBUART_cdc.c **** 
 726:Generated_Source\PSoC4/USBUART_cdc.c ****     (void) USBUART_ReadOutEP(epNumber, &rxData, 1u);
 1268              		.loc 1 726 0
 1269 0014 B91D     		adds	r1, r7, #6
 1270 0016 FB1D     		adds	r3, r7, #7
 1271 0018 1B78     		ldrb	r3, [r3]
 1272 001a 0122     		movs	r2, #1
 1273 001c 1800     		movs	r0, r3
 1274 001e FFF7FEFF 		bl	USBUART_ReadOutEP
 727:Generated_Source\PSoC4/USBUART_cdc.c **** 
 728:Generated_Source\PSoC4/USBUART_cdc.c **** #if (USBUART_EP_MANAGEMENT_DMA_MANUAL)
 729:Generated_Source\PSoC4/USBUART_cdc.c ****     /* Wait until DMA complete transferring data from OUT endpoint buffer. */
 730:Generated_Source\PSoC4/USBUART_cdc.c ****     while (USBUART_OUT_BUFFER_FULL == USBUART_GetEPState(epNumber))
 731:Generated_Source\PSoC4/USBUART_cdc.c ****     {
 732:Generated_Source\PSoC4/USBUART_cdc.c ****     }
 733:Generated_Source\PSoC4/USBUART_cdc.c **** 
 734:Generated_Source\PSoC4/USBUART_cdc.c ****     /* Enable OUT endpoint to communicate with host. */
 735:Generated_Source\PSoC4/USBUART_cdc.c ****     USBUART_EnableOutEP(epNumber);
 736:Generated_Source\PSoC4/USBUART_cdc.c **** #endif /* (USBUART_EP_MANAGEMENT_DMA_MANUAL) */
 737:Generated_Source\PSoC4/USBUART_cdc.c **** 
 738:Generated_Source\PSoC4/USBUART_cdc.c ****     return (rxData);
 1275              		.loc 1 738 0
 1276 0022 BB1D     		adds	r3, r7, #6
 1277 0024 1B78     		ldrb	r3, [r3]
 739:Generated_Source\PSoC4/USBUART_cdc.c **** }
 1278              		.loc 1 739 0
 1279 0026 1800     		movs	r0, r3
 1280 0028 BD46     		mov	sp, r7
 1281 002a 02B0     		add	sp, sp, #8
 1282              		@ sp needed
 1283 002c 80BD     		pop	{r7, pc}
 1284              	.L77:
 1285 002e C046     		.align	2
 1286              	.L76:
 1287 0030 00000000 		.word	USBUART_activeCom
 1288 0034 00000000 		.word	USBUART_cdcDataOutEp
 1289              		.cfi_endproc
 1290              	.LFE14:
 1291              		.size	USBUART_GetChar, .-USBUART_GetChar
 1292              		.section	.text.USBUART_IsLineChanged,"ax",%progbits
 1293              		.align	2
ARM GAS  C:\Users\HPz420\AppData\Local\Temp\ccOuTLU7.s 			page 37


 1294              		.global	USBUART_IsLineChanged
 1295              		.code	16
 1296              		.thumb_func
 1297              		.type	USBUART_IsLineChanged, %function
 1298              	USBUART_IsLineChanged:
 1299              	.LFB15:
 740:Generated_Source\PSoC4/USBUART_cdc.c **** 
 741:Generated_Source\PSoC4/USBUART_cdc.c **** 
 742:Generated_Source\PSoC4/USBUART_cdc.c **** /*******************************************************************************
 743:Generated_Source\PSoC4/USBUART_cdc.c **** * Function Name: USBUART_IsLineChanged
 744:Generated_Source\PSoC4/USBUART_cdc.c **** ****************************************************************************//**
 745:Generated_Source\PSoC4/USBUART_cdc.c **** *
 746:Generated_Source\PSoC4/USBUART_cdc.c **** *  This function returns clear on read status of the line. It returns not zero
 747:Generated_Source\PSoC4/USBUART_cdc.c **** *  value when the host sends updated coding or control information to the
 748:Generated_Source\PSoC4/USBUART_cdc.c **** *  device. The USBUART_GetDTERate(), USBUART_GetCharFormat()
 749:Generated_Source\PSoC4/USBUART_cdc.c **** *  or USBUART_GetParityType() or USBUART_GetDataBits() API
 750:Generated_Source\PSoC4/USBUART_cdc.c **** *  should be called to read data coding information.
 751:Generated_Source\PSoC4/USBUART_cdc.c **** *  The USBUART_GetLineControl() API should be called to read line
 752:Generated_Source\PSoC4/USBUART_cdc.c **** *  control information.
 753:Generated_Source\PSoC4/USBUART_cdc.c **** *
 754:Generated_Source\PSoC4/USBUART_cdc.c **** * \return
 755:Generated_Source\PSoC4/USBUART_cdc.c **** *  If SET_LINE_CODING or CDC_SET_CONTROL_LINE_STATE requests are received, it
 756:Generated_Source\PSoC4/USBUART_cdc.c **** *  returns a non-zero value. Otherwise, it returns zero.
 757:Generated_Source\PSoC4/USBUART_cdc.c **** *  Return Value                 | Description
 758:Generated_Source\PSoC4/USBUART_cdc.c **** *  -----------------------------|--------------------------
 759:Generated_Source\PSoC4/USBUART_cdc.c **** *  USBUART_LINE_CODING_CHANGED  | Line coding changed
 760:Generated_Source\PSoC4/USBUART_cdc.c **** *  USBUART_LINE_CONTROL_CHANGED |   Line control changed
 761:Generated_Source\PSoC4/USBUART_cdc.c **** *
 762:Generated_Source\PSoC4/USBUART_cdc.c **** * \globalvars
 763:Generated_Source\PSoC4/USBUART_cdc.c **** *  - \ref USBUART_transferState: it is checked to be sure then OUT
 764:Generated_Source\PSoC4/USBUART_cdc.c **** *    data phase has been complete, and data written to the lineCoding or
 765:Generated_Source\PSoC4/USBUART_cdc.c **** *    Control Bitmap buffer.
 766:Generated_Source\PSoC4/USBUART_cdc.c **** *  - \ref USBUART_linesChanged: used as a flag to be aware that
 767:Generated_Source\PSoC4/USBUART_cdc.c **** *    Host has been sent request for changing Line Coding or Control Bitmap.
 768:Generated_Source\PSoC4/USBUART_cdc.c **** *
 769:Generated_Source\PSoC4/USBUART_cdc.c **** *******************************************************************************/
 770:Generated_Source\PSoC4/USBUART_cdc.c **** uint8 USBUART_IsLineChanged(void) 
 771:Generated_Source\PSoC4/USBUART_cdc.c **** {
 1300              		.loc 1 771 0
 1301              		.cfi_startproc
 1302              		@ args = 0, pretend = 0, frame = 8
 1303              		@ frame_needed = 1, uses_anonymous_args = 0
 1304 0000 80B5     		push	{r7, lr}
 1305              		.cfi_def_cfa_offset 8
 1306              		.cfi_offset 7, -8
 1307              		.cfi_offset 14, -4
 1308 0002 82B0     		sub	sp, sp, #8
 1309              		.cfi_def_cfa_offset 16
 1310 0004 00AF     		add	r7, sp, #0
 1311              		.cfi_def_cfa_register 7
 772:Generated_Source\PSoC4/USBUART_cdc.c ****     uint8 state = 0u;
 1312              		.loc 1 772 0
 1313 0006 FB1D     		adds	r3, r7, #7
 1314 0008 0022     		movs	r2, #0
 1315 000a 1A70     		strb	r2, [r3]
 773:Generated_Source\PSoC4/USBUART_cdc.c **** 
 774:Generated_Source\PSoC4/USBUART_cdc.c ****     /* transferState is checked to be sure then OUT data phase has been complete */
ARM GAS  C:\Users\HPz420\AppData\Local\Temp\ccOuTLU7.s 			page 38


 775:Generated_Source\PSoC4/USBUART_cdc.c ****     if (USBUART_transferState == USBUART_TRANS_STATE_IDLE)
 1316              		.loc 1 775 0
 1317 000c 0F4B     		ldr	r3, .L81
 1318 000e 1B78     		ldrb	r3, [r3]
 1319 0010 DBB2     		uxtb	r3, r3
 1320 0012 002B     		cmp	r3, #0
 1321 0014 14D1     		bne	.L79
 776:Generated_Source\PSoC4/USBUART_cdc.c ****     {
 777:Generated_Source\PSoC4/USBUART_cdc.c ****         if (USBUART_linesChanged[USBUART_activeCom] != 0u)
 1322              		.loc 1 777 0
 1323 0016 0E4B     		ldr	r3, .L81+4
 1324 0018 1B78     		ldrb	r3, [r3]
 1325 001a 1A00     		movs	r2, r3
 1326 001c 0D4B     		ldr	r3, .L81+8
 1327 001e 9B5C     		ldrb	r3, [r3, r2]
 1328 0020 DBB2     		uxtb	r3, r3
 1329 0022 002B     		cmp	r3, #0
 1330 0024 0CD0     		beq	.L79
 778:Generated_Source\PSoC4/USBUART_cdc.c ****         {
 779:Generated_Source\PSoC4/USBUART_cdc.c ****             state = USBUART_linesChanged[USBUART_activeCom];
 1331              		.loc 1 779 0
 1332 0026 0A4B     		ldr	r3, .L81+4
 1333 0028 1B78     		ldrb	r3, [r3]
 1334 002a 1900     		movs	r1, r3
 1335 002c FB1D     		adds	r3, r7, #7
 1336 002e 094A     		ldr	r2, .L81+8
 1337 0030 525C     		ldrb	r2, [r2, r1]
 1338 0032 1A70     		strb	r2, [r3]
 780:Generated_Source\PSoC4/USBUART_cdc.c ****             USBUART_linesChanged[USBUART_activeCom] = 0u;
 1339              		.loc 1 780 0
 1340 0034 064B     		ldr	r3, .L81+4
 1341 0036 1B78     		ldrb	r3, [r3]
 1342 0038 1A00     		movs	r2, r3
 1343 003a 064B     		ldr	r3, .L81+8
 1344 003c 0021     		movs	r1, #0
 1345 003e 9954     		strb	r1, [r3, r2]
 1346              	.L79:
 781:Generated_Source\PSoC4/USBUART_cdc.c ****         }
 782:Generated_Source\PSoC4/USBUART_cdc.c ****     }
 783:Generated_Source\PSoC4/USBUART_cdc.c **** 
 784:Generated_Source\PSoC4/USBUART_cdc.c ****     return (state);
 1347              		.loc 1 784 0
 1348 0040 FB1D     		adds	r3, r7, #7
 1349 0042 1B78     		ldrb	r3, [r3]
 785:Generated_Source\PSoC4/USBUART_cdc.c **** }
 1350              		.loc 1 785 0
 1351 0044 1800     		movs	r0, r3
 1352 0046 BD46     		mov	sp, r7
 1353 0048 02B0     		add	sp, sp, #8
 1354              		@ sp needed
 1355 004a 80BD     		pop	{r7, pc}
 1356              	.L82:
 1357              		.align	2
 1358              	.L81:
 1359 004c 00000000 		.word	USBUART_transferState
 1360 0050 00000000 		.word	USBUART_activeCom
 1361 0054 00000000 		.word	USBUART_linesChanged
ARM GAS  C:\Users\HPz420\AppData\Local\Temp\ccOuTLU7.s 			page 39


 1362              		.cfi_endproc
 1363              	.LFE15:
 1364              		.size	USBUART_IsLineChanged, .-USBUART_IsLineChanged
 1365              		.section	.text.USBUART_GetDTERate,"ax",%progbits
 1366              		.align	2
 1367              		.global	USBUART_GetDTERate
 1368              		.code	16
 1369              		.thumb_func
 1370              		.type	USBUART_GetDTERate, %function
 1371              	USBUART_GetDTERate:
 1372              	.LFB16:
 786:Generated_Source\PSoC4/USBUART_cdc.c **** 
 787:Generated_Source\PSoC4/USBUART_cdc.c **** 
 788:Generated_Source\PSoC4/USBUART_cdc.c **** /***************************************************************************
 789:Generated_Source\PSoC4/USBUART_cdc.c **** * Function Name: USBUART_GetDTERate
 790:Generated_Source\PSoC4/USBUART_cdc.c **** ************************************************************************//**
 791:Generated_Source\PSoC4/USBUART_cdc.c **** *
 792:Generated_Source\PSoC4/USBUART_cdc.c **** *  This function returns the data terminal rate set for this port in bits
 793:Generated_Source\PSoC4/USBUART_cdc.c **** *  per second.
 794:Generated_Source\PSoC4/USBUART_cdc.c **** *
 795:Generated_Source\PSoC4/USBUART_cdc.c **** * \return
 796:Generated_Source\PSoC4/USBUART_cdc.c **** *  Returns a uint32 value of the data rate in bits per second.
 797:Generated_Source\PSoC4/USBUART_cdc.c **** *
 798:Generated_Source\PSoC4/USBUART_cdc.c **** * \globalvars
 799:Generated_Source\PSoC4/USBUART_cdc.c **** *  USBUART_linesCoding: First four bytes converted to uint32
 800:Generated_Source\PSoC4/USBUART_cdc.c **** *    depend on compiler, and returned as a data rate.
 801:Generated_Source\PSoC4/USBUART_cdc.c **** *
 802:Generated_Source\PSoC4/USBUART_cdc.c **** *******************************************************************************/
 803:Generated_Source\PSoC4/USBUART_cdc.c **** uint32 USBUART_GetDTERate(void) 
 804:Generated_Source\PSoC4/USBUART_cdc.c **** {
 1373              		.loc 1 804 0
 1374              		.cfi_startproc
 1375              		@ args = 0, pretend = 0, frame = 8
 1376              		@ frame_needed = 1, uses_anonymous_args = 0
 1377 0000 80B5     		push	{r7, lr}
 1378              		.cfi_def_cfa_offset 8
 1379              		.cfi_offset 7, -8
 1380              		.cfi_offset 14, -4
 1381 0002 82B0     		sub	sp, sp, #8
 1382              		.cfi_def_cfa_offset 16
 1383 0004 00AF     		add	r7, sp, #0
 1384              		.cfi_def_cfa_register 7
 805:Generated_Source\PSoC4/USBUART_cdc.c ****     uint32 rate;
 806:Generated_Source\PSoC4/USBUART_cdc.c **** 
 807:Generated_Source\PSoC4/USBUART_cdc.c ****     rate = USBUART_linesCoding[USBUART_activeCom][USBUART_LINE_CODING_RATE + 3u];
 1385              		.loc 1 807 0
 1386 0006 1E4B     		ldr	r3, .L85
 1387 0008 1B78     		ldrb	r3, [r3]
 1388 000a 1900     		movs	r1, r3
 1389 000c 1D4A     		ldr	r2, .L85+4
 1390 000e 0B00     		movs	r3, r1
 1391 0010 DB00     		lsls	r3, r3, #3
 1392 0012 5B1A     		subs	r3, r3, r1
 1393 0014 D318     		adds	r3, r2, r3
 1394 0016 0333     		adds	r3, r3, #3
 1395 0018 1B78     		ldrb	r3, [r3]
 1396 001a DBB2     		uxtb	r3, r3
ARM GAS  C:\Users\HPz420\AppData\Local\Temp\ccOuTLU7.s 			page 40


 1397 001c 7B60     		str	r3, [r7, #4]
 808:Generated_Source\PSoC4/USBUART_cdc.c ****     rate = (rate << 8u) | USBUART_linesCoding[USBUART_activeCom][USBUART_LINE_CODING_RATE + 2u];
 1398              		.loc 1 808 0
 1399 001e 7B68     		ldr	r3, [r7, #4]
 1400 0020 1A02     		lsls	r2, r3, #8
 1401 0022 174B     		ldr	r3, .L85
 1402 0024 1B78     		ldrb	r3, [r3]
 1403 0026 1800     		movs	r0, r3
 1404 0028 1649     		ldr	r1, .L85+4
 1405 002a 0300     		movs	r3, r0
 1406 002c DB00     		lsls	r3, r3, #3
 1407 002e 1B1A     		subs	r3, r3, r0
 1408 0030 CB18     		adds	r3, r1, r3
 1409 0032 0233     		adds	r3, r3, #2
 1410 0034 1B78     		ldrb	r3, [r3]
 1411 0036 DBB2     		uxtb	r3, r3
 1412 0038 1343     		orrs	r3, r2
 1413 003a 7B60     		str	r3, [r7, #4]
 809:Generated_Source\PSoC4/USBUART_cdc.c ****     rate = (rate << 8u) | USBUART_linesCoding[USBUART_activeCom][USBUART_LINE_CODING_RATE + 1u];
 1414              		.loc 1 809 0
 1415 003c 7B68     		ldr	r3, [r7, #4]
 1416 003e 1A02     		lsls	r2, r3, #8
 1417 0040 0F4B     		ldr	r3, .L85
 1418 0042 1B78     		ldrb	r3, [r3]
 1419 0044 1800     		movs	r0, r3
 1420 0046 0F49     		ldr	r1, .L85+4
 1421 0048 0300     		movs	r3, r0
 1422 004a DB00     		lsls	r3, r3, #3
 1423 004c 1B1A     		subs	r3, r3, r0
 1424 004e CB18     		adds	r3, r1, r3
 1425 0050 0133     		adds	r3, r3, #1
 1426 0052 1B78     		ldrb	r3, [r3]
 1427 0054 DBB2     		uxtb	r3, r3
 1428 0056 1343     		orrs	r3, r2
 1429 0058 7B60     		str	r3, [r7, #4]
 810:Generated_Source\PSoC4/USBUART_cdc.c ****     rate = (rate << 8u) | USBUART_linesCoding[USBUART_activeCom][USBUART_LINE_CODING_RATE];
 1430              		.loc 1 810 0
 1431 005a 7B68     		ldr	r3, [r7, #4]
 1432 005c 1A02     		lsls	r2, r3, #8
 1433 005e 084B     		ldr	r3, .L85
 1434 0060 1B78     		ldrb	r3, [r3]
 1435 0062 1800     		movs	r0, r3
 1436 0064 0749     		ldr	r1, .L85+4
 1437 0066 0300     		movs	r3, r0
 1438 0068 DB00     		lsls	r3, r3, #3
 1439 006a 1B1A     		subs	r3, r3, r0
 1440 006c 5B5C     		ldrb	r3, [r3, r1]
 1441 006e DBB2     		uxtb	r3, r3
 1442 0070 1343     		orrs	r3, r2
 1443 0072 7B60     		str	r3, [r7, #4]
 811:Generated_Source\PSoC4/USBUART_cdc.c **** 
 812:Generated_Source\PSoC4/USBUART_cdc.c ****     return (rate);
 1444              		.loc 1 812 0
 1445 0074 7B68     		ldr	r3, [r7, #4]
 813:Generated_Source\PSoC4/USBUART_cdc.c **** }
 1446              		.loc 1 813 0
 1447 0076 1800     		movs	r0, r3
ARM GAS  C:\Users\HPz420\AppData\Local\Temp\ccOuTLU7.s 			page 41


 1448 0078 BD46     		mov	sp, r7
 1449 007a 02B0     		add	sp, sp, #8
 1450              		@ sp needed
 1451 007c 80BD     		pop	{r7, pc}
 1452              	.L86:
 1453 007e C046     		.align	2
 1454              	.L85:
 1455 0080 00000000 		.word	USBUART_activeCom
 1456 0084 00000000 		.word	USBUART_linesCoding
 1457              		.cfi_endproc
 1458              	.LFE16:
 1459              		.size	USBUART_GetDTERate, .-USBUART_GetDTERate
 1460              		.section	.text.USBUART_GetCharFormat,"ax",%progbits
 1461              		.align	2
 1462              		.global	USBUART_GetCharFormat
 1463              		.code	16
 1464              		.thumb_func
 1465              		.type	USBUART_GetCharFormat, %function
 1466              	USBUART_GetCharFormat:
 1467              	.LFB17:
 814:Generated_Source\PSoC4/USBUART_cdc.c **** 
 815:Generated_Source\PSoC4/USBUART_cdc.c **** 
 816:Generated_Source\PSoC4/USBUART_cdc.c **** /*******************************************************************************
 817:Generated_Source\PSoC4/USBUART_cdc.c **** * Function Name: USBUART_GetCharFormat
 818:Generated_Source\PSoC4/USBUART_cdc.c **** ****************************************************************************//**
 819:Generated_Source\PSoC4/USBUART_cdc.c **** *
 820:Generated_Source\PSoC4/USBUART_cdc.c **** *  Returns the number of stop bits.
 821:Generated_Source\PSoC4/USBUART_cdc.c **** *
 822:Generated_Source\PSoC4/USBUART_cdc.c **** * \return
 823:Generated_Source\PSoC4/USBUART_cdc.c **** *  Returns the number of stop bits.
 824:Generated_Source\PSoC4/USBUART_cdc.c **** *  Return               |Value Description
 825:Generated_Source\PSoC4/USBUART_cdc.c **** *  ---------------------|-------------------
 826:Generated_Source\PSoC4/USBUART_cdc.c **** *  USBUART_1_STOPBIT    | 1 stop bit
 827:Generated_Source\PSoC4/USBUART_cdc.c **** *  USBUART_1_5_STOPBITS | 1,5 stop bits
 828:Generated_Source\PSoC4/USBUART_cdc.c **** *  USBUART_2_STOPBITS   | 2 stop bits
 829:Generated_Source\PSoC4/USBUART_cdc.c **** *
 830:Generated_Source\PSoC4/USBUART_cdc.c **** *
 831:Generated_Source\PSoC4/USBUART_cdc.c **** * \globalvars
 832:Generated_Source\PSoC4/USBUART_cdc.c **** *  USBUART_linesCoding: used to get a parameter.
 833:Generated_Source\PSoC4/USBUART_cdc.c **** *
 834:Generated_Source\PSoC4/USBUART_cdc.c **** *******************************************************************************/
 835:Generated_Source\PSoC4/USBUART_cdc.c **** uint8 USBUART_GetCharFormat(void) 
 836:Generated_Source\PSoC4/USBUART_cdc.c **** {
 1468              		.loc 1 836 0
 1469              		.cfi_startproc
 1470              		@ args = 0, pretend = 0, frame = 0
 1471              		@ frame_needed = 1, uses_anonymous_args = 0
 1472 0000 80B5     		push	{r7, lr}
 1473              		.cfi_def_cfa_offset 8
 1474              		.cfi_offset 7, -8
 1475              		.cfi_offset 14, -4
 1476 0002 00AF     		add	r7, sp, #0
 1477              		.cfi_def_cfa_register 7
 837:Generated_Source\PSoC4/USBUART_cdc.c ****     return (USBUART_linesCoding[USBUART_activeCom][USBUART_LINE_CODING_STOP_BITS]);
 1478              		.loc 1 837 0
 1479 0004 064B     		ldr	r3, .L89
 1480 0006 1B78     		ldrb	r3, [r3]
ARM GAS  C:\Users\HPz420\AppData\Local\Temp\ccOuTLU7.s 			page 42


 1481 0008 1900     		movs	r1, r3
 1482 000a 064A     		ldr	r2, .L89+4
 1483 000c 0B00     		movs	r3, r1
 1484 000e DB00     		lsls	r3, r3, #3
 1485 0010 5B1A     		subs	r3, r3, r1
 1486 0012 D318     		adds	r3, r2, r3
 1487 0014 0433     		adds	r3, r3, #4
 1488 0016 1B78     		ldrb	r3, [r3]
 1489 0018 DBB2     		uxtb	r3, r3
 838:Generated_Source\PSoC4/USBUART_cdc.c **** }
 1490              		.loc 1 838 0
 1491 001a 1800     		movs	r0, r3
 1492 001c BD46     		mov	sp, r7
 1493              		@ sp needed
 1494 001e 80BD     		pop	{r7, pc}
 1495              	.L90:
 1496              		.align	2
 1497              	.L89:
 1498 0020 00000000 		.word	USBUART_activeCom
 1499 0024 00000000 		.word	USBUART_linesCoding
 1500              		.cfi_endproc
 1501              	.LFE17:
 1502              		.size	USBUART_GetCharFormat, .-USBUART_GetCharFormat
 1503              		.section	.text.USBUART_GetParityType,"ax",%progbits
 1504              		.align	2
 1505              		.global	USBUART_GetParityType
 1506              		.code	16
 1507              		.thumb_func
 1508              		.type	USBUART_GetParityType, %function
 1509              	USBUART_GetParityType:
 1510              	.LFB18:
 839:Generated_Source\PSoC4/USBUART_cdc.c **** 
 840:Generated_Source\PSoC4/USBUART_cdc.c **** 
 841:Generated_Source\PSoC4/USBUART_cdc.c **** /*******************************************************************************
 842:Generated_Source\PSoC4/USBUART_cdc.c **** * Function Name: USBUART_GetParityType
 843:Generated_Source\PSoC4/USBUART_cdc.c **** ****************************************************************************//**
 844:Generated_Source\PSoC4/USBUART_cdc.c **** *
 845:Generated_Source\PSoC4/USBUART_cdc.c **** *  This function returns the parity type for the CDC port.
 846:Generated_Source\PSoC4/USBUART_cdc.c **** *
 847:Generated_Source\PSoC4/USBUART_cdc.c **** * \return
 848:Generated_Source\PSoC4/USBUART_cdc.c **** *  Returns the parity type.
 849:Generated_Source\PSoC4/USBUART_cdc.c **** *   Return               | Value Description
 850:Generated_Source\PSoC4/USBUART_cdc.c **** *  ----------------------|-------------------
 851:Generated_Source\PSoC4/USBUART_cdc.c **** *  USBUART_PARITY_NONE   | 1 stop bit
 852:Generated_Source\PSoC4/USBUART_cdc.c **** *  USBUART_PARITY_ODD    | 1,5 stop bits
 853:Generated_Source\PSoC4/USBUART_cdc.c **** *  USBUART_PARITY_EVEN   | 2 stop bits
 854:Generated_Source\PSoC4/USBUART_cdc.c **** *  USBUART_PARITY_MARK   | Mark
 855:Generated_Source\PSoC4/USBUART_cdc.c **** *  USBUART_PARITY_SPACE  | Space
 856:Generated_Source\PSoC4/USBUART_cdc.c **** *
 857:Generated_Source\PSoC4/USBUART_cdc.c **** * \globalvars
 858:Generated_Source\PSoC4/USBUART_cdc.c **** *  USBUART_linesCoding: used to get a parameter.
 859:Generated_Source\PSoC4/USBUART_cdc.c **** *
 860:Generated_Source\PSoC4/USBUART_cdc.c **** *******************************************************************************/
 861:Generated_Source\PSoC4/USBUART_cdc.c **** uint8 USBUART_GetParityType(void) 
 862:Generated_Source\PSoC4/USBUART_cdc.c **** {
 1511              		.loc 1 862 0
 1512              		.cfi_startproc
ARM GAS  C:\Users\HPz420\AppData\Local\Temp\ccOuTLU7.s 			page 43


 1513              		@ args = 0, pretend = 0, frame = 0
 1514              		@ frame_needed = 1, uses_anonymous_args = 0
 1515 0000 80B5     		push	{r7, lr}
 1516              		.cfi_def_cfa_offset 8
 1517              		.cfi_offset 7, -8
 1518              		.cfi_offset 14, -4
 1519 0002 00AF     		add	r7, sp, #0
 1520              		.cfi_def_cfa_register 7
 863:Generated_Source\PSoC4/USBUART_cdc.c ****     return (USBUART_linesCoding[USBUART_activeCom][USBUART_LINE_CODING_PARITY]);
 1521              		.loc 1 863 0
 1522 0004 064B     		ldr	r3, .L93
 1523 0006 1B78     		ldrb	r3, [r3]
 1524 0008 1900     		movs	r1, r3
 1525 000a 064A     		ldr	r2, .L93+4
 1526 000c 0B00     		movs	r3, r1
 1527 000e DB00     		lsls	r3, r3, #3
 1528 0010 5B1A     		subs	r3, r3, r1
 1529 0012 D318     		adds	r3, r2, r3
 1530 0014 0533     		adds	r3, r3, #5
 1531 0016 1B78     		ldrb	r3, [r3]
 1532 0018 DBB2     		uxtb	r3, r3
 864:Generated_Source\PSoC4/USBUART_cdc.c **** }
 1533              		.loc 1 864 0
 1534 001a 1800     		movs	r0, r3
 1535 001c BD46     		mov	sp, r7
 1536              		@ sp needed
 1537 001e 80BD     		pop	{r7, pc}
 1538              	.L94:
 1539              		.align	2
 1540              	.L93:
 1541 0020 00000000 		.word	USBUART_activeCom
 1542 0024 00000000 		.word	USBUART_linesCoding
 1543              		.cfi_endproc
 1544              	.LFE18:
 1545              		.size	USBUART_GetParityType, .-USBUART_GetParityType
 1546              		.section	.text.USBUART_GetDataBits,"ax",%progbits
 1547              		.align	2
 1548              		.global	USBUART_GetDataBits
 1549              		.code	16
 1550              		.thumb_func
 1551              		.type	USBUART_GetDataBits, %function
 1552              	USBUART_GetDataBits:
 1553              	.LFB19:
 865:Generated_Source\PSoC4/USBUART_cdc.c **** 
 866:Generated_Source\PSoC4/USBUART_cdc.c **** 
 867:Generated_Source\PSoC4/USBUART_cdc.c **** /***************************************************************************
 868:Generated_Source\PSoC4/USBUART_cdc.c **** * Function Name: USBUART_GetDataBits
 869:Generated_Source\PSoC4/USBUART_cdc.c **** ************************************************************************//**
 870:Generated_Source\PSoC4/USBUART_cdc.c **** *
 871:Generated_Source\PSoC4/USBUART_cdc.c **** *  This function returns the number of data bits for the CDC port.
 872:Generated_Source\PSoC4/USBUART_cdc.c **** *
 873:Generated_Source\PSoC4/USBUART_cdc.c **** * \return
 874:Generated_Source\PSoC4/USBUART_cdc.c **** *  Returns the number of data bits.
 875:Generated_Source\PSoC4/USBUART_cdc.c **** *  The number of data bits can be 5, 6, 7, 8 or 16.
 876:Generated_Source\PSoC4/USBUART_cdc.c **** *
 877:Generated_Source\PSoC4/USBUART_cdc.c **** * \globalvars
 878:Generated_Source\PSoC4/USBUART_cdc.c **** *  USBUART_linesCoding: used to get a parameter.
ARM GAS  C:\Users\HPz420\AppData\Local\Temp\ccOuTLU7.s 			page 44


 879:Generated_Source\PSoC4/USBUART_cdc.c **** *
 880:Generated_Source\PSoC4/USBUART_cdc.c **** *******************************************************************************/
 881:Generated_Source\PSoC4/USBUART_cdc.c **** uint8 USBUART_GetDataBits(void) 
 882:Generated_Source\PSoC4/USBUART_cdc.c **** {
 1554              		.loc 1 882 0
 1555              		.cfi_startproc
 1556              		@ args = 0, pretend = 0, frame = 0
 1557              		@ frame_needed = 1, uses_anonymous_args = 0
 1558 0000 80B5     		push	{r7, lr}
 1559              		.cfi_def_cfa_offset 8
 1560              		.cfi_offset 7, -8
 1561              		.cfi_offset 14, -4
 1562 0002 00AF     		add	r7, sp, #0
 1563              		.cfi_def_cfa_register 7
 883:Generated_Source\PSoC4/USBUART_cdc.c ****     return (USBUART_linesCoding[USBUART_activeCom][USBUART_LINE_CODING_DATA_BITS]);
 1564              		.loc 1 883 0
 1565 0004 064B     		ldr	r3, .L97
 1566 0006 1B78     		ldrb	r3, [r3]
 1567 0008 1900     		movs	r1, r3
 1568 000a 064A     		ldr	r2, .L97+4
 1569 000c 0B00     		movs	r3, r1
 1570 000e DB00     		lsls	r3, r3, #3
 1571 0010 5B1A     		subs	r3, r3, r1
 1572 0012 D318     		adds	r3, r2, r3
 1573 0014 0633     		adds	r3, r3, #6
 1574 0016 1B78     		ldrb	r3, [r3]
 1575 0018 DBB2     		uxtb	r3, r3
 884:Generated_Source\PSoC4/USBUART_cdc.c **** }
 1576              		.loc 1 884 0
 1577 001a 1800     		movs	r0, r3
 1578 001c BD46     		mov	sp, r7
 1579              		@ sp needed
 1580 001e 80BD     		pop	{r7, pc}
 1581              	.L98:
 1582              		.align	2
 1583              	.L97:
 1584 0020 00000000 		.word	USBUART_activeCom
 1585 0024 00000000 		.word	USBUART_linesCoding
 1586              		.cfi_endproc
 1587              	.LFE19:
 1588              		.size	USBUART_GetDataBits, .-USBUART_GetDataBits
 1589              		.section	.text.USBUART_GetLineControl,"ax",%progbits
 1590              		.align	2
 1591              		.global	USBUART_GetLineControl
 1592              		.code	16
 1593              		.thumb_func
 1594              		.type	USBUART_GetLineControl, %function
 1595              	USBUART_GetLineControl:
 1596              	.LFB20:
 885:Generated_Source\PSoC4/USBUART_cdc.c **** 
 886:Generated_Source\PSoC4/USBUART_cdc.c **** 
 887:Generated_Source\PSoC4/USBUART_cdc.c **** /***************************************************************************
 888:Generated_Source\PSoC4/USBUART_cdc.c **** * Function Name: USBUART_GetLineControl
 889:Generated_Source\PSoC4/USBUART_cdc.c **** ************************************************************************//**
 890:Generated_Source\PSoC4/USBUART_cdc.c **** *
 891:Generated_Source\PSoC4/USBUART_cdc.c **** *  This function returns Line control bitmap that the host sends to the
 892:Generated_Source\PSoC4/USBUART_cdc.c **** *  device.
ARM GAS  C:\Users\HPz420\AppData\Local\Temp\ccOuTLU7.s 			page 45


 893:Generated_Source\PSoC4/USBUART_cdc.c **** *
 894:Generated_Source\PSoC4/USBUART_cdc.c **** * \return
 895:Generated_Source\PSoC4/USBUART_cdc.c **** *  Returns Line control bitmap.
 896:Generated_Source\PSoC4/USBUART_cdc.c **** *  Return                   |Value Notes
 897:Generated_Source\PSoC4/USBUART_cdc.c **** *  -------------------------|-----------------------------------------------
 898:Generated_Source\PSoC4/USBUART_cdc.c **** *  USBUART_LINE_CONTROL_DTR |Indicates that a DTR signal is present. This signal corresponds to V.2
 899:Generated_Source\PSoC4/USBUART_cdc.c **** *  USBUART_LINE_CONTROL_RTS |Carrier control for half-duplex modems. This signal corresponds to V.2
 900:Generated_Source\PSoC4/USBUART_cdc.c **** *  RESERVED                 |The rest of the bits are reserved.
 901:Generated_Source\PSoC4/USBUART_cdc.c **** *
 902:Generated_Source\PSoC4/USBUART_cdc.c **** *  *Note* Some terminal emulation programs do not properly handle these
 903:Generated_Source\PSoC4/USBUART_cdc.c **** *  control signals. They update information about DTR and RTS state only
 904:Generated_Source\PSoC4/USBUART_cdc.c **** *  when the RTS signal changes the state.
 905:Generated_Source\PSoC4/USBUART_cdc.c **** *
 906:Generated_Source\PSoC4/USBUART_cdc.c **** * \globalvars
 907:Generated_Source\PSoC4/USBUART_cdc.c **** *  USBUART_linesControlBitmap: used to get a parameter.
 908:Generated_Source\PSoC4/USBUART_cdc.c **** *
 909:Generated_Source\PSoC4/USBUART_cdc.c **** *******************************************************************************/
 910:Generated_Source\PSoC4/USBUART_cdc.c **** uint16 USBUART_GetLineControl(void) 
 911:Generated_Source\PSoC4/USBUART_cdc.c **** {
 1597              		.loc 1 911 0
 1598              		.cfi_startproc
 1599              		@ args = 0, pretend = 0, frame = 0
 1600              		@ frame_needed = 1, uses_anonymous_args = 0
 1601 0000 80B5     		push	{r7, lr}
 1602              		.cfi_def_cfa_offset 8
 1603              		.cfi_offset 7, -8
 1604              		.cfi_offset 14, -4
 1605 0002 00AF     		add	r7, sp, #0
 1606              		.cfi_def_cfa_register 7
 912:Generated_Source\PSoC4/USBUART_cdc.c ****     return (USBUART_linesControlBitmap[USBUART_activeCom]);
 1607              		.loc 1 912 0
 1608 0004 044B     		ldr	r3, .L101
 1609 0006 1B78     		ldrb	r3, [r3]
 1610 0008 1A00     		movs	r2, r3
 1611 000a 044B     		ldr	r3, .L101+4
 1612 000c 5200     		lsls	r2, r2, #1
 1613 000e D35A     		ldrh	r3, [r2, r3]
 1614 0010 9BB2     		uxth	r3, r3
 913:Generated_Source\PSoC4/USBUART_cdc.c **** }
 1615              		.loc 1 913 0
 1616 0012 1800     		movs	r0, r3
 1617 0014 BD46     		mov	sp, r7
 1618              		@ sp needed
 1619 0016 80BD     		pop	{r7, pc}
 1620              	.L102:
 1621              		.align	2
 1622              	.L101:
 1623 0018 00000000 		.word	USBUART_activeCom
 1624 001c 00000000 		.word	USBUART_linesControlBitmap
 1625              		.cfi_endproc
 1626              	.LFE20:
 1627              		.size	USBUART_GetLineControl, .-USBUART_GetLineControl
 1628              		.section	.text.USBUART_SendSerialState,"ax",%progbits
 1629              		.align	2
 1630              		.global	USBUART_SendSerialState
 1631              		.code	16
 1632              		.thumb_func
ARM GAS  C:\Users\HPz420\AppData\Local\Temp\ccOuTLU7.s 			page 46


 1633              		.type	USBUART_SendSerialState, %function
 1634              	USBUART_SendSerialState:
 1635              	.LFB21:
 914:Generated_Source\PSoC4/USBUART_cdc.c **** 
 915:Generated_Source\PSoC4/USBUART_cdc.c **** 
 916:Generated_Source\PSoC4/USBUART_cdc.c **** /*******************************************************************************
 917:Generated_Source\PSoC4/USBUART_cdc.c **** * Function Name: USBUART_SendSerialState
 918:Generated_Source\PSoC4/USBUART_cdc.c **** ****************************************************************************//**
 919:Generated_Source\PSoC4/USBUART_cdc.c **** *
 920:Generated_Source\PSoC4/USBUART_cdc.c **** *  Sends the serial state notification to the host using the interrupt
 921:Generated_Source\PSoC4/USBUART_cdc.c **** *  endpoint for the COM port selected using the API SetComPort().The
 922:Generated_Source\PSoC4/USBUART_cdc.c **** *  USBUART_NotificationIsReady() API must be called to check if the
 923:Generated_Source\PSoC4/USBUART_cdc.c **** *  Component is ready to send more serial state to the host. The API will
 924:Generated_Source\PSoC4/USBUART_cdc.c **** *  not send the notification data if the interrupt endpoint Max Packet Size
 925:Generated_Source\PSoC4/USBUART_cdc.c **** *  is less than the required 10 bytes.
 926:Generated_Source\PSoC4/USBUART_cdc.c **** *
 927:Generated_Source\PSoC4/USBUART_cdc.c **** * \param uint16 serialState
 928:Generated_Source\PSoC4/USBUART_cdc.c **** *  16-bit value that will be sent from the device to the
 929:Generated_Source\PSoC4/USBUART_cdc.c **** *  host as SERIAL_STATE notification using the IN interrupt endpoint. Refer
 930:Generated_Source\PSoC4/USBUART_cdc.c **** *  to revision 1.2 of the CDC PSTN Subclass specification for bit field
 931:Generated_Source\PSoC4/USBUART_cdc.c **** *  definitions of the 16-bit serial state value.
 932:Generated_Source\PSoC4/USBUART_cdc.c **** *
 933:Generated_Source\PSoC4/USBUART_cdc.c **** *******************************************************************************/
 934:Generated_Source\PSoC4/USBUART_cdc.c **** void USBUART_SendSerialState (uint16 serialState) 
 935:Generated_Source\PSoC4/USBUART_cdc.c **** {
 1636              		.loc 1 935 0
 1637              		.cfi_startproc
 1638              		@ args = 0, pretend = 0, frame = 16
 1639              		@ frame_needed = 1, uses_anonymous_args = 0
 1640 0000 80B5     		push	{r7, lr}
 1641              		.cfi_def_cfa_offset 8
 1642              		.cfi_offset 7, -8
 1643              		.cfi_offset 14, -4
 1644 0002 84B0     		sub	sp, sp, #16
 1645              		.cfi_def_cfa_offset 24
 1646 0004 00AF     		add	r7, sp, #0
 1647              		.cfi_def_cfa_register 7
 1648 0006 0200     		movs	r2, r0
 1649 0008 BB1D     		adds	r3, r7, #6
 1650 000a 1A80     		strh	r2, [r3]
 936:Generated_Source\PSoC4/USBUART_cdc.c ****     uint8 epNumber = USBUART_cdcCommInInterruptEp[USBUART_activeCom];
 1651              		.loc 1 936 0
 1652 000c 264B     		ldr	r3, .L106
 1653 000e 1B78     		ldrb	r3, [r3]
 1654 0010 1900     		movs	r1, r3
 1655 0012 0F23     		movs	r3, #15
 1656 0014 FB18     		adds	r3, r7, r3
 1657 0016 254A     		ldr	r2, .L106+4
 1658 0018 525C     		ldrb	r2, [r2, r1]
 1659 001a 1A70     		strb	r2, [r3]
 937:Generated_Source\PSoC4/USBUART_cdc.c **** 
 938:Generated_Source\PSoC4/USBUART_cdc.c ****     if(USBUART_SERIAL_STATE_SIZE <= USBUART_EP[epNumber].bufferSize)
 1660              		.loc 1 938 0
 1661 001c 0F23     		movs	r3, #15
 1662 001e FB18     		adds	r3, r7, r3
 1663 0020 1A78     		ldrb	r2, [r3]
 1664 0022 2349     		ldr	r1, .L106+8
ARM GAS  C:\Users\HPz420\AppData\Local\Temp\ccOuTLU7.s 			page 47


 1665 0024 1300     		movs	r3, r2
 1666 0026 5B00     		lsls	r3, r3, #1
 1667 0028 9B18     		adds	r3, r3, r2
 1668 002a 9B00     		lsls	r3, r3, #2
 1669 002c CB18     		adds	r3, r1, r3
 1670 002e 0833     		adds	r3, r3, #8
 1671 0030 1B88     		ldrh	r3, [r3]
 1672 0032 9BB2     		uxth	r3, r3
 1673 0034 092B     		cmp	r3, #9
 1674 0036 33D9     		bls	.L105
 939:Generated_Source\PSoC4/USBUART_cdc.c ****     {
 940:Generated_Source\PSoC4/USBUART_cdc.c ****         /* Save current SERIAL_STATE bitmap. */
 941:Generated_Source\PSoC4/USBUART_cdc.c ****         USBUART_serialStateBitmap[USBUART_activeCom] = serialState;
 1675              		.loc 1 941 0
 1676 0038 1B4B     		ldr	r3, .L106
 1677 003a 1B78     		ldrb	r3, [r3]
 1678 003c 1A00     		movs	r2, r3
 1679 003e 1D4B     		ldr	r3, .L106+12
 1680 0040 5200     		lsls	r2, r2, #1
 1681 0042 B91D     		adds	r1, r7, #6
 1682 0044 0988     		ldrh	r1, [r1]
 1683 0046 D152     		strh	r1, [r2, r3]
 942:Generated_Source\PSoC4/USBUART_cdc.c **** 
 943:Generated_Source\PSoC4/USBUART_cdc.c ****         /* Add interface number */
 944:Generated_Source\PSoC4/USBUART_cdc.c ****         USBUART_serialStateNotification.wIndex = USBUART_EP[epNumber].interface;
 1684              		.loc 1 944 0
 1685 0048 0F23     		movs	r3, #15
 1686 004a FB18     		adds	r3, r7, r3
 1687 004c 1A78     		ldrb	r2, [r3]
 1688 004e 1849     		ldr	r1, .L106+8
 1689 0050 1300     		movs	r3, r2
 1690 0052 5B00     		lsls	r3, r3, #1
 1691 0054 9B18     		adds	r3, r3, r2
 1692 0056 9B00     		lsls	r3, r3, #2
 1693 0058 CB18     		adds	r3, r1, r3
 1694 005a 0A33     		adds	r3, r3, #10
 1695 005c 1B78     		ldrb	r3, [r3]
 1696 005e DAB2     		uxtb	r2, r3
 1697 0060 154B     		ldr	r3, .L106+16
 1698 0062 1A71     		strb	r2, [r3, #4]
 945:Generated_Source\PSoC4/USBUART_cdc.c **** 
 946:Generated_Source\PSoC4/USBUART_cdc.c ****         /*Form SERIAL_STATE data*/
 947:Generated_Source\PSoC4/USBUART_cdc.c ****         USBUART_serialStateNotification.wSerialState =    LO8(USBUART_serialStateBitmap[USBUART_act
 1699              		.loc 1 947 0
 1700 0064 104B     		ldr	r3, .L106
 1701 0066 1B78     		ldrb	r3, [r3]
 1702 0068 1A00     		movs	r2, r3
 1703 006a 124B     		ldr	r3, .L106+12
 1704 006c 5200     		lsls	r2, r2, #1
 1705 006e D35A     		ldrh	r3, [r2, r3]
 1706 0070 9BB2     		uxth	r3, r3
 1707 0072 DAB2     		uxtb	r2, r3
 1708 0074 104B     		ldr	r3, .L106+16
 1709 0076 1A72     		strb	r2, [r3, #8]
 948:Generated_Source\PSoC4/USBUART_cdc.c ****         USBUART_serialStateNotification.wSerialStateMSB = HI8(USBUART_serialStateBitmap[USBUART_act
 1710              		.loc 1 948 0
 1711 0078 0B4B     		ldr	r3, .L106
ARM GAS  C:\Users\HPz420\AppData\Local\Temp\ccOuTLU7.s 			page 48


 1712 007a 1B78     		ldrb	r3, [r3]
 1713 007c 1A00     		movs	r2, r3
 1714 007e 0D4B     		ldr	r3, .L106+12
 1715 0080 5200     		lsls	r2, r2, #1
 1716 0082 D35A     		ldrh	r3, [r2, r3]
 1717 0084 9BB2     		uxth	r3, r3
 1718 0086 1B0A     		lsrs	r3, r3, #8
 1719 0088 9BB2     		uxth	r3, r3
 1720 008a DAB2     		uxtb	r2, r3
 1721 008c 0A4B     		ldr	r3, .L106+16
 1722 008e 5A72     		strb	r2, [r3, #9]
 949:Generated_Source\PSoC4/USBUART_cdc.c **** 
 950:Generated_Source\PSoC4/USBUART_cdc.c ****         USBUART_LoadInEP(epNumber, (uint8 *) &USBUART_serialStateNotification, sizeof(USBUART_seria
 1723              		.loc 1 950 0
 1724 0090 0949     		ldr	r1, .L106+16
 1725 0092 0F23     		movs	r3, #15
 1726 0094 FB18     		adds	r3, r7, r3
 1727 0096 1B78     		ldrb	r3, [r3]
 1728 0098 0A22     		movs	r2, #10
 1729 009a 1800     		movs	r0, r3
 1730 009c FFF7FEFF 		bl	USBUART_LoadInEP
 1731              	.L105:
 951:Generated_Source\PSoC4/USBUART_cdc.c ****     }
 952:Generated_Source\PSoC4/USBUART_cdc.c **** }
 1732              		.loc 1 952 0
 1733 00a0 C046     		nop
 1734 00a2 BD46     		mov	sp, r7
 1735 00a4 04B0     		add	sp, sp, #16
 1736              		@ sp needed
 1737 00a6 80BD     		pop	{r7, pc}
 1738              	.L107:
 1739              		.align	2
 1740              	.L106:
 1741 00a8 00000000 		.word	USBUART_activeCom
 1742 00ac 00000000 		.word	USBUART_cdcCommInInterruptEp
 1743 00b0 00000000 		.word	USBUART_EP
 1744 00b4 00000000 		.word	USBUART_serialStateBitmap
 1745 00b8 10000000 		.word	USBUART_serialStateNotification
 1746              		.cfi_endproc
 1747              	.LFE21:
 1748              		.size	USBUART_SendSerialState, .-USBUART_SendSerialState
 1749              		.section	.text.USBUART_GetSerialState,"ax",%progbits
 1750              		.align	2
 1751              		.global	USBUART_GetSerialState
 1752              		.code	16
 1753              		.thumb_func
 1754              		.type	USBUART_GetSerialState, %function
 1755              	USBUART_GetSerialState:
 1756              	.LFB22:
 953:Generated_Source\PSoC4/USBUART_cdc.c **** 
 954:Generated_Source\PSoC4/USBUART_cdc.c **** 
 955:Generated_Source\PSoC4/USBUART_cdc.c **** /*******************************************************************************
 956:Generated_Source\PSoC4/USBUART_cdc.c **** * Function Name: USBUART_GetSerialState
 957:Generated_Source\PSoC4/USBUART_cdc.c **** ****************************************************************************//**
 958:Generated_Source\PSoC4/USBUART_cdc.c **** *
 959:Generated_Source\PSoC4/USBUART_cdc.c **** *  This function returns the current serial state value for the COM port
 960:Generated_Source\PSoC4/USBUART_cdc.c **** *  selected using the API SetComPort().
ARM GAS  C:\Users\HPz420\AppData\Local\Temp\ccOuTLU7.s 			page 49


 961:Generated_Source\PSoC4/USBUART_cdc.c **** *
 962:Generated_Source\PSoC4/USBUART_cdc.c **** * \return
 963:Generated_Source\PSoC4/USBUART_cdc.c **** *  16-bit serial state value. Refer to revision 1.2 of the CDC PSTN Subclass
 964:Generated_Source\PSoC4/USBUART_cdc.c **** *  specification for bit field definitions of the 16-bit serial state value.
 965:Generated_Source\PSoC4/USBUART_cdc.c **** *
 966:Generated_Source\PSoC4/USBUART_cdc.c **** *******************************************************************************/
 967:Generated_Source\PSoC4/USBUART_cdc.c **** uint16 USBUART_GetSerialState(void) 
 968:Generated_Source\PSoC4/USBUART_cdc.c **** {
 1757              		.loc 1 968 0
 1758              		.cfi_startproc
 1759              		@ args = 0, pretend = 0, frame = 0
 1760              		@ frame_needed = 1, uses_anonymous_args = 0
 1761 0000 80B5     		push	{r7, lr}
 1762              		.cfi_def_cfa_offset 8
 1763              		.cfi_offset 7, -8
 1764              		.cfi_offset 14, -4
 1765 0002 00AF     		add	r7, sp, #0
 1766              		.cfi_def_cfa_register 7
 969:Generated_Source\PSoC4/USBUART_cdc.c ****     return USBUART_serialStateBitmap[USBUART_activeCom];
 1767              		.loc 1 969 0
 1768 0004 044B     		ldr	r3, .L110
 1769 0006 1B78     		ldrb	r3, [r3]
 1770 0008 1A00     		movs	r2, r3
 1771 000a 044B     		ldr	r3, .L110+4
 1772 000c 5200     		lsls	r2, r2, #1
 1773 000e D35A     		ldrh	r3, [r2, r3]
 1774 0010 9BB2     		uxth	r3, r3
 970:Generated_Source\PSoC4/USBUART_cdc.c **** }
 1775              		.loc 1 970 0
 1776 0012 1800     		movs	r0, r3
 1777 0014 BD46     		mov	sp, r7
 1778              		@ sp needed
 1779 0016 80BD     		pop	{r7, pc}
 1780              	.L111:
 1781              		.align	2
 1782              	.L110:
 1783 0018 00000000 		.word	USBUART_activeCom
 1784 001c 00000000 		.word	USBUART_serialStateBitmap
 1785              		.cfi_endproc
 1786              	.LFE22:
 1787              		.size	USBUART_GetSerialState, .-USBUART_GetSerialState
 1788              		.section	.text.USBUART_NotificationIsReady,"ax",%progbits
 1789              		.align	2
 1790              		.global	USBUART_NotificationIsReady
 1791              		.code	16
 1792              		.thumb_func
 1793              		.type	USBUART_NotificationIsReady, %function
 1794              	USBUART_NotificationIsReady:
 1795              	.LFB23:
 971:Generated_Source\PSoC4/USBUART_cdc.c **** 
 972:Generated_Source\PSoC4/USBUART_cdc.c **** 
 973:Generated_Source\PSoC4/USBUART_cdc.c **** /*******************************************************************************
 974:Generated_Source\PSoC4/USBUART_cdc.c **** * Function Name: USBUART_NotificationIsReady
 975:Generated_Source\PSoC4/USBUART_cdc.c **** ****************************************************************************//**
 976:Generated_Source\PSoC4/USBUART_cdc.c **** *
 977:Generated_Source\PSoC4/USBUART_cdc.c **** *  This function returns a non-zero value if the Component is ready to send
 978:Generated_Source\PSoC4/USBUART_cdc.c **** *  more notifications to the host; otherwise, it returns zero. The function
ARM GAS  C:\Users\HPz420\AppData\Local\Temp\ccOuTLU7.s 			page 50


 979:Generated_Source\PSoC4/USBUART_cdc.c **** *  should be called before sending new notifications when using
 980:Generated_Source\PSoC4/USBUART_cdc.c **** *  USBUART_SendSerialState() to ensure that any previous
 981:Generated_Source\PSoC4/USBUART_cdc.c **** *  notification data has been already sent to the host.
 982:Generated_Source\PSoC4/USBUART_cdc.c **** *
 983:Generated_Source\PSoC4/USBUART_cdc.c **** * \return
 984:Generated_Source\PSoC4/USBUART_cdc.c **** *  If the buffer can accept new data(endpoint buffer not full), this
 985:Generated_Source\PSoC4/USBUART_cdc.c **** *  function returns a non-zero value. Otherwise, it returns zero.
 986:Generated_Source\PSoC4/USBUART_cdc.c **** *
 987:Generated_Source\PSoC4/USBUART_cdc.c **** * \globalvars
 988:Generated_Source\PSoC4/USBUART_cdc.c **** *   USBUART_cdcDataInEp: CDC IN endpoint number used.
 989:Generated_Source\PSoC4/USBUART_cdc.c **** *
 990:Generated_Source\PSoC4/USBUART_cdc.c **** *******************************************************************************/
 991:Generated_Source\PSoC4/USBUART_cdc.c **** uint8 USBUART_NotificationIsReady(void) 
 992:Generated_Source\PSoC4/USBUART_cdc.c **** {
 1796              		.loc 1 992 0
 1797              		.cfi_startproc
 1798              		@ args = 0, pretend = 0, frame = 0
 1799              		@ frame_needed = 1, uses_anonymous_args = 0
 1800 0000 80B5     		push	{r7, lr}
 1801              		.cfi_def_cfa_offset 8
 1802              		.cfi_offset 7, -8
 1803              		.cfi_offset 14, -4
 1804 0002 00AF     		add	r7, sp, #0
 1805              		.cfi_def_cfa_register 7
 993:Generated_Source\PSoC4/USBUART_cdc.c ****     return (USBUART_EP[USBUART_cdcCommInInterruptEp[USBUART_activeCom]].apiEpState);
 1806              		.loc 1 993 0
 1807 0004 094B     		ldr	r3, .L114
 1808 0006 1B78     		ldrb	r3, [r3]
 1809 0008 1A00     		movs	r2, r3
 1810 000a 094B     		ldr	r3, .L114+4
 1811 000c 9B5C     		ldrb	r3, [r3, r2]
 1812 000e DBB2     		uxtb	r3, r3
 1813 0010 1900     		movs	r1, r3
 1814 0012 084A     		ldr	r2, .L114+8
 1815 0014 0B00     		movs	r3, r1
 1816 0016 5B00     		lsls	r3, r3, #1
 1817 0018 5B18     		adds	r3, r3, r1
 1818 001a 9B00     		lsls	r3, r3, #2
 1819 001c D318     		adds	r3, r2, r3
 1820 001e 0133     		adds	r3, r3, #1
 1821 0020 1B78     		ldrb	r3, [r3]
 1822 0022 DBB2     		uxtb	r3, r3
 994:Generated_Source\PSoC4/USBUART_cdc.c **** }
 1823              		.loc 1 994 0
 1824 0024 1800     		movs	r0, r3
 1825 0026 BD46     		mov	sp, r7
 1826              		@ sp needed
 1827 0028 80BD     		pop	{r7, pc}
 1828              	.L115:
 1829 002a C046     		.align	2
 1830              	.L114:
 1831 002c 00000000 		.word	USBUART_activeCom
 1832 0030 00000000 		.word	USBUART_cdcCommInInterruptEp
 1833 0034 00000000 		.word	USBUART_EP
 1834              		.cfi_endproc
 1835              	.LFE23:
 1836              		.size	USBUART_NotificationIsReady, .-USBUART_NotificationIsReady
ARM GAS  C:\Users\HPz420\AppData\Local\Temp\ccOuTLU7.s 			page 51


 1837              		.section	.text.USBUART_SetComPort,"ax",%progbits
 1838              		.align	2
 1839              		.global	USBUART_SetComPort
 1840              		.code	16
 1841              		.thumb_func
 1842              		.type	USBUART_SetComPort, %function
 1843              	USBUART_SetComPort:
 1844              	.LFB24:
 995:Generated_Source\PSoC4/USBUART_cdc.c **** 
 996:Generated_Source\PSoC4/USBUART_cdc.c **** 
 997:Generated_Source\PSoC4/USBUART_cdc.c **** /*******************************************************************************
 998:Generated_Source\PSoC4/USBUART_cdc.c **** * Function Name: USBUART_SetComPort
 999:Generated_Source\PSoC4/USBUART_cdc.c **** ****************************************************************************//**
1000:Generated_Source\PSoC4/USBUART_cdc.c **** *
1001:Generated_Source\PSoC4/USBUART_cdc.c **** *  This function allows the user to select from one of the two COM ports
1002:Generated_Source\PSoC4/USBUART_cdc.c **** *  they wish to address in the instance of having multiple COM ports
1003:Generated_Source\PSoC4/USBUART_cdc.c **** *  instantiated though the use of a composite device. Once set, all future
1004:Generated_Source\PSoC4/USBUART_cdc.c **** *  function calls related to the USBUART will be affected. This addressed
1005:Generated_Source\PSoC4/USBUART_cdc.c **** *  COM port can be changed during run time.
1006:Generated_Source\PSoC4/USBUART_cdc.c **** *
1007:Generated_Source\PSoC4/USBUART_cdc.c **** * \param comNumber
1008:Generated_Source\PSoC4/USBUART_cdc.c **** *  Contains the COM interface the user wishes to address. Value can either
1009:Generated_Source\PSoC4/USBUART_cdc.c **** *  be 0 or 1 since a maximum of only 2 COM ports can be supported. Note that
1010:Generated_Source\PSoC4/USBUART_cdc.c **** *  this COM port number is not the COM port number assigned on the PC side
1011:Generated_Source\PSoC4/USBUART_cdc.c **** *  for the UART communication. If a value greater than 1 is passed, the
1012:Generated_Source\PSoC4/USBUART_cdc.c **** *  function returns without performing any action.
1013:Generated_Source\PSoC4/USBUART_cdc.c **** *
1014:Generated_Source\PSoC4/USBUART_cdc.c **** *******************************************************************************/
1015:Generated_Source\PSoC4/USBUART_cdc.c **** void USBUART_SetComPort(uint8 comNumber) 
1016:Generated_Source\PSoC4/USBUART_cdc.c **** {
 1845              		.loc 1 1016 0
 1846              		.cfi_startproc
 1847              		@ args = 0, pretend = 0, frame = 8
 1848              		@ frame_needed = 1, uses_anonymous_args = 0
 1849 0000 80B5     		push	{r7, lr}
 1850              		.cfi_def_cfa_offset 8
 1851              		.cfi_offset 7, -8
 1852              		.cfi_offset 14, -4
 1853 0002 82B0     		sub	sp, sp, #8
 1854              		.cfi_def_cfa_offset 16
 1855 0004 00AF     		add	r7, sp, #0
 1856              		.cfi_def_cfa_register 7
 1857 0006 0200     		movs	r2, r0
 1858 0008 FB1D     		adds	r3, r7, #7
 1859 000a 1A70     		strb	r2, [r3]
1017:Generated_Source\PSoC4/USBUART_cdc.c ****     if ((USBUART_activeCom != comNumber) && \
 1860              		.loc 1 1017 0
 1861 000c 084B     		ldr	r3, .L119
 1862 000e 1B78     		ldrb	r3, [r3]
 1863 0010 FA1D     		adds	r2, r7, #7
 1864 0012 1278     		ldrb	r2, [r2]
 1865 0014 9A42     		cmp	r2, r3
 1866 0016 07D0     		beq	.L118
 1867              		.loc 1 1017 0 is_stmt 0 discriminator 1
 1868 0018 FB1D     		adds	r3, r7, #7
 1869 001a 1B78     		ldrb	r3, [r3]
 1870 001c 012B     		cmp	r3, #1
ARM GAS  C:\Users\HPz420\AppData\Local\Temp\ccOuTLU7.s 			page 52


 1871 001e 03D8     		bhi	.L118
1018:Generated_Source\PSoC4/USBUART_cdc.c ****             (comNumber < USBUART_MAX_MULTI_COM_NUM ))
1019:Generated_Source\PSoC4/USBUART_cdc.c ****     {
1020:Generated_Source\PSoC4/USBUART_cdc.c ****         USBUART_activeCom = comNumber;
 1872              		.loc 1 1020 0 is_stmt 1
 1873 0020 034B     		ldr	r3, .L119
 1874 0022 FA1D     		adds	r2, r7, #7
 1875 0024 1278     		ldrb	r2, [r2]
 1876 0026 1A70     		strb	r2, [r3]
 1877              	.L118:
1021:Generated_Source\PSoC4/USBUART_cdc.c ****     }
1022:Generated_Source\PSoC4/USBUART_cdc.c **** }
 1878              		.loc 1 1022 0
 1879 0028 C046     		nop
 1880 002a BD46     		mov	sp, r7
 1881 002c 02B0     		add	sp, sp, #8
 1882              		@ sp needed
 1883 002e 80BD     		pop	{r7, pc}
 1884              	.L120:
 1885              		.align	2
 1886              	.L119:
 1887 0030 00000000 		.word	USBUART_activeCom
 1888              		.cfi_endproc
 1889              	.LFE24:
 1890              		.size	USBUART_SetComPort, .-USBUART_SetComPort
 1891              		.section	.text.USBUART_GetComPort,"ax",%progbits
 1892              		.align	2
 1893              		.global	USBUART_GetComPort
 1894              		.code	16
 1895              		.thumb_func
 1896              		.type	USBUART_GetComPort, %function
 1897              	USBUART_GetComPort:
 1898              	.LFB25:
1023:Generated_Source\PSoC4/USBUART_cdc.c **** 
1024:Generated_Source\PSoC4/USBUART_cdc.c **** 
1025:Generated_Source\PSoC4/USBUART_cdc.c **** /*******************************************************************************
1026:Generated_Source\PSoC4/USBUART_cdc.c **** * Function Name: USBUART_GetComPort
1027:Generated_Source\PSoC4/USBUART_cdc.c **** ****************************************************************************//**
1028:Generated_Source\PSoC4/USBUART_cdc.c **** *
1029:Generated_Source\PSoC4/USBUART_cdc.c **** *  This function returns the current selected COM port that the user is
1030:Generated_Source\PSoC4/USBUART_cdc.c **** *  currently addressing in the instance of having multiple COM ports
1031:Generated_Source\PSoC4/USBUART_cdc.c **** *  instantiated though the use of a composite device.
1032:Generated_Source\PSoC4/USBUART_cdc.c **** *
1033:Generated_Source\PSoC4/USBUART_cdc.c **** * \return
1034:Generated_Source\PSoC4/USBUART_cdc.c **** *  Returns the currently selected COM port. Value can either be 0 or 1 since
1035:Generated_Source\PSoC4/USBUART_cdc.c **** *  a maximum of only 2 COM ports can be supported. . Note that this COM port
1036:Generated_Source\PSoC4/USBUART_cdc.c **** *  number is not the COM port number assigned on the PC side for the UART
1037:Generated_Source\PSoC4/USBUART_cdc.c **** *  communication.
1038:Generated_Source\PSoC4/USBUART_cdc.c **** *
1039:Generated_Source\PSoC4/USBUART_cdc.c **** *******************************************************************************/
1040:Generated_Source\PSoC4/USBUART_cdc.c **** uint8 USBUART_GetComPort(void) 
1041:Generated_Source\PSoC4/USBUART_cdc.c **** {
 1899              		.loc 1 1041 0
 1900              		.cfi_startproc
 1901              		@ args = 0, pretend = 0, frame = 0
 1902              		@ frame_needed = 1, uses_anonymous_args = 0
 1903 0000 80B5     		push	{r7, lr}
ARM GAS  C:\Users\HPz420\AppData\Local\Temp\ccOuTLU7.s 			page 53


 1904              		.cfi_def_cfa_offset 8
 1905              		.cfi_offset 7, -8
 1906              		.cfi_offset 14, -4
 1907 0002 00AF     		add	r7, sp, #0
 1908              		.cfi_def_cfa_register 7
1042:Generated_Source\PSoC4/USBUART_cdc.c ****     return (USBUART_activeCom);
 1909              		.loc 1 1042 0
 1910 0004 024B     		ldr	r3, .L123
 1911 0006 1B78     		ldrb	r3, [r3]
1043:Generated_Source\PSoC4/USBUART_cdc.c **** }
 1912              		.loc 1 1043 0
 1913 0008 1800     		movs	r0, r3
 1914 000a BD46     		mov	sp, r7
 1915              		@ sp needed
 1916 000c 80BD     		pop	{r7, pc}
 1917              	.L124:
 1918 000e C046     		.align	2
 1919              	.L123:
 1920 0010 00000000 		.word	USBUART_activeCom
 1921              		.cfi_endproc
 1922              	.LFE25:
 1923              		.size	USBUART_GetComPort, .-USBUART_GetComPort
 1924              		.section	.text.USBUART_Cdc_EpInit,"ax",%progbits
 1925              		.align	2
 1926              		.global	USBUART_Cdc_EpInit
 1927              		.code	16
 1928              		.thumb_func
 1929              		.type	USBUART_Cdc_EpInit, %function
 1930              	USBUART_Cdc_EpInit:
 1931              	.LFB26:
1044:Generated_Source\PSoC4/USBUART_cdc.c **** 
1045:Generated_Source\PSoC4/USBUART_cdc.c **** 
1046:Generated_Source\PSoC4/USBUART_cdc.c **** #endif  /* (USBUART_ENABLE_CDC_CLASS_API) */
1047:Generated_Source\PSoC4/USBUART_cdc.c **** 
1048:Generated_Source\PSoC4/USBUART_cdc.c **** 
1049:Generated_Source\PSoC4/USBUART_cdc.c **** /***************************************************************************
1050:Generated_Source\PSoC4/USBUART_cdc.c **** * Function Name: USBUART_Cdc_EpInit
1051:Generated_Source\PSoC4/USBUART_cdc.c **** ************************************************************************//**
1052:Generated_Source\PSoC4/USBUART_cdc.c **** *
1053:Generated_Source\PSoC4/USBUART_cdc.c **** *  \internal
1054:Generated_Source\PSoC4/USBUART_cdc.c **** *  This routine decide type of endpoint (IN, OUT, Notification) and same to
1055:Generated_Source\PSoC4/USBUART_cdc.c **** *   appropriate global variables  according to COM port number.
1056:Generated_Source\PSoC4/USBUART_cdc.c **** *   USBUART_cdcDataInEp[], USBUART_cdcCommInInterruptEp[],
1057:Generated_Source\PSoC4/USBUART_cdc.c **** *   USBUART_cdcDataOutEp[]
1058:Generated_Source\PSoC4/USBUART_cdc.c **** *
1059:Generated_Source\PSoC4/USBUART_cdc.c **** * \param pEP: Pointer to structure with current EP description.
1060:Generated_Source\PSoC4/USBUART_cdc.c **** * \param epNum: EP number
1061:Generated_Source\PSoC4/USBUART_cdc.c **** * \param cdcComNums: Bit array of current COM ports for CDC IN, OUT,
1062:Generated_Source\PSoC4/USBUART_cdc.c **** *        and notification EPs(0 - COM port 1, 1- COM port 2)
1063:Generated_Source\PSoC4/USBUART_cdc.c **** *
1064:Generated_Source\PSoC4/USBUART_cdc.c **** * \return
1065:Generated_Source\PSoC4/USBUART_cdc.c **** *  Updated cdcComNums
1066:Generated_Source\PSoC4/USBUART_cdc.c **** *
1067:Generated_Source\PSoC4/USBUART_cdc.c **** * \reentrant
1068:Generated_Source\PSoC4/USBUART_cdc.c **** *  No.
1069:Generated_Source\PSoC4/USBUART_cdc.c **** *
1070:Generated_Source\PSoC4/USBUART_cdc.c **** ***************************************************************************/
ARM GAS  C:\Users\HPz420\AppData\Local\Temp\ccOuTLU7.s 			page 54


1071:Generated_Source\PSoC4/USBUART_cdc.c **** uint8 USBUART_Cdc_EpInit(const T_USBUART_EP_SETTINGS_BLOCK CYCODE *pEP, uint8 epNum, uint8 cdcComNu
1072:Generated_Source\PSoC4/USBUART_cdc.c **** {
 1932              		.loc 1 1072 0
 1933              		.cfi_startproc
 1934              		@ args = 0, pretend = 0, frame = 16
 1935              		@ frame_needed = 1, uses_anonymous_args = 0
 1936 0000 80B5     		push	{r7, lr}
 1937              		.cfi_def_cfa_offset 8
 1938              		.cfi_offset 7, -8
 1939              		.cfi_offset 14, -4
 1940 0002 84B0     		sub	sp, sp, #16
 1941              		.cfi_def_cfa_offset 24
 1942 0004 00AF     		add	r7, sp, #0
 1943              		.cfi_def_cfa_register 7
 1944 0006 7860     		str	r0, [r7, #4]
 1945 0008 0800     		movs	r0, r1
 1946 000a 1100     		movs	r1, r2
 1947 000c FB1C     		adds	r3, r7, #3
 1948 000e 021C     		adds	r2, r0, #0
 1949 0010 1A70     		strb	r2, [r3]
 1950 0012 BB1C     		adds	r3, r7, #2
 1951 0014 0A1C     		adds	r2, r1, #0
 1952 0016 1A70     		strb	r2, [r3]
1073:Generated_Source\PSoC4/USBUART_cdc.c ****     uint8 epType;
1074:Generated_Source\PSoC4/USBUART_cdc.c **** 
1075:Generated_Source\PSoC4/USBUART_cdc.c ****     epType = pEP->attributes & USBUART_EP_TYPE_MASK;
 1953              		.loc 1 1075 0
 1954 0018 7B68     		ldr	r3, [r7, #4]
 1955 001a DA78     		ldrb	r2, [r3, #3]
 1956 001c 0F23     		movs	r3, #15
 1957 001e FB18     		adds	r3, r7, r3
 1958 0020 0321     		movs	r1, #3
 1959 0022 0A40     		ands	r2, r1
 1960 0024 1A70     		strb	r2, [r3]
1076:Generated_Source\PSoC4/USBUART_cdc.c **** 
1077:Generated_Source\PSoC4/USBUART_cdc.c ****     if (0u != (pEP->addr & USBUART_DIR_IN))
 1961              		.loc 1 1077 0
 1962 0026 7B68     		ldr	r3, [r7, #4]
 1963 0028 9B78     		ldrb	r3, [r3, #2]
 1964 002a 5BB2     		sxtb	r3, r3
 1965 002c 002B     		cmp	r3, #0
 1966 002e 25DA     		bge	.L126
1078:Generated_Source\PSoC4/USBUART_cdc.c ****     {
1079:Generated_Source\PSoC4/USBUART_cdc.c ****         if (epType != USBUART_EP_TYPE_INT)
 1967              		.loc 1 1079 0
 1968 0030 0F23     		movs	r3, #15
 1969 0032 FB18     		adds	r3, r7, r3
 1970 0034 1B78     		ldrb	r3, [r3]
 1971 0036 032B     		cmp	r3, #3
 1972 0038 0ED0     		beq	.L127
1080:Generated_Source\PSoC4/USBUART_cdc.c ****         {
1081:Generated_Source\PSoC4/USBUART_cdc.c ****             USBUART_cdcDataInEp[USBUART_GET_EP_COM_NUM(cdcComNums, USBUART_CDC_IN_EP)] = epNum;
 1973              		.loc 1 1081 0
 1974 003a BB1C     		adds	r3, r7, #2
 1975 003c 1B78     		ldrb	r3, [r3]
 1976 003e 0122     		movs	r2, #1
 1977 0040 1340     		ands	r3, r2
ARM GAS  C:\Users\HPz420\AppData\Local\Temp\ccOuTLU7.s 			page 55


 1978 0042 1C4A     		ldr	r2, .L131
 1979 0044 F91C     		adds	r1, r7, #3
 1980 0046 0978     		ldrb	r1, [r1]
 1981 0048 D154     		strb	r1, [r2, r3]
1082:Generated_Source\PSoC4/USBUART_cdc.c ****             cdcComNums |= (uint8)(USBUART_COM_PORT2 << USBUART_CDC_IN_EP);
 1982              		.loc 1 1082 0
 1983 004a BB1C     		adds	r3, r7, #2
 1984 004c BA1C     		adds	r2, r7, #2
 1985 004e 1278     		ldrb	r2, [r2]
 1986 0050 0121     		movs	r1, #1
 1987 0052 0A43     		orrs	r2, r1
 1988 0054 1A70     		strb	r2, [r3]
 1989 0056 27E0     		b	.L129
 1990              	.L127:
1083:Generated_Source\PSoC4/USBUART_cdc.c ****         }
1084:Generated_Source\PSoC4/USBUART_cdc.c ****         else
1085:Generated_Source\PSoC4/USBUART_cdc.c ****         {
1086:Generated_Source\PSoC4/USBUART_cdc.c **** 
1087:Generated_Source\PSoC4/USBUART_cdc.c ****             USBUART_cdcCommInInterruptEp[USBUART_GET_EP_COM_NUM(cdcComNums, USBUART_CDC_NOTE_EP)] =
 1991              		.loc 1 1087 0
 1992 0058 BB1C     		adds	r3, r7, #2
 1993 005a 1B78     		ldrb	r3, [r3]
 1994 005c 9B08     		lsrs	r3, r3, #2
 1995 005e DBB2     		uxtb	r3, r3
 1996 0060 1A00     		movs	r2, r3
 1997 0062 0123     		movs	r3, #1
 1998 0064 1340     		ands	r3, r2
 1999 0066 144A     		ldr	r2, .L131+4
 2000 0068 F91C     		adds	r1, r7, #3
 2001 006a 0978     		ldrb	r1, [r1]
 2002 006c D154     		strb	r1, [r2, r3]
1088:Generated_Source\PSoC4/USBUART_cdc.c ****             cdcComNums |= (uint8)(USBUART_COM_PORT2 << USBUART_CDC_NOTE_EP);
 2003              		.loc 1 1088 0
 2004 006e BB1C     		adds	r3, r7, #2
 2005 0070 BA1C     		adds	r2, r7, #2
 2006 0072 1278     		ldrb	r2, [r2]
 2007 0074 0421     		movs	r1, #4
 2008 0076 0A43     		orrs	r2, r1
 2009 0078 1A70     		strb	r2, [r3]
 2010 007a 15E0     		b	.L129
 2011              	.L126:
1089:Generated_Source\PSoC4/USBUART_cdc.c ****         }
1090:Generated_Source\PSoC4/USBUART_cdc.c ****     }
1091:Generated_Source\PSoC4/USBUART_cdc.c ****     else
1092:Generated_Source\PSoC4/USBUART_cdc.c ****     {
1093:Generated_Source\PSoC4/USBUART_cdc.c ****         if (epType != USBUART_EP_TYPE_INT)
 2012              		.loc 1 1093 0
 2013 007c 0F23     		movs	r3, #15
 2014 007e FB18     		adds	r3, r7, r3
 2015 0080 1B78     		ldrb	r3, [r3]
 2016 0082 032B     		cmp	r3, #3
 2017 0084 10D0     		beq	.L129
1094:Generated_Source\PSoC4/USBUART_cdc.c ****         {
1095:Generated_Source\PSoC4/USBUART_cdc.c ****             USBUART_cdcDataOutEp[USBUART_GET_EP_COM_NUM(cdcComNums, USBUART_CDC_OUT_EP)] = epNum;
 2018              		.loc 1 1095 0
 2019 0086 BB1C     		adds	r3, r7, #2
 2020 0088 1B78     		ldrb	r3, [r3]
ARM GAS  C:\Users\HPz420\AppData\Local\Temp\ccOuTLU7.s 			page 56


 2021 008a 5B08     		lsrs	r3, r3, #1
 2022 008c DBB2     		uxtb	r3, r3
 2023 008e 1A00     		movs	r2, r3
 2024 0090 0123     		movs	r3, #1
 2025 0092 1340     		ands	r3, r2
 2026 0094 094A     		ldr	r2, .L131+8
 2027 0096 F91C     		adds	r1, r7, #3
 2028 0098 0978     		ldrb	r1, [r1]
 2029 009a D154     		strb	r1, [r2, r3]
1096:Generated_Source\PSoC4/USBUART_cdc.c ****             cdcComNums |= (uint8)(USBUART_COM_PORT2 << USBUART_CDC_OUT_EP);
 2030              		.loc 1 1096 0
 2031 009c BB1C     		adds	r3, r7, #2
 2032 009e BA1C     		adds	r2, r7, #2
 2033 00a0 1278     		ldrb	r2, [r2]
 2034 00a2 0221     		movs	r1, #2
 2035 00a4 0A43     		orrs	r2, r1
 2036 00a6 1A70     		strb	r2, [r3]
 2037              	.L129:
1097:Generated_Source\PSoC4/USBUART_cdc.c ****         }
1098:Generated_Source\PSoC4/USBUART_cdc.c ****     }
1099:Generated_Source\PSoC4/USBUART_cdc.c ****     return (cdcComNums);
 2038              		.loc 1 1099 0
 2039 00a8 BB1C     		adds	r3, r7, #2
 2040 00aa 1B78     		ldrb	r3, [r3]
1100:Generated_Source\PSoC4/USBUART_cdc.c **** }
 2041              		.loc 1 1100 0
 2042 00ac 1800     		movs	r0, r3
 2043 00ae BD46     		mov	sp, r7
 2044 00b0 04B0     		add	sp, sp, #16
 2045              		@ sp needed
 2046 00b2 80BD     		pop	{r7, pc}
 2047              	.L132:
 2048              		.align	2
 2049              	.L131:
 2050 00b4 00000000 		.word	USBUART_cdcDataInEp
 2051 00b8 00000000 		.word	USBUART_cdcCommInInterruptEp
 2052 00bc 00000000 		.word	USBUART_cdcDataOutEp
 2053              		.cfi_endproc
 2054              	.LFE26:
 2055              		.size	USBUART_Cdc_EpInit, .-USBUART_Cdc_EpInit
 2056              		.text
 2057              	.Letext0:
 2058              		.file 2 "Generated_Source\\PSoC4\\cytypes.h"
 2059              		.file 3 "Generated_Source\\PSoC4\\USBUART.h"
 2060              		.file 4 "Generated_Source\\PSoC4\\USBUART_pvt.h"