ARM GAS  C:\Users\HPz420\AppData\Local\Temp\ccEPczKG.s 			page 1


   1              		.syntax unified
   2              		.cpu cortex-m0
   3              		.fpu softvfp
   4              		.eabi_attribute 20, 1
   5              		.eabi_attribute 21, 1
   6              		.eabi_attribute 23, 3
   7              		.eabi_attribute 24, 1
   8              		.eabi_attribute 25, 1
   9              		.eabi_attribute 26, 1
  10              		.eabi_attribute 30, 6
  11              		.eabi_attribute 34, 0
  12              		.eabi_attribute 18, 4
  13              		.thumb
  14              		.syntax unified
  15              		.file	"cy_em_eeprom.c"
  16              		.text
  17              	.Ltext0:
  18              		.cfi_sections	.debug_frame
  19              		.section	.text.Cy_Em_EEPROM_Init,"ax",%progbits
  20              		.align	2
  21              		.global	Cy_Em_EEPROM_Init
  22              		.code	16
  23              		.thumb_func
  24              		.type	Cy_Em_EEPROM_Init, %function
  25              	Cy_Em_EEPROM_Init:
  26              	.LFB1:
  27              		.file 1 "Generated_Source\\PSoC4\\cy_em_eeprom.c"
   1:Generated_Source\PSoC4/cy_em_eeprom.c **** /***************************************************************************//**
   2:Generated_Source\PSoC4/cy_em_eeprom.c **** * \file cy_em_eeprom.c
   3:Generated_Source\PSoC4/cy_em_eeprom.c **** * \version 2.20
   4:Generated_Source\PSoC4/cy_em_eeprom.c **** *
   5:Generated_Source\PSoC4/cy_em_eeprom.c **** * \brief
   6:Generated_Source\PSoC4/cy_em_eeprom.c **** *  This file provides source code of the API for the Emulated EEPROM library.
   7:Generated_Source\PSoC4/cy_em_eeprom.c **** *  The Emulated EEPROM API allows creating of an emulated EEPROM in flash that
   8:Generated_Source\PSoC4/cy_em_eeprom.c **** *  has the ability to do wear leveling and restore corrupted data from a
   9:Generated_Source\PSoC4/cy_em_eeprom.c **** *  redundant copy.
  10:Generated_Source\PSoC4/cy_em_eeprom.c **** *
  11:Generated_Source\PSoC4/cy_em_eeprom.c **** ********************************************************************************
  12:Generated_Source\PSoC4/cy_em_eeprom.c **** * \copyright
  13:Generated_Source\PSoC4/cy_em_eeprom.c **** * Copyright 2017, Cypress Semiconductor Corporation.  All rights reserved.
  14:Generated_Source\PSoC4/cy_em_eeprom.c **** * You may use this file only in accordance with the license, terms, conditions,
  15:Generated_Source\PSoC4/cy_em_eeprom.c **** * disclaimers, and limitations in the end user license agreement accompanying
  16:Generated_Source\PSoC4/cy_em_eeprom.c **** * the software package with which this file was provided.
  17:Generated_Source\PSoC4/cy_em_eeprom.c **** *******************************************************************************/
  18:Generated_Source\PSoC4/cy_em_eeprom.c **** 
  19:Generated_Source\PSoC4/cy_em_eeprom.c **** 
  20:Generated_Source\PSoC4/cy_em_eeprom.c **** #include "cytypes.h"
  21:Generated_Source\PSoC4/cy_em_eeprom.c **** #include <string.h>
  22:Generated_Source\PSoC4/cy_em_eeprom.c **** 
  23:Generated_Source\PSoC4/cy_em_eeprom.c **** #if (CYDEV_CHIP_FAMILY_USED == CYDEV_CHIP_FAMILY_PSOC6)
  24:Generated_Source\PSoC4/cy_em_eeprom.c ****     #include "em_eeprom/cy_em_eeprom.h"
  25:Generated_Source\PSoC4/cy_em_eeprom.c **** #else
  26:Generated_Source\PSoC4/cy_em_eeprom.c ****     #include "cy_em_eeprom.h"
  27:Generated_Source\PSoC4/cy_em_eeprom.c **** #endif /* (CYDEV_CHIP_FAMILY_USED == CYDEV_CHIP_FAMILY_PSOC6) */
  28:Generated_Source\PSoC4/cy_em_eeprom.c **** 
  29:Generated_Source\PSoC4/cy_em_eeprom.c **** 
  30:Generated_Source\PSoC4/cy_em_eeprom.c **** #if defined(__cplusplus)
ARM GAS  C:\Users\HPz420\AppData\Local\Temp\ccEPczKG.s 			page 2


  31:Generated_Source\PSoC4/cy_em_eeprom.c **** extern "C" {
  32:Generated_Source\PSoC4/cy_em_eeprom.c **** #endif
  33:Generated_Source\PSoC4/cy_em_eeprom.c **** 
  34:Generated_Source\PSoC4/cy_em_eeprom.c **** 
  35:Generated_Source\PSoC4/cy_em_eeprom.c **** /***************************************
  36:Generated_Source\PSoC4/cy_em_eeprom.c **** * Private Function Prototypes
  37:Generated_Source\PSoC4/cy_em_eeprom.c **** ***************************************/
  38:Generated_Source\PSoC4/cy_em_eeprom.c **** static void FindLastWrittenRow(uint32 * lastWrRowPtr, cy_stc_eeprom_context_t * context);
  39:Generated_Source\PSoC4/cy_em_eeprom.c **** static uint32 GetRowAddrBySeqNum(uint32 seqNum, cy_stc_eeprom_context_t * context);
  40:Generated_Source\PSoC4/cy_em_eeprom.c **** static uint8 CalcChecksum(uint8 rowData[], uint32 len);
  41:Generated_Source\PSoC4/cy_em_eeprom.c **** static void GetNextRowToWrite(uint32 seqNum,
  42:Generated_Source\PSoC4/cy_em_eeprom.c ****                             uint32 * rowToWrPtr,
  43:Generated_Source\PSoC4/cy_em_eeprom.c ****                             uint32 * rowToRdPtr,
  44:Generated_Source\PSoC4/cy_em_eeprom.c ****                             cy_stc_eeprom_context_t * context);
  45:Generated_Source\PSoC4/cy_em_eeprom.c **** static cy_en_em_eeprom_status_t CheckRanges(cy_stc_eeprom_config_t* config);
  46:Generated_Source\PSoC4/cy_em_eeprom.c **** static cy_en_em_eeprom_status_t WriteRow(uint32 rowAddr, uint32 *rowData, cy_stc_eeprom_context_t *
  47:Generated_Source\PSoC4/cy_em_eeprom.c **** static cy_en_em_eeprom_status_t EraseRow(uint32 rowAddr, uint32 ramBuffAddr, cy_stc_eeprom_context_
  48:Generated_Source\PSoC4/cy_em_eeprom.c **** static cy_en_em_eeprom_status_t CheckCrcAndCopy(uint32 startAddr,
  49:Generated_Source\PSoC4/cy_em_eeprom.c ****                                                 uint32 dstAddr,
  50:Generated_Source\PSoC4/cy_em_eeprom.c ****                                                 uint32 rowOffset,
  51:Generated_Source\PSoC4/cy_em_eeprom.c ****                                                 uint32 numBytes,
  52:Generated_Source\PSoC4/cy_em_eeprom.c ****                                                 cy_stc_eeprom_context_t * context);
  53:Generated_Source\PSoC4/cy_em_eeprom.c **** static uint32 GetAddresses(uint32 *startAddr, uint32 *endAddr, uint32 *offset, uint32 rowNum, uint3
  54:Generated_Source\PSoC4/cy_em_eeprom.c **** static cy_en_em_eeprom_status_t FillChecksum(cy_stc_eeprom_context_t * context);
  55:Generated_Source\PSoC4/cy_em_eeprom.c **** 
  56:Generated_Source\PSoC4/cy_em_eeprom.c **** /**
  57:Generated_Source\PSoC4/cy_em_eeprom.c **** * \addtogroup group_em_eeprom_functions
  58:Generated_Source\PSoC4/cy_em_eeprom.c **** * \{
  59:Generated_Source\PSoC4/cy_em_eeprom.c **** */
  60:Generated_Source\PSoC4/cy_em_eeprom.c **** 
  61:Generated_Source\PSoC4/cy_em_eeprom.c **** /*******************************************************************************
  62:Generated_Source\PSoC4/cy_em_eeprom.c **** * Function Name: Cy_Em_EEPROM_Init
  63:Generated_Source\PSoC4/cy_em_eeprom.c **** ****************************************************************************//**
  64:Generated_Source\PSoC4/cy_em_eeprom.c **** *
  65:Generated_Source\PSoC4/cy_em_eeprom.c **** * Initializes the Emulated EEPROM library by filling the context structure. 
  66:Generated_Source\PSoC4/cy_em_eeprom.c **** *
  67:Generated_Source\PSoC4/cy_em_eeprom.c **** * \param config
  68:Generated_Source\PSoC4/cy_em_eeprom.c **** * The pointer to a configuration structure. See \ref cy_stc_eeprom_config_t.
  69:Generated_Source\PSoC4/cy_em_eeprom.c **** *
  70:Generated_Source\PSoC4/cy_em_eeprom.c **** * \param context
  71:Generated_Source\PSoC4/cy_em_eeprom.c **** * The pointer to the EEPROM context structure to be filled by the function.
  72:Generated_Source\PSoC4/cy_em_eeprom.c **** * \ref cy_stc_eeprom_context_t.
  73:Generated_Source\PSoC4/cy_em_eeprom.c **** *
  74:Generated_Source\PSoC4/cy_em_eeprom.c **** * \return
  75:Generated_Source\PSoC4/cy_em_eeprom.c **** * error / status code. See \ref cy_en_em_eeprom_status_t.
  76:Generated_Source\PSoC4/cy_em_eeprom.c **** *
  77:Generated_Source\PSoC4/cy_em_eeprom.c **** * \note
  78:Generated_Source\PSoC4/cy_em_eeprom.c **** * The context structure should not be modified by the user after it is filled
  79:Generated_Source\PSoC4/cy_em_eeprom.c **** * with this function. Modification of context structure may cause the 
  80:Generated_Source\PSoC4/cy_em_eeprom.c **** * unexpected behavior of the Cy_Em_EEPROM API functions which rely on it.
  81:Generated_Source\PSoC4/cy_em_eeprom.c **** *
  82:Generated_Source\PSoC4/cy_em_eeprom.c **** * \note
  83:Generated_Source\PSoC4/cy_em_eeprom.c **** * This function uses a buffer of the flash row size to perform read
  84:Generated_Source\PSoC4/cy_em_eeprom.c **** * operation. For the size of the row refer to the specific PSoC device
  85:Generated_Source\PSoC4/cy_em_eeprom.c **** * datasheet.
  86:Generated_Source\PSoC4/cy_em_eeprom.c **** *
  87:Generated_Source\PSoC4/cy_em_eeprom.c **** * \sideeffect 
ARM GAS  C:\Users\HPz420\AppData\Local\Temp\ccEPczKG.s 			page 3


  88:Generated_Source\PSoC4/cy_em_eeprom.c **** * If the "Redundant Copy" option is used, the function performs a number of 
  89:Generated_Source\PSoC4/cy_em_eeprom.c **** * write operations to the EEPROM to initialize flash rows checksums. Therefore,
  90:Generated_Source\PSoC4/cy_em_eeprom.c **** * Cy_Em_EEPROM_NumWrites(), when it is called right after Cy_Em_EEPROM_Init(), 
  91:Generated_Source\PSoC4/cy_em_eeprom.c **** * will return a non-zero value that identifies the number of writes performed 
  92:Generated_Source\PSoC4/cy_em_eeprom.c **** * by Cy_Em_EEPROM_Init().
  93:Generated_Source\PSoC4/cy_em_eeprom.c **** *
  94:Generated_Source\PSoC4/cy_em_eeprom.c **** *******************************************************************************/
  95:Generated_Source\PSoC4/cy_em_eeprom.c **** cy_en_em_eeprom_status_t Cy_Em_EEPROM_Init(cy_stc_eeprom_config_t* config, cy_stc_eeprom_context_t 
  96:Generated_Source\PSoC4/cy_em_eeprom.c **** {
  28              		.loc 1 96 0
  29              		.cfi_startproc
  30              		@ args = 0, pretend = 0, frame = 16
  31              		@ frame_needed = 1, uses_anonymous_args = 0
  32 0000 90B5     		push	{r4, r7, lr}
  33              		.cfi_def_cfa_offset 12
  34              		.cfi_offset 4, -12
  35              		.cfi_offset 7, -8
  36              		.cfi_offset 14, -4
  37 0002 85B0     		sub	sp, sp, #20
  38              		.cfi_def_cfa_offset 32
  39 0004 00AF     		add	r7, sp, #0
  40              		.cfi_def_cfa_register 7
  41 0006 7860     		str	r0, [r7, #4]
  42 0008 3960     		str	r1, [r7]
  97:Generated_Source\PSoC4/cy_em_eeprom.c ****     cy_en_em_eeprom_status_t ret = CY_EM_EEPROM_BAD_PARAM;
  43              		.loc 1 97 0
  44 000a 0F23     		movs	r3, #15
  45 000c FB18     		adds	r3, r7, r3
  46 000e 0122     		movs	r2, #1
  47 0010 1A70     		strb	r2, [r3]
  98:Generated_Source\PSoC4/cy_em_eeprom.c **** 
  99:Generated_Source\PSoC4/cy_em_eeprom.c ****     if((NULL != context) && (NULL != config) && (NULL != ((uint32 *)config->userFlashStartAddr)) &&
  48              		.loc 1 99 0
  49 0012 3B68     		ldr	r3, [r7]
  50 0014 002B     		cmp	r3, #0
  51 0016 67D0     		beq	.L2
  52              		.loc 1 99 0 is_stmt 0 discriminator 1
  53 0018 7B68     		ldr	r3, [r7, #4]
  54 001a 002B     		cmp	r3, #0
  55 001c 64D0     		beq	.L2
  56              		.loc 1 99 0 discriminator 2
  57 001e 7B68     		ldr	r3, [r7, #4]
  58 0020 DB68     		ldr	r3, [r3, #12]
  59 0022 002B     		cmp	r3, #0
  60 0024 60D0     		beq	.L2
 100:Generated_Source\PSoC4/cy_em_eeprom.c ****         (config->wearLevelingFactor <= CY_EM_EEPROM_MAX_WEAR_LEVELING_FACTOR) && (config->eepromSiz
  61              		.loc 1 100 0 is_stmt 1 discriminator 3
  62 0026 7B68     		ldr	r3, [r7, #4]
  63 0028 5B68     		ldr	r3, [r3, #4]
  99:Generated_Source\PSoC4/cy_em_eeprom.c ****         (config->wearLevelingFactor <= CY_EM_EEPROM_MAX_WEAR_LEVELING_FACTOR) && (config->eepromSiz
  64              		.loc 1 99 0 discriminator 3
  65 002a 0A2B     		cmp	r3, #10
  66 002c 5CD8     		bhi	.L2
  67              		.loc 1 100 0
  68 002e 7B68     		ldr	r3, [r7, #4]
  69 0030 1B68     		ldr	r3, [r3]
  70 0032 002B     		cmp	r3, #0
ARM GAS  C:\Users\HPz420\AppData\Local\Temp\ccEPczKG.s 			page 4


  71 0034 58D0     		beq	.L2
 101:Generated_Source\PSoC4/cy_em_eeprom.c ****     {
 102:Generated_Source\PSoC4/cy_em_eeprom.c ****         ret = CheckRanges(config);
  72              		.loc 1 102 0
  73 0036 0F23     		movs	r3, #15
  74 0038 FC18     		adds	r4, r7, r3
  75 003a 7B68     		ldr	r3, [r7, #4]
  76 003c 1800     		movs	r0, r3
  77 003e FFF7FEFF 		bl	CheckRanges
  78 0042 0300     		movs	r3, r0
  79 0044 2370     		strb	r3, [r4]
 103:Generated_Source\PSoC4/cy_em_eeprom.c **** 
 104:Generated_Source\PSoC4/cy_em_eeprom.c ****         if(CY_EM_EEPROM_SUCCESS == ret)
  80              		.loc 1 104 0
  81 0046 0F23     		movs	r3, #15
  82 0048 FB18     		adds	r3, r7, r3
  83 004a 1B78     		ldrb	r3, [r3]
  84 004c 002B     		cmp	r3, #0
  85 004e 4BD1     		bne	.L2
 105:Generated_Source\PSoC4/cy_em_eeprom.c ****         {
 106:Generated_Source\PSoC4/cy_em_eeprom.c ****             /* Copy the user config structure fields into context */
 107:Generated_Source\PSoC4/cy_em_eeprom.c ****             context->eepromSize = config->eepromSize;
  86              		.loc 1 107 0
  87 0050 7B68     		ldr	r3, [r7, #4]
  88 0052 1A68     		ldr	r2, [r3]
  89 0054 3B68     		ldr	r3, [r7]
  90 0056 DA60     		str	r2, [r3, #12]
 108:Generated_Source\PSoC4/cy_em_eeprom.c ****             context->wearLevelingFactor = config->wearLevelingFactor;
  91              		.loc 1 108 0
  92 0058 7B68     		ldr	r3, [r7, #4]
  93 005a 5A68     		ldr	r2, [r3, #4]
  94 005c 3B68     		ldr	r3, [r7]
  95 005e 1A61     		str	r2, [r3, #16]
 109:Generated_Source\PSoC4/cy_em_eeprom.c ****             context->redundantCopy = config->redundantCopy;
  96              		.loc 1 109 0
  97 0060 7B68     		ldr	r3, [r7, #4]
  98 0062 1A7A     		ldrb	r2, [r3, #8]
  99 0064 3B68     		ldr	r3, [r7]
 100 0066 1A75     		strb	r2, [r3, #20]
 110:Generated_Source\PSoC4/cy_em_eeprom.c ****             context->blockingWrite = config->blockingWrite;
 101              		.loc 1 110 0
 102 0068 7B68     		ldr	r3, [r7, #4]
 103 006a 5A7A     		ldrb	r2, [r3, #9]
 104 006c 3B68     		ldr	r3, [r7]
 105 006e 5A75     		strb	r2, [r3, #21]
 111:Generated_Source\PSoC4/cy_em_eeprom.c ****             context->userFlashStartAddr = config->userFlashStartAddr;
 106              		.loc 1 111 0
 107 0070 7B68     		ldr	r3, [r7, #4]
 108 0072 DA68     		ldr	r2, [r3, #12]
 109 0074 3B68     		ldr	r3, [r7]
 110 0076 9A61     		str	r2, [r3, #24]
 112:Generated_Source\PSoC4/cy_em_eeprom.c ****             /* Store frequently used data for internal use */
 113:Generated_Source\PSoC4/cy_em_eeprom.c ****             context->numberOfRows = CY_EM_EEPROM_GET_NUM_ROWS_IN_EEPROM(config->eepromSize);
 111              		.loc 1 113 0
 112 0078 7B68     		ldr	r3, [r7, #4]
 113 007a 1B68     		ldr	r3, [r3]
 114 007c DA09     		lsrs	r2, r3, #7
ARM GAS  C:\Users\HPz420\AppData\Local\Temp\ccEPczKG.s 			page 5


 115 007e 7B68     		ldr	r3, [r7, #4]
 116 0080 1B68     		ldr	r3, [r3]
 117 0082 7F21     		movs	r1, #127
 118 0084 0B40     		ands	r3, r1
 119 0086 01D0     		beq	.L3
 120              		.loc 1 113 0 is_stmt 0 discriminator 1
 121 0088 0123     		movs	r3, #1
 122 008a 00E0     		b	.L4
 123              	.L3:
 124              		.loc 1 113 0 discriminator 2
 125 008c 0023     		movs	r3, #0
 126              	.L4:
 127              		.loc 1 113 0 discriminator 4
 128 008e D218     		adds	r2, r2, r3
 129 0090 3B68     		ldr	r3, [r7]
 130 0092 5A60     		str	r2, [r3, #4]
 114:Generated_Source\PSoC4/cy_em_eeprom.c ****             context->wlEndAddr = ((CY_EM_EEPROM_GET_EEPROM_SIZE(context->numberOfRows) * config->we
 131              		.loc 1 114 0 is_stmt 1 discriminator 4
 132 0094 3B68     		ldr	r3, [r7]
 133 0096 5A68     		ldr	r2, [r3, #4]
 134 0098 7B68     		ldr	r3, [r7, #4]
 135 009a 5B68     		ldr	r3, [r3, #4]
 136 009c 5343     		muls	r3, r2
 137 009e 1A02     		lsls	r2, r3, #8
 115:Generated_Source\PSoC4/cy_em_eeprom.c ****                     config->userFlashStartAddr);
 138              		.loc 1 115 0 discriminator 4
 139 00a0 7B68     		ldr	r3, [r7, #4]
 140 00a2 DB68     		ldr	r3, [r3, #12]
 114:Generated_Source\PSoC4/cy_em_eeprom.c ****             context->wlEndAddr = ((CY_EM_EEPROM_GET_EEPROM_SIZE(context->numberOfRows) * config->we
 141              		.loc 1 114 0 discriminator 4
 142 00a4 D218     		adds	r2, r2, r3
 143 00a6 3B68     		ldr	r3, [r7]
 144 00a8 1A60     		str	r2, [r3]
 116:Generated_Source\PSoC4/cy_em_eeprom.c ****             /* Find last written EEPROM row and store it for quick access */
 117:Generated_Source\PSoC4/cy_em_eeprom.c ****             FindLastWrittenRow(&context->lastWrRowAddr, context);
 145              		.loc 1 117 0 discriminator 4
 146 00aa 3B68     		ldr	r3, [r7]
 147 00ac 0833     		adds	r3, r3, #8
 148 00ae 3A68     		ldr	r2, [r7]
 149 00b0 1100     		movs	r1, r2
 150 00b2 1800     		movs	r0, r3
 151 00b4 FFF7FEFF 		bl	FindLastWrittenRow
 118:Generated_Source\PSoC4/cy_em_eeprom.c **** 
 119:Generated_Source\PSoC4/cy_em_eeprom.c ****             if((0u == CY_EM_EEPROM_GET_SEQ_NUM(context->lastWrRowAddr)) && (0u != context->redundan
 152              		.loc 1 119 0 discriminator 4
 153 00b8 3B68     		ldr	r3, [r7]
 154 00ba 9B68     		ldr	r3, [r3, #8]
 155 00bc 1B68     		ldr	r3, [r3]
 156 00be 002B     		cmp	r3, #0
 157 00c0 12D1     		bne	.L2
 158              		.loc 1 119 0 is_stmt 0 discriminator 1
 159 00c2 3B68     		ldr	r3, [r7]
 160 00c4 1B7D     		ldrb	r3, [r3, #20]
 161 00c6 002B     		cmp	r3, #0
 162 00c8 0ED0     		beq	.L2
 120:Generated_Source\PSoC4/cy_em_eeprom.c ****             {
 121:Generated_Source\PSoC4/cy_em_eeprom.c ****                 /* Call the function only after device reprogramming in case
ARM GAS  C:\Users\HPz420\AppData\Local\Temp\ccEPczKG.s 			page 6


 122:Generated_Source\PSoC4/cy_em_eeprom.c ****                 * if redundant copy is enabled.
 123:Generated_Source\PSoC4/cy_em_eeprom.c ****                 */
 124:Generated_Source\PSoC4/cy_em_eeprom.c ****                 ret = FillChecksum(context);
 163              		.loc 1 124 0 is_stmt 1
 164 00ca 0F23     		movs	r3, #15
 165 00cc FC18     		adds	r4, r7, r3
 166 00ce 3B68     		ldr	r3, [r7]
 167 00d0 1800     		movs	r0, r3
 168 00d2 FFF7FEFF 		bl	FillChecksum
 169 00d6 0300     		movs	r3, r0
 170 00d8 2370     		strb	r3, [r4]
 125:Generated_Source\PSoC4/cy_em_eeprom.c ****                 
 126:Generated_Source\PSoC4/cy_em_eeprom.c ****                 /* Update the last written EEPROM row for Cy_Em_EEPROM_NumWrites() */
 127:Generated_Source\PSoC4/cy_em_eeprom.c ****                 FindLastWrittenRow(&context->lastWrRowAddr, context);
 171              		.loc 1 127 0
 172 00da 3B68     		ldr	r3, [r7]
 173 00dc 0833     		adds	r3, r3, #8
 174 00de 3A68     		ldr	r2, [r7]
 175 00e0 1100     		movs	r1, r2
 176 00e2 1800     		movs	r0, r3
 177 00e4 FFF7FEFF 		bl	FindLastWrittenRow
 178              	.L2:
 128:Generated_Source\PSoC4/cy_em_eeprom.c ****             }
 129:Generated_Source\PSoC4/cy_em_eeprom.c ****         }
 130:Generated_Source\PSoC4/cy_em_eeprom.c ****     }
 131:Generated_Source\PSoC4/cy_em_eeprom.c **** 
 132:Generated_Source\PSoC4/cy_em_eeprom.c ****     return(ret);
 179              		.loc 1 132 0
 180 00e8 0F23     		movs	r3, #15
 181 00ea FB18     		adds	r3, r7, r3
 182 00ec 1B78     		ldrb	r3, [r3]
 133:Generated_Source\PSoC4/cy_em_eeprom.c **** }
 183              		.loc 1 133 0
 184 00ee 1800     		movs	r0, r3
 185 00f0 BD46     		mov	sp, r7
 186 00f2 05B0     		add	sp, sp, #20
 187              		@ sp needed
 188 00f4 90BD     		pop	{r4, r7, pc}
 189              		.cfi_endproc
 190              	.LFE1:
 191              		.size	Cy_Em_EEPROM_Init, .-Cy_Em_EEPROM_Init
 192              		.global	__aeabi_uidiv
 193 00f6 C046     		.section	.text.Cy_Em_EEPROM_Read,"ax",%progbits
 194              		.align	2
 195              		.global	Cy_Em_EEPROM_Read
 196              		.code	16
 197              		.thumb_func
 198              		.type	Cy_Em_EEPROM_Read, %function
 199              	Cy_Em_EEPROM_Read:
 200              	.LFB2:
 134:Generated_Source\PSoC4/cy_em_eeprom.c **** 
 135:Generated_Source\PSoC4/cy_em_eeprom.c **** 
 136:Generated_Source\PSoC4/cy_em_eeprom.c **** /*******************************************************************************
 137:Generated_Source\PSoC4/cy_em_eeprom.c **** * Function Name: Cy_Em_EEPROM_Read
 138:Generated_Source\PSoC4/cy_em_eeprom.c **** ****************************************************************************//**
 139:Generated_Source\PSoC4/cy_em_eeprom.c **** *
 140:Generated_Source\PSoC4/cy_em_eeprom.c **** * This function takes the logical EEPROM address, converts it to the actual
ARM GAS  C:\Users\HPz420\AppData\Local\Temp\ccEPczKG.s 			page 7


 141:Generated_Source\PSoC4/cy_em_eeprom.c **** * physical address where the data is stored and returns the data to the user.
 142:Generated_Source\PSoC4/cy_em_eeprom.c **** *
 143:Generated_Source\PSoC4/cy_em_eeprom.c **** * \param addr
 144:Generated_Source\PSoC4/cy_em_eeprom.c **** * The logical start address in EEPROM to start reading data from.
 145:Generated_Source\PSoC4/cy_em_eeprom.c **** *
 146:Generated_Source\PSoC4/cy_em_eeprom.c **** * \param eepromData
 147:Generated_Source\PSoC4/cy_em_eeprom.c **** * The pointer to a user array to write data to.
 148:Generated_Source\PSoC4/cy_em_eeprom.c **** *
 149:Generated_Source\PSoC4/cy_em_eeprom.c **** * \param size
 150:Generated_Source\PSoC4/cy_em_eeprom.c **** * The amount of data to read.
 151:Generated_Source\PSoC4/cy_em_eeprom.c **** *
 152:Generated_Source\PSoC4/cy_em_eeprom.c **** * \param context
 153:Generated_Source\PSoC4/cy_em_eeprom.c **** * The pointer to the EEPROM context structure \ref cy_stc_eeprom_context_t.
 154:Generated_Source\PSoC4/cy_em_eeprom.c **** *
 155:Generated_Source\PSoC4/cy_em_eeprom.c **** * \return
 156:Generated_Source\PSoC4/cy_em_eeprom.c **** * This function returns \ref cy_en_em_eeprom_status_t.
 157:Generated_Source\PSoC4/cy_em_eeprom.c **** *
 158:Generated_Source\PSoC4/cy_em_eeprom.c **** * \note
 159:Generated_Source\PSoC4/cy_em_eeprom.c **** * This function uses a buffer of the flash row size to perform read
 160:Generated_Source\PSoC4/cy_em_eeprom.c **** * operation. For the size of the row refer to the specific PSoC device
 161:Generated_Source\PSoC4/cy_em_eeprom.c **** * datasheet.
 162:Generated_Source\PSoC4/cy_em_eeprom.c **** *
 163:Generated_Source\PSoC4/cy_em_eeprom.c **** * \note
 164:Generated_Source\PSoC4/cy_em_eeprom.c **** * In case if redundant copy option is enabled the function may perform writes
 165:Generated_Source\PSoC4/cy_em_eeprom.c **** * to EEPROM. This is done in case if the data in the EEPPROM is corrupted and
 166:Generated_Source\PSoC4/cy_em_eeprom.c **** * the data in redundant copy is valid based on CRC-8 data integrity check.
 167:Generated_Source\PSoC4/cy_em_eeprom.c **** *
 168:Generated_Source\PSoC4/cy_em_eeprom.c **** *******************************************************************************/
 169:Generated_Source\PSoC4/cy_em_eeprom.c **** cy_en_em_eeprom_status_t Cy_Em_EEPROM_Read(uint32 addr, 
 170:Generated_Source\PSoC4/cy_em_eeprom.c ****                                         void * eepromData, 
 171:Generated_Source\PSoC4/cy_em_eeprom.c ****                                         uint32 size,
 172:Generated_Source\PSoC4/cy_em_eeprom.c ****                                         cy_stc_eeprom_context_t * context)
 173:Generated_Source\PSoC4/cy_em_eeprom.c **** {
 201              		.loc 1 173 0
 202              		.cfi_startproc
 203              		@ args = 0, pretend = 0, frame = 96
 204              		@ frame_needed = 1, uses_anonymous_args = 0
 205 0000 B0B5     		push	{r4, r5, r7, lr}
 206              		.cfi_def_cfa_offset 16
 207              		.cfi_offset 4, -16
 208              		.cfi_offset 5, -12
 209              		.cfi_offset 7, -8
 210              		.cfi_offset 14, -4
 211 0002 9AB0     		sub	sp, sp, #104
 212              		.cfi_def_cfa_offset 120
 213 0004 02AF     		add	r7, sp, #8
 214              		.cfi_def_cfa 7, 112
 215 0006 F860     		str	r0, [r7, #12]
 216 0008 B960     		str	r1, [r7, #8]
 217 000a 7A60     		str	r2, [r7, #4]
 218 000c 3B60     		str	r3, [r7]
 174:Generated_Source\PSoC4/cy_em_eeprom.c ****     cy_en_em_eeprom_status_t ret = CY_EM_EEPROM_BAD_PARAM;
 219              		.loc 1 174 0
 220 000e 5F23     		movs	r3, #95
 221 0010 FB18     		adds	r3, r7, r3
 222 0012 0122     		movs	r2, #1
 223 0014 1A70     		strb	r2, [r3]
ARM GAS  C:\Users\HPz420\AppData\Local\Temp\ccEPczKG.s 			page 8


 175:Generated_Source\PSoC4/cy_em_eeprom.c ****     uint32 i;
 176:Generated_Source\PSoC4/cy_em_eeprom.c ****     uint32 numBytesToRead;
 177:Generated_Source\PSoC4/cy_em_eeprom.c ****     uint32 curEepromBaseAddr;
 178:Generated_Source\PSoC4/cy_em_eeprom.c ****     uint32 curRowOffset;
 179:Generated_Source\PSoC4/cy_em_eeprom.c ****     uint32 startRowAddr;
 180:Generated_Source\PSoC4/cy_em_eeprom.c ****     uint32 actEepromRowNum;
 181:Generated_Source\PSoC4/cy_em_eeprom.c ****     uint32 curRdEepromRowNum = 0u;
 224              		.loc 1 181 0
 225 0016 0023     		movs	r3, #0
 226 0018 FB64     		str	r3, [r7, #76]
 182:Generated_Source\PSoC4/cy_em_eeprom.c ****     uint32 dataStartEepromRowNum = 0u;
 227              		.loc 1 182 0
 228 001a 0023     		movs	r3, #0
 229 001c BB64     		str	r3, [r7, #72]
 183:Generated_Source\PSoC4/cy_em_eeprom.c ****     uint32 eeData = (uint32) eepromData; /* To avoid the pointer arithmetic with void */
 230              		.loc 1 183 0
 231 001e BB68     		ldr	r3, [r7, #8]
 232 0020 7B64     		str	r3, [r7, #68]
 184:Generated_Source\PSoC4/cy_em_eeprom.c **** 
 185:Generated_Source\PSoC4/cy_em_eeprom.c ****     /* Validate input parameters */
 186:Generated_Source\PSoC4/cy_em_eeprom.c ****     if((0u != size) && ((addr + size) <= (context->eepromSize)) && (NULL != eepromData))
 233              		.loc 1 186 0
 234 0022 7B68     		ldr	r3, [r7, #4]
 235 0024 002B     		cmp	r3, #0
 236 0026 00D1     		bne	.LCB175
 237 0028 78E1     		b	.L7	@long jump
 238              	.LCB175:
 239              		.loc 1 186 0 is_stmt 0 discriminator 1
 240 002a FA68     		ldr	r2, [r7, #12]
 241 002c 7B68     		ldr	r3, [r7, #4]
 242 002e D218     		adds	r2, r2, r3
 243 0030 3B68     		ldr	r3, [r7]
 244 0032 DB68     		ldr	r3, [r3, #12]
 245 0034 9A42     		cmp	r2, r3
 246 0036 00D9     		bls	.LCB182
 247 0038 70E1     		b	.L7	@long jump
 248              	.LCB182:
 249              		.loc 1 186 0 discriminator 2
 250 003a BB68     		ldr	r3, [r7, #8]
 251 003c 002B     		cmp	r3, #0
 252 003e 00D1     		bne	.LCB185
 253 0040 6CE1     		b	.L7	@long jump
 254              	.LCB185:
 255              	.LBB2:
 187:Generated_Source\PSoC4/cy_em_eeprom.c ****     {
 188:Generated_Source\PSoC4/cy_em_eeprom.c ****         uint32 rdAddr = addr;
 256              		.loc 1 188 0 is_stmt 1
 257 0042 FB68     		ldr	r3, [r7, #12]
 258 0044 3B64     		str	r3, [r7, #64]
 189:Generated_Source\PSoC4/cy_em_eeprom.c ****         uint32 rdSize = size;
 259              		.loc 1 189 0
 260 0046 7B68     		ldr	r3, [r7, #4]
 261 0048 FB63     		str	r3, [r7, #60]
 190:Generated_Source\PSoC4/cy_em_eeprom.c ****         /* Get the sequence number of the last written row */
 191:Generated_Source\PSoC4/cy_em_eeprom.c ****         uint32 seqNum = CY_EM_EEPROM_GET_SEQ_NUM(context->lastWrRowAddr);
 262              		.loc 1 191 0
 263 004a 3B68     		ldr	r3, [r7]
ARM GAS  C:\Users\HPz420\AppData\Local\Temp\ccEPczKG.s 			page 9


 264 004c 9B68     		ldr	r3, [r3, #8]
 265 004e 1B68     		ldr	r3, [r3]
 266 0050 7B63     		str	r3, [r7, #52]
 192:Generated_Source\PSoC4/cy_em_eeprom.c ****         uint32 updateAddrFlag = 0u;
 267              		.loc 1 192 0
 268 0052 0023     		movs	r3, #0
 269 0054 BB63     		str	r3, [r7, #56]
 193:Generated_Source\PSoC4/cy_em_eeprom.c **** 
 194:Generated_Source\PSoC4/cy_em_eeprom.c ****         /* Calculate the number of the row read operations. Currently this only concerns
 195:Generated_Source\PSoC4/cy_em_eeprom.c ****         * the reads from the EEPROM data locations.
 196:Generated_Source\PSoC4/cy_em_eeprom.c ****         */
 197:Generated_Source\PSoC4/cy_em_eeprom.c ****         uint32 numRowReads = ((((rdAddr + rdSize) - 1u) / CY_EM_EEPROM_EEPROM_DATA_LEN) -
 270              		.loc 1 197 0
 271 0056 3A6C     		ldr	r2, [r7, #64]
 272 0058 FB6B     		ldr	r3, [r7, #60]
 273 005a D318     		adds	r3, r2, r3
 274 005c 013B     		subs	r3, r3, #1
 275 005e DA09     		lsrs	r2, r3, #7
 198:Generated_Source\PSoC4/cy_em_eeprom.c ****                               (rdAddr / CY_EM_EEPROM_EEPROM_DATA_LEN)) + 1u;
 276              		.loc 1 198 0
 277 0060 3B6C     		ldr	r3, [r7, #64]
 278 0062 DB09     		lsrs	r3, r3, #7
 197:Generated_Source\PSoC4/cy_em_eeprom.c ****                               (rdAddr / CY_EM_EEPROM_EEPROM_DATA_LEN)) + 1u;
 279              		.loc 1 197 0
 280 0064 D31A     		subs	r3, r2, r3
 281 0066 0133     		adds	r3, r3, #1
 282 0068 3B63     		str	r3, [r7, #48]
 199:Generated_Source\PSoC4/cy_em_eeprom.c **** 
 200:Generated_Source\PSoC4/cy_em_eeprom.c ****         /* Get the address of the first row of the currently active EEPROM sector. If
 201:Generated_Source\PSoC4/cy_em_eeprom.c ****         * no wear leveling is used - the EEPROM has only one sector, so use the base
 202:Generated_Source\PSoC4/cy_em_eeprom.c ****         * addr stored in "context->userFlashStartAddr".
 203:Generated_Source\PSoC4/cy_em_eeprom.c ****         */
 204:Generated_Source\PSoC4/cy_em_eeprom.c ****         curEepromBaseAddr = (((context->lastWrRowAddr - context->userFlashStartAddr) /
 283              		.loc 1 204 0
 284 006a 3B68     		ldr	r3, [r7]
 285 006c 9A68     		ldr	r2, [r3, #8]
 286 006e 3B68     		ldr	r3, [r7]
 287 0070 9B69     		ldr	r3, [r3, #24]
 288 0072 D21A     		subs	r2, r2, r3
 205:Generated_Source\PSoC4/cy_em_eeprom.c ****                               (CY_EM_EEPROM_FLASH_SIZEOF_ROW * context->numberOfRows)) *
 289              		.loc 1 205 0
 290 0074 3B68     		ldr	r3, [r7]
 291 0076 5B68     		ldr	r3, [r3, #4]
 292 0078 1B02     		lsls	r3, r3, #8
 204:Generated_Source\PSoC4/cy_em_eeprom.c ****                               (CY_EM_EEPROM_FLASH_SIZEOF_ROW * context->numberOfRows)) *
 293              		.loc 1 204 0
 294 007a 1900     		movs	r1, r3
 295 007c 1000     		movs	r0, r2
 296 007e FFF7FEFF 		bl	__aeabi_uidiv
 297 0082 0300     		movs	r3, r0
 298 0084 1A00     		movs	r2, r3
 206:Generated_Source\PSoC4/cy_em_eeprom.c ****                               (CY_EM_EEPROM_FLASH_SIZEOF_ROW * context->numberOfRows)) +
 299              		.loc 1 206 0
 300 0086 3B68     		ldr	r3, [r7]
 301 0088 5B68     		ldr	r3, [r3, #4]
 205:Generated_Source\PSoC4/cy_em_eeprom.c ****                               (CY_EM_EEPROM_FLASH_SIZEOF_ROW * context->numberOfRows)) *
 302              		.loc 1 205 0
ARM GAS  C:\Users\HPz420\AppData\Local\Temp\ccEPczKG.s 			page 10


 303 008a 5343     		muls	r3, r2
 304 008c 1A02     		lsls	r2, r3, #8
 207:Generated_Source\PSoC4/cy_em_eeprom.c ****                                context->userFlashStartAddr;
 305              		.loc 1 207 0
 306 008e 3B68     		ldr	r3, [r7]
 307 0090 9B69     		ldr	r3, [r3, #24]
 204:Generated_Source\PSoC4/cy_em_eeprom.c ****                               (CY_EM_EEPROM_FLASH_SIZEOF_ROW * context->numberOfRows)) *
 308              		.loc 1 204 0
 309 0092 D318     		adds	r3, r2, r3
 310 0094 FB62     		str	r3, [r7, #44]
 208:Generated_Source\PSoC4/cy_em_eeprom.c **** 
 209:Generated_Source\PSoC4/cy_em_eeprom.c ****         /* Find the number of the row that contains the start address of the data */
 210:Generated_Source\PSoC4/cy_em_eeprom.c ****         for(i = 0u; i < context->numberOfRows; i++)
 311              		.loc 1 210 0
 312 0096 0023     		movs	r3, #0
 313 0098 BB65     		str	r3, [r7, #88]
 314 009a 18E0     		b	.L8
 315              	.L13:
 211:Generated_Source\PSoC4/cy_em_eeprom.c ****         {
 212:Generated_Source\PSoC4/cy_em_eeprom.c ****             if(0u != CY_EM_EEPROM_IS_ADDR_IN_ROW_RANGE(rdAddr, i))
 316              		.loc 1 212 0
 317 009c BB6D     		ldr	r3, [r7, #88]
 318 009e DA01     		lsls	r2, r3, #7
 319 00a0 3B6C     		ldr	r3, [r7, #64]
 320 00a2 9A42     		cmp	r2, r3
 321 00a4 08D8     		bhi	.L9
 322              		.loc 1 212 0 is_stmt 0 discriminator 1
 323 00a6 BB6D     		ldr	r3, [r7, #88]
 324 00a8 0133     		adds	r3, r3, #1
 325 00aa DB01     		lsls	r3, r3, #7
 326 00ac 5A1E     		subs	r2, r3, #1
 327 00ae 3B6C     		ldr	r3, [r7, #64]
 328 00b0 9A42     		cmp	r2, r3
 329 00b2 01D3     		bcc	.L9
 330              		.loc 1 212 0 discriminator 3
 331 00b4 0123     		movs	r3, #1
 332 00b6 00E0     		b	.L10
 333              	.L9:
 334              		.loc 1 212 0 discriminator 4
 335 00b8 0023     		movs	r3, #0
 336              	.L10:
 337              		.loc 1 212 0 discriminator 6
 338 00ba 002B     		cmp	r3, #0
 339 00bc 04D0     		beq	.L11
 213:Generated_Source\PSoC4/cy_em_eeprom.c ****             {
 214:Generated_Source\PSoC4/cy_em_eeprom.c ****                 dataStartEepromRowNum = i;
 340              		.loc 1 214 0 is_stmt 1
 341 00be BB6D     		ldr	r3, [r7, #88]
 342 00c0 BB64     		str	r3, [r7, #72]
 215:Generated_Source\PSoC4/cy_em_eeprom.c ****                 curRdEepromRowNum = dataStartEepromRowNum;
 343              		.loc 1 215 0
 344 00c2 BB6C     		ldr	r3, [r7, #72]
 345 00c4 FB64     		str	r3, [r7, #76]
 216:Generated_Source\PSoC4/cy_em_eeprom.c ****                 break;
 346              		.loc 1 216 0
 347 00c6 07E0     		b	.L12
 348              	.L11:
ARM GAS  C:\Users\HPz420\AppData\Local\Temp\ccEPczKG.s 			page 11


 210:Generated_Source\PSoC4/cy_em_eeprom.c ****         {
 349              		.loc 1 210 0 discriminator 2
 350 00c8 BB6D     		ldr	r3, [r7, #88]
 351 00ca 0133     		adds	r3, r3, #1
 352 00cc BB65     		str	r3, [r7, #88]
 353              	.L8:
 210:Generated_Source\PSoC4/cy_em_eeprom.c ****         {
 354              		.loc 1 210 0 is_stmt 0 discriminator 1
 355 00ce 3B68     		ldr	r3, [r7]
 356 00d0 5A68     		ldr	r2, [r3, #4]
 357 00d2 BB6D     		ldr	r3, [r7, #88]
 358 00d4 9A42     		cmp	r2, r3
 359 00d6 E1D8     		bhi	.L13
 360              	.L12:
 217:Generated_Source\PSoC4/cy_em_eeprom.c ****             }
 218:Generated_Source\PSoC4/cy_em_eeprom.c ****         }
 219:Generated_Source\PSoC4/cy_em_eeprom.c **** 
 220:Generated_Source\PSoC4/cy_em_eeprom.c ****         /* Find the row number of the last written row */
 221:Generated_Source\PSoC4/cy_em_eeprom.c ****         actEepromRowNum = (context->lastWrRowAddr - curEepromBaseAddr) / CY_EM_EEPROM_FLASH_SIZEOF_
 361              		.loc 1 221 0 is_stmt 1
 362 00d8 3B68     		ldr	r3, [r7]
 363 00da 9A68     		ldr	r2, [r3, #8]
 364 00dc FB6A     		ldr	r3, [r7, #44]
 365 00de D31A     		subs	r3, r2, r3
 366 00e0 1B0A     		lsrs	r3, r3, #8
 367 00e2 BB62     		str	r3, [r7, #40]
 222:Generated_Source\PSoC4/cy_em_eeprom.c **** 
 223:Generated_Source\PSoC4/cy_em_eeprom.c ****         /* Check if wear leveling is used */
 224:Generated_Source\PSoC4/cy_em_eeprom.c ****         if(context->wearLevelingFactor > 1u)
 368              		.loc 1 224 0
 369 00e4 3B68     		ldr	r3, [r7]
 370 00e6 1B69     		ldr	r3, [r3, #16]
 371 00e8 012B     		cmp	r3, #1
 372 00ea 12D9     		bls	.L14
 373              	.LBB3:
 225:Generated_Source\PSoC4/cy_em_eeprom.c ****         {
 226:Generated_Source\PSoC4/cy_em_eeprom.c ****             uint32 dataEndEepromRowNum = dataStartEepromRowNum + (numRowReads - 1u);
 374              		.loc 1 226 0
 375 00ec 3A6B     		ldr	r2, [r7, #48]
 376 00ee BB6C     		ldr	r3, [r7, #72]
 377 00f0 D318     		adds	r3, r2, r3
 378 00f2 013B     		subs	r3, r3, #1
 379 00f4 7B62     		str	r3, [r7, #36]
 227:Generated_Source\PSoC4/cy_em_eeprom.c **** 
 228:Generated_Source\PSoC4/cy_em_eeprom.c ****             /* Check if the future validation of the read address is required. */
 229:Generated_Source\PSoC4/cy_em_eeprom.c ****             updateAddrFlag = (dataStartEepromRowNum > actEepromRowNum) ? 1u :
 380              		.loc 1 229 0
 381 00f6 BA6C     		ldr	r2, [r7, #72]
 382 00f8 BB6A     		ldr	r3, [r7, #40]
 383 00fa 9A42     		cmp	r2, r3
 384 00fc 07D8     		bhi	.L15
 385              		.loc 1 229 0 is_stmt 0 discriminator 1
 386 00fe 7A6A     		ldr	r2, [r7, #36]
 387 0100 BB6A     		ldr	r3, [r7, #40]
 388 0102 9A42     		cmp	r2, r3
 389 0104 01D9     		bls	.L16
 390              		.loc 1 229 0 discriminator 3
ARM GAS  C:\Users\HPz420\AppData\Local\Temp\ccEPczKG.s 			page 12


 391 0106 0123     		movs	r3, #1
 392 0108 02E0     		b	.L18
 393              	.L16:
 394              		.loc 1 229 0 discriminator 4
 395 010a 0023     		movs	r3, #0
 396 010c 00E0     		b	.L18
 397              	.L15:
 398              		.loc 1 229 0 discriminator 2
 399 010e 0123     		movs	r3, #1
 400              	.L18:
 401              		.loc 1 229 0 discriminator 8
 402 0110 BB63     		str	r3, [r7, #56]
 403              	.L14:
 404              	.LBE3:
 230:Generated_Source\PSoC4/cy_em_eeprom.c ****                               ((dataEndEepromRowNum > actEepromRowNum) ? 1u : 0u);
 231:Generated_Source\PSoC4/cy_em_eeprom.c ****         }
 232:Generated_Source\PSoC4/cy_em_eeprom.c **** 
 233:Generated_Source\PSoC4/cy_em_eeprom.c ****         /* Copy data from the EEPROM data locations to the user buffer */
 234:Generated_Source\PSoC4/cy_em_eeprom.c ****         for(i = 0u; i < numRowReads; i++)
 405              		.loc 1 234 0 is_stmt 1
 406 0112 0023     		movs	r3, #0
 407 0114 BB65     		str	r3, [r7, #88]
 408 0116 68E0     		b	.L19
 409              	.L26:
 235:Generated_Source\PSoC4/cy_em_eeprom.c ****         {
 236:Generated_Source\PSoC4/cy_em_eeprom.c ****             startRowAddr = curEepromBaseAddr + (curRdEepromRowNum * CY_EM_EEPROM_FLASH_SIZEOF_ROW);
 410              		.loc 1 236 0
 411 0118 FB6C     		ldr	r3, [r7, #76]
 412 011a 1A02     		lsls	r2, r3, #8
 413 011c FB6A     		ldr	r3, [r7, #44]
 414 011e D318     		adds	r3, r2, r3
 415 0120 3B65     		str	r3, [r7, #80]
 237:Generated_Source\PSoC4/cy_em_eeprom.c ****             curRowOffset = CY_EM_EEPROM_EEPROM_DATA_LEN + (rdAddr % CY_EM_EEPROM_EEPROM_DATA_LEN);
 416              		.loc 1 237 0
 417 0122 3B6C     		ldr	r3, [r7, #64]
 418 0124 7F22     		movs	r2, #127
 419 0126 1340     		ands	r3, r2
 420 0128 8033     		adds	r3, r3, #128
 421 012a 3B62     		str	r3, [r7, #32]
 238:Generated_Source\PSoC4/cy_em_eeprom.c **** 
 239:Generated_Source\PSoC4/cy_em_eeprom.c ****             /* Check if there are more reads pending and update the number of the
 240:Generated_Source\PSoC4/cy_em_eeprom.c ****             * remaining bytes to read respectively.
 241:Generated_Source\PSoC4/cy_em_eeprom.c ****             */
 242:Generated_Source\PSoC4/cy_em_eeprom.c ****             if((i + 1u) < numRowReads)
 422              		.loc 1 242 0
 423 012c BB6D     		ldr	r3, [r7, #88]
 424 012e 5A1C     		adds	r2, r3, #1
 425 0130 3B6B     		ldr	r3, [r7, #48]
 426 0132 9A42     		cmp	r2, r3
 427 0134 06D2     		bcs	.L20
 243:Generated_Source\PSoC4/cy_em_eeprom.c ****             {
 244:Generated_Source\PSoC4/cy_em_eeprom.c ****                 numBytesToRead = CY_EM_EEPROM_EEPROM_DATA_LEN - (rdAddr % CY_EM_EEPROM_EEPROM_DATA_
 428              		.loc 1 244 0
 429 0136 3B6C     		ldr	r3, [r7, #64]
 430 0138 7F22     		movs	r2, #127
 431 013a 1340     		ands	r3, r2
 432 013c 8022     		movs	r2, #128
ARM GAS  C:\Users\HPz420\AppData\Local\Temp\ccEPczKG.s 			page 13


 433 013e D31A     		subs	r3, r2, r3
 434 0140 7B65     		str	r3, [r7, #84]
 435 0142 01E0     		b	.L21
 436              	.L20:
 245:Generated_Source\PSoC4/cy_em_eeprom.c ****             }
 246:Generated_Source\PSoC4/cy_em_eeprom.c ****             else
 247:Generated_Source\PSoC4/cy_em_eeprom.c ****             {
 248:Generated_Source\PSoC4/cy_em_eeprom.c ****                 numBytesToRead = rdSize;
 437              		.loc 1 248 0
 438 0144 FB6B     		ldr	r3, [r7, #60]
 439 0146 7B65     		str	r3, [r7, #84]
 440              	.L21:
 249:Generated_Source\PSoC4/cy_em_eeprom.c ****             }
 250:Generated_Source\PSoC4/cy_em_eeprom.c **** 
 251:Generated_Source\PSoC4/cy_em_eeprom.c ****             /* Check if the read address needs to be updated to point to the correct
 252:Generated_Source\PSoC4/cy_em_eeprom.c ****             * EEPROM sector.
 253:Generated_Source\PSoC4/cy_em_eeprom.c ****             */
 254:Generated_Source\PSoC4/cy_em_eeprom.c ****             if((0u != updateAddrFlag) && (curRdEepromRowNum > actEepromRowNum))
 441              		.loc 1 254 0
 442 0148 BB6B     		ldr	r3, [r7, #56]
 443 014a 002B     		cmp	r3, #0
 444 014c 17D0     		beq	.L22
 445              		.loc 1 254 0 is_stmt 0 discriminator 1
 446 014e FA6C     		ldr	r2, [r7, #76]
 447 0150 BB6A     		ldr	r3, [r7, #40]
 448 0152 9A42     		cmp	r2, r3
 449 0154 13D9     		bls	.L22
 255:Generated_Source\PSoC4/cy_em_eeprom.c ****             {
 256:Generated_Source\PSoC4/cy_em_eeprom.c ****                 startRowAddr -= context->numberOfRows * CY_EM_EEPROM_FLASH_SIZEOF_ROW;
 450              		.loc 1 256 0 is_stmt 1
 451 0156 3B68     		ldr	r3, [r7]
 452 0158 5B68     		ldr	r3, [r3, #4]
 453 015a 1B02     		lsls	r3, r3, #8
 454 015c 3A6D     		ldr	r2, [r7, #80]
 455 015e D31A     		subs	r3, r2, r3
 456 0160 3B65     		str	r3, [r7, #80]
 257:Generated_Source\PSoC4/cy_em_eeprom.c **** 
 258:Generated_Source\PSoC4/cy_em_eeprom.c ****                 if(startRowAddr < context->userFlashStartAddr)
 457              		.loc 1 258 0
 458 0162 3B68     		ldr	r3, [r7]
 459 0164 9A69     		ldr	r2, [r3, #24]
 460 0166 3B6D     		ldr	r3, [r7, #80]
 461 0168 9A42     		cmp	r2, r3
 462 016a 08D9     		bls	.L22
 259:Generated_Source\PSoC4/cy_em_eeprom.c ****                 {
 260:Generated_Source\PSoC4/cy_em_eeprom.c ****                     startRowAddr = context->wlEndAddr -
 463              		.loc 1 260 0
 464 016c 3B68     		ldr	r3, [r7]
 465 016e 1A68     		ldr	r2, [r3]
 261:Generated_Source\PSoC4/cy_em_eeprom.c ****                         ((context->numberOfRows - curRdEepromRowNum) * CY_EM_EEPROM_FLASH_SIZEOF_RO
 466              		.loc 1 261 0
 467 0170 3B68     		ldr	r3, [r7]
 468 0172 5968     		ldr	r1, [r3, #4]
 469 0174 FB6C     		ldr	r3, [r7, #76]
 470 0176 CB1A     		subs	r3, r1, r3
 471 0178 1B02     		lsls	r3, r3, #8
 260:Generated_Source\PSoC4/cy_em_eeprom.c ****                         ((context->numberOfRows - curRdEepromRowNum) * CY_EM_EEPROM_FLASH_SIZEOF_RO
ARM GAS  C:\Users\HPz420\AppData\Local\Temp\ccEPczKG.s 			page 14


 472              		.loc 1 260 0
 473 017a D31A     		subs	r3, r2, r3
 474 017c 3B65     		str	r3, [r7, #80]
 475              	.L22:
 262:Generated_Source\PSoC4/cy_em_eeprom.c ****                 }
 263:Generated_Source\PSoC4/cy_em_eeprom.c ****             }
 264:Generated_Source\PSoC4/cy_em_eeprom.c **** 
 265:Generated_Source\PSoC4/cy_em_eeprom.c ****             if(0u != context->redundantCopy)
 476              		.loc 1 265 0
 477 017e 3B68     		ldr	r3, [r7]
 478 0180 1B7D     		ldrb	r3, [r3, #20]
 479 0182 002B     		cmp	r3, #0
 480 0184 12D0     		beq	.L23
 266:Generated_Source\PSoC4/cy_em_eeprom.c ****             {
 267:Generated_Source\PSoC4/cy_em_eeprom.c ****                 /* Check a checksum of the EEPROM row and if it is bad, check a checksum in
 268:Generated_Source\PSoC4/cy_em_eeprom.c ****                 * the corresponding row in redundant copy, otherwise return failure.
 269:Generated_Source\PSoC4/cy_em_eeprom.c ****                 */
 270:Generated_Source\PSoC4/cy_em_eeprom.c ****                 ret = CheckCrcAndCopy(startRowAddr, eeData, curRowOffset, numBytesToRead, context);
 481              		.loc 1 270 0
 482 0186 5F23     		movs	r3, #95
 483 0188 FC18     		adds	r4, r7, r3
 484 018a 7D6D     		ldr	r5, [r7, #84]
 485 018c 3A6A     		ldr	r2, [r7, #32]
 486 018e 796C     		ldr	r1, [r7, #68]
 487 0190 386D     		ldr	r0, [r7, #80]
 488 0192 3B68     		ldr	r3, [r7]
 489 0194 0093     		str	r3, [sp]
 490 0196 2B00     		movs	r3, r5
 491 0198 FFF7FEFF 		bl	CheckCrcAndCopy
 492 019c 0300     		movs	r3, r0
 493 019e 2370     		strb	r3, [r4]
 271:Generated_Source\PSoC4/cy_em_eeprom.c **** 
 272:Generated_Source\PSoC4/cy_em_eeprom.c ****                 if(CY_EM_EEPROM_SUCCESS != ret)
 494              		.loc 1 272 0
 495 01a0 5F23     		movs	r3, #95
 496 01a2 FB18     		adds	r3, r7, r3
 497 01a4 1B78     		ldrb	r3, [r3]
 498 01a6 002B     		cmp	r3, #0
 499 01a8 0DD0     		beq	.L24
 273:Generated_Source\PSoC4/cy_em_eeprom.c ****                 {
 274:Generated_Source\PSoC4/cy_em_eeprom.c ****                     break;
 500              		.loc 1 274 0
 501 01aa 22E0     		b	.L25
 502              	.L23:
 275:Generated_Source\PSoC4/cy_em_eeprom.c ****                 }
 276:Generated_Source\PSoC4/cy_em_eeprom.c ****             }
 277:Generated_Source\PSoC4/cy_em_eeprom.c ****             else
 278:Generated_Source\PSoC4/cy_em_eeprom.c ****             {
 279:Generated_Source\PSoC4/cy_em_eeprom.c ****                 /* Copy the data to the user buffer */
 280:Generated_Source\PSoC4/cy_em_eeprom.c ****                 (void)memcpy((void *)(eeData),
 503              		.loc 1 280 0
 504 01ac 786C     		ldr	r0, [r7, #68]
 281:Generated_Source\PSoC4/cy_em_eeprom.c ****                              (void *)(startRowAddr + curRowOffset),
 505              		.loc 1 281 0
 506 01ae 3A6D     		ldr	r2, [r7, #80]
 507 01b0 3B6A     		ldr	r3, [r7, #32]
 508 01b2 D318     		adds	r3, r2, r3
ARM GAS  C:\Users\HPz420\AppData\Local\Temp\ccEPczKG.s 			page 15


 280:Generated_Source\PSoC4/cy_em_eeprom.c ****                              (void *)(startRowAddr + curRowOffset),
 509              		.loc 1 280 0
 510 01b4 1900     		movs	r1, r3
 511 01b6 7B6D     		ldr	r3, [r7, #84]
 512 01b8 1A00     		movs	r2, r3
 513 01ba FFF7FEFF 		bl	memcpy
 282:Generated_Source\PSoC4/cy_em_eeprom.c ****                              numBytesToRead);
 283:Generated_Source\PSoC4/cy_em_eeprom.c **** 
 284:Generated_Source\PSoC4/cy_em_eeprom.c ****                 /* Indicate success to be able to execute next code block */
 285:Generated_Source\PSoC4/cy_em_eeprom.c ****                 ret = CY_EM_EEPROM_SUCCESS;
 514              		.loc 1 285 0
 515 01be 5F23     		movs	r3, #95
 516 01c0 FB18     		adds	r3, r7, r3
 517 01c2 0022     		movs	r2, #0
 518 01c4 1A70     		strb	r2, [r3]
 519              	.L24:
 286:Generated_Source\PSoC4/cy_em_eeprom.c ****             }
 287:Generated_Source\PSoC4/cy_em_eeprom.c **** 
 288:Generated_Source\PSoC4/cy_em_eeprom.c ****             /* Update variables anticipated in the read operation */
 289:Generated_Source\PSoC4/cy_em_eeprom.c ****             rdAddr += numBytesToRead;
 520              		.loc 1 289 0 discriminator 2
 521 01c6 3A6C     		ldr	r2, [r7, #64]
 522 01c8 7B6D     		ldr	r3, [r7, #84]
 523 01ca D318     		adds	r3, r2, r3
 524 01cc 3B64     		str	r3, [r7, #64]
 290:Generated_Source\PSoC4/cy_em_eeprom.c ****             rdSize -= numBytesToRead;
 525              		.loc 1 290 0 discriminator 2
 526 01ce FA6B     		ldr	r2, [r7, #60]
 527 01d0 7B6D     		ldr	r3, [r7, #84]
 528 01d2 D31A     		subs	r3, r2, r3
 529 01d4 FB63     		str	r3, [r7, #60]
 291:Generated_Source\PSoC4/cy_em_eeprom.c ****             eeData += numBytesToRead;
 530              		.loc 1 291 0 discriminator 2
 531 01d6 7A6C     		ldr	r2, [r7, #68]
 532 01d8 7B6D     		ldr	r3, [r7, #84]
 533 01da D318     		adds	r3, r2, r3
 534 01dc 7B64     		str	r3, [r7, #68]
 292:Generated_Source\PSoC4/cy_em_eeprom.c ****             curRdEepromRowNum++;
 535              		.loc 1 292 0 discriminator 2
 536 01de FB6C     		ldr	r3, [r7, #76]
 537 01e0 0133     		adds	r3, r3, #1
 538 01e2 FB64     		str	r3, [r7, #76]
 234:Generated_Source\PSoC4/cy_em_eeprom.c ****         {
 539              		.loc 1 234 0 discriminator 2
 540 01e4 BB6D     		ldr	r3, [r7, #88]
 541 01e6 0133     		adds	r3, r3, #1
 542 01e8 BB65     		str	r3, [r7, #88]
 543              	.L19:
 234:Generated_Source\PSoC4/cy_em_eeprom.c ****         {
 544              		.loc 1 234 0 is_stmt 0 discriminator 1
 545 01ea BA6D     		ldr	r2, [r7, #88]
 546 01ec 3B6B     		ldr	r3, [r7, #48]
 547 01ee 9A42     		cmp	r2, r3
 548 01f0 92D3     		bcc	.L26
 549              	.L25:
 293:Generated_Source\PSoC4/cy_em_eeprom.c ****         }
 294:Generated_Source\PSoC4/cy_em_eeprom.c **** 
ARM GAS  C:\Users\HPz420\AppData\Local\Temp\ccEPczKG.s 			page 16


 295:Generated_Source\PSoC4/cy_em_eeprom.c ****         /* This code block will copy the latest data from the EEPROM headers into the
 296:Generated_Source\PSoC4/cy_em_eeprom.c ****         * user buffer. The data previously copied into the user buffer may be updated
 297:Generated_Source\PSoC4/cy_em_eeprom.c ****         * as the EEPROM headers contain more recent data. 
 298:Generated_Source\PSoC4/cy_em_eeprom.c ****         * The code block is executed when two following conditions are true:
 299:Generated_Source\PSoC4/cy_em_eeprom.c ****         *  1) The reads from "historic" data locations were successful;
 300:Generated_Source\PSoC4/cy_em_eeprom.c ****         *  2) The user performed at least one write operation to Em_EEPROM (0u !=
 301:Generated_Source\PSoC4/cy_em_eeprom.c ****         *     seqNum).        
 302:Generated_Source\PSoC4/cy_em_eeprom.c ****         */
 303:Generated_Source\PSoC4/cy_em_eeprom.c ****         if((CY_EM_EEPROM_SUCCESS == ret) && (0u != seqNum))
 550              		.loc 1 303 0 is_stmt 1
 551 01f2 5F23     		movs	r3, #95
 552 01f4 FB18     		adds	r3, r7, r3
 553 01f6 1B78     		ldrb	r3, [r3]
 554 01f8 002B     		cmp	r3, #0
 555 01fa 00D0     		beq	.LCB448
 556 01fc 8EE0     		b	.L7	@long jump
 557              	.LCB448:
 558              		.loc 1 303 0 is_stmt 0 discriminator 1
 559 01fe 7B6B     		ldr	r3, [r7, #52]
 560 0200 002B     		cmp	r3, #0
 561 0202 00D1     		bne	.LCB451
 562 0204 8AE0     		b	.L7	@long jump
 563              	.LCB451:
 304:Generated_Source\PSoC4/cy_em_eeprom.c ****         {
 305:Generated_Source\PSoC4/cy_em_eeprom.c ****             numRowReads = (context->numberOfRows <= seqNum) ? (context->numberOfRows) : (seqNum);
 564              		.loc 1 305 0 is_stmt 1
 565 0206 3B68     		ldr	r3, [r7]
 566 0208 5B68     		ldr	r3, [r3, #4]
 567 020a 7A6B     		ldr	r2, [r7, #52]
 568 020c 9342     		cmp	r3, r2
 569 020e 00D9     		bls	.L27
 570 0210 1300     		movs	r3, r2
 571              	.L27:
 572 0212 3B63     		str	r3, [r7, #48]
 306:Generated_Source\PSoC4/cy_em_eeprom.c ****             numRowReads--;
 573              		.loc 1 306 0
 574 0214 3B6B     		ldr	r3, [r7, #48]
 575 0216 013B     		subs	r3, r3, #1
 576 0218 3B63     		str	r3, [r7, #48]
 307:Generated_Source\PSoC4/cy_em_eeprom.c **** 
 308:Generated_Source\PSoC4/cy_em_eeprom.c ****             for(i = (seqNum - numRowReads); i <= seqNum; i++)
 577              		.loc 1 308 0
 578 021a 7A6B     		ldr	r2, [r7, #52]
 579 021c 3B6B     		ldr	r3, [r7, #48]
 580 021e D31A     		subs	r3, r2, r3
 581 0220 BB65     		str	r3, [r7, #88]
 582 0222 77E0     		b	.L28
 583              	.L39:
 309:Generated_Source\PSoC4/cy_em_eeprom.c ****             {
 310:Generated_Source\PSoC4/cy_em_eeprom.c ****                 startRowAddr = GetRowAddrBySeqNum(i, context);
 584              		.loc 1 310 0
 585 0224 3A68     		ldr	r2, [r7]
 586 0226 BB6D     		ldr	r3, [r7, #88]
 587 0228 1100     		movs	r1, r2
 588 022a 1800     		movs	r0, r3
 589 022c FFF7FEFF 		bl	GetRowAddrBySeqNum
 590 0230 0300     		movs	r3, r0
ARM GAS  C:\Users\HPz420\AppData\Local\Temp\ccEPczKG.s 			page 17


 591 0232 3B65     		str	r3, [r7, #80]
 311:Generated_Source\PSoC4/cy_em_eeprom.c **** 
 312:Generated_Source\PSoC4/cy_em_eeprom.c ****                 if (0u != startRowAddr)
 592              		.loc 1 312 0
 593 0234 3B6D     		ldr	r3, [r7, #80]
 594 0236 002B     		cmp	r3, #0
 595 0238 69D0     		beq	.L29
 596              	.LBB4:
 313:Generated_Source\PSoC4/cy_em_eeprom.c ****                 {
 314:Generated_Source\PSoC4/cy_em_eeprom.c ****                     /* The following variables are introduced to increase code readability. */
 315:Generated_Source\PSoC4/cy_em_eeprom.c ****                     uint32 startAddr  = *(uint32 *)(startRowAddr + CY_EM_EEPROM_HEADER_ADDR_OFFSET)
 597              		.loc 1 315 0
 598 023a 3B6D     		ldr	r3, [r7, #80]
 599 023c 0433     		adds	r3, r3, #4
 600 023e 1B68     		ldr	r3, [r3]
 601 0240 FB61     		str	r3, [r7, #28]
 316:Generated_Source\PSoC4/cy_em_eeprom.c ****                     uint32 endAddr    = startAddr + (*(uint32 *)(startRowAddr + CY_EM_EEPROM_HEADER
 602              		.loc 1 316 0
 603 0242 3B6D     		ldr	r3, [r7, #80]
 604 0244 0833     		adds	r3, r3, #8
 605 0246 1A68     		ldr	r2, [r3]
 606 0248 FB69     		ldr	r3, [r7, #28]
 607 024a D318     		adds	r3, r2, r3
 608 024c BB61     		str	r3, [r7, #24]
 317:Generated_Source\PSoC4/cy_em_eeprom.c **** 
 318:Generated_Source\PSoC4/cy_em_eeprom.c ****                     /* Check if the current row EEPROM header contains the data requested for read 
 319:Generated_Source\PSoC4/cy_em_eeprom.c ****                     if(0u != CY_EM_EEPROM_IS_ADDRESES_CROSSING(startAddr, endAddr, addr, addr + siz
 609              		.loc 1 319 0
 610 024e FA69     		ldr	r2, [r7, #28]
 611 0250 FB68     		ldr	r3, [r7, #12]
 612 0252 9A42     		cmp	r2, r3
 613 0254 08D9     		bls	.L30
 614              		.loc 1 319 0 is_stmt 0 discriminator 1
 615 0256 FA68     		ldr	r2, [r7, #12]
 616 0258 7B68     		ldr	r3, [r7, #4]
 617 025a D318     		adds	r3, r2, r3
 618 025c FA69     		ldr	r2, [r7, #28]
 619 025e 9A42     		cmp	r2, r3
 620 0260 9B41     		sbcs	r3, r3, r3
 621 0262 5B42     		rsbs	r3, r3, #0
 622 0264 DBB2     		uxtb	r3, r3
 623 0266 05E0     		b	.L31
 624              	.L30:
 625              		.loc 1 319 0 discriminator 2
 626 0268 FA68     		ldr	r2, [r7, #12]
 627 026a BB69     		ldr	r3, [r7, #24]
 628 026c 9A42     		cmp	r2, r3
 629 026e 9B41     		sbcs	r3, r3, r3
 630 0270 5B42     		rsbs	r3, r3, #0
 631 0272 DBB2     		uxtb	r3, r3
 632              	.L31:
 633              		.loc 1 319 0 discriminator 4
 634 0274 002B     		cmp	r3, #0
 635 0276 4AD0     		beq	.L29
 636              	.LBB5:
 320:Generated_Source\PSoC4/cy_em_eeprom.c ****                     {
 321:Generated_Source\PSoC4/cy_em_eeprom.c ****                         uint32 srcOffset = (startAddr > addr) ? (0u) : (addr - startAddr);
ARM GAS  C:\Users\HPz420\AppData\Local\Temp\ccEPczKG.s 			page 18


 637              		.loc 1 321 0 is_stmt 1
 638 0278 FA69     		ldr	r2, [r7, #28]
 639 027a FB68     		ldr	r3, [r7, #12]
 640 027c 9A42     		cmp	r2, r3
 641 027e 03D8     		bhi	.L32
 642              		.loc 1 321 0 is_stmt 0 discriminator 1
 643 0280 FA68     		ldr	r2, [r7, #12]
 644 0282 FB69     		ldr	r3, [r7, #28]
 645 0284 D31A     		subs	r3, r2, r3
 646 0286 00E0     		b	.L33
 647              	.L32:
 648              		.loc 1 321 0 discriminator 2
 649 0288 0023     		movs	r3, #0
 650              	.L33:
 651              		.loc 1 321 0 discriminator 4
 652 028a 7B61     		str	r3, [r7, #20]
 322:Generated_Source\PSoC4/cy_em_eeprom.c ****                         uint32 dstOffset = (startAddr > addr) ? (startAddr - addr): (0u);
 653              		.loc 1 322 0 is_stmt 1 discriminator 4
 654 028c FA69     		ldr	r2, [r7, #28]
 655 028e FB68     		ldr	r3, [r7, #12]
 656 0290 9A42     		cmp	r2, r3
 657 0292 03D9     		bls	.L34
 658              		.loc 1 322 0 is_stmt 0 discriminator 1
 659 0294 FA69     		ldr	r2, [r7, #28]
 660 0296 FB68     		ldr	r3, [r7, #12]
 661 0298 D31A     		subs	r3, r2, r3
 662 029a 00E0     		b	.L35
 663              	.L34:
 664              		.loc 1 322 0 discriminator 2
 665 029c 0023     		movs	r3, #0
 666              	.L35:
 667              		.loc 1 322 0 discriminator 4
 668 029e 3B61     		str	r3, [r7, #16]
 323:Generated_Source\PSoC4/cy_em_eeprom.c ****                         rdAddr = (startAddr > addr) ? (startAddr) : (addr);
 669              		.loc 1 323 0 is_stmt 1 discriminator 4
 670 02a0 FA69     		ldr	r2, [r7, #28]
 671 02a2 FB68     		ldr	r3, [r7, #12]
 672 02a4 9342     		cmp	r3, r2
 673 02a6 00D2     		bcs	.L36
 674 02a8 1300     		movs	r3, r2
 675              	.L36:
 676 02aa 3B64     		str	r3, [r7, #64]
 324:Generated_Source\PSoC4/cy_em_eeprom.c **** 
 325:Generated_Source\PSoC4/cy_em_eeprom.c ****                         srcOffset += CY_EM_EEPROM_HEADER_DATA_OFFSET;
 677              		.loc 1 325 0 discriminator 4
 678 02ac 7B69     		ldr	r3, [r7, #20]
 679 02ae 0C33     		adds	r3, r3, #12
 680 02b0 7B61     		str	r3, [r7, #20]
 326:Generated_Source\PSoC4/cy_em_eeprom.c **** 
 327:Generated_Source\PSoC4/cy_em_eeprom.c ****                         /* Calculate the number of bytes to be read from the current row's EEPROM h
 328:Generated_Source\PSoC4/cy_em_eeprom.c ****                         numBytesToRead = ((endAddr < (addr + size)) ? endAddr : (addr + size)) - rd
 681              		.loc 1 328 0 discriminator 4
 682 02b2 FA68     		ldr	r2, [r7, #12]
 683 02b4 7B68     		ldr	r3, [r7, #4]
 684 02b6 D318     		adds	r3, r2, r3
 685 02b8 BA69     		ldr	r2, [r7, #24]
 686 02ba 9342     		cmp	r3, r2
ARM GAS  C:\Users\HPz420\AppData\Local\Temp\ccEPczKG.s 			page 19


 687 02bc 00D9     		bls	.L37
 688 02be 1300     		movs	r3, r2
 689              	.L37:
 690 02c0 3A6C     		ldr	r2, [r7, #64]
 691 02c2 9B1A     		subs	r3, r3, r2
 692 02c4 7B65     		str	r3, [r7, #84]
 329:Generated_Source\PSoC4/cy_em_eeprom.c **** 
 330:Generated_Source\PSoC4/cy_em_eeprom.c ****                         /* Calculate the offset in the user buffer from which the data will be upda
 331:Generated_Source\PSoC4/cy_em_eeprom.c ****                         eeData = ((uint32)eepromData) + dstOffset;
 693              		.loc 1 331 0 discriminator 4
 694 02c6 BA68     		ldr	r2, [r7, #8]
 695 02c8 3B69     		ldr	r3, [r7, #16]
 696 02ca D318     		adds	r3, r2, r3
 697 02cc 7B64     		str	r3, [r7, #68]
 332:Generated_Source\PSoC4/cy_em_eeprom.c **** 
 333:Generated_Source\PSoC4/cy_em_eeprom.c ****                         /* Check a checksum of the EEPROM row and if it is bad, check a checksum in
 334:Generated_Source\PSoC4/cy_em_eeprom.c ****                         * corresponding row in redundant copy, otherwise return failure. Copy the d
 335:Generated_Source\PSoC4/cy_em_eeprom.c ****                         * from the recent EEPROM headers to the user buffer. This will overwrite th
 336:Generated_Source\PSoC4/cy_em_eeprom.c ****                         * data copied form EEPROM data locations as the data in EEPROM headers is n
 337:Generated_Source\PSoC4/cy_em_eeprom.c ****                         */
 338:Generated_Source\PSoC4/cy_em_eeprom.c ****                         if(0u != context->redundantCopy)
 698              		.loc 1 338 0 discriminator 4
 699 02ce 3B68     		ldr	r3, [r7]
 700 02d0 1B7D     		ldrb	r3, [r3, #20]
 701 02d2 002B     		cmp	r3, #0
 702 02d4 12D0     		beq	.L38
 339:Generated_Source\PSoC4/cy_em_eeprom.c ****                         {
 340:Generated_Source\PSoC4/cy_em_eeprom.c ****                             ret = CheckCrcAndCopy(startRowAddr, eeData, srcOffset, numBytesToRead, 
 703              		.loc 1 340 0
 704 02d6 5F23     		movs	r3, #95
 705 02d8 FC18     		adds	r4, r7, r3
 706 02da 7D6D     		ldr	r5, [r7, #84]
 707 02dc 7A69     		ldr	r2, [r7, #20]
 708 02de 796C     		ldr	r1, [r7, #68]
 709 02e0 386D     		ldr	r0, [r7, #80]
 710 02e2 3B68     		ldr	r3, [r7]
 711 02e4 0093     		str	r3, [sp]
 712 02e6 2B00     		movs	r3, r5
 713 02e8 FFF7FEFF 		bl	CheckCrcAndCopy
 714 02ec 0300     		movs	r3, r0
 715 02ee 2370     		strb	r3, [r4]
 341:Generated_Source\PSoC4/cy_em_eeprom.c **** 
 342:Generated_Source\PSoC4/cy_em_eeprom.c ****                             if(CY_EM_EEPROM_SUCCESS != ret)
 716              		.loc 1 342 0
 717 02f0 5F23     		movs	r3, #95
 718 02f2 FB18     		adds	r3, r7, r3
 719 02f4 1B78     		ldrb	r3, [r3]
 720 02f6 002B     		cmp	r3, #0
 721 02f8 09D0     		beq	.L29
 343:Generated_Source\PSoC4/cy_em_eeprom.c ****                             {
 344:Generated_Source\PSoC4/cy_em_eeprom.c ****                                 break;
 722              		.loc 1 344 0
 723 02fa 0FE0     		b	.L7
 724              	.L38:
 345:Generated_Source\PSoC4/cy_em_eeprom.c ****                             }
 346:Generated_Source\PSoC4/cy_em_eeprom.c ****                         }
 347:Generated_Source\PSoC4/cy_em_eeprom.c ****                         else
ARM GAS  C:\Users\HPz420\AppData\Local\Temp\ccEPczKG.s 			page 20


 348:Generated_Source\PSoC4/cy_em_eeprom.c ****                         {
 349:Generated_Source\PSoC4/cy_em_eeprom.c ****                             (void)memcpy((void *)(eeData), (void *)(startRowAddr + srcOffset), numB
 725              		.loc 1 349 0
 726 02fc 786C     		ldr	r0, [r7, #68]
 727 02fe 3A6D     		ldr	r2, [r7, #80]
 728 0300 7B69     		ldr	r3, [r7, #20]
 729 0302 D318     		adds	r3, r2, r3
 730 0304 1900     		movs	r1, r3
 731 0306 7B6D     		ldr	r3, [r7, #84]
 732 0308 1A00     		movs	r2, r3
 733 030a FFF7FEFF 		bl	memcpy
 734              	.L29:
 735              	.LBE5:
 736              	.LBE4:
 308:Generated_Source\PSoC4/cy_em_eeprom.c ****             {
 737              		.loc 1 308 0 discriminator 2
 738 030e BB6D     		ldr	r3, [r7, #88]
 739 0310 0133     		adds	r3, r3, #1
 740 0312 BB65     		str	r3, [r7, #88]
 741              	.L28:
 308:Generated_Source\PSoC4/cy_em_eeprom.c ****             {
 742              		.loc 1 308 0 is_stmt 0 discriminator 1
 743 0314 BA6D     		ldr	r2, [r7, #88]
 744 0316 7B6B     		ldr	r3, [r7, #52]
 745 0318 9A42     		cmp	r2, r3
 746 031a 83D9     		bls	.L39
 747              	.L7:
 748              	.LBE2:
 350:Generated_Source\PSoC4/cy_em_eeprom.c ****                         }
 351:Generated_Source\PSoC4/cy_em_eeprom.c ****                     }
 352:Generated_Source\PSoC4/cy_em_eeprom.c ****                 }
 353:Generated_Source\PSoC4/cy_em_eeprom.c ****             }
 354:Generated_Source\PSoC4/cy_em_eeprom.c ****         }
 355:Generated_Source\PSoC4/cy_em_eeprom.c ****     }
 356:Generated_Source\PSoC4/cy_em_eeprom.c **** 
 357:Generated_Source\PSoC4/cy_em_eeprom.c ****     return(ret);
 749              		.loc 1 357 0 is_stmt 1
 750 031c 5F23     		movs	r3, #95
 751 031e FB18     		adds	r3, r7, r3
 752 0320 1B78     		ldrb	r3, [r3]
 358:Generated_Source\PSoC4/cy_em_eeprom.c **** }
 753              		.loc 1 358 0
 754 0322 1800     		movs	r0, r3
 755 0324 BD46     		mov	sp, r7
 756 0326 18B0     		add	sp, sp, #96
 757              		@ sp needed
 758 0328 B0BD     		pop	{r4, r5, r7, pc}
 759              		.cfi_endproc
 760              	.LFE2:
 761              		.size	Cy_Em_EEPROM_Read, .-Cy_Em_EEPROM_Read
 762              		.global	__aeabi_uidivmod
 763 032a C046     		.section	.text.Cy_Em_EEPROM_Write,"ax",%progbits
 764              		.align	2
 765              		.global	Cy_Em_EEPROM_Write
 766              		.code	16
 767              		.thumb_func
 768              		.type	Cy_Em_EEPROM_Write, %function
ARM GAS  C:\Users\HPz420\AppData\Local\Temp\ccEPczKG.s 			page 21


 769              	Cy_Em_EEPROM_Write:
 770              	.LFB3:
 359:Generated_Source\PSoC4/cy_em_eeprom.c **** 
 360:Generated_Source\PSoC4/cy_em_eeprom.c **** 
 361:Generated_Source\PSoC4/cy_em_eeprom.c **** /*******************************************************************************
 362:Generated_Source\PSoC4/cy_em_eeprom.c **** * Function Name: Cy_Em_EEPROM_Write
 363:Generated_Source\PSoC4/cy_em_eeprom.c **** ****************************************************************************//**
 364:Generated_Source\PSoC4/cy_em_eeprom.c **** *
 365:Generated_Source\PSoC4/cy_em_eeprom.c **** * This function takes the logical EEPROM address and converts it to the actual
 366:Generated_Source\PSoC4/cy_em_eeprom.c **** * physical address and writes data there. If wear leveling is implemented, the
 367:Generated_Source\PSoC4/cy_em_eeprom.c **** * writing process will use the wear leveling techniques. This is a blocking
 368:Generated_Source\PSoC4/cy_em_eeprom.c **** * function and it does not return until the write operation is completed. The
 369:Generated_Source\PSoC4/cy_em_eeprom.c **** * user firmware should not enter Hibernate mode until write is completed. The
 370:Generated_Source\PSoC4/cy_em_eeprom.c **** * write operation is allowed in Sleep and Deep-Sleep modes. During the flash
 371:Generated_Source\PSoC4/cy_em_eeprom.c **** * operation, the device should not be reset, including the XRES pin, a software
 372:Generated_Source\PSoC4/cy_em_eeprom.c **** * reset, and watchdog reset sources. Also, low-voltage detect circuits should
 373:Generated_Source\PSoC4/cy_em_eeprom.c **** * be configured to generate an interrupt instead of a reset. Otherwise, portions
 374:Generated_Source\PSoC4/cy_em_eeprom.c **** * of flash may undergo unexpected changes.
 375:Generated_Source\PSoC4/cy_em_eeprom.c **** *
 376:Generated_Source\PSoC4/cy_em_eeprom.c **** * \param addr
 377:Generated_Source\PSoC4/cy_em_eeprom.c **** * The logical start address in EEPROM to start writing data from.
 378:Generated_Source\PSoC4/cy_em_eeprom.c **** *
 379:Generated_Source\PSoC4/cy_em_eeprom.c **** * \param eepromData
 380:Generated_Source\PSoC4/cy_em_eeprom.c **** * Data to write to EEPROM.
 381:Generated_Source\PSoC4/cy_em_eeprom.c **** *
 382:Generated_Source\PSoC4/cy_em_eeprom.c **** * \param size
 383:Generated_Source\PSoC4/cy_em_eeprom.c **** * The amount of data to write to EEPROM.
 384:Generated_Source\PSoC4/cy_em_eeprom.c **** *
 385:Generated_Source\PSoC4/cy_em_eeprom.c **** * \param context
 386:Generated_Source\PSoC4/cy_em_eeprom.c **** * The pointer to the EEPROM context structure \ref cy_stc_eeprom_context_t.
 387:Generated_Source\PSoC4/cy_em_eeprom.c **** *
 388:Generated_Source\PSoC4/cy_em_eeprom.c **** * \return
 389:Generated_Source\PSoC4/cy_em_eeprom.c **** * This function returns \ref cy_en_em_eeprom_status_t.
 390:Generated_Source\PSoC4/cy_em_eeprom.c **** *
 391:Generated_Source\PSoC4/cy_em_eeprom.c **** * \note
 392:Generated_Source\PSoC4/cy_em_eeprom.c **** * This function uses a buffer of the flash row size to perform write
 393:Generated_Source\PSoC4/cy_em_eeprom.c **** * operation. For the size of the row refer to the specific PSoC device
 394:Generated_Source\PSoC4/cy_em_eeprom.c **** * datasheet.
 395:Generated_Source\PSoC4/cy_em_eeprom.c **** *
 396:Generated_Source\PSoC4/cy_em_eeprom.c **** * \sideeffect
 397:Generated_Source\PSoC4/cy_em_eeprom.c **** * In case when blocking write option is used, if this function is called by
 398:Generated_Source\PSoC4/cy_em_eeprom.c **** * the CM4 the user code on CM0P and the user code on CM4 are blocked until erase
 399:Generated_Source\PSoC4/cy_em_eeprom.c **** * flash row operation is finished. If this function is called by the CM0P the
 400:Generated_Source\PSoC4/cy_em_eeprom.c **** * user code on CM4 is not blocked and the user code on CM0P is blocked until
 401:Generated_Source\PSoC4/cy_em_eeprom.c **** * erase flash row operation is finished. Plan your task allocation accordingly.
 402:Generated_Source\PSoC4/cy_em_eeprom.c **** *
 403:Generated_Source\PSoC4/cy_em_eeprom.c **** * \sideeffect
 404:Generated_Source\PSoC4/cy_em_eeprom.c **** * In case if non-blocking write option is used and when user flash is used as
 405:Generated_Source\PSoC4/cy_em_eeprom.c **** * an EEPROM storage care should be taken to prevent the read while write (RWW)
 406:Generated_Source\PSoC4/cy_em_eeprom.c **** * exception. To prevent the RWW exception the user flash macro that includes
 407:Generated_Source\PSoC4/cy_em_eeprom.c **** * the EEPROM storage should not be read while the EEPROM write is not completed.
 408:Generated_Source\PSoC4/cy_em_eeprom.c **** * The read also means the user code execution from the respective flash macro.
 409:Generated_Source\PSoC4/cy_em_eeprom.c **** *
 410:Generated_Source\PSoC4/cy_em_eeprom.c **** *******************************************************************************/
 411:Generated_Source\PSoC4/cy_em_eeprom.c **** cy_en_em_eeprom_status_t Cy_Em_EEPROM_Write(uint32 addr,
 412:Generated_Source\PSoC4/cy_em_eeprom.c ****                                             void * eepromData,
 413:Generated_Source\PSoC4/cy_em_eeprom.c ****                                             uint32 size,
ARM GAS  C:\Users\HPz420\AppData\Local\Temp\ccEPczKG.s 			page 22


 414:Generated_Source\PSoC4/cy_em_eeprom.c ****                                             cy_stc_eeprom_context_t * context)
 415:Generated_Source\PSoC4/cy_em_eeprom.c **** {
 771              		.loc 1 415 0
 772              		.cfi_startproc
 773              		@ args = 0, pretend = 0, frame = 336
 774              		@ frame_needed = 1, uses_anonymous_args = 0
 775 0000 B0B5     		push	{r4, r5, r7, lr}
 776              		.cfi_def_cfa_offset 16
 777              		.cfi_offset 4, -16
 778              		.cfi_offset 5, -12
 779              		.cfi_offset 7, -8
 780              		.cfi_offset 14, -4
 781 0002 D6B0     		sub	sp, sp, #344
 782              		.cfi_def_cfa_offset 360
 783 0004 02AF     		add	r7, sp, #8
 784              		.cfi_def_cfa 7, 352
 785 0006 F860     		str	r0, [r7, #12]
 786 0008 B960     		str	r1, [r7, #8]
 787 000a 7A60     		str	r2, [r7, #4]
 788 000c 3B60     		str	r3, [r7]
 416:Generated_Source\PSoC4/cy_em_eeprom.c ****     cy_en_em_eeprom_status_t ret = CY_EM_EEPROM_BAD_PARAM;
 789              		.loc 1 416 0
 790 000e 5023     		movs	r3, #80
 791 0010 FF33     		adds	r3, r3, #255
 792 0012 FB18     		adds	r3, r7, r3
 793 0014 0122     		movs	r2, #1
 794 0016 1A70     		strb	r2, [r3]
 417:Generated_Source\PSoC4/cy_em_eeprom.c ****     uint32 i;
 418:Generated_Source\PSoC4/cy_em_eeprom.c ****     uint32 wrCnt;
 419:Generated_Source\PSoC4/cy_em_eeprom.c ****     uint32 actEmEepromRowNum;
 420:Generated_Source\PSoC4/cy_em_eeprom.c ****     uint32 writeRamBuffer[CY_EM_EEPROM_FLASH_SIZEOF_ROW / CY_EM_EEPROM_U32_DIV];
 421:Generated_Source\PSoC4/cy_em_eeprom.c ****     uint32 startAddr = 0u;
 795              		.loc 1 421 0
 796 0018 0023     		movs	r3, #0
 797 001a 3B62     		str	r3, [r7, #32]
 422:Generated_Source\PSoC4/cy_em_eeprom.c ****     uint32 endAddr = 0u;
 798              		.loc 1 422 0
 799 001c 0023     		movs	r3, #0
 800 001e FB61     		str	r3, [r7, #28]
 423:Generated_Source\PSoC4/cy_em_eeprom.c ****     uint32 tmpRowAddr;
 424:Generated_Source\PSoC4/cy_em_eeprom.c ****     uint32 emEepromRowAddr = context->lastWrRowAddr;
 801              		.loc 1 424 0
 802 0020 3B68     		ldr	r3, [r7]
 803 0022 9B68     		ldr	r3, [r3, #8]
 804 0024 BB61     		str	r3, [r7, #24]
 425:Generated_Source\PSoC4/cy_em_eeprom.c ****     uint32 emEepromRowRdAddr;
 426:Generated_Source\PSoC4/cy_em_eeprom.c ****     void * tmpData;
 427:Generated_Source\PSoC4/cy_em_eeprom.c ****     uint32 eeData = (uint32) eepromData; /* To avoid the pointer arithmetic with void */
 805              		.loc 1 427 0
 806 0026 BB68     		ldr	r3, [r7, #8]
 807 0028 9E22     		movs	r2, #158
 808 002a 5200     		lsls	r2, r2, #1
 809 002c BA18     		adds	r2, r7, r2
 810 002e 1360     		str	r3, [r2]
 428:Generated_Source\PSoC4/cy_em_eeprom.c **** 
 429:Generated_Source\PSoC4/cy_em_eeprom.c ****     /* Check if the EEPROM data does not exceed the EEPROM capacity */
 430:Generated_Source\PSoC4/cy_em_eeprom.c ****     if((0u != size) && ((addr + size) <= (context->eepromSize)) && (NULL != eepromData))
ARM GAS  C:\Users\HPz420\AppData\Local\Temp\ccEPczKG.s 			page 23


 811              		.loc 1 430 0
 812 0030 7B68     		ldr	r3, [r7, #4]
 813 0032 002B     		cmp	r3, #0
 814 0034 00D1     		bne	.LCB676
 815 0036 C4E1     		b	.L42	@long jump
 816              	.LCB676:
 817              		.loc 1 430 0 is_stmt 0 discriminator 1
 818 0038 FA68     		ldr	r2, [r7, #12]
 819 003a 7B68     		ldr	r3, [r7, #4]
 820 003c D218     		adds	r2, r2, r3
 821 003e 3B68     		ldr	r3, [r7]
 822 0040 DB68     		ldr	r3, [r3, #12]
 823 0042 9A42     		cmp	r2, r3
 824 0044 00D9     		bls	.LCB683
 825 0046 BCE1     		b	.L42	@long jump
 826              	.LCB683:
 827              		.loc 1 430 0 discriminator 2
 828 0048 BB68     		ldr	r3, [r7, #8]
 829 004a 002B     		cmp	r3, #0
 830 004c 00D1     		bne	.LCB686
 831 004e B8E1     		b	.L42	@long jump
 832              	.LCB686:
 833              	.LBB6:
 431:Generated_Source\PSoC4/cy_em_eeprom.c ****     {
 432:Generated_Source\PSoC4/cy_em_eeprom.c ****         uint32 numWrites = ((size - 1u) / CY_EM_EEPROM_HEADER_DATA_LEN) + 1u;
 834              		.loc 1 432 0 is_stmt 1
 835 0050 7B68     		ldr	r3, [r7, #4]
 836 0052 013B     		subs	r3, r3, #1
 837 0054 7021     		movs	r1, #112
 838 0056 1800     		movs	r0, r3
 839 0058 FFF7FEFF 		bl	__aeabi_uidiv
 840 005c 0300     		movs	r3, r0
 841 005e 0133     		adds	r3, r3, #1
 842 0060 9A22     		movs	r2, #154
 843 0062 5200     		lsls	r2, r2, #1
 844 0064 BA18     		adds	r2, r7, r2
 845 0066 1360     		str	r3, [r2]
 433:Generated_Source\PSoC4/cy_em_eeprom.c ****         uint32 eeHeaderDataOffset = 0u;
 846              		.loc 1 433 0
 847 0068 0023     		movs	r3, #0
 848 006a 3B61     		str	r3, [r7, #16]
 434:Generated_Source\PSoC4/cy_em_eeprom.c **** 
 435:Generated_Source\PSoC4/cy_em_eeprom.c ****         for(wrCnt = 0u; wrCnt < numWrites; wrCnt++)
 849              		.loc 1 435 0
 850 006c 0023     		movs	r3, #0
 851 006e A222     		movs	r2, #162
 852 0070 5200     		lsls	r2, r2, #1
 853 0072 BA18     		adds	r2, r7, r2
 854 0074 1360     		str	r3, [r2]
 855 0076 97E1     		b	.L43
 856              	.L61:
 857              	.LBB7:
 436:Generated_Source\PSoC4/cy_em_eeprom.c ****         {
 437:Generated_Source\PSoC4/cy_em_eeprom.c ****             uint32 skipOperation = 0u;
 858              		.loc 1 437 0
 859 0078 0023     		movs	r3, #0
 860 007a 9C22     		movs	r2, #156
ARM GAS  C:\Users\HPz420\AppData\Local\Temp\ccEPczKG.s 			page 24


 861 007c 5200     		lsls	r2, r2, #1
 862 007e BA18     		adds	r2, r7, r2
 863 0080 1360     		str	r3, [r2]
 438:Generated_Source\PSoC4/cy_em_eeprom.c ****             /* Get the sequence number of the last written row */
 439:Generated_Source\PSoC4/cy_em_eeprom.c ****             uint32 seqNum = CY_EM_EEPROM_GET_SEQ_NUM(emEepromRowAddr);
 864              		.loc 1 439 0
 865 0082 BB69     		ldr	r3, [r7, #24]
 866 0084 1B68     		ldr	r3, [r3]
 867 0086 9822     		movs	r2, #152
 868 0088 5200     		lsls	r2, r2, #1
 869 008a BA18     		adds	r2, r7, r2
 870 008c 1360     		str	r3, [r2]
 440:Generated_Source\PSoC4/cy_em_eeprom.c **** 
 441:Generated_Source\PSoC4/cy_em_eeprom.c ****             /* Get the address of the row to be written. The "emEepromRowAddr" may be
 442:Generated_Source\PSoC4/cy_em_eeprom.c ****             * updated with the proper address (if wear leveling is used). The
 443:Generated_Source\PSoC4/cy_em_eeprom.c ****             * "emEepromRowRdAddr" will point to the row address from which the historic
 444:Generated_Source\PSoC4/cy_em_eeprom.c ****             * data will be read into the RAM buffer.
 445:Generated_Source\PSoC4/cy_em_eeprom.c ****             */
 446:Generated_Source\PSoC4/cy_em_eeprom.c ****             GetNextRowToWrite(seqNum, &emEepromRowAddr, &emEepromRowRdAddr, context);
 871              		.loc 1 446 0
 872 008e 3B68     		ldr	r3, [r7]
 873 0090 1422     		movs	r2, #20
 874 0092 BA18     		adds	r2, r7, r2
 875 0094 1821     		movs	r1, #24
 876 0096 7918     		adds	r1, r7, r1
 877 0098 9820     		movs	r0, #152
 878 009a 4000     		lsls	r0, r0, #1
 879 009c 3818     		adds	r0, r7, r0
 880 009e 0068     		ldr	r0, [r0]
 881 00a0 FFF7FEFF 		bl	GetNextRowToWrite
 447:Generated_Source\PSoC4/cy_em_eeprom.c **** 
 448:Generated_Source\PSoC4/cy_em_eeprom.c ****             /* Clear the RAM buffer so to not put junk into flash */
 449:Generated_Source\PSoC4/cy_em_eeprom.c ****             (void)memset(writeRamBuffer, 0, CY_EM_EEPROM_FLASH_SIZEOF_ROW);
 882              		.loc 1 449 0
 883 00a4 8023     		movs	r3, #128
 884 00a6 5A00     		lsls	r2, r3, #1
 885 00a8 2423     		movs	r3, #36
 886 00aa FB18     		adds	r3, r7, r3
 887 00ac 0021     		movs	r1, #0
 888 00ae 1800     		movs	r0, r3
 889 00b0 FFF7FEFF 		bl	memset
 450:Generated_Source\PSoC4/cy_em_eeprom.c **** 
 451:Generated_Source\PSoC4/cy_em_eeprom.c ****             /* Fill the EM_EEPROM header info for the row in the RAM buffer */
 452:Generated_Source\PSoC4/cy_em_eeprom.c ****             seqNum++;
 890              		.loc 1 452 0
 891 00b4 9823     		movs	r3, #152
 892 00b6 5B00     		lsls	r3, r3, #1
 893 00b8 FB18     		adds	r3, r7, r3
 894 00ba 1B68     		ldr	r3, [r3]
 895 00bc 0133     		adds	r3, r3, #1
 896 00be 9822     		movs	r2, #152
 897 00c0 5200     		lsls	r2, r2, #1
 898 00c2 BA18     		adds	r2, r7, r2
 899 00c4 1360     		str	r3, [r2]
 453:Generated_Source\PSoC4/cy_em_eeprom.c ****             writeRamBuffer[CY_EM_EEPROM_HEADER_SEQ_NUM_OFFSET_U32] = seqNum;
 900              		.loc 1 453 0
 901 00c6 C34B     		ldr	r3, .L64
ARM GAS  C:\Users\HPz420\AppData\Local\Temp\ccEPczKG.s 			page 25


 902 00c8 A822     		movs	r2, #168
 903 00ca 5200     		lsls	r2, r2, #1
 904 00cc 9446     		mov	ip, r2
 905 00ce BC44     		add	ip, ip, r7
 906 00d0 6344     		add	r3, r3, ip
 907 00d2 9822     		movs	r2, #152
 908 00d4 5200     		lsls	r2, r2, #1
 909 00d6 BA18     		adds	r2, r7, r2
 910 00d8 1268     		ldr	r2, [r2]
 911 00da 1A60     		str	r2, [r3]
 454:Generated_Source\PSoC4/cy_em_eeprom.c ****             writeRamBuffer[CY_EM_EEPROM_HEADER_ADDR_OFFSET_U32] = addr;
 912              		.loc 1 454 0
 913 00dc BD4B     		ldr	r3, .L64
 914 00de A822     		movs	r2, #168
 915 00e0 5200     		lsls	r2, r2, #1
 916 00e2 9446     		mov	ip, r2
 917 00e4 BC44     		add	ip, ip, r7
 918 00e6 6344     		add	r3, r3, ip
 919 00e8 FA68     		ldr	r2, [r7, #12]
 920 00ea 5A60     		str	r2, [r3, #4]
 455:Generated_Source\PSoC4/cy_em_eeprom.c ****             tmpData = (void *) eeData;
 921              		.loc 1 455 0
 922 00ec 9E23     		movs	r3, #158
 923 00ee 5B00     		lsls	r3, r3, #1
 924 00f0 FB18     		adds	r3, r7, r3
 925 00f2 1B68     		ldr	r3, [r3]
 926 00f4 9622     		movs	r2, #150
 927 00f6 5200     		lsls	r2, r2, #1
 928 00f8 BA18     		adds	r2, r7, r2
 929 00fa 1360     		str	r3, [r2]
 456:Generated_Source\PSoC4/cy_em_eeprom.c **** 
 457:Generated_Source\PSoC4/cy_em_eeprom.c ****             /* Check if this is the last row to write */
 458:Generated_Source\PSoC4/cy_em_eeprom.c ****             if(wrCnt == (numWrites - 1u))
 930              		.loc 1 458 0
 931 00fc 9A23     		movs	r3, #154
 932 00fe 5B00     		lsls	r3, r3, #1
 933 0100 FB18     		adds	r3, r7, r3
 934 0102 1B68     		ldr	r3, [r3]
 935 0104 5A1E     		subs	r2, r3, #1
 936 0106 A223     		movs	r3, #162
 937 0108 5B00     		lsls	r3, r3, #1
 938 010a FB18     		adds	r3, r7, r3
 939 010c 1B68     		ldr	r3, [r3]
 940 010e 9A42     		cmp	r2, r3
 941 0110 08D1     		bne	.L44
 459:Generated_Source\PSoC4/cy_em_eeprom.c ****             {
 460:Generated_Source\PSoC4/cy_em_eeprom.c ****                 /* Fill in the remaining size value to the EEPROM header. */
 461:Generated_Source\PSoC4/cy_em_eeprom.c ****                 writeRamBuffer[CY_EM_EEPROM_HEADER_LEN_OFFSET_U32] = size;
 942              		.loc 1 461 0
 943 0112 B04B     		ldr	r3, .L64
 944 0114 A822     		movs	r2, #168
 945 0116 5200     		lsls	r2, r2, #1
 946 0118 9446     		mov	ip, r2
 947 011a BC44     		add	ip, ip, r7
 948 011c 6344     		add	r3, r3, ip
 949 011e 7A68     		ldr	r2, [r7, #4]
 950 0120 9A60     		str	r2, [r3, #8]
ARM GAS  C:\Users\HPz420\AppData\Local\Temp\ccEPczKG.s 			page 26


 951 0122 16E0     		b	.L45
 952              	.L44:
 462:Generated_Source\PSoC4/cy_em_eeprom.c ****             }
 463:Generated_Source\PSoC4/cy_em_eeprom.c ****             else
 464:Generated_Source\PSoC4/cy_em_eeprom.c ****             {
 465:Generated_Source\PSoC4/cy_em_eeprom.c ****                 /* This is not the last row to write in the current EEPROM write operation.
 466:Generated_Source\PSoC4/cy_em_eeprom.c ****                 * Write the maximum possible data size to the EEPROM header. Update the
 467:Generated_Source\PSoC4/cy_em_eeprom.c ****                 * size, eeData and addr respectively.
 468:Generated_Source\PSoC4/cy_em_eeprom.c ****                 */
 469:Generated_Source\PSoC4/cy_em_eeprom.c ****                 writeRamBuffer[CY_EM_EEPROM_HEADER_LEN_OFFSET_U32] = CY_EM_EEPROM_HEADER_DATA_LEN;
 953              		.loc 1 469 0
 954 0124 AB4B     		ldr	r3, .L64
 955 0126 A822     		movs	r2, #168
 956 0128 5200     		lsls	r2, r2, #1
 957 012a 9446     		mov	ip, r2
 958 012c BC44     		add	ip, ip, r7
 959 012e 6344     		add	r3, r3, ip
 960 0130 7022     		movs	r2, #112
 961 0132 9A60     		str	r2, [r3, #8]
 470:Generated_Source\PSoC4/cy_em_eeprom.c ****                 size -= CY_EM_EEPROM_HEADER_DATA_LEN;
 962              		.loc 1 470 0
 963 0134 7B68     		ldr	r3, [r7, #4]
 964 0136 703B     		subs	r3, r3, #112
 965 0138 7B60     		str	r3, [r7, #4]
 471:Generated_Source\PSoC4/cy_em_eeprom.c ****                 addr += CY_EM_EEPROM_HEADER_DATA_LEN;
 966              		.loc 1 471 0
 967 013a FB68     		ldr	r3, [r7, #12]
 968 013c 7033     		adds	r3, r3, #112
 969 013e FB60     		str	r3, [r7, #12]
 472:Generated_Source\PSoC4/cy_em_eeprom.c ****                 eeData += CY_EM_EEPROM_HEADER_DATA_LEN;
 970              		.loc 1 472 0
 971 0140 9E23     		movs	r3, #158
 972 0142 5B00     		lsls	r3, r3, #1
 973 0144 FB18     		adds	r3, r7, r3
 974 0146 1B68     		ldr	r3, [r3]
 975 0148 7033     		adds	r3, r3, #112
 976 014a 9E22     		movs	r2, #158
 977 014c 5200     		lsls	r2, r2, #1
 978 014e BA18     		adds	r2, r7, r2
 979 0150 1360     		str	r3, [r2]
 980              	.L45:
 473:Generated_Source\PSoC4/cy_em_eeprom.c ****             }
 474:Generated_Source\PSoC4/cy_em_eeprom.c **** 
 475:Generated_Source\PSoC4/cy_em_eeprom.c ****             /* Write the data to the EEPROM header */
 476:Generated_Source\PSoC4/cy_em_eeprom.c ****             (void)memcpy((void *)&writeRamBuffer[CY_EM_EEPROM_HEADER_DATA_OFFSET_U32],
 477:Generated_Source\PSoC4/cy_em_eeprom.c ****                          tmpData,
 478:Generated_Source\PSoC4/cy_em_eeprom.c ****                          writeRamBuffer[CY_EM_EEPROM_HEADER_LEN_OFFSET_U32]);
 981              		.loc 1 478 0
 982 0152 A04B     		ldr	r3, .L64
 983 0154 A822     		movs	r2, #168
 984 0156 5200     		lsls	r2, r2, #1
 985 0158 9446     		mov	ip, r2
 986 015a BC44     		add	ip, ip, r7
 987 015c 6344     		add	r3, r3, ip
 988 015e 9A68     		ldr	r2, [r3, #8]
 476:Generated_Source\PSoC4/cy_em_eeprom.c ****                          tmpData,
 989              		.loc 1 476 0
ARM GAS  C:\Users\HPz420\AppData\Local\Temp\ccEPczKG.s 			page 27


 990 0160 9623     		movs	r3, #150
 991 0162 5B00     		lsls	r3, r3, #1
 992 0164 FB18     		adds	r3, r7, r3
 993 0166 1968     		ldr	r1, [r3]
 994 0168 2423     		movs	r3, #36
 995 016a FB18     		adds	r3, r7, r3
 996 016c 0C33     		adds	r3, r3, #12
 997 016e 1800     		movs	r0, r3
 998 0170 FFF7FEFF 		bl	memcpy
 479:Generated_Source\PSoC4/cy_em_eeprom.c **** 
 480:Generated_Source\PSoC4/cy_em_eeprom.c ****             if(emEepromRowRdAddr != 0UL)
 999              		.loc 1 480 0
 1000 0174 7B69     		ldr	r3, [r7, #20]
 1001 0176 002B     		cmp	r3, #0
 1002 0178 09D0     		beq	.L46
 481:Generated_Source\PSoC4/cy_em_eeprom.c ****             {
 482:Generated_Source\PSoC4/cy_em_eeprom.c ****                 /* Copy the EEPROM historic data for this row from flash to RAM */
 483:Generated_Source\PSoC4/cy_em_eeprom.c ****                 (void)memcpy((void *)&writeRamBuffer[CY_EM_EEPROM_EEPROM_DATA_OFFSET_U32],
 484:Generated_Source\PSoC4/cy_em_eeprom.c ****                              (void *)(emEepromRowRdAddr + CY_EM_EEPROM_EEPROM_DATA_LEN),
 1003              		.loc 1 484 0
 1004 017a 7B69     		ldr	r3, [r7, #20]
 1005 017c 8033     		adds	r3, r3, #128
 483:Generated_Source\PSoC4/cy_em_eeprom.c ****                              (void *)(emEepromRowRdAddr + CY_EM_EEPROM_EEPROM_DATA_LEN),
 1006              		.loc 1 483 0
 1007 017e 1900     		movs	r1, r3
 1008 0180 2423     		movs	r3, #36
 1009 0182 FB18     		adds	r3, r7, r3
 1010 0184 8033     		adds	r3, r3, #128
 1011 0186 8022     		movs	r2, #128
 1012 0188 1800     		movs	r0, r3
 1013 018a FFF7FEFF 		bl	memcpy
 1014              	.L46:
 485:Generated_Source\PSoC4/cy_em_eeprom.c ****                              CY_EM_EEPROM_EEPROM_DATA_LEN);
 486:Generated_Source\PSoC4/cy_em_eeprom.c ****             }
 487:Generated_Source\PSoC4/cy_em_eeprom.c **** 
 488:Generated_Source\PSoC4/cy_em_eeprom.c ****             /* Check if there is data for this location in other EEPROM headers:
 489:Generated_Source\PSoC4/cy_em_eeprom.c ****             * find out the row with the lowest possible sequence number which
 490:Generated_Source\PSoC4/cy_em_eeprom.c ****             * may contain the data for the current row.
 491:Generated_Source\PSoC4/cy_em_eeprom.c ****             */
 492:Generated_Source\PSoC4/cy_em_eeprom.c ****             i = (seqNum > context->numberOfRows) ? ((seqNum - (context->numberOfRows)) + 1u) : 1u;
 1015              		.loc 1 492 0
 1016 018e 3B68     		ldr	r3, [r7]
 1017 0190 5A68     		ldr	r2, [r3, #4]
 1018 0192 9823     		movs	r3, #152
 1019 0194 5B00     		lsls	r3, r3, #1
 1020 0196 FB18     		adds	r3, r7, r3
 1021 0198 1B68     		ldr	r3, [r3]
 1022 019a 9A42     		cmp	r2, r3
 1023 019c 08D2     		bcs	.L47
 1024              		.loc 1 492 0 is_stmt 0 discriminator 1
 1025 019e 3B68     		ldr	r3, [r7]
 1026 01a0 5B68     		ldr	r3, [r3, #4]
 1027 01a2 9822     		movs	r2, #152
 1028 01a4 5200     		lsls	r2, r2, #1
 1029 01a6 BA18     		adds	r2, r7, r2
 1030 01a8 1268     		ldr	r2, [r2]
 1031 01aa D31A     		subs	r3, r2, r3
ARM GAS  C:\Users\HPz420\AppData\Local\Temp\ccEPczKG.s 			page 28


 1032 01ac 0133     		adds	r3, r3, #1
 1033 01ae 00E0     		b	.L48
 1034              	.L47:
 1035              		.loc 1 492 0 discriminator 2
 1036 01b0 0123     		movs	r3, #1
 1037              	.L48:
 1038              		.loc 1 492 0 discriminator 4
 1039 01b2 A422     		movs	r2, #164
 1040 01b4 5200     		lsls	r2, r2, #1
 1041 01b6 BA18     		adds	r2, r7, r2
 1042 01b8 1360     		str	r3, [r2]
 493:Generated_Source\PSoC4/cy_em_eeprom.c **** 
 494:Generated_Source\PSoC4/cy_em_eeprom.c ****             for(; i <= seqNum; i++)
 1043              		.loc 1 494 0 is_stmt 1 discriminator 4
 1044 01ba A3E0     		b	.L49
 1045              	.L56:
 495:Generated_Source\PSoC4/cy_em_eeprom.c ****             {
 496:Generated_Source\PSoC4/cy_em_eeprom.c ****                 if(i == seqNum)
 1046              		.loc 1 496 0
 1047 01bc A423     		movs	r3, #164
 1048 01be 5B00     		lsls	r3, r3, #1
 1049 01c0 FB18     		adds	r3, r7, r3
 1050 01c2 1A68     		ldr	r2, [r3]
 1051 01c4 9823     		movs	r3, #152
 1052 01c6 5B00     		lsls	r3, r3, #1
 1053 01c8 FB18     		adds	r3, r7, r3
 1054 01ca 1B68     		ldr	r3, [r3]
 1055 01cc 9A42     		cmp	r2, r3
 1056 01ce 06D1     		bne	.L50
 497:Generated_Source\PSoC4/cy_em_eeprom.c ****                 {
 498:Generated_Source\PSoC4/cy_em_eeprom.c ****                     /* The code reached the row that is about to be written. Analyze the recently
 499:Generated_Source\PSoC4/cy_em_eeprom.c ****                     * created EEPROM header (stored in the RAM buffer currently): if it contains
 500:Generated_Source\PSoC4/cy_em_eeprom.c ****                     * the data for EEPROM data locations in the row that is about to be written.
 501:Generated_Source\PSoC4/cy_em_eeprom.c ****                     */
 502:Generated_Source\PSoC4/cy_em_eeprom.c ****                     tmpRowAddr = (uint32) writeRamBuffer;
 1057              		.loc 1 502 0
 1058 01d0 2423     		movs	r3, #36
 1059 01d2 FB18     		adds	r3, r7, r3
 1060 01d4 A022     		movs	r2, #160
 1061 01d6 5200     		lsls	r2, r2, #1
 1062 01d8 BA18     		adds	r2, r7, r2
 1063 01da 1360     		str	r3, [r2]
 1064 01dc 0DE0     		b	.L51
 1065              	.L50:
 503:Generated_Source\PSoC4/cy_em_eeprom.c ****                 }
 504:Generated_Source\PSoC4/cy_em_eeprom.c ****                 else
 505:Generated_Source\PSoC4/cy_em_eeprom.c ****                 {
 506:Generated_Source\PSoC4/cy_em_eeprom.c ****                     /* Retrieve the address of the previously written row by its sequence number.
 507:Generated_Source\PSoC4/cy_em_eeprom.c ****                     * The pointer will be used to get data from the respective EEPROM header.
 508:Generated_Source\PSoC4/cy_em_eeprom.c ****                     */
 509:Generated_Source\PSoC4/cy_em_eeprom.c ****                     tmpRowAddr = GetRowAddrBySeqNum(i, context);
 1066              		.loc 1 509 0
 1067 01de 3A68     		ldr	r2, [r7]
 1068 01e0 A423     		movs	r3, #164
 1069 01e2 5B00     		lsls	r3, r3, #1
 1070 01e4 FB18     		adds	r3, r7, r3
 1071 01e6 1B68     		ldr	r3, [r3]
ARM GAS  C:\Users\HPz420\AppData\Local\Temp\ccEPczKG.s 			page 29


 1072 01e8 1100     		movs	r1, r2
 1073 01ea 1800     		movs	r0, r3
 1074 01ec FFF7FEFF 		bl	GetRowAddrBySeqNum
 1075 01f0 0300     		movs	r3, r0
 1076 01f2 A022     		movs	r2, #160
 1077 01f4 5200     		lsls	r2, r2, #1
 1078 01f6 BA18     		adds	r2, r7, r2
 1079 01f8 1360     		str	r3, [r2]
 1080              	.L51:
 510:Generated_Source\PSoC4/cy_em_eeprom.c ****                 }
 511:Generated_Source\PSoC4/cy_em_eeprom.c **** 
 512:Generated_Source\PSoC4/cy_em_eeprom.c ****                 actEmEepromRowNum = CY_EM_EEPROM_GET_ACT_ROW_NUM_FROM_ADDR(emEepromRowAddr,
 1081              		.loc 1 512 0
 1082 01fa BA69     		ldr	r2, [r7, #24]
 1083 01fc 3B68     		ldr	r3, [r7]
 1084 01fe 9B69     		ldr	r3, [r3, #24]
 1085 0200 D31A     		subs	r3, r2, r3
 1086 0202 1A0A     		lsrs	r2, r3, #8
 1087 0204 3B68     		ldr	r3, [r7]
 1088 0206 5B68     		ldr	r3, [r3, #4]
 1089 0208 1900     		movs	r1, r3
 1090 020a 1000     		movs	r0, r2
 1091 020c FFF7FEFF 		bl	__aeabi_uidivmod
 1092 0210 0B00     		movs	r3, r1
 1093 0212 9422     		movs	r2, #148
 1094 0214 5200     		lsls	r2, r2, #1
 1095 0216 BA18     		adds	r2, r7, r2
 1096 0218 1360     		str	r3, [r2]
 513:Generated_Source\PSoC4/cy_em_eeprom.c ****                                                                            context->numberOfRows,
 514:Generated_Source\PSoC4/cy_em_eeprom.c ****                                                                            context->userFlashStartA
 515:Generated_Source\PSoC4/cy_em_eeprom.c ****                 if(0UL != tmpRowAddr)
 1097              		.loc 1 515 0
 1098 021a A023     		movs	r3, #160
 1099 021c 5B00     		lsls	r3, r3, #1
 1100 021e FB18     		adds	r3, r7, r3
 1101 0220 1B68     		ldr	r3, [r3]
 1102 0222 002B     		cmp	r3, #0
 1103 0224 21D0     		beq	.L52
 516:Generated_Source\PSoC4/cy_em_eeprom.c ****                 {
 517:Generated_Source\PSoC4/cy_em_eeprom.c ****                     /* Calculate the required addressed for the later EEPROM historic data update *
 518:Generated_Source\PSoC4/cy_em_eeprom.c ****                     skipOperation = GetAddresses(
 519:Generated_Source\PSoC4/cy_em_eeprom.c ****                                               &startAddr,
 520:Generated_Source\PSoC4/cy_em_eeprom.c ****                                               &endAddr,
 521:Generated_Source\PSoC4/cy_em_eeprom.c ****                                               &eeHeaderDataOffset,
 522:Generated_Source\PSoC4/cy_em_eeprom.c ****                                               actEmEepromRowNum,
 523:Generated_Source\PSoC4/cy_em_eeprom.c ****                                               *(uint32 *)(tmpRowAddr + CY_EM_EEPROM_HEADER_ADDR_OFF
 1104              		.loc 1 523 0
 1105 0226 A023     		movs	r3, #160
 1106 0228 5B00     		lsls	r3, r3, #1
 1107 022a FB18     		adds	r3, r7, r3
 1108 022c 1B68     		ldr	r3, [r3]
 1109 022e 0433     		adds	r3, r3, #4
 518:Generated_Source\PSoC4/cy_em_eeprom.c ****                                               &startAddr,
 1110              		.loc 1 518 0
 1111 0230 1A68     		ldr	r2, [r3]
 524:Generated_Source\PSoC4/cy_em_eeprom.c ****                                               *(uint32 *)(tmpRowAddr + CY_EM_EEPROM_HEADER_LEN_OFFS
 1112              		.loc 1 524 0
ARM GAS  C:\Users\HPz420\AppData\Local\Temp\ccEPczKG.s 			page 30


 1113 0232 A023     		movs	r3, #160
 1114 0234 5B00     		lsls	r3, r3, #1
 1115 0236 FB18     		adds	r3, r7, r3
 1116 0238 1B68     		ldr	r3, [r3]
 1117 023a 0833     		adds	r3, r3, #8
 518:Generated_Source\PSoC4/cy_em_eeprom.c ****                                               &startAddr,
 1118              		.loc 1 518 0
 1119 023c 1B68     		ldr	r3, [r3]
 1120 023e 9421     		movs	r1, #148
 1121 0240 4900     		lsls	r1, r1, #1
 1122 0242 7918     		adds	r1, r7, r1
 1123 0244 0D68     		ldr	r5, [r1]
 1124 0246 1021     		movs	r1, #16
 1125 0248 7C18     		adds	r4, r7, r1
 1126 024a 1C21     		movs	r1, #28
 1127 024c 7918     		adds	r1, r7, r1
 1128 024e 2020     		movs	r0, #32
 1129 0250 3818     		adds	r0, r7, r0
 1130 0252 0193     		str	r3, [sp, #4]
 1131 0254 0092     		str	r2, [sp]
 1132 0256 2B00     		movs	r3, r5
 1133 0258 2200     		movs	r2, r4
 1134 025a FFF7FEFF 		bl	GetAddresses
 1135 025e 0300     		movs	r3, r0
 1136 0260 9C22     		movs	r2, #156
 1137 0262 5200     		lsls	r2, r2, #1
 1138 0264 BA18     		adds	r2, r7, r2
 1139 0266 1360     		str	r3, [r2]
 1140 0268 08E0     		b	.L53
 1141              	.L52:
 525:Generated_Source\PSoC4/cy_em_eeprom.c ****                 }
 526:Generated_Source\PSoC4/cy_em_eeprom.c ****                 else
 527:Generated_Source\PSoC4/cy_em_eeprom.c ****                 {
 528:Generated_Source\PSoC4/cy_em_eeprom.c ****                     /* Skip writes to the RAM buffer */
 529:Generated_Source\PSoC4/cy_em_eeprom.c ****                     skipOperation++;
 1142              		.loc 1 529 0
 1143 026a 9C23     		movs	r3, #156
 1144 026c 5B00     		lsls	r3, r3, #1
 1145 026e FB18     		adds	r3, r7, r3
 1146 0270 1B68     		ldr	r3, [r3]
 1147 0272 0133     		adds	r3, r3, #1
 1148 0274 9C22     		movs	r2, #156
 1149 0276 5200     		lsls	r2, r2, #1
 1150 0278 BA18     		adds	r2, r7, r2
 1151 027a 1360     		str	r3, [r2]
 1152              	.L53:
 530:Generated_Source\PSoC4/cy_em_eeprom.c ****                 }
 531:Generated_Source\PSoC4/cy_em_eeprom.c **** 
 532:Generated_Source\PSoC4/cy_em_eeprom.c ****                 /* Write data to the RAM buffer */
 533:Generated_Source\PSoC4/cy_em_eeprom.c ****                 if(0u == skipOperation)
 1153              		.loc 1 533 0
 1154 027c 9C23     		movs	r3, #156
 1155 027e 5B00     		lsls	r3, r3, #1
 1156 0280 FB18     		adds	r3, r7, r3
 1157 0282 1B68     		ldr	r3, [r3]
 1158 0284 002B     		cmp	r3, #0
 1159 0286 20D1     		bne	.L54
ARM GAS  C:\Users\HPz420\AppData\Local\Temp\ccEPczKG.s 			page 31


 1160              	.LBB8:
 534:Generated_Source\PSoC4/cy_em_eeprom.c ****                 {
 535:Generated_Source\PSoC4/cy_em_eeprom.c ****                     uint32 dataAddr = ((uint32)((uint8 *)&writeRamBuffer)) + startAddr;
 1161              		.loc 1 535 0
 1162 0288 2423     		movs	r3, #36
 1163 028a FA18     		adds	r2, r7, r3
 1164 028c 3B6A     		ldr	r3, [r7, #32]
 1165 028e D318     		adds	r3, r2, r3
 1166 0290 9222     		movs	r2, #146
 1167 0292 5200     		lsls	r2, r2, #1
 1168 0294 BA18     		adds	r2, r7, r2
 1169 0296 1360     		str	r3, [r2]
 536:Generated_Source\PSoC4/cy_em_eeprom.c **** 
 537:Generated_Source\PSoC4/cy_em_eeprom.c ****                     /* Update the address to point to the EEPROM header data and not to
 538:Generated_Source\PSoC4/cy_em_eeprom.c ****                     * the start of the row.
 539:Generated_Source\PSoC4/cy_em_eeprom.c ****                     */
 540:Generated_Source\PSoC4/cy_em_eeprom.c ****                     tmpRowAddr = tmpRowAddr + CY_EM_EEPROM_HEADER_DATA_OFFSET + eeHeaderDataOffset;
 1170              		.loc 1 540 0
 1171 0298 3A69     		ldr	r2, [r7, #16]
 1172 029a A023     		movs	r3, #160
 1173 029c 5B00     		lsls	r3, r3, #1
 1174 029e FB18     		adds	r3, r7, r3
 1175 02a0 1B68     		ldr	r3, [r3]
 1176 02a2 D318     		adds	r3, r2, r3
 1177 02a4 0C33     		adds	r3, r3, #12
 1178 02a6 A022     		movs	r2, #160
 1179 02a8 5200     		lsls	r2, r2, #1
 1180 02aa BA18     		adds	r2, r7, r2
 1181 02ac 1360     		str	r3, [r2]
 541:Generated_Source\PSoC4/cy_em_eeprom.c ****                     (void)memcpy((void *)(dataAddr), (void *)(tmpRowAddr), endAddr - startAddr);
 1182              		.loc 1 541 0
 1183 02ae 9223     		movs	r3, #146
 1184 02b0 5B00     		lsls	r3, r3, #1
 1185 02b2 FB18     		adds	r3, r7, r3
 1186 02b4 1868     		ldr	r0, [r3]
 1187 02b6 A023     		movs	r3, #160
 1188 02b8 5B00     		lsls	r3, r3, #1
 1189 02ba FB18     		adds	r3, r7, r3
 1190 02bc 1968     		ldr	r1, [r3]
 1191 02be FA69     		ldr	r2, [r7, #28]
 1192 02c0 3B6A     		ldr	r3, [r7, #32]
 1193 02c2 D31A     		subs	r3, r2, r3
 1194 02c4 1A00     		movs	r2, r3
 1195 02c6 FFF7FEFF 		bl	memcpy
 1196              	.L54:
 1197              	.LBE8:
 542:Generated_Source\PSoC4/cy_em_eeprom.c ****                 }
 543:Generated_Source\PSoC4/cy_em_eeprom.c **** 
 544:Generated_Source\PSoC4/cy_em_eeprom.c ****                 /* Calculate the checksum if redundant copy is enabled */
 545:Generated_Source\PSoC4/cy_em_eeprom.c ****                 if(0u != context->redundantCopy)
 1198              		.loc 1 545 0
 1199 02ca 3B68     		ldr	r3, [r7]
 1200 02cc 1B7D     		ldrb	r3, [r3, #20]
 1201 02ce 002B     		cmp	r3, #0
 1202 02d0 0FD0     		beq	.L55
 546:Generated_Source\PSoC4/cy_em_eeprom.c ****                 {
 547:Generated_Source\PSoC4/cy_em_eeprom.c ****                     writeRamBuffer[CY_EM_EEPROM_HEADER_CHECKSUM_OFFSET_U32] = (uint32)
ARM GAS  C:\Users\HPz420\AppData\Local\Temp\ccEPczKG.s 			page 32


 548:Generated_Source\PSoC4/cy_em_eeprom.c ****                         CalcChecksum((uint8 *) &writeRamBuffer[CY_EM_EEPROM_EEPROM_DATA_OFFSET_U32]
 1203              		.loc 1 548 0
 1204 02d2 2423     		movs	r3, #36
 1205 02d4 FB18     		adds	r3, r7, r3
 1206 02d6 8033     		adds	r3, r3, #128
 1207 02d8 8021     		movs	r1, #128
 1208 02da 1800     		movs	r0, r3
 1209 02dc FFF7FEFF 		bl	CalcChecksum
 1210 02e0 0300     		movs	r3, r0
 547:Generated_Source\PSoC4/cy_em_eeprom.c ****                         CalcChecksum((uint8 *) &writeRamBuffer[CY_EM_EEPROM_EEPROM_DATA_OFFSET_U32]
 1211              		.loc 1 547 0
 1212 02e2 1A00     		movs	r2, r3
 1213 02e4 3B4B     		ldr	r3, .L64
 1214 02e6 A821     		movs	r1, #168
 1215 02e8 4900     		lsls	r1, r1, #1
 1216 02ea 8C46     		mov	ip, r1
 1217 02ec BC44     		add	ip, ip, r7
 1218 02ee 6344     		add	r3, r3, ip
 1219 02f0 DA67     		str	r2, [r3, #124]
 1220              	.L55:
 494:Generated_Source\PSoC4/cy_em_eeprom.c ****             {
 1221              		.loc 1 494 0
 1222 02f2 A423     		movs	r3, #164
 1223 02f4 5B00     		lsls	r3, r3, #1
 1224 02f6 FB18     		adds	r3, r7, r3
 1225 02f8 1B68     		ldr	r3, [r3]
 1226 02fa 0133     		adds	r3, r3, #1
 1227 02fc A422     		movs	r2, #164
 1228 02fe 5200     		lsls	r2, r2, #1
 1229 0300 BA18     		adds	r2, r7, r2
 1230 0302 1360     		str	r3, [r2]
 1231              	.L49:
 494:Generated_Source\PSoC4/cy_em_eeprom.c ****             {
 1232              		.loc 1 494 0 is_stmt 0 discriminator 1
 1233 0304 A423     		movs	r3, #164
 1234 0306 5B00     		lsls	r3, r3, #1
 1235 0308 FB18     		adds	r3, r7, r3
 1236 030a 1A68     		ldr	r2, [r3]
 1237 030c 9823     		movs	r3, #152
 1238 030e 5B00     		lsls	r3, r3, #1
 1239 0310 FB18     		adds	r3, r7, r3
 1240 0312 1B68     		ldr	r3, [r3]
 1241 0314 9A42     		cmp	r2, r3
 1242 0316 00D8     		bhi	.LCB1070
 1243 0318 50E7     		b	.L56	@long jump
 1244              	.LCB1070:
 549:Generated_Source\PSoC4/cy_em_eeprom.c ****                                                   CY_EM_EEPROM_EEPROM_DATA_LEN);
 550:Generated_Source\PSoC4/cy_em_eeprom.c ****                 }
 551:Generated_Source\PSoC4/cy_em_eeprom.c ****             }
 552:Generated_Source\PSoC4/cy_em_eeprom.c **** 
 553:Generated_Source\PSoC4/cy_em_eeprom.c ****             /* Write the data to the specified flash row */
 554:Generated_Source\PSoC4/cy_em_eeprom.c ****             ret = WriteRow(emEepromRowAddr, writeRamBuffer, context);
 1245              		.loc 1 554 0 is_stmt 1
 1246 031a BB69     		ldr	r3, [r7, #24]
 1247 031c 5022     		movs	r2, #80
 1248 031e FF32     		adds	r2, r2, #255
 1249 0320 BC18     		adds	r4, r7, r2
ARM GAS  C:\Users\HPz420\AppData\Local\Temp\ccEPczKG.s 			page 33


 1250 0322 3A68     		ldr	r2, [r7]
 1251 0324 2421     		movs	r1, #36
 1252 0326 7918     		adds	r1, r7, r1
 1253 0328 1800     		movs	r0, r3
 1254 032a FFF7FEFF 		bl	WriteRow
 1255 032e 0300     		movs	r3, r0
 1256 0330 2370     		strb	r3, [r4]
 555:Generated_Source\PSoC4/cy_em_eeprom.c ****             tmpRowAddr = emEepromRowAddr;
 1257              		.loc 1 555 0
 1258 0332 BB69     		ldr	r3, [r7, #24]
 1259 0334 A022     		movs	r2, #160
 1260 0336 5200     		lsls	r2, r2, #1
 1261 0338 BA18     		adds	r2, r7, r2
 1262 033a 1360     		str	r3, [r2]
 556:Generated_Source\PSoC4/cy_em_eeprom.c **** 
 557:Generated_Source\PSoC4/cy_em_eeprom.c ****             /* Check if redundant copy is used */
 558:Generated_Source\PSoC4/cy_em_eeprom.c ****             if((0u != context->redundantCopy) && (CY_EM_EEPROM_SUCCESS == ret))
 1263              		.loc 1 558 0
 1264 033c 3B68     		ldr	r3, [r7]
 1265 033e 1B7D     		ldrb	r3, [r3, #20]
 1266 0340 002B     		cmp	r3, #0
 1267 0342 1FD0     		beq	.L57
 1268              		.loc 1 558 0 is_stmt 0 discriminator 1
 1269 0344 5023     		movs	r3, #80
 1270 0346 FF33     		adds	r3, r3, #255
 1271 0348 FB18     		adds	r3, r7, r3
 1272 034a 1B78     		ldrb	r3, [r3]
 1273 034c 002B     		cmp	r3, #0
 1274 034e 19D1     		bne	.L57
 559:Generated_Source\PSoC4/cy_em_eeprom.c ****             {
 560:Generated_Source\PSoC4/cy_em_eeprom.c ****                 /* Update the row address to point to the row in the redundant EEPROM's copy */
 561:Generated_Source\PSoC4/cy_em_eeprom.c ****                 tmpRowAddr = (emEepromRowAddr - context->userFlashStartAddr) + context->wlEndAddr;
 1275              		.loc 1 561 0 is_stmt 1
 1276 0350 BA69     		ldr	r2, [r7, #24]
 1277 0352 3B68     		ldr	r3, [r7]
 1278 0354 9B69     		ldr	r3, [r3, #24]
 1279 0356 D21A     		subs	r2, r2, r3
 1280 0358 3B68     		ldr	r3, [r7]
 1281 035a 1B68     		ldr	r3, [r3]
 1282 035c D318     		adds	r3, r2, r3
 1283 035e A022     		movs	r2, #160
 1284 0360 5200     		lsls	r2, r2, #1
 1285 0362 BA18     		adds	r2, r7, r2
 1286 0364 1360     		str	r3, [r2]
 562:Generated_Source\PSoC4/cy_em_eeprom.c **** 
 563:Generated_Source\PSoC4/cy_em_eeprom.c ****                 /* Write the data to the specified flash row */
 564:Generated_Source\PSoC4/cy_em_eeprom.c ****                 ret = WriteRow(tmpRowAddr, writeRamBuffer, context);
 1287              		.loc 1 564 0
 1288 0366 5023     		movs	r3, #80
 1289 0368 FF33     		adds	r3, r3, #255
 1290 036a FC18     		adds	r4, r7, r3
 1291 036c 3A68     		ldr	r2, [r7]
 1292 036e 2423     		movs	r3, #36
 1293 0370 F918     		adds	r1, r7, r3
 1294 0372 A023     		movs	r3, #160
 1295 0374 5B00     		lsls	r3, r3, #1
 1296 0376 FB18     		adds	r3, r7, r3
ARM GAS  C:\Users\HPz420\AppData\Local\Temp\ccEPczKG.s 			page 34


 1297 0378 1B68     		ldr	r3, [r3]
 1298 037a 1800     		movs	r0, r3
 1299 037c FFF7FEFF 		bl	WriteRow
 1300 0380 0300     		movs	r3, r0
 1301 0382 2370     		strb	r3, [r4]
 1302              	.L57:
 565:Generated_Source\PSoC4/cy_em_eeprom.c ****             }
 566:Generated_Source\PSoC4/cy_em_eeprom.c **** 
 567:Generated_Source\PSoC4/cy_em_eeprom.c ****             if(CY_EM_EEPROM_SUCCESS == ret)
 1303              		.loc 1 567 0
 1304 0384 5023     		movs	r3, #80
 1305 0386 FF33     		adds	r3, r3, #255
 1306 0388 FB18     		adds	r3, r7, r3
 1307 038a 1B78     		ldrb	r3, [r3]
 1308 038c 002B     		cmp	r3, #0
 1309 038e 17D1     		bne	.L63
 568:Generated_Source\PSoC4/cy_em_eeprom.c ****             {
 569:Generated_Source\PSoC4/cy_em_eeprom.c ****                 /* Store last written row address only when EEPROM and redundant
 570:Generated_Source\PSoC4/cy_em_eeprom.c ****                 * copy writes were successful.
 571:Generated_Source\PSoC4/cy_em_eeprom.c ****                 */
 572:Generated_Source\PSoC4/cy_em_eeprom.c ****                 context->lastWrRowAddr = emEepromRowAddr;
 1310              		.loc 1 572 0
 1311 0390 BA69     		ldr	r2, [r7, #24]
 1312 0392 3B68     		ldr	r3, [r7]
 1313 0394 9A60     		str	r2, [r3, #8]
 1314              	.LBE7:
 435:Generated_Source\PSoC4/cy_em_eeprom.c ****         {
 1315              		.loc 1 435 0
 1316 0396 A223     		movs	r3, #162
 1317 0398 5B00     		lsls	r3, r3, #1
 1318 039a FB18     		adds	r3, r7, r3
 1319 039c 1B68     		ldr	r3, [r3]
 1320 039e 0133     		adds	r3, r3, #1
 1321 03a0 A222     		movs	r2, #162
 1322 03a2 5200     		lsls	r2, r2, #1
 1323 03a4 BA18     		adds	r2, r7, r2
 1324 03a6 1360     		str	r3, [r2]
 1325              	.L43:
 435:Generated_Source\PSoC4/cy_em_eeprom.c ****         {
 1326              		.loc 1 435 0 is_stmt 0 discriminator 1
 1327 03a8 A223     		movs	r3, #162
 1328 03aa 5B00     		lsls	r3, r3, #1
 1329 03ac FB18     		adds	r3, r7, r3
 1330 03ae 1A68     		ldr	r2, [r3]
 1331 03b0 9A23     		movs	r3, #154
 1332 03b2 5B00     		lsls	r3, r3, #1
 1333 03b4 FB18     		adds	r3, r7, r3
 1334 03b6 1B68     		ldr	r3, [r3]
 1335 03b8 9A42     		cmp	r2, r3
 1336 03ba 00D2     		bcs	.LCB1154
 1337 03bc 5CE6     		b	.L61	@long jump
 1338              	.LCB1154:
 1339 03be 00E0     		b	.L42
 1340              	.L63:
 1341              	.LBB9:
 573:Generated_Source\PSoC4/cy_em_eeprom.c ****             }
 574:Generated_Source\PSoC4/cy_em_eeprom.c ****             else
ARM GAS  C:\Users\HPz420\AppData\Local\Temp\ccEPczKG.s 			page 35


 575:Generated_Source\PSoC4/cy_em_eeprom.c ****             {
 576:Generated_Source\PSoC4/cy_em_eeprom.c ****                 break;
 1342              		.loc 1 576 0 is_stmt 1
 1343 03c0 C046     		nop
 1344              	.L42:
 1345              	.LBE9:
 1346              	.LBE6:
 577:Generated_Source\PSoC4/cy_em_eeprom.c ****             }
 578:Generated_Source\PSoC4/cy_em_eeprom.c ****         }
 579:Generated_Source\PSoC4/cy_em_eeprom.c ****     }
 580:Generated_Source\PSoC4/cy_em_eeprom.c ****     return(ret);
 1347              		.loc 1 580 0
 1348 03c2 5023     		movs	r3, #80
 1349 03c4 FF33     		adds	r3, r3, #255
 1350 03c6 FB18     		adds	r3, r7, r3
 1351 03c8 1B78     		ldrb	r3, [r3]
 581:Generated_Source\PSoC4/cy_em_eeprom.c **** }
 1352              		.loc 1 581 0
 1353 03ca 1800     		movs	r0, r3
 1354 03cc BD46     		mov	sp, r7
 1355 03ce 54B0     		add	sp, sp, #336
 1356              		@ sp needed
 1357 03d0 B0BD     		pop	{r4, r5, r7, pc}
 1358              	.L65:
 1359 03d2 C046     		.align	2
 1360              	.L64:
 1361 03d4 D4FEFFFF 		.word	-300
 1362              		.cfi_endproc
 1363              	.LFE3:
 1364              		.size	Cy_Em_EEPROM_Write, .-Cy_Em_EEPROM_Write
 1365              		.section	.text.Cy_Em_EEPROM_Erase,"ax",%progbits
 1366              		.align	2
 1367              		.global	Cy_Em_EEPROM_Erase
 1368              		.code	16
 1369              		.thumb_func
 1370              		.type	Cy_Em_EEPROM_Erase, %function
 1371              	Cy_Em_EEPROM_Erase:
 1372              	.LFB4:
 582:Generated_Source\PSoC4/cy_em_eeprom.c **** 
 583:Generated_Source\PSoC4/cy_em_eeprom.c **** 
 584:Generated_Source\PSoC4/cy_em_eeprom.c **** /*******************************************************************************
 585:Generated_Source\PSoC4/cy_em_eeprom.c **** * Function Name: Cy_Em_EEPROM_Erase
 586:Generated_Source\PSoC4/cy_em_eeprom.c **** ****************************************************************************//**
 587:Generated_Source\PSoC4/cy_em_eeprom.c **** *
 588:Generated_Source\PSoC4/cy_em_eeprom.c **** * This function erases the entire contents of the EEPROM. Erased values are all
 589:Generated_Source\PSoC4/cy_em_eeprom.c **** * zeros. This is a blocking function and it does not return until the write
 590:Generated_Source\PSoC4/cy_em_eeprom.c **** * operation is completed. The user firmware should not enter Hibernate mode until
 591:Generated_Source\PSoC4/cy_em_eeprom.c **** * erase is completed. The erase operation is allowed in Sleep and Deep-Sleep modes.
 592:Generated_Source\PSoC4/cy_em_eeprom.c **** * During the flash operation, the device should not be reset, including the
 593:Generated_Source\PSoC4/cy_em_eeprom.c **** * XRES pin, a software reset, and watchdog reset sources. Also, low-voltage
 594:Generated_Source\PSoC4/cy_em_eeprom.c **** * detect circuits should be configured to generate an interrupt instead of a
 595:Generated_Source\PSoC4/cy_em_eeprom.c **** * reset. Otherwise, portions of flash may undergo unexpected changes.
 596:Generated_Source\PSoC4/cy_em_eeprom.c **** *
 597:Generated_Source\PSoC4/cy_em_eeprom.c **** * \param context
 598:Generated_Source\PSoC4/cy_em_eeprom.c **** * The pointer to the EEPROM context structure \ref cy_stc_eeprom_context_t.
 599:Generated_Source\PSoC4/cy_em_eeprom.c **** *
 600:Generated_Source\PSoC4/cy_em_eeprom.c **** * \return
ARM GAS  C:\Users\HPz420\AppData\Local\Temp\ccEPczKG.s 			page 36


 601:Generated_Source\PSoC4/cy_em_eeprom.c **** * This function returns \ref cy_en_em_eeprom_status_t.
 602:Generated_Source\PSoC4/cy_em_eeprom.c **** *
 603:Generated_Source\PSoC4/cy_em_eeprom.c **** * \note
 604:Generated_Source\PSoC4/cy_em_eeprom.c **** * For all non PSoC 6 devices the erase operation is performed by clearing
 605:Generated_Source\PSoC4/cy_em_eeprom.c **** * the EEPROM data using flash write. This affects the flash durability.
 606:Generated_Source\PSoC4/cy_em_eeprom.c **** * So it is recommended to use this function in utmost case to prolongate
 607:Generated_Source\PSoC4/cy_em_eeprom.c **** * flash life.
 608:Generated_Source\PSoC4/cy_em_eeprom.c **** *
 609:Generated_Source\PSoC4/cy_em_eeprom.c **** * \note
 610:Generated_Source\PSoC4/cy_em_eeprom.c **** * This function uses a buffer of the flash row size to perform erase
 611:Generated_Source\PSoC4/cy_em_eeprom.c **** * operation. For the size of the row refer to the specific PSoC device
 612:Generated_Source\PSoC4/cy_em_eeprom.c **** * datasheet.
 613:Generated_Source\PSoC4/cy_em_eeprom.c **** *
 614:Generated_Source\PSoC4/cy_em_eeprom.c **** * \sideeffect
 615:Generated_Source\PSoC4/cy_em_eeprom.c **** * In case when blocking write option is used, if this function is called by
 616:Generated_Source\PSoC4/cy_em_eeprom.c **** * the CM4 the user code on CM0P and the user code on CM4 are blocked until erase
 617:Generated_Source\PSoC4/cy_em_eeprom.c **** * flash row operation is finished. If this function is called by the CM0P the
 618:Generated_Source\PSoC4/cy_em_eeprom.c **** * user code on CM4 is not blocked and the user code on CM0P is blocked until
 619:Generated_Source\PSoC4/cy_em_eeprom.c **** * erase flash row operation is finished. Plan your task allocation accordingly.
 620:Generated_Source\PSoC4/cy_em_eeprom.c **** *
 621:Generated_Source\PSoC4/cy_em_eeprom.c **** * \sideeffect
 622:Generated_Source\PSoC4/cy_em_eeprom.c **** * In case if non-blocking write option is used and when user flash is used as
 623:Generated_Source\PSoC4/cy_em_eeprom.c **** * an EEPROM storage care should be taken to prevent the read while write (RWW)
 624:Generated_Source\PSoC4/cy_em_eeprom.c **** * exception. To prevent the RWW exception the user flash macro that includes
 625:Generated_Source\PSoC4/cy_em_eeprom.c **** * the EEPROM storage should not be read while the EEPROM erase is not completed.
 626:Generated_Source\PSoC4/cy_em_eeprom.c **** * The read also means the user code execution from the respective flash macro.
 627:Generated_Source\PSoC4/cy_em_eeprom.c **** *
 628:Generated_Source\PSoC4/cy_em_eeprom.c **** *******************************************************************************/
 629:Generated_Source\PSoC4/cy_em_eeprom.c **** cy_en_em_eeprom_status_t Cy_Em_EEPROM_Erase(cy_stc_eeprom_context_t * context)
 630:Generated_Source\PSoC4/cy_em_eeprom.c **** {
 1373              		.loc 1 630 0
 1374              		.cfi_startproc
 1375              		@ args = 0, pretend = 0, frame = 288
 1376              		@ frame_needed = 1, uses_anonymous_args = 0
 1377 0000 90B5     		push	{r4, r7, lr}
 1378              		.cfi_def_cfa_offset 12
 1379              		.cfi_offset 4, -12
 1380              		.cfi_offset 7, -8
 1381              		.cfi_offset 14, -4
 1382 0002 C9B0     		sub	sp, sp, #292
 1383              		.cfi_def_cfa_offset 304
 1384 0004 00AF     		add	r7, sp, #0
 1385              		.cfi_def_cfa_register 7
 1386 0006 7860     		str	r0, [r7, #4]
 631:Generated_Source\PSoC4/cy_em_eeprom.c ****     uint32 i;
 632:Generated_Source\PSoC4/cy_em_eeprom.c ****     uint32 seqNum;
 633:Generated_Source\PSoC4/cy_em_eeprom.c ****     uint32 emEepromRowAddr = context->lastWrRowAddr;
 1387              		.loc 1 633 0
 1388 0008 7B68     		ldr	r3, [r7, #4]
 1389 000a 9B68     		ldr	r3, [r3, #8]
 1390 000c 8622     		movs	r2, #134
 1391 000e 5200     		lsls	r2, r2, #1
 1392 0010 BA18     		adds	r2, r7, r2
 1393 0012 1360     		str	r3, [r2]
 634:Generated_Source\PSoC4/cy_em_eeprom.c ****     uint32 emEepromRowRdAddr;
 635:Generated_Source\PSoC4/cy_em_eeprom.c ****     cy_en_em_eeprom_status_t ret = CY_EM_EEPROM_WRITE_FAIL;
 1394              		.loc 1 635 0
ARM GAS  C:\Users\HPz420\AppData\Local\Temp\ccEPczKG.s 			page 37


 1395 0014 1C23     		movs	r3, #28
 1396 0016 FF33     		adds	r3, r3, #255
 1397 0018 FB18     		adds	r3, r7, r3
 1398 001a 0422     		movs	r2, #4
 1399 001c 1A70     		strb	r2, [r3]
 636:Generated_Source\PSoC4/cy_em_eeprom.c ****     uint32 writeRamBuffer[CY_EM_EEPROM_FLASH_SIZEOF_ROW / CY_EM_EEPROM_U32_DIV] = {0u};
 1400              		.loc 1 636 0
 1401 001e 494B     		ldr	r3, .L72
 1402 0020 9022     		movs	r2, #144
 1403 0022 5200     		lsls	r2, r2, #1
 1404 0024 9446     		mov	ip, r2
 1405 0026 BC44     		add	ip, ip, r7
 1406 0028 6344     		add	r3, r3, ip
 1407 002a 1800     		movs	r0, r3
 1408 002c 8023     		movs	r3, #128
 1409 002e 5B00     		lsls	r3, r3, #1
 1410 0030 1A00     		movs	r2, r3
 1411 0032 0021     		movs	r1, #0
 1412 0034 FFF7FEFF 		bl	memset
 637:Generated_Source\PSoC4/cy_em_eeprom.c **** #if (CY_PSOC6)
 638:Generated_Source\PSoC4/cy_em_eeprom.c ****     uint32 emEepromStoredRowAddr = context->lastWrRowAddr;
 639:Generated_Source\PSoC4/cy_em_eeprom.c ****     uint32 storedSeqNum;
 640:Generated_Source\PSoC4/cy_em_eeprom.c **** #endif /* (!CY_PSOC6) */
 641:Generated_Source\PSoC4/cy_em_eeprom.c **** 
 642:Generated_Source\PSoC4/cy_em_eeprom.c ****     /* Get the sequence number of the last written row */
 643:Generated_Source\PSoC4/cy_em_eeprom.c ****     seqNum = CY_EM_EEPROM_GET_SEQ_NUM(emEepromRowAddr);
 1413              		.loc 1 643 0
 1414 0038 8623     		movs	r3, #134
 1415 003a 5B00     		lsls	r3, r3, #1
 1416 003c FB18     		adds	r3, r7, r3
 1417 003e 1B68     		ldr	r3, [r3]
 1418 0040 1B68     		ldr	r3, [r3]
 1419 0042 8A22     		movs	r2, #138
 1420 0044 5200     		lsls	r2, r2, #1
 1421 0046 BA18     		adds	r2, r7, r2
 1422 0048 1360     		str	r3, [r2]
 644:Generated_Source\PSoC4/cy_em_eeprom.c **** 
 645:Generated_Source\PSoC4/cy_em_eeprom.c ****     /* If there were no writes to EEPROM - nothing to erase */
 646:Generated_Source\PSoC4/cy_em_eeprom.c ****     if(0u != seqNum)
 1423              		.loc 1 646 0
 1424 004a 8A23     		movs	r3, #138
 1425 004c 5B00     		lsls	r3, r3, #1
 1426 004e FB18     		adds	r3, r7, r3
 1427 0050 1B68     		ldr	r3, [r3]
 1428 0052 002B     		cmp	r3, #0
 1429 0054 6ED0     		beq	.L67
 1430              	.LBB10:
 647:Generated_Source\PSoC4/cy_em_eeprom.c ****     {
 648:Generated_Source\PSoC4/cy_em_eeprom.c ****         /* Calculate the number of row erase operations required */
 649:Generated_Source\PSoC4/cy_em_eeprom.c ****         uint32 numWrites = context->numberOfRows * context->wearLevelingFactor;
 1431              		.loc 1 649 0
 1432 0056 7B68     		ldr	r3, [r7, #4]
 1433 0058 5A68     		ldr	r2, [r3, #4]
 1434 005a 7B68     		ldr	r3, [r7, #4]
 1435 005c 1B69     		ldr	r3, [r3, #16]
 1436 005e 5343     		muls	r3, r2
 1437 0060 8822     		movs	r2, #136
ARM GAS  C:\Users\HPz420\AppData\Local\Temp\ccEPczKG.s 			page 38


 1438 0062 5200     		lsls	r2, r2, #1
 1439 0064 BA18     		adds	r2, r7, r2
 1440 0066 1360     		str	r3, [r2]
 650:Generated_Source\PSoC4/cy_em_eeprom.c **** 
 651:Generated_Source\PSoC4/cy_em_eeprom.c ****     #if (CY_PSOC6)
 652:Generated_Source\PSoC4/cy_em_eeprom.c ****         GetNextRowToWrite(seqNum, &emEepromStoredRowAddr, &emEepromRowRdAddr, context);
 653:Generated_Source\PSoC4/cy_em_eeprom.c ****         storedSeqNum = seqNum + 1u;
 654:Generated_Source\PSoC4/cy_em_eeprom.c ****     #endif /* (CY_PSOC6) */
 655:Generated_Source\PSoC4/cy_em_eeprom.c **** 
 656:Generated_Source\PSoC4/cy_em_eeprom.c ****         if(0u != context->redundantCopy)
 1441              		.loc 1 656 0
 1442 0068 7B68     		ldr	r3, [r7, #4]
 1443 006a 1B7D     		ldrb	r3, [r3, #20]
 1444 006c 002B     		cmp	r3, #0
 1445 006e 0FD0     		beq	.L68
 657:Generated_Source\PSoC4/cy_em_eeprom.c ****         {
 658:Generated_Source\PSoC4/cy_em_eeprom.c ****             writeRamBuffer[CY_EM_EEPROM_HEADER_CHECKSUM_OFFSET_U32] = (uint32)
 659:Generated_Source\PSoC4/cy_em_eeprom.c ****                         CalcChecksum((uint8 *) &writeRamBuffer[CY_EM_EEPROM_EEPROM_DATA_OFFSET_U32]
 1446              		.loc 1 659 0
 1447 0070 0823     		movs	r3, #8
 1448 0072 FB18     		adds	r3, r7, r3
 1449 0074 8033     		adds	r3, r3, #128
 1450 0076 8021     		movs	r1, #128
 1451 0078 1800     		movs	r0, r3
 1452 007a FFF7FEFF 		bl	CalcChecksum
 1453 007e 0300     		movs	r3, r0
 658:Generated_Source\PSoC4/cy_em_eeprom.c ****                         CalcChecksum((uint8 *) &writeRamBuffer[CY_EM_EEPROM_EEPROM_DATA_OFFSET_U32]
 1454              		.loc 1 658 0
 1455 0080 1A00     		movs	r2, r3
 1456 0082 304B     		ldr	r3, .L72
 1457 0084 9021     		movs	r1, #144
 1458 0086 4900     		lsls	r1, r1, #1
 1459 0088 8C46     		mov	ip, r1
 1460 008a BC44     		add	ip, ip, r7
 1461 008c 6344     		add	r3, r3, ip
 1462 008e DA67     		str	r2, [r3, #124]
 1463              	.L68:
 660:Generated_Source\PSoC4/cy_em_eeprom.c ****                                                   CY_EM_EEPROM_EEPROM_DATA_LEN);
 661:Generated_Source\PSoC4/cy_em_eeprom.c ****         }
 662:Generated_Source\PSoC4/cy_em_eeprom.c **** 
 663:Generated_Source\PSoC4/cy_em_eeprom.c ****         for(i = 0u; i < numWrites; i++)
 1464              		.loc 1 663 0
 1465 0090 0023     		movs	r3, #0
 1466 0092 8E22     		movs	r2, #142
 1467 0094 5200     		lsls	r2, r2, #1
 1468 0096 BA18     		adds	r2, r7, r2
 1469 0098 1360     		str	r3, [r2]
 1470 009a 41E0     		b	.L69
 1471              	.L70:
 664:Generated_Source\PSoC4/cy_em_eeprom.c ****         {
 665:Generated_Source\PSoC4/cy_em_eeprom.c ****         #if (CY_PSOC6)
 666:Generated_Source\PSoC4/cy_em_eeprom.c ****             /* For PSoC 6 the erase operation moves backwards. From last written row
 667:Generated_Source\PSoC4/cy_em_eeprom.c ****             * identified by "seqNum" down to "seqNum" - "numWrites". If "emEepromRowAddr"
 668:Generated_Source\PSoC4/cy_em_eeprom.c ****             * is zero this means that the row identified by "seqNum" was previously 
 669:Generated_Source\PSoC4/cy_em_eeprom.c ****             * erased.
 670:Generated_Source\PSoC4/cy_em_eeprom.c ****             */
 671:Generated_Source\PSoC4/cy_em_eeprom.c ****             if(0u != emEepromRowAddr)
ARM GAS  C:\Users\HPz420\AppData\Local\Temp\ccEPczKG.s 			page 39


 672:Generated_Source\PSoC4/cy_em_eeprom.c ****             {
 673:Generated_Source\PSoC4/cy_em_eeprom.c ****                 ret = EraseRow(emEepromRowAddr, (uint32)writeRamBuffer, context);
 674:Generated_Source\PSoC4/cy_em_eeprom.c ****             }
 675:Generated_Source\PSoC4/cy_em_eeprom.c **** 
 676:Generated_Source\PSoC4/cy_em_eeprom.c ****             seqNum--;
 677:Generated_Source\PSoC4/cy_em_eeprom.c **** 
 678:Generated_Source\PSoC4/cy_em_eeprom.c ****             if(0u == seqNum)
 679:Generated_Source\PSoC4/cy_em_eeprom.c ****             {
 680:Generated_Source\PSoC4/cy_em_eeprom.c ****                 /* Exit the loop as there is no more row is EEPROM to be erased */
 681:Generated_Source\PSoC4/cy_em_eeprom.c ****                 break;
 682:Generated_Source\PSoC4/cy_em_eeprom.c ****             }
 683:Generated_Source\PSoC4/cy_em_eeprom.c ****             emEepromRowAddr = GetRowAddrBySeqNum(seqNum, context);
 684:Generated_Source\PSoC4/cy_em_eeprom.c ****         #else
 685:Generated_Source\PSoC4/cy_em_eeprom.c ****             seqNum = CY_EM_EEPROM_GET_SEQ_NUM(emEepromRowAddr);
 1472              		.loc 1 685 0 discriminator 3
 1473 009c 8623     		movs	r3, #134
 1474 009e 5B00     		lsls	r3, r3, #1
 1475 00a0 FB18     		adds	r3, r7, r3
 1476 00a2 1B68     		ldr	r3, [r3]
 1477 00a4 1B68     		ldr	r3, [r3]
 1478 00a6 8A22     		movs	r2, #138
 1479 00a8 5200     		lsls	r2, r2, #1
 1480 00aa BA18     		adds	r2, r7, r2
 1481 00ac 1360     		str	r3, [r2]
 686:Generated_Source\PSoC4/cy_em_eeprom.c ****             /* Get the address of the row to be erased. "emEepromRowAddr" may be updated
 687:Generated_Source\PSoC4/cy_em_eeprom.c ****             * with the proper address (if wear leveling is used).
 688:Generated_Source\PSoC4/cy_em_eeprom.c ****             */
 689:Generated_Source\PSoC4/cy_em_eeprom.c ****             GetNextRowToWrite(seqNum, &emEepromRowAddr, &emEepromRowRdAddr, context);
 1482              		.loc 1 689 0 discriminator 3
 1483 00ae 7B68     		ldr	r3, [r7, #4]
 1484 00b0 8422     		movs	r2, #132
 1485 00b2 5200     		lsls	r2, r2, #1
 1486 00b4 BA18     		adds	r2, r7, r2
 1487 00b6 8621     		movs	r1, #134
 1488 00b8 4900     		lsls	r1, r1, #1
 1489 00ba 7918     		adds	r1, r7, r1
 1490 00bc 8A20     		movs	r0, #138
 1491 00be 4000     		lsls	r0, r0, #1
 1492 00c0 3818     		adds	r0, r7, r0
 1493 00c2 0068     		ldr	r0, [r0]
 1494 00c4 FFF7FEFF 		bl	GetNextRowToWrite
 690:Generated_Source\PSoC4/cy_em_eeprom.c ****             seqNum++;
 1495              		.loc 1 690 0 discriminator 3
 1496 00c8 8A23     		movs	r3, #138
 1497 00ca 5B00     		lsls	r3, r3, #1
 1498 00cc FB18     		adds	r3, r7, r3
 1499 00ce 1B68     		ldr	r3, [r3]
 1500 00d0 0133     		adds	r3, r3, #1
 1501 00d2 8A22     		movs	r2, #138
 1502 00d4 5200     		lsls	r2, r2, #1
 1503 00d6 BA18     		adds	r2, r7, r2
 1504 00d8 1360     		str	r3, [r2]
 691:Generated_Source\PSoC4/cy_em_eeprom.c ****             writeRamBuffer[0u] = seqNum;
 1505              		.loc 1 691 0 discriminator 3
 1506 00da 1A4B     		ldr	r3, .L72
 1507 00dc 9022     		movs	r2, #144
 1508 00de 5200     		lsls	r2, r2, #1
ARM GAS  C:\Users\HPz420\AppData\Local\Temp\ccEPczKG.s 			page 40


 1509 00e0 9446     		mov	ip, r2
 1510 00e2 BC44     		add	ip, ip, r7
 1511 00e4 6344     		add	r3, r3, ip
 1512 00e6 8A22     		movs	r2, #138
 1513 00e8 5200     		lsls	r2, r2, #1
 1514 00ea BA18     		adds	r2, r7, r2
 1515 00ec 1268     		ldr	r2, [r2]
 1516 00ee 1A60     		str	r2, [r3]
 692:Generated_Source\PSoC4/cy_em_eeprom.c ****             ret = EraseRow(emEepromRowAddr, (uint32)writeRamBuffer, context);
 1517              		.loc 1 692 0 discriminator 3
 1518 00f0 8623     		movs	r3, #134
 1519 00f2 5B00     		lsls	r3, r3, #1
 1520 00f4 FB18     		adds	r3, r7, r3
 1521 00f6 1B68     		ldr	r3, [r3]
 1522 00f8 0822     		movs	r2, #8
 1523 00fa B918     		adds	r1, r7, r2
 1524 00fc 1C22     		movs	r2, #28
 1525 00fe FF32     		adds	r2, r2, #255
 1526 0100 BC18     		adds	r4, r7, r2
 1527 0102 7A68     		ldr	r2, [r7, #4]
 1528 0104 1800     		movs	r0, r3
 1529 0106 FFF7FEFF 		bl	EraseRow
 1530 010a 0300     		movs	r3, r0
 1531 010c 2370     		strb	r3, [r4]
 663:Generated_Source\PSoC4/cy_em_eeprom.c ****         {
 1532              		.loc 1 663 0 discriminator 3
 1533 010e 8E23     		movs	r3, #142
 1534 0110 5B00     		lsls	r3, r3, #1
 1535 0112 FB18     		adds	r3, r7, r3
 1536 0114 1B68     		ldr	r3, [r3]
 1537 0116 0133     		adds	r3, r3, #1
 1538 0118 8E22     		movs	r2, #142
 1539 011a 5200     		lsls	r2, r2, #1
 1540 011c BA18     		adds	r2, r7, r2
 1541 011e 1360     		str	r3, [r2]
 1542              	.L69:
 663:Generated_Source\PSoC4/cy_em_eeprom.c ****         {
 1543              		.loc 1 663 0 is_stmt 0 discriminator 1
 1544 0120 8E23     		movs	r3, #142
 1545 0122 5B00     		lsls	r3, r3, #1
 1546 0124 FB18     		adds	r3, r7, r3
 1547 0126 1A68     		ldr	r2, [r3]
 1548 0128 8823     		movs	r3, #136
 1549 012a 5B00     		lsls	r3, r3, #1
 1550 012c FB18     		adds	r3, r7, r3
 1551 012e 1B68     		ldr	r3, [r3]
 1552 0130 9A42     		cmp	r2, r3
 1553 0132 B3D3     		bcc	.L70
 1554              	.L67:
 1555              	.LBE10:
 693:Generated_Source\PSoC4/cy_em_eeprom.c ****         #endif /* (CY_PSOC6) */
 694:Generated_Source\PSoC4/cy_em_eeprom.c ****         }
 695:Generated_Source\PSoC4/cy_em_eeprom.c **** 
 696:Generated_Source\PSoC4/cy_em_eeprom.c ****     #if (CY_PSOC6)
 697:Generated_Source\PSoC4/cy_em_eeprom.c ****         if(CY_EM_EEPROM_SUCCESS == ret)
 698:Generated_Source\PSoC4/cy_em_eeprom.c ****         {
 699:Generated_Source\PSoC4/cy_em_eeprom.c ****             writeRamBuffer[0u] = storedSeqNum;
ARM GAS  C:\Users\HPz420\AppData\Local\Temp\ccEPczKG.s 			page 41


 700:Generated_Source\PSoC4/cy_em_eeprom.c **** 
 701:Generated_Source\PSoC4/cy_em_eeprom.c ****             /* Write the previously stored sequence number to the flash row which would be
 702:Generated_Source\PSoC4/cy_em_eeprom.c ****             * written next if the erase wouldn't happen. In this case the write to
 703:Generated_Source\PSoC4/cy_em_eeprom.c ****             * redundant copy can be skipped as it does not add any value.
 704:Generated_Source\PSoC4/cy_em_eeprom.c ****             */
 705:Generated_Source\PSoC4/cy_em_eeprom.c ****             ret = WriteRow(emEepromStoredRowAddr, writeRamBuffer, context);
 706:Generated_Source\PSoC4/cy_em_eeprom.c **** 
 707:Generated_Source\PSoC4/cy_em_eeprom.c ****             if(CY_EM_EEPROM_SUCCESS == ret)
 708:Generated_Source\PSoC4/cy_em_eeprom.c ****             {
 709:Generated_Source\PSoC4/cy_em_eeprom.c ****                 context->lastWrRowAddr = emEepromStoredRowAddr;
 710:Generated_Source\PSoC4/cy_em_eeprom.c ****             }
 711:Generated_Source\PSoC4/cy_em_eeprom.c ****         }
 712:Generated_Source\PSoC4/cy_em_eeprom.c ****     #endif /* (CY_PSOC6) */
 713:Generated_Source\PSoC4/cy_em_eeprom.c **** 
 714:Generated_Source\PSoC4/cy_em_eeprom.c ****     }
 715:Generated_Source\PSoC4/cy_em_eeprom.c ****     return(ret);
 1556              		.loc 1 715 0 is_stmt 1
 1557 0134 1C23     		movs	r3, #28
 1558 0136 FF33     		adds	r3, r3, #255
 1559 0138 FB18     		adds	r3, r7, r3
 1560 013a 1B78     		ldrb	r3, [r3]
 716:Generated_Source\PSoC4/cy_em_eeprom.c **** }
 1561              		.loc 1 716 0
 1562 013c 1800     		movs	r0, r3
 1563 013e BD46     		mov	sp, r7
 1564 0140 49B0     		add	sp, sp, #292
 1565              		@ sp needed
 1566 0142 90BD     		pop	{r4, r7, pc}
 1567              	.L73:
 1568              		.align	2
 1569              	.L72:
 1570 0144 E8FEFFFF 		.word	-280
 1571              		.cfi_endproc
 1572              	.LFE4:
 1573              		.size	Cy_Em_EEPROM_Erase, .-Cy_Em_EEPROM_Erase
 1574              		.section	.text.Cy_Em_EEPROM_NumWrites,"ax",%progbits
 1575              		.align	2
 1576              		.global	Cy_Em_EEPROM_NumWrites
 1577              		.code	16
 1578              		.thumb_func
 1579              		.type	Cy_Em_EEPROM_NumWrites, %function
 1580              	Cy_Em_EEPROM_NumWrites:
 1581              	.LFB5:
 717:Generated_Source\PSoC4/cy_em_eeprom.c **** 
 718:Generated_Source\PSoC4/cy_em_eeprom.c **** 
 719:Generated_Source\PSoC4/cy_em_eeprom.c **** /*******************************************************************************
 720:Generated_Source\PSoC4/cy_em_eeprom.c **** * Function Name: Cy_Em_EEPROM_NumWrites
 721:Generated_Source\PSoC4/cy_em_eeprom.c **** ****************************************************************************//**
 722:Generated_Source\PSoC4/cy_em_eeprom.c **** *
 723:Generated_Source\PSoC4/cy_em_eeprom.c **** * Returns the number of the EEPROM writes completed so far.
 724:Generated_Source\PSoC4/cy_em_eeprom.c **** *
 725:Generated_Source\PSoC4/cy_em_eeprom.c **** * \param context
 726:Generated_Source\PSoC4/cy_em_eeprom.c **** * The pointer to the EEPROM context structure \ref cy_stc_eeprom_context_t.
 727:Generated_Source\PSoC4/cy_em_eeprom.c **** *
 728:Generated_Source\PSoC4/cy_em_eeprom.c **** * \return
 729:Generated_Source\PSoC4/cy_em_eeprom.c **** * The number of writes performed to the EEPROM.
 730:Generated_Source\PSoC4/cy_em_eeprom.c **** *
ARM GAS  C:\Users\HPz420\AppData\Local\Temp\ccEPczKG.s 			page 42


 731:Generated_Source\PSoC4/cy_em_eeprom.c **** *******************************************************************************/
 732:Generated_Source\PSoC4/cy_em_eeprom.c **** uint32 Cy_Em_EEPROM_NumWrites(cy_stc_eeprom_context_t * context)
 733:Generated_Source\PSoC4/cy_em_eeprom.c **** {
 1582              		.loc 1 733 0
 1583              		.cfi_startproc
 1584              		@ args = 0, pretend = 0, frame = 8
 1585              		@ frame_needed = 1, uses_anonymous_args = 0
 1586 0000 80B5     		push	{r7, lr}
 1587              		.cfi_def_cfa_offset 8
 1588              		.cfi_offset 7, -8
 1589              		.cfi_offset 14, -4
 1590 0002 82B0     		sub	sp, sp, #8
 1591              		.cfi_def_cfa_offset 16
 1592 0004 00AF     		add	r7, sp, #0
 1593              		.cfi_def_cfa_register 7
 1594 0006 7860     		str	r0, [r7, #4]
 734:Generated_Source\PSoC4/cy_em_eeprom.c ****     return(CY_EM_EEPROM_GET_SEQ_NUM(context->lastWrRowAddr));
 1595              		.loc 1 734 0
 1596 0008 7B68     		ldr	r3, [r7, #4]
 1597 000a 9B68     		ldr	r3, [r3, #8]
 1598 000c 1B68     		ldr	r3, [r3]
 735:Generated_Source\PSoC4/cy_em_eeprom.c **** }
 1599              		.loc 1 735 0
 1600 000e 1800     		movs	r0, r3
 1601 0010 BD46     		mov	sp, r7
 1602 0012 02B0     		add	sp, sp, #8
 1603              		@ sp needed
 1604 0014 80BD     		pop	{r7, pc}
 1605              		.cfi_endproc
 1606              	.LFE5:
 1607              		.size	Cy_Em_EEPROM_NumWrites, .-Cy_Em_EEPROM_NumWrites
 1608 0016 C046     		.section	.text.FindLastWrittenRow,"ax",%progbits
 1609              		.align	2
 1610              		.code	16
 1611              		.thumb_func
 1612              		.type	FindLastWrittenRow, %function
 1613              	FindLastWrittenRow:
 1614              	.LFB6:
 736:Generated_Source\PSoC4/cy_em_eeprom.c **** 
 737:Generated_Source\PSoC4/cy_em_eeprom.c **** /** \} */
 738:Generated_Source\PSoC4/cy_em_eeprom.c **** 
 739:Generated_Source\PSoC4/cy_em_eeprom.c **** /** \cond INTERNAL */
 740:Generated_Source\PSoC4/cy_em_eeprom.c **** 
 741:Generated_Source\PSoC4/cy_em_eeprom.c **** 
 742:Generated_Source\PSoC4/cy_em_eeprom.c **** /*******************************************************************************
 743:Generated_Source\PSoC4/cy_em_eeprom.c **** * Function Name: FindLastWrittenRow
 744:Generated_Source\PSoC4/cy_em_eeprom.c **** ****************************************************************************//**
 745:Generated_Source\PSoC4/cy_em_eeprom.c **** *
 746:Generated_Source\PSoC4/cy_em_eeprom.c **** * Performs a search of the last written row address of the EEPROM associated
 747:Generated_Source\PSoC4/cy_em_eeprom.c **** * with the context structure. If there were no writes to the EEPROM the
 748:Generated_Source\PSoC4/cy_em_eeprom.c **** * function returns the start address of the EEPROM. The row address is returned
 749:Generated_Source\PSoC4/cy_em_eeprom.c **** * in the input parameter.
 750:Generated_Source\PSoC4/cy_em_eeprom.c **** *
 751:Generated_Source\PSoC4/cy_em_eeprom.c **** * \param lastWrRowPtr
 752:Generated_Source\PSoC4/cy_em_eeprom.c **** * The pointer to a memory where the last written row will be returned.
 753:Generated_Source\PSoC4/cy_em_eeprom.c **** *
 754:Generated_Source\PSoC4/cy_em_eeprom.c **** * \param context
ARM GAS  C:\Users\HPz420\AppData\Local\Temp\ccEPczKG.s 			page 43


 755:Generated_Source\PSoC4/cy_em_eeprom.c **** * The pointer to the EEPROM context structure \ref cy_stc_eeprom_context_t.
 756:Generated_Source\PSoC4/cy_em_eeprom.c **** *
 757:Generated_Source\PSoC4/cy_em_eeprom.c **** *******************************************************************************/
 758:Generated_Source\PSoC4/cy_em_eeprom.c **** static void FindLastWrittenRow(uint32 * lastWrRowPtr, cy_stc_eeprom_context_t * context)
 759:Generated_Source\PSoC4/cy_em_eeprom.c **** {
 1615              		.loc 1 759 0
 1616              		.cfi_startproc
 1617              		@ args = 0, pretend = 0, frame = 24
 1618              		@ frame_needed = 1, uses_anonymous_args = 0
 1619 0000 80B5     		push	{r7, lr}
 1620              		.cfi_def_cfa_offset 8
 1621              		.cfi_offset 7, -8
 1622              		.cfi_offset 14, -4
 1623 0002 86B0     		sub	sp, sp, #24
 1624              		.cfi_def_cfa_offset 32
 1625 0004 00AF     		add	r7, sp, #0
 1626              		.cfi_def_cfa_register 7
 1627 0006 7860     		str	r0, [r7, #4]
 1628 0008 3960     		str	r1, [r7]
 760:Generated_Source\PSoC4/cy_em_eeprom.c ****     uint32 seqNum = 0u;
 1629              		.loc 1 760 0
 1630 000a 0023     		movs	r3, #0
 1631 000c BB60     		str	r3, [r7, #8]
 761:Generated_Source\PSoC4/cy_em_eeprom.c ****     uint32 prevSeqNum = 0u;
 1632              		.loc 1 761 0
 1633 000e 0023     		movs	r3, #0
 1634 0010 7B61     		str	r3, [r7, #20]
 762:Generated_Source\PSoC4/cy_em_eeprom.c ****     uint32 numRows;
 763:Generated_Source\PSoC4/cy_em_eeprom.c ****     uint32 emEepromAddr = context->userFlashStartAddr;
 1635              		.loc 1 763 0
 1636 0012 3B68     		ldr	r3, [r7]
 1637 0014 9B69     		ldr	r3, [r3, #24]
 1638 0016 FB60     		str	r3, [r7, #12]
 764:Generated_Source\PSoC4/cy_em_eeprom.c **** 
 765:Generated_Source\PSoC4/cy_em_eeprom.c ****     *lastWrRowPtr = emEepromAddr;
 1639              		.loc 1 765 0
 1640 0018 7B68     		ldr	r3, [r7, #4]
 1641 001a FA68     		ldr	r2, [r7, #12]
 1642 001c 1A60     		str	r2, [r3]
 766:Generated_Source\PSoC4/cy_em_eeprom.c **** 
 767:Generated_Source\PSoC4/cy_em_eeprom.c ****     for(numRows = 0u; numRows < (context->numberOfRows * context->wearLevelingFactor); numRows++)
 1643              		.loc 1 767 0
 1644 001e 0023     		movs	r3, #0
 1645 0020 3B61     		str	r3, [r7, #16]
 1646 0022 15E0     		b	.L77
 1647              	.L79:
 768:Generated_Source\PSoC4/cy_em_eeprom.c ****     {
 769:Generated_Source\PSoC4/cy_em_eeprom.c ****         seqNum = CY_EM_EEPROM_GET_SEQ_NUM(emEepromAddr);
 1648              		.loc 1 769 0
 1649 0024 FB68     		ldr	r3, [r7, #12]
 1650 0026 1B68     		ldr	r3, [r3]
 1651 0028 BB60     		str	r3, [r7, #8]
 770:Generated_Source\PSoC4/cy_em_eeprom.c ****         if((0u != seqNum) && (seqNum > prevSeqNum))
 1652              		.loc 1 770 0
 1653 002a BB68     		ldr	r3, [r7, #8]
 1654 002c 002B     		cmp	r3, #0
 1655 002e 08D0     		beq	.L78
ARM GAS  C:\Users\HPz420\AppData\Local\Temp\ccEPczKG.s 			page 44


 1656              		.loc 1 770 0 is_stmt 0 discriminator 1
 1657 0030 BA68     		ldr	r2, [r7, #8]
 1658 0032 7B69     		ldr	r3, [r7, #20]
 1659 0034 9A42     		cmp	r2, r3
 1660 0036 04D9     		bls	.L78
 771:Generated_Source\PSoC4/cy_em_eeprom.c ****         {
 772:Generated_Source\PSoC4/cy_em_eeprom.c ****             /* Some record in EEPROM was found. Store found sequence
 773:Generated_Source\PSoC4/cy_em_eeprom.c ****             * number and row address.
 774:Generated_Source\PSoC4/cy_em_eeprom.c ****             */
 775:Generated_Source\PSoC4/cy_em_eeprom.c ****             prevSeqNum = seqNum;
 1661              		.loc 1 775 0 is_stmt 1
 1662 0038 BB68     		ldr	r3, [r7, #8]
 1663 003a 7B61     		str	r3, [r7, #20]
 776:Generated_Source\PSoC4/cy_em_eeprom.c ****             *lastWrRowPtr = emEepromAddr;
 1664              		.loc 1 776 0
 1665 003c 7B68     		ldr	r3, [r7, #4]
 1666 003e FA68     		ldr	r2, [r7, #12]
 1667 0040 1A60     		str	r2, [r3]
 1668              	.L78:
 777:Generated_Source\PSoC4/cy_em_eeprom.c ****         }
 778:Generated_Source\PSoC4/cy_em_eeprom.c **** 
 779:Generated_Source\PSoC4/cy_em_eeprom.c ****         /* Switch to the next row */
 780:Generated_Source\PSoC4/cy_em_eeprom.c ****         emEepromAddr = emEepromAddr + CY_EM_EEPROM_FLASH_SIZEOF_ROW;
 1669              		.loc 1 780 0 discriminator 2
 1670 0042 FB68     		ldr	r3, [r7, #12]
 1671 0044 0133     		adds	r3, r3, #1
 1672 0046 FF33     		adds	r3, r3, #255
 1673 0048 FB60     		str	r3, [r7, #12]
 767:Generated_Source\PSoC4/cy_em_eeprom.c ****     {
 1674              		.loc 1 767 0 discriminator 2
 1675 004a 3B69     		ldr	r3, [r7, #16]
 1676 004c 0133     		adds	r3, r3, #1
 1677 004e 3B61     		str	r3, [r7, #16]
 1678              	.L77:
 767:Generated_Source\PSoC4/cy_em_eeprom.c ****     {
 1679              		.loc 1 767 0 is_stmt 0 discriminator 1
 1680 0050 3B68     		ldr	r3, [r7]
 1681 0052 5A68     		ldr	r2, [r3, #4]
 1682 0054 3B68     		ldr	r3, [r7]
 1683 0056 1B69     		ldr	r3, [r3, #16]
 1684 0058 5A43     		muls	r2, r3
 1685 005a 3B69     		ldr	r3, [r7, #16]
 1686 005c 9A42     		cmp	r2, r3
 1687 005e E1D8     		bhi	.L79
 781:Generated_Source\PSoC4/cy_em_eeprom.c ****     }
 782:Generated_Source\PSoC4/cy_em_eeprom.c **** }
 1688              		.loc 1 782 0 is_stmt 1
 1689 0060 C046     		nop
 1690 0062 BD46     		mov	sp, r7
 1691 0064 06B0     		add	sp, sp, #24
 1692              		@ sp needed
 1693 0066 80BD     		pop	{r7, pc}
 1694              		.cfi_endproc
 1695              	.LFE6:
 1696              		.size	FindLastWrittenRow, .-FindLastWrittenRow
 1697              		.section	.text.GetRowAddrBySeqNum,"ax",%progbits
 1698              		.align	2
ARM GAS  C:\Users\HPz420\AppData\Local\Temp\ccEPczKG.s 			page 45


 1699              		.code	16
 1700              		.thumb_func
 1701              		.type	GetRowAddrBySeqNum, %function
 1702              	GetRowAddrBySeqNum:
 1703              	.LFB7:
 783:Generated_Source\PSoC4/cy_em_eeprom.c **** 
 784:Generated_Source\PSoC4/cy_em_eeprom.c **** 
 785:Generated_Source\PSoC4/cy_em_eeprom.c **** /*******************************************************************************
 786:Generated_Source\PSoC4/cy_em_eeprom.c **** * Function Name: GetRowAddrBySeqNum
 787:Generated_Source\PSoC4/cy_em_eeprom.c **** ****************************************************************************//**
 788:Generated_Source\PSoC4/cy_em_eeprom.c **** *
 789:Generated_Source\PSoC4/cy_em_eeprom.c **** * Returns the address of the row in EEPROM using its sequence number.
 790:Generated_Source\PSoC4/cy_em_eeprom.c **** *
 791:Generated_Source\PSoC4/cy_em_eeprom.c **** * \param seqNum
 792:Generated_Source\PSoC4/cy_em_eeprom.c **** * The sequence number of the row.
 793:Generated_Source\PSoC4/cy_em_eeprom.c **** *
 794:Generated_Source\PSoC4/cy_em_eeprom.c **** * \param context
 795:Generated_Source\PSoC4/cy_em_eeprom.c **** * The pointer to the EEPROM context structure.
 796:Generated_Source\PSoC4/cy_em_eeprom.c **** *
 797:Generated_Source\PSoC4/cy_em_eeprom.c **** * \return
 798:Generated_Source\PSoC4/cy_em_eeprom.c **** * The address of the row or zero if the row with the sequence number was not
 799:Generated_Source\PSoC4/cy_em_eeprom.c **** * found.
 800:Generated_Source\PSoC4/cy_em_eeprom.c **** *
 801:Generated_Source\PSoC4/cy_em_eeprom.c **** *******************************************************************************/
 802:Generated_Source\PSoC4/cy_em_eeprom.c **** static uint32 GetRowAddrBySeqNum(uint32 seqNum, cy_stc_eeprom_context_t * context)
 803:Generated_Source\PSoC4/cy_em_eeprom.c **** {
 1704              		.loc 1 803 0
 1705              		.cfi_startproc
 1706              		@ args = 0, pretend = 0, frame = 16
 1707              		@ frame_needed = 1, uses_anonymous_args = 0
 1708 0000 80B5     		push	{r7, lr}
 1709              		.cfi_def_cfa_offset 8
 1710              		.cfi_offset 7, -8
 1711              		.cfi_offset 14, -4
 1712 0002 84B0     		sub	sp, sp, #16
 1713              		.cfi_def_cfa_offset 24
 1714 0004 00AF     		add	r7, sp, #0
 1715              		.cfi_def_cfa_register 7
 1716 0006 7860     		str	r0, [r7, #4]
 1717 0008 3960     		str	r1, [r7]
 804:Generated_Source\PSoC4/cy_em_eeprom.c ****     uint32 emEepromAddr = context->userFlashStartAddr;
 1718              		.loc 1 804 0
 1719 000a 3B68     		ldr	r3, [r7]
 1720 000c 9B69     		ldr	r3, [r3, #24]
 1721 000e FB60     		str	r3, [r7, #12]
 805:Generated_Source\PSoC4/cy_em_eeprom.c **** 
 806:Generated_Source\PSoC4/cy_em_eeprom.c ****     while(CY_EM_EEPROM_GET_SEQ_NUM(emEepromAddr) != seqNum)
 1722              		.loc 1 806 0
 1723 0010 0BE0     		b	.L81
 1724              	.L83:
 807:Generated_Source\PSoC4/cy_em_eeprom.c ****     {
 808:Generated_Source\PSoC4/cy_em_eeprom.c ****         /* Switch to the next row */
 809:Generated_Source\PSoC4/cy_em_eeprom.c ****         emEepromAddr = emEepromAddr + CY_EM_EEPROM_FLASH_SIZEOF_ROW;
 1725              		.loc 1 809 0
 1726 0012 FB68     		ldr	r3, [r7, #12]
 1727 0014 0133     		adds	r3, r3, #1
 1728 0016 FF33     		adds	r3, r3, #255
ARM GAS  C:\Users\HPz420\AppData\Local\Temp\ccEPczKG.s 			page 46


 1729 0018 FB60     		str	r3, [r7, #12]
 810:Generated_Source\PSoC4/cy_em_eeprom.c **** 
 811:Generated_Source\PSoC4/cy_em_eeprom.c ****         if (CY_EM_EEPROM_ADDR_IN_RANGE !=
 812:Generated_Source\PSoC4/cy_em_eeprom.c ****             CY_EM_EEPROM_IS_ADDR_EXCEED_RANGE(emEepromAddr, context->wlEndAddr))
 1730              		.loc 1 812 0
 1731 001a 3B68     		ldr	r3, [r7]
 1732 001c 1A68     		ldr	r2, [r3]
 811:Generated_Source\PSoC4/cy_em_eeprom.c ****             CY_EM_EEPROM_IS_ADDR_EXCEED_RANGE(emEepromAddr, context->wlEndAddr))
 1733              		.loc 1 811 0
 1734 001e FB68     		ldr	r3, [r7, #12]
 1735 0020 9A42     		cmp	r2, r3
 1736 0022 02D8     		bhi	.L81
 813:Generated_Source\PSoC4/cy_em_eeprom.c ****         {
 814:Generated_Source\PSoC4/cy_em_eeprom.c ****             emEepromAddr = 0u;
 1737              		.loc 1 814 0
 1738 0024 0023     		movs	r3, #0
 1739 0026 FB60     		str	r3, [r7, #12]
 815:Generated_Source\PSoC4/cy_em_eeprom.c ****             /* Exit the loop as we reached the end of EEPROM */
 816:Generated_Source\PSoC4/cy_em_eeprom.c ****             break;
 1740              		.loc 1 816 0
 1741 0028 04E0     		b	.L82
 1742              	.L81:
 806:Generated_Source\PSoC4/cy_em_eeprom.c ****     {
 1743              		.loc 1 806 0
 1744 002a FB68     		ldr	r3, [r7, #12]
 1745 002c 1A68     		ldr	r2, [r3]
 1746 002e 7B68     		ldr	r3, [r7, #4]
 1747 0030 9A42     		cmp	r2, r3
 1748 0032 EED1     		bne	.L83
 1749              	.L82:
 817:Generated_Source\PSoC4/cy_em_eeprom.c ****         }
 818:Generated_Source\PSoC4/cy_em_eeprom.c ****     }
 819:Generated_Source\PSoC4/cy_em_eeprom.c **** 
 820:Generated_Source\PSoC4/cy_em_eeprom.c ****     return (emEepromAddr);
 1750              		.loc 1 820 0
 1751 0034 FB68     		ldr	r3, [r7, #12]
 821:Generated_Source\PSoC4/cy_em_eeprom.c **** }
 1752              		.loc 1 821 0
 1753 0036 1800     		movs	r0, r3
 1754 0038 BD46     		mov	sp, r7
 1755 003a 04B0     		add	sp, sp, #16
 1756              		@ sp needed
 1757 003c 80BD     		pop	{r7, pc}
 1758              		.cfi_endproc
 1759              	.LFE7:
 1760              		.size	GetRowAddrBySeqNum, .-GetRowAddrBySeqNum
 1761 003e C046     		.section	.text.GetNextRowToWrite,"ax",%progbits
 1762              		.align	2
 1763              		.code	16
 1764              		.thumb_func
 1765              		.type	GetNextRowToWrite, %function
 1766              	GetNextRowToWrite:
 1767              	.LFB8:
 822:Generated_Source\PSoC4/cy_em_eeprom.c **** 
 823:Generated_Source\PSoC4/cy_em_eeprom.c **** 
 824:Generated_Source\PSoC4/cy_em_eeprom.c **** /*******************************************************************************
 825:Generated_Source\PSoC4/cy_em_eeprom.c **** * Function Name: GetNextRowToWrite
ARM GAS  C:\Users\HPz420\AppData\Local\Temp\ccEPczKG.s 			page 47


 826:Generated_Source\PSoC4/cy_em_eeprom.c **** ****************************************************************************//**
 827:Generated_Source\PSoC4/cy_em_eeprom.c **** *
 828:Generated_Source\PSoC4/cy_em_eeprom.c **** * Performs a range check of the row that should be written and updates the
 829:Generated_Source\PSoC4/cy_em_eeprom.c **** * address to the row respectively. The similar actions are done for the read
 830:Generated_Source\PSoC4/cy_em_eeprom.c **** * address.
 831:Generated_Source\PSoC4/cy_em_eeprom.c **** *
 832:Generated_Source\PSoC4/cy_em_eeprom.c **** * \param seqNum
 833:Generated_Source\PSoC4/cy_em_eeprom.c **** * The sequence number of the last written row.
 834:Generated_Source\PSoC4/cy_em_eeprom.c **** *
 835:Generated_Source\PSoC4/cy_em_eeprom.c **** * \param rowToWrPtr
 836:Generated_Source\PSoC4/cy_em_eeprom.c **** * The address of the last written row (input). The address of the row to be 
 837:Generated_Source\PSoC4/cy_em_eeprom.c **** * written (output).
 838:Generated_Source\PSoC4/cy_em_eeprom.c **** *
 839:Generated_Source\PSoC4/cy_em_eeprom.c **** * \param rowToRdPtr
 840:Generated_Source\PSoC4/cy_em_eeprom.c **** * The address of the row from which the data should be read into the RAM buffer
 841:Generated_Source\PSoC4/cy_em_eeprom.c **** * in a later write operation. Out parameter.
 842:Generated_Source\PSoC4/cy_em_eeprom.c **** *
 843:Generated_Source\PSoC4/cy_em_eeprom.c **** * \param context
 844:Generated_Source\PSoC4/cy_em_eeprom.c **** * The pointer to the EEPROM context structure \ref cy_stc_eeprom_context_t.
 845:Generated_Source\PSoC4/cy_em_eeprom.c **** *
 846:Generated_Source\PSoC4/cy_em_eeprom.c **** *******************************************************************************/
 847:Generated_Source\PSoC4/cy_em_eeprom.c **** static void GetNextRowToWrite(uint32 seqNum,
 848:Generated_Source\PSoC4/cy_em_eeprom.c ****                             uint32 * rowToWrPtr,
 849:Generated_Source\PSoC4/cy_em_eeprom.c ****                             uint32 * rowToRdPtr,
 850:Generated_Source\PSoC4/cy_em_eeprom.c ****                             cy_stc_eeprom_context_t * context)
 851:Generated_Source\PSoC4/cy_em_eeprom.c **** {
 1768              		.loc 1 851 0
 1769              		.cfi_startproc
 1770              		@ args = 0, pretend = 0, frame = 16
 1771              		@ frame_needed = 1, uses_anonymous_args = 0
 1772 0000 80B5     		push	{r7, lr}
 1773              		.cfi_def_cfa_offset 8
 1774              		.cfi_offset 7, -8
 1775              		.cfi_offset 14, -4
 1776 0002 84B0     		sub	sp, sp, #16
 1777              		.cfi_def_cfa_offset 24
 1778 0004 00AF     		add	r7, sp, #0
 1779              		.cfi_def_cfa_register 7
 1780 0006 F860     		str	r0, [r7, #12]
 1781 0008 B960     		str	r1, [r7, #8]
 1782 000a 7A60     		str	r2, [r7, #4]
 1783 000c 3B60     		str	r3, [r7]
 852:Generated_Source\PSoC4/cy_em_eeprom.c ****     /* Switch to the next row to be written if the current sequence number is
 853:Generated_Source\PSoC4/cy_em_eeprom.c ****     * not zero.
 854:Generated_Source\PSoC4/cy_em_eeprom.c ****     */
 855:Generated_Source\PSoC4/cy_em_eeprom.c ****     if(0u != seqNum)
 1784              		.loc 1 855 0
 1785 000e FB68     		ldr	r3, [r7, #12]
 1786 0010 002B     		cmp	r3, #0
 1787 0012 05D0     		beq	.L86
 856:Generated_Source\PSoC4/cy_em_eeprom.c ****     {
 857:Generated_Source\PSoC4/cy_em_eeprom.c ****         *rowToWrPtr = (*rowToWrPtr + CY_EM_EEPROM_FLASH_SIZEOF_ROW);
 1788              		.loc 1 857 0
 1789 0014 BB68     		ldr	r3, [r7, #8]
 1790 0016 1B68     		ldr	r3, [r3]
 1791 0018 5A1C     		adds	r2, r3, #1
 1792 001a FF32     		adds	r2, r2, #255
ARM GAS  C:\Users\HPz420\AppData\Local\Temp\ccEPczKG.s 			page 48


 1793 001c BB68     		ldr	r3, [r7, #8]
 1794 001e 1A60     		str	r2, [r3]
 1795              	.L86:
 858:Generated_Source\PSoC4/cy_em_eeprom.c ****     }
 859:Generated_Source\PSoC4/cy_em_eeprom.c **** 
 860:Generated_Source\PSoC4/cy_em_eeprom.c ****     /* If the resulting row address is out of EEPROM, then switch to the base
 861:Generated_Source\PSoC4/cy_em_eeprom.c ****     * EEPROM address (Row#0).
 862:Generated_Source\PSoC4/cy_em_eeprom.c ****     */
 863:Generated_Source\PSoC4/cy_em_eeprom.c ****     if(CY_EM_EEPROM_ADDR_IN_RANGE !=
 864:Generated_Source\PSoC4/cy_em_eeprom.c ****             CY_EM_EEPROM_IS_ADDR_EXCEED_RANGE(*rowToWrPtr, context->wlEndAddr))
 1796              		.loc 1 864 0
 1797 0020 BB68     		ldr	r3, [r7, #8]
 1798 0022 1A68     		ldr	r2, [r3]
 1799 0024 3B68     		ldr	r3, [r7]
 1800 0026 1B68     		ldr	r3, [r3]
 863:Generated_Source\PSoC4/cy_em_eeprom.c ****             CY_EM_EEPROM_IS_ADDR_EXCEED_RANGE(*rowToWrPtr, context->wlEndAddr))
 1801              		.loc 1 863 0
 1802 0028 9A42     		cmp	r2, r3
 1803 002a 03D3     		bcc	.L87
 865:Generated_Source\PSoC4/cy_em_eeprom.c ****     {
 866:Generated_Source\PSoC4/cy_em_eeprom.c ****         *rowToWrPtr = context->userFlashStartAddr;
 1804              		.loc 1 866 0
 1805 002c 3B68     		ldr	r3, [r7]
 1806 002e 9A69     		ldr	r2, [r3, #24]
 1807 0030 BB68     		ldr	r3, [r7, #8]
 1808 0032 1A60     		str	r2, [r3]
 1809              	.L87:
 867:Generated_Source\PSoC4/cy_em_eeprom.c ****     }
 868:Generated_Source\PSoC4/cy_em_eeprom.c **** 
 869:Generated_Source\PSoC4/cy_em_eeprom.c ****     *rowToRdPtr = 0u;
 1810              		.loc 1 869 0
 1811 0034 7B68     		ldr	r3, [r7, #4]
 1812 0036 0022     		movs	r2, #0
 1813 0038 1A60     		str	r2, [r3]
 870:Generated_Source\PSoC4/cy_em_eeprom.c **** 
 871:Generated_Source\PSoC4/cy_em_eeprom.c ****     /* Check if the sequence number is larger than the number of rows in the EEPROM.
 872:Generated_Source\PSoC4/cy_em_eeprom.c ****     * If not, do not update the row read address because there is no historic
 873:Generated_Source\PSoC4/cy_em_eeprom.c ****     * data to be read.
 874:Generated_Source\PSoC4/cy_em_eeprom.c ****     */
 875:Generated_Source\PSoC4/cy_em_eeprom.c ****     if(context->numberOfRows <= seqNum)
 1814              		.loc 1 875 0
 1815 003a 3B68     		ldr	r3, [r7]
 1816 003c 5A68     		ldr	r2, [r3, #4]
 1817 003e FB68     		ldr	r3, [r7, #12]
 1818 0040 9A42     		cmp	r2, r3
 1819 0042 2FD8     		bhi	.L92
 876:Generated_Source\PSoC4/cy_em_eeprom.c ****     {
 877:Generated_Source\PSoC4/cy_em_eeprom.c ****         /* Check if wear leveling is used in EEPROM */
 878:Generated_Source\PSoC4/cy_em_eeprom.c ****         if(context->wearLevelingFactor > 1u)
 1820              		.loc 1 878 0
 1821 0044 3B68     		ldr	r3, [r7]
 1822 0046 1B69     		ldr	r3, [r3, #16]
 1823 0048 012B     		cmp	r3, #1
 1824 004a 27D9     		bls	.L89
 879:Generated_Source\PSoC4/cy_em_eeprom.c ****         {
 880:Generated_Source\PSoC4/cy_em_eeprom.c ****             /* The read row address should be taken from an EEPROM copy that became
 881:Generated_Source\PSoC4/cy_em_eeprom.c ****             * inactive recently. This condition check handles that.
ARM GAS  C:\Users\HPz420\AppData\Local\Temp\ccEPczKG.s 			page 49


 882:Generated_Source\PSoC4/cy_em_eeprom.c ****             */
 883:Generated_Source\PSoC4/cy_em_eeprom.c ****             if((*rowToWrPtr - (context->numberOfRows * CY_EM_EEPROM_FLASH_SIZEOF_ROW)) <
 1825              		.loc 1 883 0
 1826 004c BB68     		ldr	r3, [r7, #8]
 1827 004e 1A68     		ldr	r2, [r3]
 1828 0050 3B68     		ldr	r3, [r7]
 1829 0052 5B68     		ldr	r3, [r3, #4]
 1830 0054 1B02     		lsls	r3, r3, #8
 1831 0056 D21A     		subs	r2, r2, r3
 884:Generated_Source\PSoC4/cy_em_eeprom.c ****                 context->userFlashStartAddr)
 1832              		.loc 1 884 0
 1833 0058 3B68     		ldr	r3, [r7]
 1834 005a 9B69     		ldr	r3, [r3, #24]
 883:Generated_Source\PSoC4/cy_em_eeprom.c ****                 context->userFlashStartAddr)
 1835              		.loc 1 883 0
 1836 005c 9A42     		cmp	r2, r3
 1837 005e 14D2     		bcs	.L90
 885:Generated_Source\PSoC4/cy_em_eeprom.c ****             {
 886:Generated_Source\PSoC4/cy_em_eeprom.c ****                 *rowToRdPtr = context->userFlashStartAddr +
 1838              		.loc 1 886 0
 1839 0060 3B68     		ldr	r3, [r7]
 1840 0062 9A69     		ldr	r2, [r3, #24]
 887:Generated_Source\PSoC4/cy_em_eeprom.c ****                     (context->numberOfRows * (context->wearLevelingFactor - 1u) *
 1841              		.loc 1 887 0
 1842 0064 3B68     		ldr	r3, [r7]
 1843 0066 5968     		ldr	r1, [r3, #4]
 1844 0068 3B68     		ldr	r3, [r7]
 1845 006a 1B69     		ldr	r3, [r3, #16]
 1846 006c 0F48     		ldr	r0, .L93
 1847 006e 8446     		mov	ip, r0
 1848 0070 6344     		add	r3, r3, ip
 1849 0072 4B43     		muls	r3, r1
 1850 0074 1B02     		lsls	r3, r3, #8
 886:Generated_Source\PSoC4/cy_em_eeprom.c ****                     (context->numberOfRows * (context->wearLevelingFactor - 1u) *
 1851              		.loc 1 886 0
 1852 0076 D218     		adds	r2, r2, r3
 888:Generated_Source\PSoC4/cy_em_eeprom.c ****                         CY_EM_EEPROM_FLASH_SIZEOF_ROW) + (*rowToWrPtr - context->userFlashStartAddr
 1853              		.loc 1 888 0
 1854 0078 BB68     		ldr	r3, [r7, #8]
 1855 007a 1968     		ldr	r1, [r3]
 1856 007c 3B68     		ldr	r3, [r7]
 1857 007e 9B69     		ldr	r3, [r3, #24]
 1858 0080 CB1A     		subs	r3, r1, r3
 1859 0082 D218     		adds	r2, r2, r3
 886:Generated_Source\PSoC4/cy_em_eeprom.c ****                     (context->numberOfRows * (context->wearLevelingFactor - 1u) *
 1860              		.loc 1 886 0
 1861 0084 7B68     		ldr	r3, [r7, #4]
 1862 0086 1A60     		str	r2, [r3]
 889:Generated_Source\PSoC4/cy_em_eeprom.c ****             }
 890:Generated_Source\PSoC4/cy_em_eeprom.c ****             else
 891:Generated_Source\PSoC4/cy_em_eeprom.c ****             {
 892:Generated_Source\PSoC4/cy_em_eeprom.c ****                 *rowToRdPtr = *rowToWrPtr - (context->numberOfRows * CY_EM_EEPROM_FLASH_SIZEOF_ROW)
 893:Generated_Source\PSoC4/cy_em_eeprom.c ****             }
 894:Generated_Source\PSoC4/cy_em_eeprom.c ****         }
 895:Generated_Source\PSoC4/cy_em_eeprom.c ****         else
 896:Generated_Source\PSoC4/cy_em_eeprom.c ****         {
 897:Generated_Source\PSoC4/cy_em_eeprom.c ****             /* If no wear leveling, always read from the same flash row that
ARM GAS  C:\Users\HPz420\AppData\Local\Temp\ccEPczKG.s 			page 50


 898:Generated_Source\PSoC4/cy_em_eeprom.c ****             * should be written.
 899:Generated_Source\PSoC4/cy_em_eeprom.c ****             */
 900:Generated_Source\PSoC4/cy_em_eeprom.c ****             *rowToRdPtr = *rowToWrPtr;
 901:Generated_Source\PSoC4/cy_em_eeprom.c ****         }
 902:Generated_Source\PSoC4/cy_em_eeprom.c ****     }
 903:Generated_Source\PSoC4/cy_em_eeprom.c **** }
 1863              		.loc 1 903 0
 1864 0088 0CE0     		b	.L92
 1865              	.L90:
 892:Generated_Source\PSoC4/cy_em_eeprom.c ****             }
 1866              		.loc 1 892 0
 1867 008a BB68     		ldr	r3, [r7, #8]
 1868 008c 1A68     		ldr	r2, [r3]
 1869 008e 3B68     		ldr	r3, [r7]
 1870 0090 5B68     		ldr	r3, [r3, #4]
 1871 0092 1B02     		lsls	r3, r3, #8
 1872 0094 D21A     		subs	r2, r2, r3
 1873 0096 7B68     		ldr	r3, [r7, #4]
 1874 0098 1A60     		str	r2, [r3]
 1875              		.loc 1 903 0
 1876 009a 03E0     		b	.L92
 1877              	.L89:
 900:Generated_Source\PSoC4/cy_em_eeprom.c ****         }
 1878              		.loc 1 900 0
 1879 009c BB68     		ldr	r3, [r7, #8]
 1880 009e 1A68     		ldr	r2, [r3]
 1881 00a0 7B68     		ldr	r3, [r7, #4]
 1882 00a2 1A60     		str	r2, [r3]
 1883              	.L92:
 1884              		.loc 1 903 0
 1885 00a4 C046     		nop
 1886 00a6 BD46     		mov	sp, r7
 1887 00a8 04B0     		add	sp, sp, #16
 1888              		@ sp needed
 1889 00aa 80BD     		pop	{r7, pc}
 1890              	.L94:
 1891              		.align	2
 1892              	.L93:
 1893 00ac FFFFFF00 		.word	16777215
 1894              		.cfi_endproc
 1895              	.LFE8:
 1896              		.size	GetNextRowToWrite, .-GetNextRowToWrite
 1897              		.section	.text.CalcChecksum,"ax",%progbits
 1898              		.align	2
 1899              		.code	16
 1900              		.thumb_func
 1901              		.type	CalcChecksum, %function
 1902              	CalcChecksum:
 1903              	.LFB9:
 904:Generated_Source\PSoC4/cy_em_eeprom.c **** 
 905:Generated_Source\PSoC4/cy_em_eeprom.c **** 
 906:Generated_Source\PSoC4/cy_em_eeprom.c **** /*******************************************************************************
 907:Generated_Source\PSoC4/cy_em_eeprom.c **** * Function Name: CalcChecksum
 908:Generated_Source\PSoC4/cy_em_eeprom.c **** ****************************************************************************//**
 909:Generated_Source\PSoC4/cy_em_eeprom.c **** *
 910:Generated_Source\PSoC4/cy_em_eeprom.c **** * Implements CRC-8 that is used in checksum calculation for the redundant copy
 911:Generated_Source\PSoC4/cy_em_eeprom.c **** * algorithm.
ARM GAS  C:\Users\HPz420\AppData\Local\Temp\ccEPczKG.s 			page 51


 912:Generated_Source\PSoC4/cy_em_eeprom.c **** *
 913:Generated_Source\PSoC4/cy_em_eeprom.c **** * \param rowData
 914:Generated_Source\PSoC4/cy_em_eeprom.c **** * The row data to be used to calculate the checksum.
 915:Generated_Source\PSoC4/cy_em_eeprom.c **** *
 916:Generated_Source\PSoC4/cy_em_eeprom.c **** * \param len
 917:Generated_Source\PSoC4/cy_em_eeprom.c **** * The length of rowData.
 918:Generated_Source\PSoC4/cy_em_eeprom.c **** *
 919:Generated_Source\PSoC4/cy_em_eeprom.c **** * \return
 920:Generated_Source\PSoC4/cy_em_eeprom.c **** * The calculated value of CRC-8.
 921:Generated_Source\PSoC4/cy_em_eeprom.c **** *
 922:Generated_Source\PSoC4/cy_em_eeprom.c **** *******************************************************************************/
 923:Generated_Source\PSoC4/cy_em_eeprom.c **** static uint8 CalcChecksum(uint8 rowData[], uint32 len)
 924:Generated_Source\PSoC4/cy_em_eeprom.c **** {
 1904              		.loc 1 924 0
 1905              		.cfi_startproc
 1906              		@ args = 0, pretend = 0, frame = 16
 1907              		@ frame_needed = 1, uses_anonymous_args = 0
 1908 0000 80B5     		push	{r7, lr}
 1909              		.cfi_def_cfa_offset 8
 1910              		.cfi_offset 7, -8
 1911              		.cfi_offset 14, -4
 1912 0002 84B0     		sub	sp, sp, #16
 1913              		.cfi_def_cfa_offset 24
 1914 0004 00AF     		add	r7, sp, #0
 1915              		.cfi_def_cfa_register 7
 1916 0006 7860     		str	r0, [r7, #4]
 1917 0008 3960     		str	r1, [r7]
 925:Generated_Source\PSoC4/cy_em_eeprom.c ****     uint8 crc = CY_EM_EEPROM_CRC8_SEED;
 1918              		.loc 1 925 0
 1919 000a 0F23     		movs	r3, #15
 1920 000c FB18     		adds	r3, r7, r3
 1921 000e FF22     		movs	r2, #255
 1922 0010 1A70     		strb	r2, [r3]
 926:Generated_Source\PSoC4/cy_em_eeprom.c ****     uint8 i;
 927:Generated_Source\PSoC4/cy_em_eeprom.c ****     uint16 cnt = 0u;
 1923              		.loc 1 927 0
 1924 0012 0C23     		movs	r3, #12
 1925 0014 FB18     		adds	r3, r7, r3
 1926 0016 0022     		movs	r2, #0
 1927 0018 1A80     		strh	r2, [r3]
 928:Generated_Source\PSoC4/cy_em_eeprom.c **** 
 929:Generated_Source\PSoC4/cy_em_eeprom.c ****     while(cnt != len)
 1928              		.loc 1 929 0
 1929 001a 3BE0     		b	.L96
 1930              	.L101:
 930:Generated_Source\PSoC4/cy_em_eeprom.c ****     {
 931:Generated_Source\PSoC4/cy_em_eeprom.c ****         crc ^= rowData[cnt];
 1931              		.loc 1 931 0
 1932 001c 0C23     		movs	r3, #12
 1933 001e FB18     		adds	r3, r7, r3
 1934 0020 1B88     		ldrh	r3, [r3]
 1935 0022 7A68     		ldr	r2, [r7, #4]
 1936 0024 D318     		adds	r3, r2, r3
 1937 0026 1978     		ldrb	r1, [r3]
 1938 0028 0F23     		movs	r3, #15
 1939 002a FB18     		adds	r3, r7, r3
 1940 002c 0F22     		movs	r2, #15
ARM GAS  C:\Users\HPz420\AppData\Local\Temp\ccEPczKG.s 			page 52


 1941 002e BA18     		adds	r2, r7, r2
 1942 0030 1278     		ldrb	r2, [r2]
 1943 0032 4A40     		eors	r2, r1
 1944 0034 1A70     		strb	r2, [r3]
 932:Generated_Source\PSoC4/cy_em_eeprom.c ****         for (i = 0u; i < CY_EM_EEPROM_CRC8_POLYNOM_LEN; i++)
 1945              		.loc 1 932 0
 1946 0036 0E23     		movs	r3, #14
 1947 0038 FB18     		adds	r3, r7, r3
 1948 003a 0022     		movs	r2, #0
 1949 003c 1A70     		strb	r2, [r3]
 1950 003e 1DE0     		b	.L97
 1951              	.L100:
 933:Generated_Source\PSoC4/cy_em_eeprom.c ****         {
 934:Generated_Source\PSoC4/cy_em_eeprom.c ****             crc = CY_EM_EEPROM_CALCULATE_CRC8(crc);
 1952              		.loc 1 934 0
 1953 0040 0F23     		movs	r3, #15
 1954 0042 FB18     		adds	r3, r7, r3
 1955 0044 1B78     		ldrb	r3, [r3]
 1956 0046 5BB2     		sxtb	r3, r3
 1957 0048 002B     		cmp	r3, #0
 1958 004a 08DA     		bge	.L98
 1959              		.loc 1 934 0 is_stmt 0 discriminator 1
 1960 004c 0F23     		movs	r3, #15
 1961 004e FB18     		adds	r3, r7, r3
 1962 0050 1B78     		ldrb	r3, [r3]
 1963 0052 DB18     		adds	r3, r3, r3
 1964 0054 DBB2     		uxtb	r3, r3
 1965 0056 3122     		movs	r2, #49
 1966 0058 5340     		eors	r3, r2
 1967 005a DBB2     		uxtb	r3, r3
 1968 005c 04E0     		b	.L99
 1969              	.L98:
 1970              		.loc 1 934 0 discriminator 2
 1971 005e 0F23     		movs	r3, #15
 1972 0060 FB18     		adds	r3, r7, r3
 1973 0062 1B78     		ldrb	r3, [r3]
 1974 0064 DB18     		adds	r3, r3, r3
 1975 0066 DBB2     		uxtb	r3, r3
 1976              	.L99:
 1977              		.loc 1 934 0 discriminator 4
 1978 0068 0F22     		movs	r2, #15
 1979 006a BA18     		adds	r2, r7, r2
 1980 006c 1370     		strb	r3, [r2]
 932:Generated_Source\PSoC4/cy_em_eeprom.c ****         for (i = 0u; i < CY_EM_EEPROM_CRC8_POLYNOM_LEN; i++)
 1981              		.loc 1 932 0 is_stmt 1 discriminator 4
 1982 006e 0E23     		movs	r3, #14
 1983 0070 FB18     		adds	r3, r7, r3
 1984 0072 1A78     		ldrb	r2, [r3]
 1985 0074 0E23     		movs	r3, #14
 1986 0076 FB18     		adds	r3, r7, r3
 1987 0078 0132     		adds	r2, r2, #1
 1988 007a 1A70     		strb	r2, [r3]
 1989              	.L97:
 932:Generated_Source\PSoC4/cy_em_eeprom.c ****         for (i = 0u; i < CY_EM_EEPROM_CRC8_POLYNOM_LEN; i++)
 1990              		.loc 1 932 0 is_stmt 0 discriminator 2
 1991 007c 0E23     		movs	r3, #14
 1992 007e FB18     		adds	r3, r7, r3
ARM GAS  C:\Users\HPz420\AppData\Local\Temp\ccEPczKG.s 			page 53


 1993 0080 1B78     		ldrb	r3, [r3]
 1994 0082 072B     		cmp	r3, #7
 1995 0084 DCD9     		bls	.L100
 935:Generated_Source\PSoC4/cy_em_eeprom.c ****         }
 936:Generated_Source\PSoC4/cy_em_eeprom.c ****         cnt++;
 1996              		.loc 1 936 0 is_stmt 1
 1997 0086 0C23     		movs	r3, #12
 1998 0088 FB18     		adds	r3, r7, r3
 1999 008a 1A88     		ldrh	r2, [r3]
 2000 008c 0C23     		movs	r3, #12
 2001 008e FB18     		adds	r3, r7, r3
 2002 0090 0132     		adds	r2, r2, #1
 2003 0092 1A80     		strh	r2, [r3]
 2004              	.L96:
 929:Generated_Source\PSoC4/cy_em_eeprom.c ****     {
 2005              		.loc 1 929 0
 2006 0094 0C23     		movs	r3, #12
 2007 0096 FB18     		adds	r3, r7, r3
 2008 0098 1A88     		ldrh	r2, [r3]
 2009 009a 3B68     		ldr	r3, [r7]
 2010 009c 9A42     		cmp	r2, r3
 2011 009e BDD1     		bne	.L101
 937:Generated_Source\PSoC4/cy_em_eeprom.c ****     }
 938:Generated_Source\PSoC4/cy_em_eeprom.c **** 
 939:Generated_Source\PSoC4/cy_em_eeprom.c ****     return (crc);
 2012              		.loc 1 939 0
 2013 00a0 0F23     		movs	r3, #15
 2014 00a2 FB18     		adds	r3, r7, r3
 2015 00a4 1B78     		ldrb	r3, [r3]
 940:Generated_Source\PSoC4/cy_em_eeprom.c **** }
 2016              		.loc 1 940 0
 2017 00a6 1800     		movs	r0, r3
 2018 00a8 BD46     		mov	sp, r7
 2019 00aa 04B0     		add	sp, sp, #16
 2020              		@ sp needed
 2021 00ac 80BD     		pop	{r7, pc}
 2022              		.cfi_endproc
 2023              	.LFE9:
 2024              		.size	CalcChecksum, .-CalcChecksum
 2025              		.section	.text.CheckRanges,"ax",%progbits
 2026              		.align	2
 2027              		.code	16
 2028              		.thumb_func
 2029              		.type	CheckRanges, %function
 2030              	CheckRanges:
 2031              	.LFB10:
 941:Generated_Source\PSoC4/cy_em_eeprom.c **** 
 942:Generated_Source\PSoC4/cy_em_eeprom.c **** 
 943:Generated_Source\PSoC4/cy_em_eeprom.c **** /*******************************************************************************
 944:Generated_Source\PSoC4/cy_em_eeprom.c **** * Function Name: CheckRanges
 945:Generated_Source\PSoC4/cy_em_eeprom.c **** ****************************************************************************//**
 946:Generated_Source\PSoC4/cy_em_eeprom.c **** *
 947:Generated_Source\PSoC4/cy_em_eeprom.c **** * Checks if the EEPROM of the requested size can be placed in flash.
 948:Generated_Source\PSoC4/cy_em_eeprom.c **** *
 949:Generated_Source\PSoC4/cy_em_eeprom.c **** * \param config
 950:Generated_Source\PSoC4/cy_em_eeprom.c **** * The pointer to a configuration structure. See \ref cy_stc_eeprom_config_t.
 951:Generated_Source\PSoC4/cy_em_eeprom.c **** *
ARM GAS  C:\Users\HPz420\AppData\Local\Temp\ccEPczKG.s 			page 54


 952:Generated_Source\PSoC4/cy_em_eeprom.c **** * \return
 953:Generated_Source\PSoC4/cy_em_eeprom.c **** * error / status code. See \ref cy_en_em_eeprom_status_t.
 954:Generated_Source\PSoC4/cy_em_eeprom.c **** *
 955:Generated_Source\PSoC4/cy_em_eeprom.c **** *******************************************************************************/
 956:Generated_Source\PSoC4/cy_em_eeprom.c **** static cy_en_em_eeprom_status_t CheckRanges(cy_stc_eeprom_config_t* config)
 957:Generated_Source\PSoC4/cy_em_eeprom.c **** {
 2032              		.loc 1 957 0
 2033              		.cfi_startproc
 2034              		@ args = 0, pretend = 0, frame = 24
 2035              		@ frame_needed = 1, uses_anonymous_args = 0
 2036 0000 80B5     		push	{r7, lr}
 2037              		.cfi_def_cfa_offset 8
 2038              		.cfi_offset 7, -8
 2039              		.cfi_offset 14, -4
 2040 0002 86B0     		sub	sp, sp, #24
 2041              		.cfi_def_cfa_offset 32
 2042 0004 00AF     		add	r7, sp, #0
 2043              		.cfi_def_cfa_register 7
 2044 0006 7860     		str	r0, [r7, #4]
 958:Generated_Source\PSoC4/cy_em_eeprom.c ****     cy_en_em_eeprom_status_t ret = CY_EM_EEPROM_BAD_DATA;
 2045              		.loc 1 958 0
 2046 0008 1723     		movs	r3, #23
 2047 000a FB18     		adds	r3, r7, r3
 2048 000c 0322     		movs	r2, #3
 2049 000e 1A70     		strb	r2, [r3]
 959:Generated_Source\PSoC4/cy_em_eeprom.c ****     uint32 startAddr = config->userFlashStartAddr;
 2050              		.loc 1 959 0
 2051 0010 7B68     		ldr	r3, [r7, #4]
 2052 0012 DB68     		ldr	r3, [r3, #12]
 2053 0014 3B61     		str	r3, [r7, #16]
 960:Generated_Source\PSoC4/cy_em_eeprom.c ****     uint32 endAddr = startAddr + CY_EM_EEPROM_GET_PHYSICAL_SIZE(config->eepromSize,
 2054              		.loc 1 960 0
 2055 0016 7B68     		ldr	r3, [r7, #4]
 2056 0018 1B68     		ldr	r3, [r3]
 2057 001a DA09     		lsrs	r2, r3, #7
 2058 001c 7B68     		ldr	r3, [r7, #4]
 2059 001e 1B68     		ldr	r3, [r3]
 2060 0020 7F21     		movs	r1, #127
 2061 0022 0B40     		ands	r3, r1
 2062 0024 01D0     		beq	.L104
 2063              		.loc 1 960 0 is_stmt 0 discriminator 1
 2064 0026 0123     		movs	r3, #1
 2065 0028 00E0     		b	.L105
 2066              	.L104:
 2067              		.loc 1 960 0 discriminator 2
 2068 002a 0023     		movs	r3, #0
 2069              	.L105:
 2070              		.loc 1 960 0 discriminator 4
 2071 002c D218     		adds	r2, r2, r3
 2072 002e 7B68     		ldr	r3, [r7, #4]
 2073 0030 5B68     		ldr	r3, [r3, #4]
 2074 0032 5343     		muls	r3, r2
 2075 0034 7A68     		ldr	r2, [r7, #4]
 2076 0036 127A     		ldrb	r2, [r2, #8]
 2077 0038 0132     		adds	r2, r2, #1
 2078 003a 5343     		muls	r3, r2
 2079 003c 1A02     		lsls	r2, r3, #8
ARM GAS  C:\Users\HPz420\AppData\Local\Temp\ccEPczKG.s 			page 55


 2080 003e 3B69     		ldr	r3, [r7, #16]
 2081 0040 D318     		adds	r3, r2, r3
 2082 0042 FB60     		str	r3, [r7, #12]
 961:Generated_Source\PSoC4/cy_em_eeprom.c ****             config->wearLevelingFactor, config->redundantCopy);
 962:Generated_Source\PSoC4/cy_em_eeprom.c **** 
 963:Generated_Source\PSoC4/cy_em_eeprom.c ****     /* Range check if there is enough flash for EEPROM */
 964:Generated_Source\PSoC4/cy_em_eeprom.c ****     if (CY_EM_EEPROM_IS_IN_FLASH_RANGE(startAddr, endAddr))
 2083              		.loc 1 964 0 is_stmt 1 discriminator 4
 2084 0044 3B69     		ldr	r3, [r7, #16]
 2085 0046 002B     		cmp	r3, #0
 2086 0048 08D0     		beq	.L106
 2087              		.loc 1 964 0 is_stmt 0 discriminator 1
 2088 004a FA68     		ldr	r2, [r7, #12]
 2089 004c 8023     		movs	r3, #128
 2090 004e 9B02     		lsls	r3, r3, #10
 2091 0050 9A42     		cmp	r2, r3
 2092 0052 03D8     		bhi	.L106
 965:Generated_Source\PSoC4/cy_em_eeprom.c ****     {
 966:Generated_Source\PSoC4/cy_em_eeprom.c ****         ret = CY_EM_EEPROM_SUCCESS;
 2093              		.loc 1 966 0 is_stmt 1
 2094 0054 1723     		movs	r3, #23
 2095 0056 FB18     		adds	r3, r7, r3
 2096 0058 0022     		movs	r2, #0
 2097 005a 1A70     		strb	r2, [r3]
 2098              	.L106:
 967:Generated_Source\PSoC4/cy_em_eeprom.c ****     }
 968:Generated_Source\PSoC4/cy_em_eeprom.c ****     return (ret);
 2099              		.loc 1 968 0
 2100 005c 1723     		movs	r3, #23
 2101 005e FB18     		adds	r3, r7, r3
 2102 0060 1B78     		ldrb	r3, [r3]
 969:Generated_Source\PSoC4/cy_em_eeprom.c **** }
 2103              		.loc 1 969 0
 2104 0062 1800     		movs	r0, r3
 2105 0064 BD46     		mov	sp, r7
 2106 0066 06B0     		add	sp, sp, #24
 2107              		@ sp needed
 2108 0068 80BD     		pop	{r7, pc}
 2109              		.cfi_endproc
 2110              	.LFE10:
 2111              		.size	CheckRanges, .-CheckRanges
 2112 006a C046     		.section	.text.WriteRow,"ax",%progbits
 2113              		.align	2
 2114              		.code	16
 2115              		.thumb_func
 2116              		.type	WriteRow, %function
 2117              	WriteRow:
 2118              	.LFB11:
 970:Generated_Source\PSoC4/cy_em_eeprom.c **** 
 971:Generated_Source\PSoC4/cy_em_eeprom.c **** 
 972:Generated_Source\PSoC4/cy_em_eeprom.c **** /*******************************************************************************
 973:Generated_Source\PSoC4/cy_em_eeprom.c **** * Function Name: WriteRow
 974:Generated_Source\PSoC4/cy_em_eeprom.c **** ****************************************************************************//**
 975:Generated_Source\PSoC4/cy_em_eeprom.c **** *
 976:Generated_Source\PSoC4/cy_em_eeprom.c **** * Writes one flash row starting from the specified row address.
 977:Generated_Source\PSoC4/cy_em_eeprom.c **** *
 978:Generated_Source\PSoC4/cy_em_eeprom.c **** * \param rowAdd
ARM GAS  C:\Users\HPz420\AppData\Local\Temp\ccEPczKG.s 			page 56


 979:Generated_Source\PSoC4/cy_em_eeprom.c **** * The address of the flash row.
 980:Generated_Source\PSoC4/cy_em_eeprom.c **** *
 981:Generated_Source\PSoC4/cy_em_eeprom.c **** * \param rowData
 982:Generated_Source\PSoC4/cy_em_eeprom.c **** * The pointer to the data to be written to the row.
 983:Generated_Source\PSoC4/cy_em_eeprom.c **** *
 984:Generated_Source\PSoC4/cy_em_eeprom.c **** * \param context
 985:Generated_Source\PSoC4/cy_em_eeprom.c **** * The pointer to the EEPROM context structure \ref cy_stc_eeprom_context_t.
 986:Generated_Source\PSoC4/cy_em_eeprom.c **** *
 987:Generated_Source\PSoC4/cy_em_eeprom.c **** * \return
 988:Generated_Source\PSoC4/cy_em_eeprom.c **** * error / status code. See \ref cy_en_em_eeprom_status_t.
 989:Generated_Source\PSoC4/cy_em_eeprom.c **** *
 990:Generated_Source\PSoC4/cy_em_eeprom.c **** *******************************************************************************/
 991:Generated_Source\PSoC4/cy_em_eeprom.c **** static cy_en_em_eeprom_status_t WriteRow(uint32 rowAddr,
 992:Generated_Source\PSoC4/cy_em_eeprom.c ****                                         uint32 *rowData,
 993:Generated_Source\PSoC4/cy_em_eeprom.c ****                                         cy_stc_eeprom_context_t * context)
 994:Generated_Source\PSoC4/cy_em_eeprom.c **** {
 2119              		.loc 1 994 0
 2120              		.cfi_startproc
 2121              		@ args = 0, pretend = 0, frame = 32
 2122              		@ frame_needed = 1, uses_anonymous_args = 0
 2123 0000 80B5     		push	{r7, lr}
 2124              		.cfi_def_cfa_offset 8
 2125              		.cfi_offset 7, -8
 2126              		.cfi_offset 14, -4
 2127 0002 88B0     		sub	sp, sp, #32
 2128              		.cfi_def_cfa_offset 40
 2129 0004 00AF     		add	r7, sp, #0
 2130              		.cfi_def_cfa_register 7
 2131 0006 F860     		str	r0, [r7, #12]
 2132 0008 B960     		str	r1, [r7, #8]
 2133 000a 7A60     		str	r2, [r7, #4]
 995:Generated_Source\PSoC4/cy_em_eeprom.c ****     cy_en_em_eeprom_status_t ret = CY_EM_EEPROM_WRITE_FAIL;
 2134              		.loc 1 995 0
 2135 000c 1F23     		movs	r3, #31
 2136 000e FB18     		adds	r3, r7, r3
 2137 0010 0422     		movs	r2, #4
 2138 0012 1A70     		strb	r2, [r3]
 996:Generated_Source\PSoC4/cy_em_eeprom.c **** #if (!CY_PSOC6)
 997:Generated_Source\PSoC4/cy_em_eeprom.c ****     cystatus rc;
 998:Generated_Source\PSoC4/cy_em_eeprom.c ****     #if ((CY_PSOC3) || (CY_PSOC5))
 999:Generated_Source\PSoC4/cy_em_eeprom.c ****         uint32 arrayId;
1000:Generated_Source\PSoC4/cy_em_eeprom.c ****         uint32 rowId;
1001:Generated_Source\PSoC4/cy_em_eeprom.c ****     #else
1002:Generated_Source\PSoC4/cy_em_eeprom.c ****         uint32 rowNum;
1003:Generated_Source\PSoC4/cy_em_eeprom.c ****     #endif /* (CY_PSOC3) */
1004:Generated_Source\PSoC4/cy_em_eeprom.c ****     
1005:Generated_Source\PSoC4/cy_em_eeprom.c ****     #if (CY_PSOC3)
1006:Generated_Source\PSoC4/cy_em_eeprom.c ****         rowAddr &= CY_EM_EEPROM_CODE_ADDR_MASK;
1007:Generated_Source\PSoC4/cy_em_eeprom.c ****         context = context;      /* To avoid compiler warning generation */
1008:Generated_Source\PSoC4/cy_em_eeprom.c ****     #else
1009:Generated_Source\PSoC4/cy_em_eeprom.c ****         (void)context;          /* To avoid compiler warning generation */
1010:Generated_Source\PSoC4/cy_em_eeprom.c ****     #endif /* ((CY_PSOC3) */
1011:Generated_Source\PSoC4/cy_em_eeprom.c ****     
1012:Generated_Source\PSoC4/cy_em_eeprom.c ****     /* Write the flash row */
1013:Generated_Source\PSoC4/cy_em_eeprom.c ****     #if (CY_PSOC4)
1014:Generated_Source\PSoC4/cy_em_eeprom.c ****         /* For PSoC 4 devices, the array ID is included in the row number */
1015:Generated_Source\PSoC4/cy_em_eeprom.c ****         rowNum = rowAddr / CY_EM_EEPROM_FLASH_SIZEOF_ROW;
ARM GAS  C:\Users\HPz420\AppData\Local\Temp\ccEPczKG.s 			page 57


 2139              		.loc 1 1015 0
 2140 0014 FB68     		ldr	r3, [r7, #12]
 2141 0016 1B0A     		lsrs	r3, r3, #8
 2142 0018 BB61     		str	r3, [r7, #24]
1016:Generated_Source\PSoC4/cy_em_eeprom.c ****         
1017:Generated_Source\PSoC4/cy_em_eeprom.c ****         rc = CySysFlashWriteRow(rowNum, (uint8 *)rowData);
 2143              		.loc 1 1017 0
 2144 001a BA68     		ldr	r2, [r7, #8]
 2145 001c BB69     		ldr	r3, [r7, #24]
 2146 001e 1100     		movs	r1, r2
 2147 0020 1800     		movs	r0, r3
 2148 0022 FFF7FEFF 		bl	CySysFlashWriteRow
 2149 0026 0300     		movs	r3, r0
 2150 0028 7B61     		str	r3, [r7, #20]
1018:Generated_Source\PSoC4/cy_em_eeprom.c ****     #else
1019:Generated_Source\PSoC4/cy_em_eeprom.c ****         /* For PSoC 3/5 devices, the array ID and row ID needed to write the row */
1020:Generated_Source\PSoC4/cy_em_eeprom.c ****         rowId = (rowAddr / CY_EM_EEPROM_FLASH_SIZEOF_ROW) % CY_EM_EEPROM_ROWS_IN_ARRAY;
1021:Generated_Source\PSoC4/cy_em_eeprom.c ****         
1022:Generated_Source\PSoC4/cy_em_eeprom.c ****         #ifndef CY_EM_EEPROM_SKIP_TEMP_MEASUREMENT
1023:Generated_Source\PSoC4/cy_em_eeprom.c ****             (void)CySetTemp();
1024:Generated_Source\PSoC4/cy_em_eeprom.c ****         #endif /* (CY_EM_EEPROM_SKIP_TEMP_MEASUREMENT) */
1025:Generated_Source\PSoC4/cy_em_eeprom.c **** 
1026:Generated_Source\PSoC4/cy_em_eeprom.c ****         arrayId = rowAddr / CY_FLASH_SIZEOF_ARRAY;
1027:Generated_Source\PSoC4/cy_em_eeprom.c ****         rc = CyWriteRowData((uint8)arrayId, (uint16)rowId, (uint8 *)rowData);
1028:Generated_Source\PSoC4/cy_em_eeprom.c ****         
1029:Generated_Source\PSoC4/cy_em_eeprom.c ****         #if (CY_PSOC5)
1030:Generated_Source\PSoC4/cy_em_eeprom.c ****             CyFlushCache();
1031:Generated_Source\PSoC4/cy_em_eeprom.c ****         #endif /* (CY_PSOC5) */
1032:Generated_Source\PSoC4/cy_em_eeprom.c ****     #endif /* (CY_PSOC4) */
1033:Generated_Source\PSoC4/cy_em_eeprom.c **** 
1034:Generated_Source\PSoC4/cy_em_eeprom.c ****     if(CYRET_SUCCESS == rc)
 2151              		.loc 1 1034 0
 2152 002a 7B69     		ldr	r3, [r7, #20]
 2153 002c 002B     		cmp	r3, #0
 2154 002e 03D1     		bne	.L109
1035:Generated_Source\PSoC4/cy_em_eeprom.c ****     {
1036:Generated_Source\PSoC4/cy_em_eeprom.c ****         ret = CY_EM_EEPROM_SUCCESS;
 2155              		.loc 1 1036 0
 2156 0030 1F23     		movs	r3, #31
 2157 0032 FB18     		adds	r3, r7, r3
 2158 0034 0022     		movs	r2, #0
 2159 0036 1A70     		strb	r2, [r3]
 2160              	.L109:
1037:Generated_Source\PSoC4/cy_em_eeprom.c ****     }
1038:Generated_Source\PSoC4/cy_em_eeprom.c **** #else /* PSoC 6 */
1039:Generated_Source\PSoC4/cy_em_eeprom.c ****     if(0u != context->blockingWrite)
1040:Generated_Source\PSoC4/cy_em_eeprom.c ****     {
1041:Generated_Source\PSoC4/cy_em_eeprom.c ****         /* Do blocking write */
1042:Generated_Source\PSoC4/cy_em_eeprom.c ****         if(CY_FLASH_DRV_SUCCESS == Cy_Flash_WriteRow(rowAddr, (const uint32 *)rowData))
1043:Generated_Source\PSoC4/cy_em_eeprom.c ****         {
1044:Generated_Source\PSoC4/cy_em_eeprom.c ****             ret = CY_EM_EEPROM_SUCCESS;
1045:Generated_Source\PSoC4/cy_em_eeprom.c ****         }
1046:Generated_Source\PSoC4/cy_em_eeprom.c ****     }
1047:Generated_Source\PSoC4/cy_em_eeprom.c ****     else
1048:Generated_Source\PSoC4/cy_em_eeprom.c ****     {
1049:Generated_Source\PSoC4/cy_em_eeprom.c ****         /* Initiate write */
1050:Generated_Source\PSoC4/cy_em_eeprom.c ****         if(CY_FLASH_DRV_OPERATION_STARTED == Cy_Flash_StartWrite(rowAddr, (const uint32 *)rowData))
ARM GAS  C:\Users\HPz420\AppData\Local\Temp\ccEPczKG.s 			page 58


1051:Generated_Source\PSoC4/cy_em_eeprom.c ****         {
1052:Generated_Source\PSoC4/cy_em_eeprom.c ****             uint32 countMs = CY_EM_EEPROM_MAX_WRITE_DURATION_MS;
1053:Generated_Source\PSoC4/cy_em_eeprom.c ****             cy_en_flashdrv_status_t rc;
1054:Generated_Source\PSoC4/cy_em_eeprom.c **** 
1055:Generated_Source\PSoC4/cy_em_eeprom.c ****             do
1056:Generated_Source\PSoC4/cy_em_eeprom.c ****             {
1057:Generated_Source\PSoC4/cy_em_eeprom.c ****                 CyDelay(1u);                         /* Wait 1ms */
1058:Generated_Source\PSoC4/cy_em_eeprom.c ****                 rc = Cy_Flash_IsWriteComplete();     /* Check if write completed */
1059:Generated_Source\PSoC4/cy_em_eeprom.c ****                 countMs--;
1060:Generated_Source\PSoC4/cy_em_eeprom.c ****             }
1061:Generated_Source\PSoC4/cy_em_eeprom.c ****             while ((rc == CY_FLASH_DRV_OPCODE_BUSY) && (0u != countMs));
1062:Generated_Source\PSoC4/cy_em_eeprom.c **** 
1063:Generated_Source\PSoC4/cy_em_eeprom.c ****             if(CY_FLASH_DRV_SUCCESS == rc)
1064:Generated_Source\PSoC4/cy_em_eeprom.c ****             {
1065:Generated_Source\PSoC4/cy_em_eeprom.c ****                 ret = CY_EM_EEPROM_SUCCESS;
1066:Generated_Source\PSoC4/cy_em_eeprom.c ****             }
1067:Generated_Source\PSoC4/cy_em_eeprom.c ****         }
1068:Generated_Source\PSoC4/cy_em_eeprom.c ****     }
1069:Generated_Source\PSoC4/cy_em_eeprom.c **** #endif /* (CY_PSOC6) */
1070:Generated_Source\PSoC4/cy_em_eeprom.c **** 
1071:Generated_Source\PSoC4/cy_em_eeprom.c ****     return (ret);
 2161              		.loc 1 1071 0
 2162 0038 1F23     		movs	r3, #31
 2163 003a FB18     		adds	r3, r7, r3
 2164 003c 1B78     		ldrb	r3, [r3]
1072:Generated_Source\PSoC4/cy_em_eeprom.c **** }
 2165              		.loc 1 1072 0
 2166 003e 1800     		movs	r0, r3
 2167 0040 BD46     		mov	sp, r7
 2168 0042 08B0     		add	sp, sp, #32
 2169              		@ sp needed
 2170 0044 80BD     		pop	{r7, pc}
 2171              		.cfi_endproc
 2172              	.LFE11:
 2173              		.size	WriteRow, .-WriteRow
 2174 0046 C046     		.section	.text.EraseRow,"ax",%progbits
 2175              		.align	2
 2176              		.code	16
 2177              		.thumb_func
 2178              		.type	EraseRow, %function
 2179              	EraseRow:
 2180              	.LFB12:
1073:Generated_Source\PSoC4/cy_em_eeprom.c **** 
1074:Generated_Source\PSoC4/cy_em_eeprom.c **** 
1075:Generated_Source\PSoC4/cy_em_eeprom.c **** /*******************************************************************************
1076:Generated_Source\PSoC4/cy_em_eeprom.c **** * Function Name: EraseRow
1077:Generated_Source\PSoC4/cy_em_eeprom.c **** ****************************************************************************//**
1078:Generated_Source\PSoC4/cy_em_eeprom.c **** *
1079:Generated_Source\PSoC4/cy_em_eeprom.c **** * Erases one flash row starting from the specified row address. If the redundant
1080:Generated_Source\PSoC4/cy_em_eeprom.c **** * copy option is enabled the corresponding row in the redundant copy will also
1081:Generated_Source\PSoC4/cy_em_eeprom.c **** * be erased.
1082:Generated_Source\PSoC4/cy_em_eeprom.c **** *
1083:Generated_Source\PSoC4/cy_em_eeprom.c **** * \param rowAdd
1084:Generated_Source\PSoC4/cy_em_eeprom.c **** * The address of the flash row.
1085:Generated_Source\PSoC4/cy_em_eeprom.c **** *
1086:Generated_Source\PSoC4/cy_em_eeprom.c **** * \param ramBuffAddr
1087:Generated_Source\PSoC4/cy_em_eeprom.c **** * The address of the RAM buffer that contains zeroed data (used only for
ARM GAS  C:\Users\HPz420\AppData\Local\Temp\ccEPczKG.s 			page 59


1088:Generated_Source\PSoC4/cy_em_eeprom.c **** * non-PSoC 6 devices).
1089:Generated_Source\PSoC4/cy_em_eeprom.c **** *
1090:Generated_Source\PSoC4/cy_em_eeprom.c **** * \param context
1091:Generated_Source\PSoC4/cy_em_eeprom.c **** * The pointer to the EEPROM context structure \ref cy_stc_eeprom_context_t.
1092:Generated_Source\PSoC4/cy_em_eeprom.c **** *
1093:Generated_Source\PSoC4/cy_em_eeprom.c **** * \return
1094:Generated_Source\PSoC4/cy_em_eeprom.c **** * error / status code. See \ref cy_en_em_eeprom_status_t.
1095:Generated_Source\PSoC4/cy_em_eeprom.c **** *
1096:Generated_Source\PSoC4/cy_em_eeprom.c **** *******************************************************************************/
1097:Generated_Source\PSoC4/cy_em_eeprom.c **** static cy_en_em_eeprom_status_t EraseRow(uint32 rowAddr,
1098:Generated_Source\PSoC4/cy_em_eeprom.c ****                                         uint32 ramBuffAddr,
1099:Generated_Source\PSoC4/cy_em_eeprom.c ****                                         cy_stc_eeprom_context_t * context)
1100:Generated_Source\PSoC4/cy_em_eeprom.c **** {
 2181              		.loc 1 1100 0
 2182              		.cfi_startproc
 2183              		@ args = 0, pretend = 0, frame = 24
 2184              		@ frame_needed = 1, uses_anonymous_args = 0
 2185 0000 90B5     		push	{r4, r7, lr}
 2186              		.cfi_def_cfa_offset 12
 2187              		.cfi_offset 4, -12
 2188              		.cfi_offset 7, -8
 2189              		.cfi_offset 14, -4
 2190 0002 87B0     		sub	sp, sp, #28
 2191              		.cfi_def_cfa_offset 40
 2192 0004 00AF     		add	r7, sp, #0
 2193              		.cfi_def_cfa_register 7
 2194 0006 F860     		str	r0, [r7, #12]
 2195 0008 B960     		str	r1, [r7, #8]
 2196 000a 7A60     		str	r2, [r7, #4]
1101:Generated_Source\PSoC4/cy_em_eeprom.c ****     uint32 emEepromRowAddr = rowAddr;
 2197              		.loc 1 1101 0
 2198 000c FB68     		ldr	r3, [r7, #12]
 2199 000e 3B61     		str	r3, [r7, #16]
1102:Generated_Source\PSoC4/cy_em_eeprom.c ****     cy_en_em_eeprom_status_t ret = CY_EM_EEPROM_WRITE_FAIL;
 2200              		.loc 1 1102 0
 2201 0010 1723     		movs	r3, #23
 2202 0012 FB18     		adds	r3, r7, r3
 2203 0014 0422     		movs	r2, #4
 2204 0016 1A70     		strb	r2, [r3]
1103:Generated_Source\PSoC4/cy_em_eeprom.c **** #if (CY_PSOC6)
1104:Generated_Source\PSoC4/cy_em_eeprom.c ****     uint32 i = 1u;
1105:Generated_Source\PSoC4/cy_em_eeprom.c **** 
1106:Generated_Source\PSoC4/cy_em_eeprom.c ****     (void)ramBuffAddr; /* To avoid compiler warning */
1107:Generated_Source\PSoC4/cy_em_eeprom.c **** 
1108:Generated_Source\PSoC4/cy_em_eeprom.c ****     if(0u != context->redundantCopy)
1109:Generated_Source\PSoC4/cy_em_eeprom.c ****     {
1110:Generated_Source\PSoC4/cy_em_eeprom.c ****         i++;
1111:Generated_Source\PSoC4/cy_em_eeprom.c ****     }
1112:Generated_Source\PSoC4/cy_em_eeprom.c **** 
1113:Generated_Source\PSoC4/cy_em_eeprom.c ****     do
1114:Generated_Source\PSoC4/cy_em_eeprom.c ****     {
1115:Generated_Source\PSoC4/cy_em_eeprom.c ****         if(0u != context->blockingWrite)
1116:Generated_Source\PSoC4/cy_em_eeprom.c ****         {
1117:Generated_Source\PSoC4/cy_em_eeprom.c ****             /* Erase the flash row */
1118:Generated_Source\PSoC4/cy_em_eeprom.c ****             if(CY_FLASH_DRV_SUCCESS == Cy_Flash_EraseRow(emEepromRowAddr))
1119:Generated_Source\PSoC4/cy_em_eeprom.c ****             {
1120:Generated_Source\PSoC4/cy_em_eeprom.c ****                 ret = CY_EM_EEPROM_SUCCESS;
ARM GAS  C:\Users\HPz420\AppData\Local\Temp\ccEPczKG.s 			page 60


1121:Generated_Source\PSoC4/cy_em_eeprom.c ****             }
1122:Generated_Source\PSoC4/cy_em_eeprom.c ****         }
1123:Generated_Source\PSoC4/cy_em_eeprom.c ****         else
1124:Generated_Source\PSoC4/cy_em_eeprom.c ****         {
1125:Generated_Source\PSoC4/cy_em_eeprom.c ****             /* Initiate erase */
1126:Generated_Source\PSoC4/cy_em_eeprom.c ****             if(CY_FLASH_DRV_OPERATION_STARTED == Cy_Flash_StartErase(emEepromRowAddr))
1127:Generated_Source\PSoC4/cy_em_eeprom.c ****             {
1128:Generated_Source\PSoC4/cy_em_eeprom.c ****                 uint32 countMs = CY_EM_EEPROM_MAX_WRITE_DURATION_MS;
1129:Generated_Source\PSoC4/cy_em_eeprom.c ****                 cy_en_flashdrv_status_t rc;
1130:Generated_Source\PSoC4/cy_em_eeprom.c **** 
1131:Generated_Source\PSoC4/cy_em_eeprom.c ****                 do
1132:Generated_Source\PSoC4/cy_em_eeprom.c ****                 {
1133:Generated_Source\PSoC4/cy_em_eeprom.c ****                     CyDelay(1u);                         /* Wait 1ms */
1134:Generated_Source\PSoC4/cy_em_eeprom.c ****                     rc = Cy_Flash_IsWriteComplete();     /* Check if erase completed */
1135:Generated_Source\PSoC4/cy_em_eeprom.c ****                     countMs--;
1136:Generated_Source\PSoC4/cy_em_eeprom.c ****                 }
1137:Generated_Source\PSoC4/cy_em_eeprom.c ****                 while ((rc == CY_FLASH_DRV_OPCODE_BUSY) && (0u != countMs));
1138:Generated_Source\PSoC4/cy_em_eeprom.c **** 
1139:Generated_Source\PSoC4/cy_em_eeprom.c ****                 if(CY_FLASH_DRV_SUCCESS == rc)
1140:Generated_Source\PSoC4/cy_em_eeprom.c ****                 {
1141:Generated_Source\PSoC4/cy_em_eeprom.c ****                     ret = CY_EM_EEPROM_SUCCESS;
1142:Generated_Source\PSoC4/cy_em_eeprom.c ****                 }
1143:Generated_Source\PSoC4/cy_em_eeprom.c ****             }
1144:Generated_Source\PSoC4/cy_em_eeprom.c ****         }
1145:Generated_Source\PSoC4/cy_em_eeprom.c **** 
1146:Generated_Source\PSoC4/cy_em_eeprom.c ****         if(CY_EM_EEPROM_SUCCESS == ret)
1147:Generated_Source\PSoC4/cy_em_eeprom.c ****         {
1148:Generated_Source\PSoC4/cy_em_eeprom.c ****             /* Update the address to point to the redundant copy row */
1149:Generated_Source\PSoC4/cy_em_eeprom.c ****             emEepromRowAddr = (emEepromRowAddr - context->userFlashStartAddr) + context->wlEndAddr;
1150:Generated_Source\PSoC4/cy_em_eeprom.c ****         }
1151:Generated_Source\PSoC4/cy_em_eeprom.c ****         else
1152:Generated_Source\PSoC4/cy_em_eeprom.c ****         {
1153:Generated_Source\PSoC4/cy_em_eeprom.c ****             break;
1154:Generated_Source\PSoC4/cy_em_eeprom.c ****         }
1155:Generated_Source\PSoC4/cy_em_eeprom.c ****         i--;
1156:Generated_Source\PSoC4/cy_em_eeprom.c ****     } while (0u != i);
1157:Generated_Source\PSoC4/cy_em_eeprom.c **** #else
1158:Generated_Source\PSoC4/cy_em_eeprom.c ****     /* Write the data to the specified flash row */
1159:Generated_Source\PSoC4/cy_em_eeprom.c ****     ret = WriteRow(emEepromRowAddr, (uint32 *)ramBuffAddr, context);
 2205              		.loc 1 1159 0
 2206 0018 B968     		ldr	r1, [r7, #8]
 2207 001a 1723     		movs	r3, #23
 2208 001c FC18     		adds	r4, r7, r3
 2209 001e 7A68     		ldr	r2, [r7, #4]
 2210 0020 3B69     		ldr	r3, [r7, #16]
 2211 0022 1800     		movs	r0, r3
 2212 0024 FFF7FEFF 		bl	WriteRow
 2213 0028 0300     		movs	r3, r0
 2214 002a 2370     		strb	r3, [r4]
1160:Generated_Source\PSoC4/cy_em_eeprom.c **** 
1161:Generated_Source\PSoC4/cy_em_eeprom.c ****     if((CY_EM_EEPROM_SUCCESS == ret) && (0u != context->redundantCopy))
 2215              		.loc 1 1161 0
 2216 002c 1723     		movs	r3, #23
 2217 002e FB18     		adds	r3, r7, r3
 2218 0030 1B78     		ldrb	r3, [r3]
 2219 0032 002B     		cmp	r3, #0
 2220 0034 15D1     		bne	.L112
ARM GAS  C:\Users\HPz420\AppData\Local\Temp\ccEPczKG.s 			page 61


 2221              		.loc 1 1161 0 is_stmt 0 discriminator 1
 2222 0036 7B68     		ldr	r3, [r7, #4]
 2223 0038 1B7D     		ldrb	r3, [r3, #20]
 2224 003a 002B     		cmp	r3, #0
 2225 003c 11D0     		beq	.L112
1162:Generated_Source\PSoC4/cy_em_eeprom.c ****     {
1163:Generated_Source\PSoC4/cy_em_eeprom.c ****         /* Update the address to point to the redundant copy row */
1164:Generated_Source\PSoC4/cy_em_eeprom.c ****         emEepromRowAddr = (emEepromRowAddr - context->userFlashStartAddr) + context->wlEndAddr;
 2226              		.loc 1 1164 0 is_stmt 1
 2227 003e 7B68     		ldr	r3, [r7, #4]
 2228 0040 9B69     		ldr	r3, [r3, #24]
 2229 0042 3A69     		ldr	r2, [r7, #16]
 2230 0044 D21A     		subs	r2, r2, r3
 2231 0046 7B68     		ldr	r3, [r7, #4]
 2232 0048 1B68     		ldr	r3, [r3]
 2233 004a D318     		adds	r3, r2, r3
 2234 004c 3B61     		str	r3, [r7, #16]
1165:Generated_Source\PSoC4/cy_em_eeprom.c ****         ret = WriteRow(emEepromRowAddr, (uint32 *)ramBuffAddr, context);
 2235              		.loc 1 1165 0
 2236 004e B968     		ldr	r1, [r7, #8]
 2237 0050 1723     		movs	r3, #23
 2238 0052 FC18     		adds	r4, r7, r3
 2239 0054 7A68     		ldr	r2, [r7, #4]
 2240 0056 3B69     		ldr	r3, [r7, #16]
 2241 0058 1800     		movs	r0, r3
 2242 005a FFF7FEFF 		bl	WriteRow
 2243 005e 0300     		movs	r3, r0
 2244 0060 2370     		strb	r3, [r4]
 2245              	.L112:
1166:Generated_Source\PSoC4/cy_em_eeprom.c ****     }
1167:Generated_Source\PSoC4/cy_em_eeprom.c **** 
1168:Generated_Source\PSoC4/cy_em_eeprom.c ****     if(CY_EM_EEPROM_SUCCESS == ret)
 2246              		.loc 1 1168 0
 2247 0062 1723     		movs	r3, #23
 2248 0064 FB18     		adds	r3, r7, r3
 2249 0066 1B78     		ldrb	r3, [r3]
 2250 0068 002B     		cmp	r3, #0
 2251 006a 02D1     		bne	.L113
1169:Generated_Source\PSoC4/cy_em_eeprom.c ****     {
1170:Generated_Source\PSoC4/cy_em_eeprom.c ****         context->lastWrRowAddr = rowAddr;
 2252              		.loc 1 1170 0
 2253 006c 7B68     		ldr	r3, [r7, #4]
 2254 006e FA68     		ldr	r2, [r7, #12]
 2255 0070 9A60     		str	r2, [r3, #8]
 2256              	.L113:
1171:Generated_Source\PSoC4/cy_em_eeprom.c ****     }
1172:Generated_Source\PSoC4/cy_em_eeprom.c **** #endif /* (CY_PSOC6) */
1173:Generated_Source\PSoC4/cy_em_eeprom.c **** 
1174:Generated_Source\PSoC4/cy_em_eeprom.c ****     return(ret);
 2257              		.loc 1 1174 0
 2258 0072 1723     		movs	r3, #23
 2259 0074 FB18     		adds	r3, r7, r3
 2260 0076 1B78     		ldrb	r3, [r3]
1175:Generated_Source\PSoC4/cy_em_eeprom.c **** }
 2261              		.loc 1 1175 0
 2262 0078 1800     		movs	r0, r3
 2263 007a BD46     		mov	sp, r7
ARM GAS  C:\Users\HPz420\AppData\Local\Temp\ccEPczKG.s 			page 62


 2264 007c 07B0     		add	sp, sp, #28
 2265              		@ sp needed
 2266 007e 90BD     		pop	{r4, r7, pc}
 2267              		.cfi_endproc
 2268              	.LFE12:
 2269              		.size	EraseRow, .-EraseRow
 2270              		.section	.text.CheckCrcAndCopy,"ax",%progbits
 2271              		.align	2
 2272              		.code	16
 2273              		.thumb_func
 2274              		.type	CheckCrcAndCopy, %function
 2275              	CheckCrcAndCopy:
 2276              	.LFB13:
1176:Generated_Source\PSoC4/cy_em_eeprom.c **** 
1177:Generated_Source\PSoC4/cy_em_eeprom.c **** 
1178:Generated_Source\PSoC4/cy_em_eeprom.c **** /*******************************************************************************
1179:Generated_Source\PSoC4/cy_em_eeprom.c **** * Function Name: CheckCrcAndCopy
1180:Generated_Source\PSoC4/cy_em_eeprom.c **** ****************************************************************************//**
1181:Generated_Source\PSoC4/cy_em_eeprom.c **** *
1182:Generated_Source\PSoC4/cy_em_eeprom.c **** * Checks the checksum of the specific row in EEPROM. If the CRC matches - copies
1183:Generated_Source\PSoC4/cy_em_eeprom.c **** * the data to the "datAddr" from EEPROM. f the CRC does not match checks the
1184:Generated_Source\PSoC4/cy_em_eeprom.c **** * CRC of the corresponding row in the EEPROM's redundant copy. If the CRC
1185:Generated_Source\PSoC4/cy_em_eeprom.c **** * matches - copies the data to the "datAddr" from EEPROM redundant copy. If the
1186:Generated_Source\PSoC4/cy_em_eeprom.c **** * CRC of the redundant copy does not match - returns bad checksum.
1187:Generated_Source\PSoC4/cy_em_eeprom.c **** *
1188:Generated_Source\PSoC4/cy_em_eeprom.c **** * \param startAddr
1189:Generated_Source\PSoC4/cy_em_eeprom.c **** * The address that points to the start of the specified row.
1190:Generated_Source\PSoC4/cy_em_eeprom.c **** *
1191:Generated_Source\PSoC4/cy_em_eeprom.c **** * \param datAddr
1192:Generated_Source\PSoC4/cy_em_eeprom.c **** * The start address of where the row data will be copied if the CRC check
1193:Generated_Source\PSoC4/cy_em_eeprom.c **** * will succeed.
1194:Generated_Source\PSoC4/cy_em_eeprom.c **** *
1195:Generated_Source\PSoC4/cy_em_eeprom.c **** * \param rowOffset
1196:Generated_Source\PSoC4/cy_em_eeprom.c **** * The offset in the row from which the data should be copied.
1197:Generated_Source\PSoC4/cy_em_eeprom.c **** *
1198:Generated_Source\PSoC4/cy_em_eeprom.c **** * \param numBytes
1199:Generated_Source\PSoC4/cy_em_eeprom.c **** * The number of bytes to be copied.
1200:Generated_Source\PSoC4/cy_em_eeprom.c **** *
1201:Generated_Source\PSoC4/cy_em_eeprom.c **** * \param context
1202:Generated_Source\PSoC4/cy_em_eeprom.c **** * The pointer to the EEPROM context structure \ref cy_stc_eeprom_context_t.
1203:Generated_Source\PSoC4/cy_em_eeprom.c **** *
1204:Generated_Source\PSoC4/cy_em_eeprom.c **** * \return
1205:Generated_Source\PSoC4/cy_em_eeprom.c **** * error / status code. See \ref cy_en_em_eeprom_status_t.
1206:Generated_Source\PSoC4/cy_em_eeprom.c **** *
1207:Generated_Source\PSoC4/cy_em_eeprom.c **** * \note
1208:Generated_Source\PSoC4/cy_em_eeprom.c **** * This function uses a buffer of the flash row size to perform read
1209:Generated_Source\PSoC4/cy_em_eeprom.c **** * operation. For the size of the row refer to the specific PSoC device
1210:Generated_Source\PSoC4/cy_em_eeprom.c **** * datasheet.
1211:Generated_Source\PSoC4/cy_em_eeprom.c **** *
1212:Generated_Source\PSoC4/cy_em_eeprom.c **** *******************************************************************************/
1213:Generated_Source\PSoC4/cy_em_eeprom.c **** static cy_en_em_eeprom_status_t CheckCrcAndCopy(uint32 startAddr,
1214:Generated_Source\PSoC4/cy_em_eeprom.c ****                                                 uint32 dstAddr,
1215:Generated_Source\PSoC4/cy_em_eeprom.c ****                                                 uint32 rowOffset,
1216:Generated_Source\PSoC4/cy_em_eeprom.c ****                                                 uint32 numBytes,
1217:Generated_Source\PSoC4/cy_em_eeprom.c ****                                                 cy_stc_eeprom_context_t * context)
1218:Generated_Source\PSoC4/cy_em_eeprom.c **** {
 2277              		.loc 1 1218 0
ARM GAS  C:\Users\HPz420\AppData\Local\Temp\ccEPczKG.s 			page 63


 2278              		.cfi_startproc
 2279              		@ args = 4, pretend = 0, frame = 280
 2280              		@ frame_needed = 1, uses_anonymous_args = 0
 2281 0000 90B5     		push	{r4, r7, lr}
 2282              		.cfi_def_cfa_offset 12
 2283              		.cfi_offset 4, -12
 2284              		.cfi_offset 7, -8
 2285              		.cfi_offset 14, -4
 2286 0002 C7B0     		sub	sp, sp, #284
 2287              		.cfi_def_cfa_offset 296
 2288 0004 00AF     		add	r7, sp, #0
 2289              		.cfi_def_cfa_register 7
 2290 0006 F860     		str	r0, [r7, #12]
 2291 0008 B960     		str	r1, [r7, #8]
 2292 000a 7A60     		str	r2, [r7, #4]
 2293 000c 3B60     		str	r3, [r7]
1219:Generated_Source\PSoC4/cy_em_eeprom.c ****     cy_en_em_eeprom_status_t ret;
1220:Generated_Source\PSoC4/cy_em_eeprom.c ****     uint32 writeRamBuffer[CY_EM_EEPROM_FLASH_SIZEOF_ROW / CY_EM_EEPROM_U32_DIV];
1221:Generated_Source\PSoC4/cy_em_eeprom.c **** 
1222:Generated_Source\PSoC4/cy_em_eeprom.c ****     /* Calculate the row address in the EEPROM's redundant copy */
1223:Generated_Source\PSoC4/cy_em_eeprom.c ****     uint32 rcStartRowAddr = (startAddr - context->userFlashStartAddr) + context->wlEndAddr;
 2294              		.loc 1 1223 0
 2295 000e 9423     		movs	r3, #148
 2296 0010 5B00     		lsls	r3, r3, #1
 2297 0012 FB18     		adds	r3, r7, r3
 2298 0014 1B68     		ldr	r3, [r3]
 2299 0016 9B69     		ldr	r3, [r3, #24]
 2300 0018 FA68     		ldr	r2, [r7, #12]
 2301 001a D21A     		subs	r2, r2, r3
 2302 001c 9423     		movs	r3, #148
 2303 001e 5B00     		lsls	r3, r3, #1
 2304 0020 FB18     		adds	r3, r7, r3
 2305 0022 1B68     		ldr	r3, [r3]
 2306 0024 1B68     		ldr	r3, [r3]
 2307 0026 D318     		adds	r3, r2, r3
 2308 0028 8822     		movs	r2, #136
 2309 002a 5200     		lsls	r2, r2, #1
 2310 002c BA18     		adds	r2, r7, r2
 2311 002e 1360     		str	r3, [r2]
1224:Generated_Source\PSoC4/cy_em_eeprom.c **** 
1225:Generated_Source\PSoC4/cy_em_eeprom.c ****     /* Check the row data CRC in the EEPROM */
1226:Generated_Source\PSoC4/cy_em_eeprom.c ****     if((*(uint32 *)(startAddr + CY_EM_EEPROM_HEADER_CHECKSUM_OFFSET)) ==
 2312              		.loc 1 1226 0
 2313 0030 FB68     		ldr	r3, [r7, #12]
 2314 0032 7C33     		adds	r3, r3, #124
 2315 0034 1C68     		ldr	r4, [r3]
1227:Generated_Source\PSoC4/cy_em_eeprom.c ****         ((uint32) CalcChecksum((uint8 *)(startAddr + CY_EM_EEPROM_EEPROM_DATA_OFFSET),
 2316              		.loc 1 1227 0
 2317 0036 FB68     		ldr	r3, [r7, #12]
 2318 0038 8033     		adds	r3, r3, #128
 2319 003a 8021     		movs	r1, #128
 2320 003c 1800     		movs	r0, r3
 2321 003e FFF7FEFF 		bl	CalcChecksum
 2322 0042 0300     		movs	r3, r0
1226:Generated_Source\PSoC4/cy_em_eeprom.c ****         ((uint32) CalcChecksum((uint8 *)(startAddr + CY_EM_EEPROM_EEPROM_DATA_OFFSET),
 2323              		.loc 1 1226 0
 2324 0044 9C42     		cmp	r4, r3
ARM GAS  C:\Users\HPz420\AppData\Local\Temp\ccEPczKG.s 			page 64


 2325 0046 0ED1     		bne	.L116
1228:Generated_Source\PSoC4/cy_em_eeprom.c ****             CY_EM_EEPROM_EEPROM_DATA_LEN)))
1229:Generated_Source\PSoC4/cy_em_eeprom.c ****     {
1230:Generated_Source\PSoC4/cy_em_eeprom.c ****         (void)memcpy((void *)(dstAddr), (void *)(startAddr + rowOffset), numBytes);
 2326              		.loc 1 1230 0
 2327 0048 B868     		ldr	r0, [r7, #8]
 2328 004a FA68     		ldr	r2, [r7, #12]
 2329 004c 7B68     		ldr	r3, [r7, #4]
 2330 004e D318     		adds	r3, r2, r3
 2331 0050 1900     		movs	r1, r3
 2332 0052 3B68     		ldr	r3, [r7]
 2333 0054 1A00     		movs	r2, r3
 2334 0056 FFF7FEFF 		bl	memcpy
1231:Generated_Source\PSoC4/cy_em_eeprom.c **** 
1232:Generated_Source\PSoC4/cy_em_eeprom.c ****         ret = CY_EM_EEPROM_SUCCESS;
 2335              		.loc 1 1232 0
 2336 005a 1823     		movs	r3, #24
 2337 005c FF33     		adds	r3, r3, #255
 2338 005e FB18     		adds	r3, r7, r3
 2339 0060 0022     		movs	r2, #0
 2340 0062 1A70     		strb	r2, [r3]
 2341 0064 41E0     		b	.L117
 2342              	.L116:
1233:Generated_Source\PSoC4/cy_em_eeprom.c ****     }
1234:Generated_Source\PSoC4/cy_em_eeprom.c ****     /* Check the row data CRC in the EEPROM's redundant copy */
1235:Generated_Source\PSoC4/cy_em_eeprom.c ****     else if((*(uint32 *)(rcStartRowAddr + CY_EM_EEPROM_HEADER_CHECKSUM_OFFSET)) ==
 2343              		.loc 1 1235 0
 2344 0066 8823     		movs	r3, #136
 2345 0068 5B00     		lsls	r3, r3, #1
 2346 006a FB18     		adds	r3, r7, r3
 2347 006c 1B68     		ldr	r3, [r3]
 2348 006e 7C33     		adds	r3, r3, #124
 2349 0070 1C68     		ldr	r4, [r3]
1236:Generated_Source\PSoC4/cy_em_eeprom.c ****             ((uint32) CalcChecksum((uint8 *)(rcStartRowAddr + CY_EM_EEPROM_EEPROM_DATA_OFFSET),
 2350              		.loc 1 1236 0
 2351 0072 8823     		movs	r3, #136
 2352 0074 5B00     		lsls	r3, r3, #1
 2353 0076 FB18     		adds	r3, r7, r3
 2354 0078 1B68     		ldr	r3, [r3]
 2355 007a 8033     		adds	r3, r3, #128
 2356 007c 8021     		movs	r1, #128
 2357 007e 1800     		movs	r0, r3
 2358 0080 FFF7FEFF 		bl	CalcChecksum
 2359 0084 0300     		movs	r3, r0
1235:Generated_Source\PSoC4/cy_em_eeprom.c ****             ((uint32) CalcChecksum((uint8 *)(rcStartRowAddr + CY_EM_EEPROM_EEPROM_DATA_OFFSET),
 2360              		.loc 1 1235 0
 2361 0086 9C42     		cmp	r4, r3
 2362 0088 2AD1     		bne	.L118
1237:Generated_Source\PSoC4/cy_em_eeprom.c ****                 CY_EM_EEPROM_EEPROM_DATA_LEN)))
1238:Generated_Source\PSoC4/cy_em_eeprom.c ****     {
1239:Generated_Source\PSoC4/cy_em_eeprom.c ****         /* Copy the redundant copy row to RAM buffer to avoid read while write (RWW)
1240:Generated_Source\PSoC4/cy_em_eeprom.c ****         * flash exception. The RWW occurs while trying to write and read the data from
1241:Generated_Source\PSoC4/cy_em_eeprom.c ****         * same flash macro.
1242:Generated_Source\PSoC4/cy_em_eeprom.c ****         */
1243:Generated_Source\PSoC4/cy_em_eeprom.c ****         (void)memcpy((void *)(writeRamBuffer), (void *)(rcStartRowAddr), CY_EM_EEPROM_FLASH_SIZEOF_
 2363              		.loc 1 1243 0
 2364 008a 8823     		movs	r3, #136
ARM GAS  C:\Users\HPz420\AppData\Local\Temp\ccEPczKG.s 			page 65


 2365 008c 5B00     		lsls	r3, r3, #1
 2366 008e FB18     		adds	r3, r7, r3
 2367 0090 1968     		ldr	r1, [r3]
 2368 0092 8023     		movs	r3, #128
 2369 0094 5A00     		lsls	r2, r3, #1
 2370 0096 1023     		movs	r3, #16
 2371 0098 FB18     		adds	r3, r7, r3
 2372 009a 1800     		movs	r0, r3
 2373 009c FFF7FEFF 		bl	memcpy
1244:Generated_Source\PSoC4/cy_em_eeprom.c **** 
1245:Generated_Source\PSoC4/cy_em_eeprom.c ****         /* Restore bad row data from the RAM buffer */
1246:Generated_Source\PSoC4/cy_em_eeprom.c ****         ret = WriteRow(startAddr, (uint32 *)writeRamBuffer, context);
 2374              		.loc 1 1246 0
 2375 00a0 1823     		movs	r3, #24
 2376 00a2 FF33     		adds	r3, r3, #255
 2377 00a4 FC18     		adds	r4, r7, r3
 2378 00a6 9423     		movs	r3, #148
 2379 00a8 5B00     		lsls	r3, r3, #1
 2380 00aa FB18     		adds	r3, r7, r3
 2381 00ac 1A68     		ldr	r2, [r3]
 2382 00ae 1023     		movs	r3, #16
 2383 00b0 F918     		adds	r1, r7, r3
 2384 00b2 FB68     		ldr	r3, [r7, #12]
 2385 00b4 1800     		movs	r0, r3
 2386 00b6 FFF7FEFF 		bl	WriteRow
 2387 00ba 0300     		movs	r3, r0
 2388 00bc 2370     		strb	r3, [r4]
1247:Generated_Source\PSoC4/cy_em_eeprom.c **** 
1248:Generated_Source\PSoC4/cy_em_eeprom.c ****         if(CY_EM_EEPROM_SUCCESS == ret)
 2389              		.loc 1 1248 0
 2390 00be 1823     		movs	r3, #24
 2391 00c0 FF33     		adds	r3, r3, #255
 2392 00c2 FB18     		adds	r3, r7, r3
 2393 00c4 1B78     		ldrb	r3, [r3]
 2394 00c6 002B     		cmp	r3, #0
 2395 00c8 0FD1     		bne	.L117
1249:Generated_Source\PSoC4/cy_em_eeprom.c ****         {
1250:Generated_Source\PSoC4/cy_em_eeprom.c ****             (void)memcpy((void *)(dstAddr), (void *)(writeRamBuffer + rowOffset), numBytes);
 2396              		.loc 1 1250 0
 2397 00ca B868     		ldr	r0, [r7, #8]
 2398 00cc 7B68     		ldr	r3, [r7, #4]
 2399 00ce 9B00     		lsls	r3, r3, #2
 2400 00d0 1022     		movs	r2, #16
 2401 00d2 BA18     		adds	r2, r7, r2
 2402 00d4 D318     		adds	r3, r2, r3
 2403 00d6 3A68     		ldr	r2, [r7]
 2404 00d8 1900     		movs	r1, r3
 2405 00da FFF7FEFF 		bl	memcpy
 2406 00de 04E0     		b	.L117
 2407              	.L118:
1251:Generated_Source\PSoC4/cy_em_eeprom.c ****         }
1252:Generated_Source\PSoC4/cy_em_eeprom.c ****     }
1253:Generated_Source\PSoC4/cy_em_eeprom.c ****     else
1254:Generated_Source\PSoC4/cy_em_eeprom.c ****     {
1255:Generated_Source\PSoC4/cy_em_eeprom.c ****         ret = CY_EM_EEPROM_BAD_CHECKSUM;
 2408              		.loc 1 1255 0
 2409 00e0 1823     		movs	r3, #24
ARM GAS  C:\Users\HPz420\AppData\Local\Temp\ccEPczKG.s 			page 66


 2410 00e2 FF33     		adds	r3, r3, #255
 2411 00e4 FB18     		adds	r3, r7, r3
 2412 00e6 0222     		movs	r2, #2
 2413 00e8 1A70     		strb	r2, [r3]
 2414              	.L117:
1256:Generated_Source\PSoC4/cy_em_eeprom.c ****     }
1257:Generated_Source\PSoC4/cy_em_eeprom.c **** 
1258:Generated_Source\PSoC4/cy_em_eeprom.c ****     return(ret);
 2415              		.loc 1 1258 0
 2416 00ea 1823     		movs	r3, #24
 2417 00ec FF33     		adds	r3, r3, #255
 2418 00ee FB18     		adds	r3, r7, r3
 2419 00f0 1B78     		ldrb	r3, [r3]
1259:Generated_Source\PSoC4/cy_em_eeprom.c **** }
 2420              		.loc 1 1259 0
 2421 00f2 1800     		movs	r0, r3
 2422 00f4 BD46     		mov	sp, r7
 2423 00f6 47B0     		add	sp, sp, #284
 2424              		@ sp needed
 2425 00f8 90BD     		pop	{r4, r7, pc}
 2426              		.cfi_endproc
 2427              	.LFE13:
 2428              		.size	CheckCrcAndCopy, .-CheckCrcAndCopy
 2429 00fa C046     		.section	.text.GetAddresses,"ax",%progbits
 2430              		.align	2
 2431              		.code	16
 2432              		.thumb_func
 2433              		.type	GetAddresses, %function
 2434              	GetAddresses:
 2435              	.LFB14:
1260:Generated_Source\PSoC4/cy_em_eeprom.c **** 
1261:Generated_Source\PSoC4/cy_em_eeprom.c **** 
1262:Generated_Source\PSoC4/cy_em_eeprom.c **** /*******************************************************************************
1263:Generated_Source\PSoC4/cy_em_eeprom.c **** * Function Name: GetAddresses
1264:Generated_Source\PSoC4/cy_em_eeprom.c **** ****************************************************************************//**
1265:Generated_Source\PSoC4/cy_em_eeprom.c **** *
1266:Generated_Source\PSoC4/cy_em_eeprom.c **** * Calculates the start and end address of the row's EEPROM data to be updated.
1267:Generated_Source\PSoC4/cy_em_eeprom.c **** * The start and end are not absolute addresses but a relative addresses in a
1268:Generated_Source\PSoC4/cy_em_eeprom.c **** * flash row.
1269:Generated_Source\PSoC4/cy_em_eeprom.c **** *
1270:Generated_Source\PSoC4/cy_em_eeprom.c **** * \param startAddr
1271:Generated_Source\PSoC4/cy_em_eeprom.c **** * The pointer the address where the EEPROM data start address will be returned.
1272:Generated_Source\PSoC4/cy_em_eeprom.c **** *
1273:Generated_Source\PSoC4/cy_em_eeprom.c **** * \param endAddr
1274:Generated_Source\PSoC4/cy_em_eeprom.c **** * The pointer the address where the EEPROM data end address will be returned.
1275:Generated_Source\PSoC4/cy_em_eeprom.c **** *
1276:Generated_Source\PSoC4/cy_em_eeprom.c **** * \param offset
1277:Generated_Source\PSoC4/cy_em_eeprom.c **** * The pointer the address where the calculated offset of the EEPROM header data
1278:Generated_Source\PSoC4/cy_em_eeprom.c **** * will be returned.
1279:Generated_Source\PSoC4/cy_em_eeprom.c **** *
1280:Generated_Source\PSoC4/cy_em_eeprom.c **** * \param rowNum
1281:Generated_Source\PSoC4/cy_em_eeprom.c **** * The row number that is about to be written.
1282:Generated_Source\PSoC4/cy_em_eeprom.c **** *
1283:Generated_Source\PSoC4/cy_em_eeprom.c **** * \param addr
1284:Generated_Source\PSoC4/cy_em_eeprom.c **** * The address of the EEPROM header data in the currently analyzed row that may
1285:Generated_Source\PSoC4/cy_em_eeprom.c **** * concern to the row about to be written.
1286:Generated_Source\PSoC4/cy_em_eeprom.c **** *
ARM GAS  C:\Users\HPz420\AppData\Local\Temp\ccEPczKG.s 			page 67


1287:Generated_Source\PSoC4/cy_em_eeprom.c **** * \param len
1288:Generated_Source\PSoC4/cy_em_eeprom.c **** * The length of the EEPROM header data in the currently analyzed row that may
1289:Generated_Source\PSoC4/cy_em_eeprom.c **** * concern to the row about to be written.
1290:Generated_Source\PSoC4/cy_em_eeprom.c **** *
1291:Generated_Source\PSoC4/cy_em_eeprom.c **** * \return
1292:Generated_Source\PSoC4/cy_em_eeprom.c **** * Zero indicates that the currently analyzed row has the data to be written to
1293:Generated_Source\PSoC4/cy_em_eeprom.c **** * the active EEPROM row data locations. Non zero value indicates that there is
1294:Generated_Source\PSoC4/cy_em_eeprom.c **** * no data to be written
1295:Generated_Source\PSoC4/cy_em_eeprom.c **** *
1296:Generated_Source\PSoC4/cy_em_eeprom.c **** *******************************************************************************/
1297:Generated_Source\PSoC4/cy_em_eeprom.c **** static uint32 GetAddresses(uint32 *startAddr, 
1298:Generated_Source\PSoC4/cy_em_eeprom.c ****                         uint32 *endAddr, 
1299:Generated_Source\PSoC4/cy_em_eeprom.c ****                         uint32 *offset,
1300:Generated_Source\PSoC4/cy_em_eeprom.c ****                         uint32 rowNum,
1301:Generated_Source\PSoC4/cy_em_eeprom.c ****                         uint32 addr,
1302:Generated_Source\PSoC4/cy_em_eeprom.c ****                         uint32 len)
1303:Generated_Source\PSoC4/cy_em_eeprom.c **** {
 2436              		.loc 1 1303 0
 2437              		.cfi_startproc
 2438              		@ args = 8, pretend = 0, frame = 24
 2439              		@ frame_needed = 1, uses_anonymous_args = 0
 2440 0000 80B5     		push	{r7, lr}
 2441              		.cfi_def_cfa_offset 8
 2442              		.cfi_offset 7, -8
 2443              		.cfi_offset 14, -4
 2444 0002 86B0     		sub	sp, sp, #24
 2445              		.cfi_def_cfa_offset 32
 2446 0004 00AF     		add	r7, sp, #0
 2447              		.cfi_def_cfa_register 7
 2448 0006 F860     		str	r0, [r7, #12]
 2449 0008 B960     		str	r1, [r7, #8]
 2450 000a 7A60     		str	r2, [r7, #4]
 2451 000c 3B60     		str	r3, [r7]
1304:Generated_Source\PSoC4/cy_em_eeprom.c ****     uint32 skip = 0u;
 2452              		.loc 1 1304 0
 2453 000e 0023     		movs	r3, #0
 2454 0010 7B61     		str	r3, [r7, #20]
1305:Generated_Source\PSoC4/cy_em_eeprom.c **** 
1306:Generated_Source\PSoC4/cy_em_eeprom.c ****     *offset =0u;
 2455              		.loc 1 1306 0
 2456 0012 7B68     		ldr	r3, [r7, #4]
 2457 0014 0022     		movs	r2, #0
 2458 0016 1A60     		str	r2, [r3]
1307:Generated_Source\PSoC4/cy_em_eeprom.c **** 
1308:Generated_Source\PSoC4/cy_em_eeprom.c ****     if(0u != CY_EM_EEPROM_IS_ADDR_IN_ROW_RANGE(addr, rowNum))
 2459              		.loc 1 1308 0
 2460 0018 3B68     		ldr	r3, [r7]
 2461 001a DA01     		lsls	r2, r3, #7
 2462 001c 3B6A     		ldr	r3, [r7, #32]
 2463 001e 9A42     		cmp	r2, r3
 2464 0020 08D8     		bhi	.L122
 2465              		.loc 1 1308 0 is_stmt 0 discriminator 1
 2466 0022 3B68     		ldr	r3, [r7]
 2467 0024 0133     		adds	r3, r3, #1
 2468 0026 DB01     		lsls	r3, r3, #7
 2469 0028 5A1E     		subs	r2, r3, #1
 2470 002a 3B6A     		ldr	r3, [r7, #32]
ARM GAS  C:\Users\HPz420\AppData\Local\Temp\ccEPczKG.s 			page 68


 2471 002c 9A42     		cmp	r2, r3
 2472 002e 01D3     		bcc	.L122
 2473              		.loc 1 1308 0 discriminator 3
 2474 0030 0123     		movs	r3, #1
 2475 0032 00E0     		b	.L123
 2476              	.L122:
 2477              		.loc 1 1308 0 discriminator 4
 2478 0034 0023     		movs	r3, #0
 2479              	.L123:
 2480              		.loc 1 1308 0 discriminator 6
 2481 0036 002B     		cmp	r3, #0
 2482 0038 27D0     		beq	.L124
1309:Generated_Source\PSoC4/cy_em_eeprom.c ****     {
1310:Generated_Source\PSoC4/cy_em_eeprom.c ****         *startAddr = CY_EM_EEPROM_EEPROM_DATA_LEN + (addr % CY_EM_EEPROM_EEPROM_DATA_LEN);
 2483              		.loc 1 1310 0 is_stmt 1
 2484 003a 3B6A     		ldr	r3, [r7, #32]
 2485 003c 7F22     		movs	r2, #127
 2486 003e 1340     		ands	r3, r2
 2487 0040 8033     		adds	r3, r3, #128
 2488 0042 1A00     		movs	r2, r3
 2489 0044 FB68     		ldr	r3, [r7, #12]
 2490 0046 1A60     		str	r2, [r3]
1311:Generated_Source\PSoC4/cy_em_eeprom.c **** 
1312:Generated_Source\PSoC4/cy_em_eeprom.c ****         if(0u != CY_EM_EEPROM_IS_ADDR_IN_ROW_RANGE(addr + len, rowNum))
 2491              		.loc 1 1312 0
 2492 0048 3A6A     		ldr	r2, [r7, #32]
 2493 004a 7B6A     		ldr	r3, [r7, #36]
 2494 004c D218     		adds	r2, r2, r3
 2495 004e 3B68     		ldr	r3, [r7]
 2496 0050 DB01     		lsls	r3, r3, #7
 2497 0052 9A42     		cmp	r2, r3
 2498 0054 0AD3     		bcc	.L125
 2499              		.loc 1 1312 0 is_stmt 0 discriminator 1
 2500 0056 3A6A     		ldr	r2, [r7, #32]
 2501 0058 7B6A     		ldr	r3, [r7, #36]
 2502 005a D218     		adds	r2, r2, r3
 2503 005c 3B68     		ldr	r3, [r7]
 2504 005e 0133     		adds	r3, r3, #1
 2505 0060 DB01     		lsls	r3, r3, #7
 2506 0062 013B     		subs	r3, r3, #1
 2507 0064 9A42     		cmp	r2, r3
 2508 0066 01D8     		bhi	.L125
 2509              		.loc 1 1312 0 discriminator 3
 2510 0068 0123     		movs	r3, #1
 2511 006a 00E0     		b	.L126
 2512              	.L125:
 2513              		.loc 1 1312 0 discriminator 4
 2514 006c 0023     		movs	r3, #0
 2515              	.L126:
 2516              		.loc 1 1312 0 discriminator 6
 2517 006e 002B     		cmp	r3, #0
 2518 0070 06D0     		beq	.L127
1313:Generated_Source\PSoC4/cy_em_eeprom.c ****         {
1314:Generated_Source\PSoC4/cy_em_eeprom.c ****             *endAddr = *startAddr + len;
 2519              		.loc 1 1314 0 is_stmt 1
 2520 0072 FB68     		ldr	r3, [r7, #12]
 2521 0074 1A68     		ldr	r2, [r3]
ARM GAS  C:\Users\HPz420\AppData\Local\Temp\ccEPczKG.s 			page 69


 2522 0076 7B6A     		ldr	r3, [r7, #36]
 2523 0078 D218     		adds	r2, r2, r3
 2524 007a BB68     		ldr	r3, [r7, #8]
 2525 007c 1A60     		str	r2, [r3]
 2526 007e 36E0     		b	.L129
 2527              	.L127:
1315:Generated_Source\PSoC4/cy_em_eeprom.c ****         }
1316:Generated_Source\PSoC4/cy_em_eeprom.c ****         else
1317:Generated_Source\PSoC4/cy_em_eeprom.c ****         {
1318:Generated_Source\PSoC4/cy_em_eeprom.c ****             *endAddr = CY_EM_EEPROM_FLASH_SIZEOF_ROW;
 2528              		.loc 1 1318 0
 2529 0080 BB68     		ldr	r3, [r7, #8]
 2530 0082 8022     		movs	r2, #128
 2531 0084 5200     		lsls	r2, r2, #1
 2532 0086 1A60     		str	r2, [r3]
 2533 0088 31E0     		b	.L129
 2534              	.L124:
1319:Generated_Source\PSoC4/cy_em_eeprom.c ****         }
1320:Generated_Source\PSoC4/cy_em_eeprom.c ****     }
1321:Generated_Source\PSoC4/cy_em_eeprom.c ****     else
1322:Generated_Source\PSoC4/cy_em_eeprom.c ****     {
1323:Generated_Source\PSoC4/cy_em_eeprom.c **** 
1324:Generated_Source\PSoC4/cy_em_eeprom.c ****         if(0u != CY_EM_EEPROM_IS_ADDR_IN_ROW_RANGE(addr + len, rowNum))
 2535              		.loc 1 1324 0
 2536 008a 3A6A     		ldr	r2, [r7, #32]
 2537 008c 7B6A     		ldr	r3, [r7, #36]
 2538 008e D218     		adds	r2, r2, r3
 2539 0090 3B68     		ldr	r3, [r7]
 2540 0092 DB01     		lsls	r3, r3, #7
 2541 0094 9A42     		cmp	r2, r3
 2542 0096 0AD3     		bcc	.L130
 2543              		.loc 1 1324 0 is_stmt 0 discriminator 1
 2544 0098 3A6A     		ldr	r2, [r7, #32]
 2545 009a 7B6A     		ldr	r3, [r7, #36]
 2546 009c D218     		adds	r2, r2, r3
 2547 009e 3B68     		ldr	r3, [r7]
 2548 00a0 0133     		adds	r3, r3, #1
 2549 00a2 DB01     		lsls	r3, r3, #7
 2550 00a4 013B     		subs	r3, r3, #1
 2551 00a6 9A42     		cmp	r2, r3
 2552 00a8 01D8     		bhi	.L130
 2553              		.loc 1 1324 0 discriminator 3
 2554 00aa 0123     		movs	r3, #1
 2555 00ac 00E0     		b	.L131
 2556              	.L130:
 2557              		.loc 1 1324 0 discriminator 4
 2558 00ae 0023     		movs	r3, #0
 2559              	.L131:
 2560              		.loc 1 1324 0 discriminator 6
 2561 00b0 002B     		cmp	r3, #0
 2562 00b2 19D0     		beq	.L132
1325:Generated_Source\PSoC4/cy_em_eeprom.c ****         {
1326:Generated_Source\PSoC4/cy_em_eeprom.c ****             *startAddr = CY_EM_EEPROM_EEPROM_DATA_LEN;
 2563              		.loc 1 1326 0 is_stmt 1
 2564 00b4 FB68     		ldr	r3, [r7, #12]
 2565 00b6 8022     		movs	r2, #128
 2566 00b8 1A60     		str	r2, [r3]
ARM GAS  C:\Users\HPz420\AppData\Local\Temp\ccEPczKG.s 			page 70


1327:Generated_Source\PSoC4/cy_em_eeprom.c ****             *endAddr = (*startAddr + len) - (*startAddr - (addr % CY_EM_EEPROM_EEPROM_DATA_LEN));
 2567              		.loc 1 1327 0
 2568 00ba FB68     		ldr	r3, [r7, #12]
 2569 00bc 1A68     		ldr	r2, [r3]
 2570 00be 7B6A     		ldr	r3, [r7, #36]
 2571 00c0 D218     		adds	r2, r2, r3
 2572 00c2 3B6A     		ldr	r3, [r7, #32]
 2573 00c4 7F21     		movs	r1, #127
 2574 00c6 1940     		ands	r1, r3
 2575 00c8 FB68     		ldr	r3, [r7, #12]
 2576 00ca 1B68     		ldr	r3, [r3]
 2577 00cc CB1A     		subs	r3, r1, r3
 2578 00ce D218     		adds	r2, r2, r3
 2579 00d0 BB68     		ldr	r3, [r7, #8]
 2580 00d2 1A60     		str	r2, [r3]
1328:Generated_Source\PSoC4/cy_em_eeprom.c ****             *offset = len - (*endAddr - *startAddr);
 2581              		.loc 1 1328 0
 2582 00d4 FB68     		ldr	r3, [r7, #12]
 2583 00d6 1A68     		ldr	r2, [r3]
 2584 00d8 BB68     		ldr	r3, [r7, #8]
 2585 00da 1B68     		ldr	r3, [r3]
 2586 00dc D21A     		subs	r2, r2, r3
 2587 00de 7B6A     		ldr	r3, [r7, #36]
 2588 00e0 D218     		adds	r2, r2, r3
 2589 00e2 7B68     		ldr	r3, [r7, #4]
 2590 00e4 1A60     		str	r2, [r3]
 2591 00e6 02E0     		b	.L129
 2592              	.L132:
1329:Generated_Source\PSoC4/cy_em_eeprom.c ****         }
1330:Generated_Source\PSoC4/cy_em_eeprom.c ****         else
1331:Generated_Source\PSoC4/cy_em_eeprom.c ****         {
1332:Generated_Source\PSoC4/cy_em_eeprom.c ****             skip++;
 2593              		.loc 1 1332 0
 2594 00e8 7B69     		ldr	r3, [r7, #20]
 2595 00ea 0133     		adds	r3, r3, #1
 2596 00ec 7B61     		str	r3, [r7, #20]
 2597              	.L129:
1333:Generated_Source\PSoC4/cy_em_eeprom.c ****         }
1334:Generated_Source\PSoC4/cy_em_eeprom.c ****     }
1335:Generated_Source\PSoC4/cy_em_eeprom.c **** 
1336:Generated_Source\PSoC4/cy_em_eeprom.c ****     return (skip);
 2598              		.loc 1 1336 0
 2599 00ee 7B69     		ldr	r3, [r7, #20]
1337:Generated_Source\PSoC4/cy_em_eeprom.c **** }
 2600              		.loc 1 1337 0
 2601 00f0 1800     		movs	r0, r3
 2602 00f2 BD46     		mov	sp, r7
 2603 00f4 06B0     		add	sp, sp, #24
 2604              		@ sp needed
 2605 00f6 80BD     		pop	{r7, pc}
 2606              		.cfi_endproc
 2607              	.LFE14:
 2608              		.size	GetAddresses, .-GetAddresses
 2609              		.section	.text.FillChecksum,"ax",%progbits
 2610              		.align	2
 2611              		.code	16
 2612              		.thumb_func
ARM GAS  C:\Users\HPz420\AppData\Local\Temp\ccEPczKG.s 			page 71


 2613              		.type	FillChecksum, %function
 2614              	FillChecksum:
 2615              	.LFB15:
1338:Generated_Source\PSoC4/cy_em_eeprom.c **** 
1339:Generated_Source\PSoC4/cy_em_eeprom.c **** 
1340:Generated_Source\PSoC4/cy_em_eeprom.c **** /*******************************************************************************
1341:Generated_Source\PSoC4/cy_em_eeprom.c **** * Function Name: FillChecksum
1342:Generated_Source\PSoC4/cy_em_eeprom.c **** ****************************************************************************//**
1343:Generated_Source\PSoC4/cy_em_eeprom.c **** *
1344:Generated_Source\PSoC4/cy_em_eeprom.c **** * Performs calculation of the checksum on each row in the Em_EEPROM and fills
1345:Generated_Source\PSoC4/cy_em_eeprom.c **** * the Em_EEPROM headers checksum field with the calculated checksums.
1346:Generated_Source\PSoC4/cy_em_eeprom.c **** *
1347:Generated_Source\PSoC4/cy_em_eeprom.c **** * \param context
1348:Generated_Source\PSoC4/cy_em_eeprom.c **** * The pointer to the EEPROM context structure.
1349:Generated_Source\PSoC4/cy_em_eeprom.c **** *
1350:Generated_Source\PSoC4/cy_em_eeprom.c **** * \return
1351:Generated_Source\PSoC4/cy_em_eeprom.c **** * error / status code. See \ref cy_en_em_eeprom_status_t.
1352:Generated_Source\PSoC4/cy_em_eeprom.c **** *
1353:Generated_Source\PSoC4/cy_em_eeprom.c **** * \theory 
1354:Generated_Source\PSoC4/cy_em_eeprom.c **** * In case if redundant copy option is used the Em_EEPROM would return bad 
1355:Generated_Source\PSoC4/cy_em_eeprom.c **** * checksum while trying to read the EEPROM rows which were not yet written by 
1356:Generated_Source\PSoC4/cy_em_eeprom.c **** * the user. E.g. any read after device reprogramming without previous Write() 
1357:Generated_Source\PSoC4/cy_em_eeprom.c **** * operation to the EEPROM would fail. This would happen because the Em_EEPROM 
1358:Generated_Source\PSoC4/cy_em_eeprom.c **** * headers checksum field values (which is zero at the moment) would not be 
1359:Generated_Source\PSoC4/cy_em_eeprom.c **** * equal to the actual data checksum. This function allows to avoid read failure
1360:Generated_Source\PSoC4/cy_em_eeprom.c **** * after device reprogramming. 
1361:Generated_Source\PSoC4/cy_em_eeprom.c **** *
1362:Generated_Source\PSoC4/cy_em_eeprom.c **** * \note
1363:Generated_Source\PSoC4/cy_em_eeprom.c **** * This function uses a buffer of the flash row size to perform read
1364:Generated_Source\PSoC4/cy_em_eeprom.c **** * operation. For the size of the row refer to the specific PSoC device
1365:Generated_Source\PSoC4/cy_em_eeprom.c **** * datasheet.
1366:Generated_Source\PSoC4/cy_em_eeprom.c **** *
1367:Generated_Source\PSoC4/cy_em_eeprom.c **** *******************************************************************************/
1368:Generated_Source\PSoC4/cy_em_eeprom.c **** static cy_en_em_eeprom_status_t FillChecksum(cy_stc_eeprom_context_t * context)
1369:Generated_Source\PSoC4/cy_em_eeprom.c **** {
 2616              		.loc 1 1369 0
 2617              		.cfi_startproc
 2618              		@ args = 0, pretend = 0, frame = 288
 2619              		@ frame_needed = 1, uses_anonymous_args = 0
 2620 0000 90B5     		push	{r4, r7, lr}
 2621              		.cfi_def_cfa_offset 12
 2622              		.cfi_offset 4, -12
 2623              		.cfi_offset 7, -8
 2624              		.cfi_offset 14, -4
 2625 0002 C9B0     		sub	sp, sp, #292
 2626              		.cfi_def_cfa_offset 304
 2627 0004 00AF     		add	r7, sp, #0
 2628              		.cfi_def_cfa_register 7
 2629 0006 7860     		str	r0, [r7, #4]
1370:Generated_Source\PSoC4/cy_em_eeprom.c ****     uint32 i;
1371:Generated_Source\PSoC4/cy_em_eeprom.c ****     uint32 rdAddr;
1372:Generated_Source\PSoC4/cy_em_eeprom.c ****     uint32 writeRamBuffer[CY_EM_EEPROM_FLASH_SIZEOF_ROW / CY_EM_EEPROM_U32_DIV];
1373:Generated_Source\PSoC4/cy_em_eeprom.c ****     uint32 wrAddr = context->lastWrRowAddr;
 2630              		.loc 1 1373 0
 2631 0008 7B68     		ldr	r3, [r7, #4]
 2632 000a 9B68     		ldr	r3, [r3, #8]
 2633 000c BB60     		str	r3, [r7, #8]
ARM GAS  C:\Users\HPz420\AppData\Local\Temp\ccEPczKG.s 			page 72


1374:Generated_Source\PSoC4/cy_em_eeprom.c ****     uint32 tmpRowAddr;
1375:Generated_Source\PSoC4/cy_em_eeprom.c ****     /* Get the sequence number (number of writes) */
1376:Generated_Source\PSoC4/cy_em_eeprom.c ****     uint32 seqNum = CY_EM_EEPROM_GET_SEQ_NUM(wrAddr);
 2634              		.loc 1 1376 0
 2635 000e BB68     		ldr	r3, [r7, #8]
 2636 0010 1B68     		ldr	r3, [r3]
 2637 0012 8C22     		movs	r2, #140
 2638 0014 5200     		lsls	r2, r2, #1
 2639 0016 BA18     		adds	r2, r7, r2
 2640 0018 1360     		str	r3, [r2]
1377:Generated_Source\PSoC4/cy_em_eeprom.c ****     cy_en_em_eeprom_status_t ret = CY_EM_EEPROM_BAD_PARAM;
 2641              		.loc 1 1377 0
 2642 001a 1823     		movs	r3, #24
 2643 001c FF33     		adds	r3, r3, #255
 2644 001e FB18     		adds	r3, r7, r3
 2645 0020 0122     		movs	r2, #1
 2646 0022 1A70     		strb	r2, [r3]
1378:Generated_Source\PSoC4/cy_em_eeprom.c **** 
1379:Generated_Source\PSoC4/cy_em_eeprom.c ****     for(i = 0u; i < (context->numberOfRows * context->wearLevelingFactor); i++)
 2647              		.loc 1 1379 0
 2648 0024 0023     		movs	r3, #0
 2649 0026 8E22     		movs	r2, #142
 2650 0028 5200     		lsls	r2, r2, #1
 2651 002a BA18     		adds	r2, r7, r2
 2652 002c 1360     		str	r3, [r2]
 2653 002e 67E0     		b	.L135
 2654              	.L136:
1380:Generated_Source\PSoC4/cy_em_eeprom.c ****     {
1381:Generated_Source\PSoC4/cy_em_eeprom.c ****         /* Copy the EEPROM row from Flash to RAM */
1382:Generated_Source\PSoC4/cy_em_eeprom.c ****         (void)memcpy((void *)&writeRamBuffer[0u], (void *)(wrAddr), CY_EM_EEPROM_FLASH_SIZEOF_ROW);
 2655              		.loc 1 1382 0 discriminator 3
 2656 0030 BB68     		ldr	r3, [r7, #8]
 2657 0032 1900     		movs	r1, r3
 2658 0034 8023     		movs	r3, #128
 2659 0036 5A00     		lsls	r2, r3, #1
 2660 0038 0C23     		movs	r3, #12
 2661 003a FB18     		adds	r3, r7, r3
 2662 003c 1800     		movs	r0, r3
 2663 003e FFF7FEFF 		bl	memcpy
1383:Generated_Source\PSoC4/cy_em_eeprom.c **** 
1384:Generated_Source\PSoC4/cy_em_eeprom.c ****         /* Increment the sequence number */
1385:Generated_Source\PSoC4/cy_em_eeprom.c ****         seqNum++;
 2664              		.loc 1 1385 0 discriminator 3
 2665 0042 8C23     		movs	r3, #140
 2666 0044 5B00     		lsls	r3, r3, #1
 2667 0046 FB18     		adds	r3, r7, r3
 2668 0048 1B68     		ldr	r3, [r3]
 2669 004a 0133     		adds	r3, r3, #1
 2670 004c 8C22     		movs	r2, #140
 2671 004e 5200     		lsls	r2, r2, #1
 2672 0050 BA18     		adds	r2, r7, r2
 2673 0052 1360     		str	r3, [r2]
1386:Generated_Source\PSoC4/cy_em_eeprom.c ****         writeRamBuffer[CY_EM_EEPROM_HEADER_SEQ_NUM_OFFSET_U32] = seqNum;
 2674              		.loc 1 1386 0 discriminator 3
 2675 0054 344B     		ldr	r3, .L138
 2676 0056 9022     		movs	r2, #144
 2677 0058 5200     		lsls	r2, r2, #1
ARM GAS  C:\Users\HPz420\AppData\Local\Temp\ccEPczKG.s 			page 73


 2678 005a 9446     		mov	ip, r2
 2679 005c BC44     		add	ip, ip, r7
 2680 005e 6344     		add	r3, r3, ip
 2681 0060 8C22     		movs	r2, #140
 2682 0062 5200     		lsls	r2, r2, #1
 2683 0064 BA18     		adds	r2, r7, r2
 2684 0066 1268     		ldr	r2, [r2]
 2685 0068 1A60     		str	r2, [r3]
1387:Generated_Source\PSoC4/cy_em_eeprom.c **** 
1388:Generated_Source\PSoC4/cy_em_eeprom.c ****         /* Calculate and fill the checksum to the Em_EEPROM header */
1389:Generated_Source\PSoC4/cy_em_eeprom.c ****         writeRamBuffer[CY_EM_EEPROM_HEADER_CHECKSUM_OFFSET_U32] = (uint32)
1390:Generated_Source\PSoC4/cy_em_eeprom.c ****                     CalcChecksum((uint8 *) &writeRamBuffer[CY_EM_EEPROM_EEPROM_DATA_OFFSET_U32],
 2686              		.loc 1 1390 0 discriminator 3
 2687 006a 0C23     		movs	r3, #12
 2688 006c FB18     		adds	r3, r7, r3
 2689 006e 8033     		adds	r3, r3, #128
 2690 0070 8021     		movs	r1, #128
 2691 0072 1800     		movs	r0, r3
 2692 0074 FFF7FEFF 		bl	CalcChecksum
 2693 0078 0300     		movs	r3, r0
1389:Generated_Source\PSoC4/cy_em_eeprom.c ****                     CalcChecksum((uint8 *) &writeRamBuffer[CY_EM_EEPROM_EEPROM_DATA_OFFSET_U32],
 2694              		.loc 1 1389 0 discriminator 3
 2695 007a 1A00     		movs	r2, r3
 2696 007c 2A4B     		ldr	r3, .L138
 2697 007e 9021     		movs	r1, #144
 2698 0080 4900     		lsls	r1, r1, #1
 2699 0082 8C46     		mov	ip, r1
 2700 0084 BC44     		add	ip, ip, r7
 2701 0086 6344     		add	r3, r3, ip
 2702 0088 DA67     		str	r2, [r3, #124]
1391:Generated_Source\PSoC4/cy_em_eeprom.c ****                                               CY_EM_EEPROM_EEPROM_DATA_LEN);
1392:Generated_Source\PSoC4/cy_em_eeprom.c **** 
1393:Generated_Source\PSoC4/cy_em_eeprom.c ****         /* Write the data to the specified flash row */
1394:Generated_Source\PSoC4/cy_em_eeprom.c ****         ret = WriteRow(wrAddr, writeRamBuffer, context);
 2703              		.loc 1 1394 0 discriminator 3
 2704 008a BB68     		ldr	r3, [r7, #8]
 2705 008c 1822     		movs	r2, #24
 2706 008e FF32     		adds	r2, r2, #255
 2707 0090 BC18     		adds	r4, r7, r2
 2708 0092 7A68     		ldr	r2, [r7, #4]
 2709 0094 0C21     		movs	r1, #12
 2710 0096 7918     		adds	r1, r7, r1
 2711 0098 1800     		movs	r0, r3
 2712 009a FFF7FEFF 		bl	WriteRow
 2713 009e 0300     		movs	r3, r0
 2714 00a0 2370     		strb	r3, [r4]
1395:Generated_Source\PSoC4/cy_em_eeprom.c **** 
1396:Generated_Source\PSoC4/cy_em_eeprom.c ****         /* Update the row address to point to the relevant row in the redundant 
1397:Generated_Source\PSoC4/cy_em_eeprom.c ****         * EEPROM's copy.
1398:Generated_Source\PSoC4/cy_em_eeprom.c ****         */
1399:Generated_Source\PSoC4/cy_em_eeprom.c ****         tmpRowAddr = (wrAddr - context->userFlashStartAddr) + context->wlEndAddr;
 2715              		.loc 1 1399 0 discriminator 3
 2716 00a2 BA68     		ldr	r2, [r7, #8]
 2717 00a4 7B68     		ldr	r3, [r7, #4]
 2718 00a6 9B69     		ldr	r3, [r3, #24]
 2719 00a8 D21A     		subs	r2, r2, r3
 2720 00aa 7B68     		ldr	r3, [r7, #4]
ARM GAS  C:\Users\HPz420\AppData\Local\Temp\ccEPczKG.s 			page 74


 2721 00ac 1B68     		ldr	r3, [r3]
 2722 00ae D318     		adds	r3, r2, r3
 2723 00b0 8822     		movs	r2, #136
 2724 00b2 5200     		lsls	r2, r2, #1
 2725 00b4 BA18     		adds	r2, r7, r2
 2726 00b6 1360     		str	r3, [r2]
1400:Generated_Source\PSoC4/cy_em_eeprom.c **** 
1401:Generated_Source\PSoC4/cy_em_eeprom.c ****         /* Write the data to the specified flash row */
1402:Generated_Source\PSoC4/cy_em_eeprom.c ****         ret = WriteRow(tmpRowAddr, writeRamBuffer, context);
 2727              		.loc 1 1402 0 discriminator 3
 2728 00b8 1823     		movs	r3, #24
 2729 00ba FF33     		adds	r3, r3, #255
 2730 00bc FC18     		adds	r4, r7, r3
 2731 00be 7A68     		ldr	r2, [r7, #4]
 2732 00c0 0C23     		movs	r3, #12
 2733 00c2 F918     		adds	r1, r7, r3
 2734 00c4 8823     		movs	r3, #136
 2735 00c6 5B00     		lsls	r3, r3, #1
 2736 00c8 FB18     		adds	r3, r7, r3
 2737 00ca 1B68     		ldr	r3, [r3]
 2738 00cc 1800     		movs	r0, r3
 2739 00ce FFF7FEFF 		bl	WriteRow
 2740 00d2 0300     		movs	r3, r0
 2741 00d4 2370     		strb	r3, [r4]
1403:Generated_Source\PSoC4/cy_em_eeprom.c **** 
1404:Generated_Source\PSoC4/cy_em_eeprom.c ****         /* Get the address of the next row to be written. 
1405:Generated_Source\PSoC4/cy_em_eeprom.c ****         * "rdAddr" is not used in this function but provided to prevent NULL 
1406:Generated_Source\PSoC4/cy_em_eeprom.c ****         * pointer exception in GetNextRowToWrite().
1407:Generated_Source\PSoC4/cy_em_eeprom.c ****         */
1408:Generated_Source\PSoC4/cy_em_eeprom.c ****         GetNextRowToWrite(seqNum, &wrAddr, &rdAddr, context);
 2742              		.loc 1 1408 0 discriminator 3
 2743 00d6 7B68     		ldr	r3, [r7, #4]
 2744 00d8 8622     		movs	r2, #134
 2745 00da 5200     		lsls	r2, r2, #1
 2746 00dc BA18     		adds	r2, r7, r2
 2747 00de 0821     		movs	r1, #8
 2748 00e0 7918     		adds	r1, r7, r1
 2749 00e2 8C20     		movs	r0, #140
 2750 00e4 4000     		lsls	r0, r0, #1
 2751 00e6 3818     		adds	r0, r7, r0
 2752 00e8 0068     		ldr	r0, [r0]
 2753 00ea FFF7FEFF 		bl	GetNextRowToWrite
1379:Generated_Source\PSoC4/cy_em_eeprom.c ****     {
 2754              		.loc 1 1379 0 discriminator 3
 2755 00ee 8E23     		movs	r3, #142
 2756 00f0 5B00     		lsls	r3, r3, #1
 2757 00f2 FB18     		adds	r3, r7, r3
 2758 00f4 1B68     		ldr	r3, [r3]
 2759 00f6 0133     		adds	r3, r3, #1
 2760 00f8 8E22     		movs	r2, #142
 2761 00fa 5200     		lsls	r2, r2, #1
 2762 00fc BA18     		adds	r2, r7, r2
 2763 00fe 1360     		str	r3, [r2]
 2764              	.L135:
1379:Generated_Source\PSoC4/cy_em_eeprom.c ****     {
 2765              		.loc 1 1379 0 is_stmt 0 discriminator 1
 2766 0100 7B68     		ldr	r3, [r7, #4]
ARM GAS  C:\Users\HPz420\AppData\Local\Temp\ccEPczKG.s 			page 75


 2767 0102 5A68     		ldr	r2, [r3, #4]
 2768 0104 7B68     		ldr	r3, [r7, #4]
 2769 0106 1B69     		ldr	r3, [r3, #16]
 2770 0108 5A43     		muls	r2, r3
 2771 010a 8E23     		movs	r3, #142
 2772 010c 5B00     		lsls	r3, r3, #1
 2773 010e FB18     		adds	r3, r7, r3
 2774 0110 1B68     		ldr	r3, [r3]
 2775 0112 9A42     		cmp	r2, r3
 2776 0114 8CD8     		bhi	.L136
1409:Generated_Source\PSoC4/cy_em_eeprom.c ****     }
1410:Generated_Source\PSoC4/cy_em_eeprom.c ****     
1411:Generated_Source\PSoC4/cy_em_eeprom.c ****     return(ret);
 2777              		.loc 1 1411 0 is_stmt 1
 2778 0116 1823     		movs	r3, #24
 2779 0118 FF33     		adds	r3, r3, #255
 2780 011a FB18     		adds	r3, r7, r3
 2781 011c 1B78     		ldrb	r3, [r3]
1412:Generated_Source\PSoC4/cy_em_eeprom.c **** }
 2782              		.loc 1 1412 0
 2783 011e 1800     		movs	r0, r3
 2784 0120 BD46     		mov	sp, r7
 2785 0122 49B0     		add	sp, sp, #292
 2786              		@ sp needed
 2787 0124 90BD     		pop	{r4, r7, pc}
 2788              	.L139:
 2789 0126 C046     		.align	2
 2790              	.L138:
 2791 0128 ECFEFFFF 		.word	-276
 2792              		.cfi_endproc
 2793              	.LFE15:
 2794              		.size	FillChecksum, .-FillChecksum
 2795              		.text
 2796              	.Letext0:
 2797              		.file 2 "Generated_Source\\PSoC4\\cytypes.h"
 2798              		.file 3 "Generated_Source\\PSoC4\\cy_em_eeprom.h"