ARM GAS  C:\Users\HPz420\AppData\Local\Temp\ccOwvgum.s 			page 1


   1              		.syntax unified
   2              		.cpu cortex-m0
   3              		.fpu softvfp
   4              		.eabi_attribute 20, 1
   5              		.eabi_attribute 21, 1
   6              		.eabi_attribute 23, 3
   7              		.eabi_attribute 24, 1
   8              		.eabi_attribute 25, 1
   9              		.eabi_attribute 26, 1
  10              		.eabi_attribute 30, 6
  11              		.eabi_attribute 34, 0
  12              		.eabi_attribute 18, 4
  13              		.thumb
  14              		.syntax unified
  15              		.file	"cyfitter_cfg.c"
  16              		.text
  17              	.Ltext0:
  18              		.cfi_sections	.debug_frame
  19              		.section	.text.CYMEMZERO,"ax",%progbits
  20              		.align	2
  21              		.code	16
  22              		.thumb_func
  23              		.type	CYMEMZERO, %function
  24              	CYMEMZERO:
  25              	.LFB1:
  26              		.file 1 "Generated_Source\\PSoC4\\cyfitter_cfg.c"
   1:Generated_Source\PSoC4/cyfitter_cfg.c **** 
   2:Generated_Source\PSoC4/cyfitter_cfg.c **** /*******************************************************************************
   3:Generated_Source\PSoC4/cyfitter_cfg.c **** * File Name: cyfitter_cfg.c
   4:Generated_Source\PSoC4/cyfitter_cfg.c **** * 
   5:Generated_Source\PSoC4/cyfitter_cfg.c **** * PSoC Creator  4.2
   6:Generated_Source\PSoC4/cyfitter_cfg.c **** *
   7:Generated_Source\PSoC4/cyfitter_cfg.c **** * Description:
   8:Generated_Source\PSoC4/cyfitter_cfg.c **** * This file contains device initialization code.
   9:Generated_Source\PSoC4/cyfitter_cfg.c **** * Except for the user defined sections in CyClockStartupError(), this file should not be modified.
  10:Generated_Source\PSoC4/cyfitter_cfg.c **** * This file is automatically generated by PSoC Creator.
  11:Generated_Source\PSoC4/cyfitter_cfg.c **** *
  12:Generated_Source\PSoC4/cyfitter_cfg.c **** ********************************************************************************
  13:Generated_Source\PSoC4/cyfitter_cfg.c **** * Copyright (c) 2007-2018 Cypress Semiconductor.  All rights reserved.
  14:Generated_Source\PSoC4/cyfitter_cfg.c **** * You may use this file only in accordance with the license, terms, conditions, 
  15:Generated_Source\PSoC4/cyfitter_cfg.c **** * disclaimers, and limitations in the end user license agreement accompanying 
  16:Generated_Source\PSoC4/cyfitter_cfg.c **** * the software package with which this file was provided.
  17:Generated_Source\PSoC4/cyfitter_cfg.c **** ********************************************************************************/
  18:Generated_Source\PSoC4/cyfitter_cfg.c **** 
  19:Generated_Source\PSoC4/cyfitter_cfg.c **** #include <string.h>
  20:Generated_Source\PSoC4/cyfitter_cfg.c **** #include "cytypes.h"
  21:Generated_Source\PSoC4/cyfitter_cfg.c **** #include "cydevice_trm.h"
  22:Generated_Source\PSoC4/cyfitter_cfg.c **** #include "cyfitter.h"
  23:Generated_Source\PSoC4/cyfitter_cfg.c **** #include "CyLib.h"
  24:Generated_Source\PSoC4/cyfitter_cfg.c **** #include "cyfitter_cfg.h"
  25:Generated_Source\PSoC4/cyfitter_cfg.c **** #include "cyapicallbacks.h"
  26:Generated_Source\PSoC4/cyfitter_cfg.c **** 
  27:Generated_Source\PSoC4/cyfitter_cfg.c **** 
  28:Generated_Source\PSoC4/cyfitter_cfg.c **** #if defined(__GNUC__) || defined(__ARMCC_VERSION)
  29:Generated_Source\PSoC4/cyfitter_cfg.c ****     #define CYPACKED 
  30:Generated_Source\PSoC4/cyfitter_cfg.c ****     #define CYPACKED_ATTR __attribute__ ((packed))
  31:Generated_Source\PSoC4/cyfitter_cfg.c ****     #define CYALIGNED __attribute__ ((aligned))
ARM GAS  C:\Users\HPz420\AppData\Local\Temp\ccOwvgum.s 			page 2


  32:Generated_Source\PSoC4/cyfitter_cfg.c ****     #define CY_CFG_UNUSED __attribute__ ((unused))
  33:Generated_Source\PSoC4/cyfitter_cfg.c ****     #ifndef CY_CFG_SECTION
  34:Generated_Source\PSoC4/cyfitter_cfg.c ****         #define CY_CFG_SECTION __attribute__ ((section(".psocinit")))
  35:Generated_Source\PSoC4/cyfitter_cfg.c ****     #endif
  36:Generated_Source\PSoC4/cyfitter_cfg.c ****     
  37:Generated_Source\PSoC4/cyfitter_cfg.c ****     #if defined(__ARMCC_VERSION)
  38:Generated_Source\PSoC4/cyfitter_cfg.c ****         #define CY_CFG_MEMORY_BARRIER() __memory_changed()
  39:Generated_Source\PSoC4/cyfitter_cfg.c ****     #else
  40:Generated_Source\PSoC4/cyfitter_cfg.c ****         #define CY_CFG_MEMORY_BARRIER() __sync_synchronize()
  41:Generated_Source\PSoC4/cyfitter_cfg.c ****     #endif
  42:Generated_Source\PSoC4/cyfitter_cfg.c ****     
  43:Generated_Source\PSoC4/cyfitter_cfg.c **** #elif defined(__ICCARM__)
  44:Generated_Source\PSoC4/cyfitter_cfg.c ****     #include <intrinsics.h>
  45:Generated_Source\PSoC4/cyfitter_cfg.c **** 
  46:Generated_Source\PSoC4/cyfitter_cfg.c ****     #define CYPACKED __packed
  47:Generated_Source\PSoC4/cyfitter_cfg.c ****     #define CYPACKED_ATTR 
  48:Generated_Source\PSoC4/cyfitter_cfg.c ****     #define CYALIGNED _Pragma("data_alignment=4")
  49:Generated_Source\PSoC4/cyfitter_cfg.c ****     #define CY_CFG_UNUSED _Pragma("diag_suppress=Pe177")
  50:Generated_Source\PSoC4/cyfitter_cfg.c ****     #define CY_CFG_SECTION _Pragma("location=\".psocinit\"")
  51:Generated_Source\PSoC4/cyfitter_cfg.c ****     
  52:Generated_Source\PSoC4/cyfitter_cfg.c ****     #define CY_CFG_MEMORY_BARRIER() __DMB()
  53:Generated_Source\PSoC4/cyfitter_cfg.c ****     
  54:Generated_Source\PSoC4/cyfitter_cfg.c **** #else
  55:Generated_Source\PSoC4/cyfitter_cfg.c ****     #error Unsupported toolchain
  56:Generated_Source\PSoC4/cyfitter_cfg.c **** #endif
  57:Generated_Source\PSoC4/cyfitter_cfg.c **** 
  58:Generated_Source\PSoC4/cyfitter_cfg.c **** #ifndef CYCODE
  59:Generated_Source\PSoC4/cyfitter_cfg.c ****     #define CYCODE
  60:Generated_Source\PSoC4/cyfitter_cfg.c **** #endif
  61:Generated_Source\PSoC4/cyfitter_cfg.c **** #ifndef CYDATA
  62:Generated_Source\PSoC4/cyfitter_cfg.c ****     #define CYDATA
  63:Generated_Source\PSoC4/cyfitter_cfg.c **** #endif
  64:Generated_Source\PSoC4/cyfitter_cfg.c **** #ifndef CYFAR
  65:Generated_Source\PSoC4/cyfitter_cfg.c ****     #define CYFAR
  66:Generated_Source\PSoC4/cyfitter_cfg.c **** #endif
  67:Generated_Source\PSoC4/cyfitter_cfg.c **** #ifndef CYXDATA
  68:Generated_Source\PSoC4/cyfitter_cfg.c ****     #define CYXDATA
  69:Generated_Source\PSoC4/cyfitter_cfg.c **** #endif
  70:Generated_Source\PSoC4/cyfitter_cfg.c **** 
  71:Generated_Source\PSoC4/cyfitter_cfg.c **** 
  72:Generated_Source\PSoC4/cyfitter_cfg.c **** CY_CFG_UNUSED
  73:Generated_Source\PSoC4/cyfitter_cfg.c **** static void CYMEMZERO(void *s, size_t n);
  74:Generated_Source\PSoC4/cyfitter_cfg.c **** CY_CFG_UNUSED
  75:Generated_Source\PSoC4/cyfitter_cfg.c **** static void CYMEMZERO(void *s, size_t n)
  76:Generated_Source\PSoC4/cyfitter_cfg.c **** {
  27              		.loc 1 76 0
  28              		.cfi_startproc
  29              		@ args = 0, pretend = 0, frame = 8
  30              		@ frame_needed = 1, uses_anonymous_args = 0
  31 0000 80B5     		push	{r7, lr}
  32              		.cfi_def_cfa_offset 8
  33              		.cfi_offset 7, -8
  34              		.cfi_offset 14, -4
  35 0002 82B0     		sub	sp, sp, #8
  36              		.cfi_def_cfa_offset 16
  37 0004 00AF     		add	r7, sp, #0
  38              		.cfi_def_cfa_register 7
ARM GAS  C:\Users\HPz420\AppData\Local\Temp\ccOwvgum.s 			page 3


  39 0006 7860     		str	r0, [r7, #4]
  40 0008 3960     		str	r1, [r7]
  77:Generated_Source\PSoC4/cyfitter_cfg.c **** 	(void)memset(s, 0, n);
  41              		.loc 1 77 0
  42 000a 3A68     		ldr	r2, [r7]
  43 000c 7B68     		ldr	r3, [r7, #4]
  44 000e 0021     		movs	r1, #0
  45 0010 1800     		movs	r0, r3
  46 0012 FFF7FEFF 		bl	memset
  78:Generated_Source\PSoC4/cyfitter_cfg.c **** }
  47              		.loc 1 78 0
  48 0016 C046     		nop
  49 0018 BD46     		mov	sp, r7
  50 001a 02B0     		add	sp, sp, #8
  51              		@ sp needed
  52 001c 80BD     		pop	{r7, pc}
  53              		.cfi_endproc
  54              	.LFE1:
  55              		.size	CYMEMZERO, .-CYMEMZERO
  56 001e C046     		.section	.text.CYCONFIGCPY,"ax",%progbits
  57              		.align	2
  58              		.code	16
  59              		.thumb_func
  60              		.type	CYCONFIGCPY, %function
  61              	CYCONFIGCPY:
  62              	.LFB2:
  79:Generated_Source\PSoC4/cyfitter_cfg.c **** CY_CFG_UNUSED
  80:Generated_Source\PSoC4/cyfitter_cfg.c **** static void CYCONFIGCPY(void *dest, const void *src, size_t n);
  81:Generated_Source\PSoC4/cyfitter_cfg.c **** CY_CFG_UNUSED
  82:Generated_Source\PSoC4/cyfitter_cfg.c **** static void CYCONFIGCPY(void *dest, const void *src, size_t n)
  83:Generated_Source\PSoC4/cyfitter_cfg.c **** {
  63              		.loc 1 83 0
  64              		.cfi_startproc
  65              		@ args = 0, pretend = 0, frame = 16
  66              		@ frame_needed = 1, uses_anonymous_args = 0
  67 0000 80B5     		push	{r7, lr}
  68              		.cfi_def_cfa_offset 8
  69              		.cfi_offset 7, -8
  70              		.cfi_offset 14, -4
  71 0002 84B0     		sub	sp, sp, #16
  72              		.cfi_def_cfa_offset 24
  73 0004 00AF     		add	r7, sp, #0
  74              		.cfi_def_cfa_register 7
  75 0006 F860     		str	r0, [r7, #12]
  76 0008 B960     		str	r1, [r7, #8]
  77 000a 7A60     		str	r2, [r7, #4]
  84:Generated_Source\PSoC4/cyfitter_cfg.c **** 	(void)memcpy(dest, src, n);
  78              		.loc 1 84 0
  79 000c 7A68     		ldr	r2, [r7, #4]
  80 000e B968     		ldr	r1, [r7, #8]
  81 0010 FB68     		ldr	r3, [r7, #12]
  82 0012 1800     		movs	r0, r3
  83 0014 FFF7FEFF 		bl	memcpy
  85:Generated_Source\PSoC4/cyfitter_cfg.c **** }
  84              		.loc 1 85 0
  85 0018 C046     		nop
  86 001a BD46     		mov	sp, r7
ARM GAS  C:\Users\HPz420\AppData\Local\Temp\ccOwvgum.s 			page 4


  87 001c 04B0     		add	sp, sp, #16
  88              		@ sp needed
  89 001e 80BD     		pop	{r7, pc}
  90              		.cfi_endproc
  91              	.LFE2:
  92              		.size	CYCONFIGCPY, .-CYCONFIGCPY
  93              		.section	.text.CYCONFIGCPYCODE,"ax",%progbits
  94              		.align	2
  95              		.code	16
  96              		.thumb_func
  97              		.type	CYCONFIGCPYCODE, %function
  98              	CYCONFIGCPYCODE:
  99              	.LFB3:
  86:Generated_Source\PSoC4/cyfitter_cfg.c **** CY_CFG_UNUSED
  87:Generated_Source\PSoC4/cyfitter_cfg.c **** static void CYCONFIGCPYCODE(void *dest, const void *src, size_t n);
  88:Generated_Source\PSoC4/cyfitter_cfg.c **** CY_CFG_UNUSED
  89:Generated_Source\PSoC4/cyfitter_cfg.c **** static void CYCONFIGCPYCODE(void *dest, const void *src, size_t n)
  90:Generated_Source\PSoC4/cyfitter_cfg.c **** {
 100              		.loc 1 90 0
 101              		.cfi_startproc
 102              		@ args = 0, pretend = 0, frame = 16
 103              		@ frame_needed = 1, uses_anonymous_args = 0
 104 0000 80B5     		push	{r7, lr}
 105              		.cfi_def_cfa_offset 8
 106              		.cfi_offset 7, -8
 107              		.cfi_offset 14, -4
 108 0002 84B0     		sub	sp, sp, #16
 109              		.cfi_def_cfa_offset 24
 110 0004 00AF     		add	r7, sp, #0
 111              		.cfi_def_cfa_register 7
 112 0006 F860     		str	r0, [r7, #12]
 113 0008 B960     		str	r1, [r7, #8]
 114 000a 7A60     		str	r2, [r7, #4]
  91:Generated_Source\PSoC4/cyfitter_cfg.c **** 	(void)memcpy(dest, src, n);
 115              		.loc 1 91 0
 116 000c 7A68     		ldr	r2, [r7, #4]
 117 000e B968     		ldr	r1, [r7, #8]
 118 0010 FB68     		ldr	r3, [r7, #12]
 119 0012 1800     		movs	r0, r3
 120 0014 FFF7FEFF 		bl	memcpy
  92:Generated_Source\PSoC4/cyfitter_cfg.c **** }
 121              		.loc 1 92 0
 122 0018 C046     		nop
 123 001a BD46     		mov	sp, r7
 124 001c 04B0     		add	sp, sp, #16
 125              		@ sp needed
 126 001e 80BD     		pop	{r7, pc}
 127              		.cfi_endproc
 128              	.LFE3:
 129              		.size	CYCONFIGCPYCODE, .-CYCONFIGCPYCODE
 130              		.section	.text.cfg_write_bytes32,"ax",%progbits
 131              		.align	2
 132              		.code	16
 133              		.thumb_func
 134              		.type	cfg_write_bytes32, %function
 135              	cfg_write_bytes32:
 136              	.LFB4:
ARM GAS  C:\Users\HPz420\AppData\Local\Temp\ccOwvgum.s 			page 5


  93:Generated_Source\PSoC4/cyfitter_cfg.c **** 
  94:Generated_Source\PSoC4/cyfitter_cfg.c **** 
  95:Generated_Source\PSoC4/cyfitter_cfg.c **** 
  96:Generated_Source\PSoC4/cyfitter_cfg.c **** 
  97:Generated_Source\PSoC4/cyfitter_cfg.c **** /* Clock startup error codes                                                   */
  98:Generated_Source\PSoC4/cyfitter_cfg.c **** #define CYCLOCKSTART_NO_ERROR    0u
  99:Generated_Source\PSoC4/cyfitter_cfg.c **** #define CYCLOCKSTART_XTAL_ERROR  1u
 100:Generated_Source\PSoC4/cyfitter_cfg.c **** #define CYCLOCKSTART_32KHZ_ERROR 2u
 101:Generated_Source\PSoC4/cyfitter_cfg.c **** #define CYCLOCKSTART_PLL_ERROR   3u
 102:Generated_Source\PSoC4/cyfitter_cfg.c **** #define CYCLOCKSTART_FLL_ERROR   4u
 103:Generated_Source\PSoC4/cyfitter_cfg.c **** #define CYCLOCKSTART_WCO_ERROR   5u
 104:Generated_Source\PSoC4/cyfitter_cfg.c **** 
 105:Generated_Source\PSoC4/cyfitter_cfg.c **** 
 106:Generated_Source\PSoC4/cyfitter_cfg.c **** #ifdef CY_NEED_CYCLOCKSTARTUPERROR
 107:Generated_Source\PSoC4/cyfitter_cfg.c **** /*******************************************************************************
 108:Generated_Source\PSoC4/cyfitter_cfg.c **** * Function Name: CyClockStartupError
 109:Generated_Source\PSoC4/cyfitter_cfg.c **** ********************************************************************************
 110:Generated_Source\PSoC4/cyfitter_cfg.c **** * Summary:
 111:Generated_Source\PSoC4/cyfitter_cfg.c **** *  If an error is encountered during clock configuration (crystal startup error,
 112:Generated_Source\PSoC4/cyfitter_cfg.c **** *  PLL lock error, etc.), the system will end up here.  Unless reimplemented by
 113:Generated_Source\PSoC4/cyfitter_cfg.c **** *  the customer, this function will stop in an infinite loop.
 114:Generated_Source\PSoC4/cyfitter_cfg.c **** *
 115:Generated_Source\PSoC4/cyfitter_cfg.c **** * Parameters:
 116:Generated_Source\PSoC4/cyfitter_cfg.c **** *   void
 117:Generated_Source\PSoC4/cyfitter_cfg.c **** *
 118:Generated_Source\PSoC4/cyfitter_cfg.c **** * Return:
 119:Generated_Source\PSoC4/cyfitter_cfg.c **** *   void
 120:Generated_Source\PSoC4/cyfitter_cfg.c **** *
 121:Generated_Source\PSoC4/cyfitter_cfg.c **** *******************************************************************************/
 122:Generated_Source\PSoC4/cyfitter_cfg.c **** CY_CFG_UNUSED
 123:Generated_Source\PSoC4/cyfitter_cfg.c **** static void CyClockStartupError(uint8 errorCode);
 124:Generated_Source\PSoC4/cyfitter_cfg.c **** CY_CFG_UNUSED
 125:Generated_Source\PSoC4/cyfitter_cfg.c **** static void CyClockStartupError(uint8 errorCode)
 126:Generated_Source\PSoC4/cyfitter_cfg.c **** {
 127:Generated_Source\PSoC4/cyfitter_cfg.c ****     /* To remove the compiler warning if errorCode not used.                */
 128:Generated_Source\PSoC4/cyfitter_cfg.c ****     errorCode = errorCode;
 129:Generated_Source\PSoC4/cyfitter_cfg.c **** 
 130:Generated_Source\PSoC4/cyfitter_cfg.c ****     /* If we have a clock startup error (bad MHz crystal, PLL lock, etc.),  */
 131:Generated_Source\PSoC4/cyfitter_cfg.c ****     /* we will end up here to allow the customer to implement something to  */
 132:Generated_Source\PSoC4/cyfitter_cfg.c ****     /* deal with the clock condition.                                       */
 133:Generated_Source\PSoC4/cyfitter_cfg.c **** 
 134:Generated_Source\PSoC4/cyfitter_cfg.c **** #ifdef CY_CFG_CLOCK_STARTUP_ERROR_CALLBACK
 135:Generated_Source\PSoC4/cyfitter_cfg.c ****     CY_CFG_Clock_Startup_ErrorCallback();
 136:Generated_Source\PSoC4/cyfitter_cfg.c **** #else
 137:Generated_Source\PSoC4/cyfitter_cfg.c ****     /*  If not using CY_CFG_CLOCK_STARTUP_ERROR_CALLBACK, place your clock startup code here. */
 138:Generated_Source\PSoC4/cyfitter_cfg.c ****     /* `#START CyClockStartupError` */
 139:Generated_Source\PSoC4/cyfitter_cfg.c **** 
 140:Generated_Source\PSoC4/cyfitter_cfg.c **** 
 141:Generated_Source\PSoC4/cyfitter_cfg.c **** 
 142:Generated_Source\PSoC4/cyfitter_cfg.c ****     /* `#END` */
 143:Generated_Source\PSoC4/cyfitter_cfg.c **** 
 144:Generated_Source\PSoC4/cyfitter_cfg.c ****     while(1) {}
 145:Generated_Source\PSoC4/cyfitter_cfg.c **** #endif /* CY_CFG_CLOCK_STARTUP_ERROR_CALLBACK */
 146:Generated_Source\PSoC4/cyfitter_cfg.c **** }
 147:Generated_Source\PSoC4/cyfitter_cfg.c **** #endif
 148:Generated_Source\PSoC4/cyfitter_cfg.c **** 
 149:Generated_Source\PSoC4/cyfitter_cfg.c **** #define CY_CFG_BASE_ADDR_COUNT 14u
ARM GAS  C:\Users\HPz420\AppData\Local\Temp\ccOwvgum.s 			page 6


 150:Generated_Source\PSoC4/cyfitter_cfg.c **** CYPACKED typedef struct
 151:Generated_Source\PSoC4/cyfitter_cfg.c **** {
 152:Generated_Source\PSoC4/cyfitter_cfg.c **** 	uint8 offset;
 153:Generated_Source\PSoC4/cyfitter_cfg.c **** 	uint8 value;
 154:Generated_Source\PSoC4/cyfitter_cfg.c **** } CYPACKED_ATTR cy_cfg_addrvalue_t;
 155:Generated_Source\PSoC4/cyfitter_cfg.c **** 
 156:Generated_Source\PSoC4/cyfitter_cfg.c **** 
 157:Generated_Source\PSoC4/cyfitter_cfg.c **** 
 158:Generated_Source\PSoC4/cyfitter_cfg.c **** /*******************************************************************************
 159:Generated_Source\PSoC4/cyfitter_cfg.c **** * Function Name: cfg_write_bytes32
 160:Generated_Source\PSoC4/cyfitter_cfg.c **** ********************************************************************************
 161:Generated_Source\PSoC4/cyfitter_cfg.c **** * Summary:
 162:Generated_Source\PSoC4/cyfitter_cfg.c **** *  This function is used for setting up the chip configuration areas that
 163:Generated_Source\PSoC4/cyfitter_cfg.c **** *  contain relatively sparse data.
 164:Generated_Source\PSoC4/cyfitter_cfg.c **** *
 165:Generated_Source\PSoC4/cyfitter_cfg.c **** * Parameters:
 166:Generated_Source\PSoC4/cyfitter_cfg.c **** *   void
 167:Generated_Source\PSoC4/cyfitter_cfg.c **** *
 168:Generated_Source\PSoC4/cyfitter_cfg.c **** * Return:
 169:Generated_Source\PSoC4/cyfitter_cfg.c **** *   void
 170:Generated_Source\PSoC4/cyfitter_cfg.c **** *
 171:Generated_Source\PSoC4/cyfitter_cfg.c **** *******************************************************************************/
 172:Generated_Source\PSoC4/cyfitter_cfg.c **** static void cfg_write_bytes32(const uint32 addr_table[], const cy_cfg_addrvalue_t data_table[]);
 173:Generated_Source\PSoC4/cyfitter_cfg.c **** static void cfg_write_bytes32(const uint32 addr_table[], const cy_cfg_addrvalue_t data_table[])
 174:Generated_Source\PSoC4/cyfitter_cfg.c **** {
 137              		.loc 1 174 0
 138              		.cfi_startproc
 139              		@ args = 0, pretend = 0, frame = 24
 140              		@ frame_needed = 1, uses_anonymous_args = 0
 141 0000 80B5     		push	{r7, lr}
 142              		.cfi_def_cfa_offset 8
 143              		.cfi_offset 7, -8
 144              		.cfi_offset 14, -4
 145 0002 86B0     		sub	sp, sp, #24
 146              		.cfi_def_cfa_offset 32
 147 0004 00AF     		add	r7, sp, #0
 148              		.cfi_def_cfa_register 7
 149 0006 7860     		str	r0, [r7, #4]
 150 0008 3960     		str	r1, [r7]
 175:Generated_Source\PSoC4/cyfitter_cfg.c **** 	/* For 32-bit little-endian architectures */
 176:Generated_Source\PSoC4/cyfitter_cfg.c **** 	uint32 i, j = 0u;
 151              		.loc 1 176 0
 152 000a 0023     		movs	r3, #0
 153 000c 3B61     		str	r3, [r7, #16]
 177:Generated_Source\PSoC4/cyfitter_cfg.c **** 	for (i = 0u; i < CY_CFG_BASE_ADDR_COUNT; i++)
 154              		.loc 1 177 0
 155 000e 0023     		movs	r3, #0
 156 0010 7B61     		str	r3, [r7, #20]
 157 0012 2FE0     		b	.L5
 158              	.L8:
 159              	.LBB2:
 178:Generated_Source\PSoC4/cyfitter_cfg.c **** 	{
 179:Generated_Source\PSoC4/cyfitter_cfg.c **** 		uint32 baseAddr = addr_table[i];
 160              		.loc 1 179 0
 161 0014 7B69     		ldr	r3, [r7, #20]
 162 0016 9B00     		lsls	r3, r3, #2
 163 0018 7A68     		ldr	r2, [r7, #4]
ARM GAS  C:\Users\HPz420\AppData\Local\Temp\ccOwvgum.s 			page 7


 164 001a D318     		adds	r3, r2, r3
 165 001c 1B68     		ldr	r3, [r3]
 166 001e BB60     		str	r3, [r7, #8]
 180:Generated_Source\PSoC4/cyfitter_cfg.c **** 		uint8 count = (uint8)baseAddr;
 167              		.loc 1 180 0
 168 0020 0F23     		movs	r3, #15
 169 0022 FB18     		adds	r3, r7, r3
 170 0024 BA68     		ldr	r2, [r7, #8]
 171 0026 1A70     		strb	r2, [r3]
 181:Generated_Source\PSoC4/cyfitter_cfg.c **** 		baseAddr &= 0xFFFFFF00u;
 172              		.loc 1 181 0
 173 0028 BB68     		ldr	r3, [r7, #8]
 174 002a FF22     		movs	r2, #255
 175 002c 9343     		bics	r3, r2
 176 002e BB60     		str	r3, [r7, #8]
 182:Generated_Source\PSoC4/cyfitter_cfg.c **** 		while (count != 0u)
 177              		.loc 1 182 0
 178 0030 18E0     		b	.L6
 179              	.L7:
 183:Generated_Source\PSoC4/cyfitter_cfg.c **** 		{
 184:Generated_Source\PSoC4/cyfitter_cfg.c **** 			CY_SET_REG8((void *)(baseAddr + data_table[j].offset), data_table[j].value);
 180              		.loc 1 184 0
 181 0032 3B69     		ldr	r3, [r7, #16]
 182 0034 5B00     		lsls	r3, r3, #1
 183 0036 3A68     		ldr	r2, [r7]
 184 0038 D318     		adds	r3, r2, r3
 185 003a 1B78     		ldrb	r3, [r3]
 186 003c 1A00     		movs	r2, r3
 187 003e BB68     		ldr	r3, [r7, #8]
 188 0040 D318     		adds	r3, r2, r3
 189 0042 1900     		movs	r1, r3
 190 0044 3B69     		ldr	r3, [r7, #16]
 191 0046 5B00     		lsls	r3, r3, #1
 192 0048 3A68     		ldr	r2, [r7]
 193 004a D318     		adds	r3, r2, r3
 194 004c 5B78     		ldrb	r3, [r3, #1]
 195 004e 0B70     		strb	r3, [r1]
 185:Generated_Source\PSoC4/cyfitter_cfg.c **** 			j++;
 196              		.loc 1 185 0
 197 0050 3B69     		ldr	r3, [r7, #16]
 198 0052 0133     		adds	r3, r3, #1
 199 0054 3B61     		str	r3, [r7, #16]
 186:Generated_Source\PSoC4/cyfitter_cfg.c **** 			count--;
 200              		.loc 1 186 0
 201 0056 0F23     		movs	r3, #15
 202 0058 FB18     		adds	r3, r7, r3
 203 005a 1A78     		ldrb	r2, [r3]
 204 005c 0F23     		movs	r3, #15
 205 005e FB18     		adds	r3, r7, r3
 206 0060 013A     		subs	r2, r2, #1
 207 0062 1A70     		strb	r2, [r3]
 208              	.L6:
 182:Generated_Source\PSoC4/cyfitter_cfg.c **** 		{
 209              		.loc 1 182 0
 210 0064 0F23     		movs	r3, #15
 211 0066 FB18     		adds	r3, r7, r3
 212 0068 1B78     		ldrb	r3, [r3]
ARM GAS  C:\Users\HPz420\AppData\Local\Temp\ccOwvgum.s 			page 8


 213 006a 002B     		cmp	r3, #0
 214 006c E1D1     		bne	.L7
 215              	.LBE2:
 177:Generated_Source\PSoC4/cyfitter_cfg.c **** 	{
 216              		.loc 1 177 0 discriminator 2
 217 006e 7B69     		ldr	r3, [r7, #20]
 218 0070 0133     		adds	r3, r3, #1
 219 0072 7B61     		str	r3, [r7, #20]
 220              	.L5:
 177:Generated_Source\PSoC4/cyfitter_cfg.c **** 	{
 221              		.loc 1 177 0 is_stmt 0 discriminator 1
 222 0074 7B69     		ldr	r3, [r7, #20]
 223 0076 0D2B     		cmp	r3, #13
 224 0078 CCD9     		bls	.L8
 187:Generated_Source\PSoC4/cyfitter_cfg.c **** 		}
 188:Generated_Source\PSoC4/cyfitter_cfg.c **** 	}
 189:Generated_Source\PSoC4/cyfitter_cfg.c **** }
 225              		.loc 1 189 0 is_stmt 1
 226 007a C046     		nop
 227 007c BD46     		mov	sp, r7
 228 007e 06B0     		add	sp, sp, #24
 229              		@ sp needed
 230 0080 80BD     		pop	{r7, pc}
 231              		.cfi_endproc
 232              	.LFE4:
 233              		.size	cfg_write_bytes32, .-cfg_write_bytes32
 234 0082 C046     		.section	.psocinit,"ax",%progbits
 235              		.align	2
 236              		.code	16
 237              		.thumb_func
 238              		.type	ClockSetup, %function
 239              	ClockSetup:
 240              	.LFB5:
 190:Generated_Source\PSoC4/cyfitter_cfg.c **** 
 191:Generated_Source\PSoC4/cyfitter_cfg.c **** 
 192:Generated_Source\PSoC4/cyfitter_cfg.c **** /*******************************************************************************
 193:Generated_Source\PSoC4/cyfitter_cfg.c **** * Function Name: ClockSetup
 194:Generated_Source\PSoC4/cyfitter_cfg.c **** ********************************************************************************
 195:Generated_Source\PSoC4/cyfitter_cfg.c **** *
 196:Generated_Source\PSoC4/cyfitter_cfg.c **** * Summary:
 197:Generated_Source\PSoC4/cyfitter_cfg.c **** *   Performs the initialization of all of the clocks in the device based on the
 198:Generated_Source\PSoC4/cyfitter_cfg.c **** *   settings in the Clock tab of the DWR.  This includes enabling the requested
 199:Generated_Source\PSoC4/cyfitter_cfg.c **** *   clocks and setting the necessary dividers to produce the desired frequency. 
 200:Generated_Source\PSoC4/cyfitter_cfg.c **** *
 201:Generated_Source\PSoC4/cyfitter_cfg.c **** * Parameters:
 202:Generated_Source\PSoC4/cyfitter_cfg.c **** *   void
 203:Generated_Source\PSoC4/cyfitter_cfg.c **** *
 204:Generated_Source\PSoC4/cyfitter_cfg.c **** * Return:
 205:Generated_Source\PSoC4/cyfitter_cfg.c **** *   void
 206:Generated_Source\PSoC4/cyfitter_cfg.c **** *
 207:Generated_Source\PSoC4/cyfitter_cfg.c **** *******************************************************************************/
 208:Generated_Source\PSoC4/cyfitter_cfg.c **** static void ClockSetup(void);
 209:Generated_Source\PSoC4/cyfitter_cfg.c **** CY_CFG_SECTION
 210:Generated_Source\PSoC4/cyfitter_cfg.c **** static void ClockSetup(void)
 211:Generated_Source\PSoC4/cyfitter_cfg.c **** {
 241              		.loc 1 211 0
 242              		.cfi_startproc
ARM GAS  C:\Users\HPz420\AppData\Local\Temp\ccOwvgum.s 			page 9


 243              		@ args = 0, pretend = 0, frame = 0
 244              		@ frame_needed = 1, uses_anonymous_args = 0
 245 0000 80B5     		push	{r7, lr}
 246              		.cfi_def_cfa_offset 8
 247              		.cfi_offset 7, -8
 248              		.cfi_offset 14, -4
 249 0002 00AF     		add	r7, sp, #0
 250              		.cfi_def_cfa_register 7
 212:Generated_Source\PSoC4/cyfitter_cfg.c **** 
 213:Generated_Source\PSoC4/cyfitter_cfg.c **** 	/* Set Flash Cycles based on max possible frequency in case a glitch occurs during ClockSetup(). *
 214:Generated_Source\PSoC4/cyfitter_cfg.c **** 	CY_SET_REG32((void CYXDATA *)(CYREG_CPUSS_FLASH_CTL), (0x0012u));
 251              		.loc 1 214 0
 252 0004 114B     		ldr	r3, .L10
 253 0006 1222     		movs	r2, #18
 254 0008 1A60     		str	r2, [r3]
 215:Generated_Source\PSoC4/cyfitter_cfg.c **** 	CySysClkImoEnableUsbLock();
 255              		.loc 1 215 0
 256 000a FFF7FEFF 		bl	CySysClkImoEnableUsbLock
 216:Generated_Source\PSoC4/cyfitter_cfg.c **** 	/* Setup and trim IMO based on desired frequency. */
 217:Generated_Source\PSoC4/cyfitter_cfg.c **** 	CySysClkWriteImoFreq(48u);
 257              		.loc 1 217 0
 258 000e 3020     		movs	r0, #48
 259 0010 FFF7FEFF 		bl	CySysClkWriteImoFreq
 218:Generated_Source\PSoC4/cyfitter_cfg.c **** 	/* CYDEV_CLK_ILO_CONFIG Starting address: CYDEV_CLK_ILO_CONFIG */
 219:Generated_Source\PSoC4/cyfitter_cfg.c **** 	CY_SET_REG32((void *)(CYREG_CLK_ILO_CONFIG), 0x80000006u);
 260              		.loc 1 219 0
 261 0014 0E4B     		ldr	r3, .L10+4
 262 0016 0F4A     		ldr	r2, .L10+8
 263 0018 1A60     		str	r2, [r3]
 220:Generated_Source\PSoC4/cyfitter_cfg.c **** 
 221:Generated_Source\PSoC4/cyfitter_cfg.c **** 
 222:Generated_Source\PSoC4/cyfitter_cfg.c **** 	/* Setup phase aligned clocks */
 223:Generated_Source\PSoC4/cyfitter_cfg.c **** 	CY_SET_REG32((void *)CYREG_PERI_DIV_16_CTL0, 0x00003300u);
 264              		.loc 1 223 0
 265 001a 0F4B     		ldr	r3, .L10+12
 266 001c CC22     		movs	r2, #204
 267 001e 9201     		lsls	r2, r2, #6
 268 0020 1A60     		str	r2, [r3]
 224:Generated_Source\PSoC4/cyfitter_cfg.c **** 	CY_SET_REG32((void *)CYREG_PERI_DIV_CMD, 0x8000FF40u);
 269              		.loc 1 224 0
 270 0022 0E4B     		ldr	r3, .L10+16
 271 0024 0E4A     		ldr	r2, .L10+20
 272 0026 1A60     		str	r2, [r3]
 225:Generated_Source\PSoC4/cyfitter_cfg.c **** 
 226:Generated_Source\PSoC4/cyfitter_cfg.c **** 	/* CYDEV_CLK_IMO_CONFIG Starting address: CYDEV_CLK_IMO_CONFIG */
 227:Generated_Source\PSoC4/cyfitter_cfg.c **** 	CY_SET_REG32((void *)(CYREG_CLK_IMO_CONFIG), 0x80000000u);
 273              		.loc 1 227 0
 274 0028 0E4B     		ldr	r3, .L10+24
 275 002a 8022     		movs	r2, #128
 276 002c 1206     		lsls	r2, r2, #24
 277 002e 1A60     		str	r2, [r3]
 228:Generated_Source\PSoC4/cyfitter_cfg.c **** 
 229:Generated_Source\PSoC4/cyfitter_cfg.c **** 	/* CYDEV_CLK_SELECT Starting address: CYDEV_CLK_SELECT */
 230:Generated_Source\PSoC4/cyfitter_cfg.c **** 	CY_SET_REG32((void *)(CYREG_CLK_SELECT), 0x00040000u);
 278              		.loc 1 230 0
 279 0030 0D4B     		ldr	r3, .L10+28
 280 0032 8022     		movs	r2, #128
ARM GAS  C:\Users\HPz420\AppData\Local\Temp\ccOwvgum.s 			page 10


 281 0034 D202     		lsls	r2, r2, #11
 282 0036 1A60     		str	r2, [r3]
 231:Generated_Source\PSoC4/cyfitter_cfg.c **** 
 232:Generated_Source\PSoC4/cyfitter_cfg.c **** 	/* CYDEV_PERI_PCLK_CTL19 Starting address: CYDEV_PERI_PCLK_CTL19 */
 233:Generated_Source\PSoC4/cyfitter_cfg.c **** 	CY_SET_REG32((void *)(CYREG_PERI_PCLK_CTL19), 0x00000040u);
 283              		.loc 1 233 0
 284 0038 0C4B     		ldr	r3, .L10+32
 285 003a 4022     		movs	r2, #64
 286 003c 1A60     		str	r2, [r3]
 234:Generated_Source\PSoC4/cyfitter_cfg.c **** 
 235:Generated_Source\PSoC4/cyfitter_cfg.c **** 	CY_SET_REG32((void *)(CYREG_WDT_CONFIG), 0x00000000u);
 287              		.loc 1 235 0
 288 003e 0C4B     		ldr	r3, .L10+36
 289 0040 0022     		movs	r2, #0
 290 0042 1A60     		str	r2, [r3]
 236:Generated_Source\PSoC4/cyfitter_cfg.c **** }
 291              		.loc 1 236 0
 292 0044 C046     		nop
 293 0046 BD46     		mov	sp, r7
 294              		@ sp needed
 295 0048 80BD     		pop	{r7, pc}
 296              	.L11:
 297 004a C046     		.align	2
 298              	.L10:
 299 004c 30001040 		.word	1074790448
 300 0050 04010B40 		.word	1074462980
 301 0054 06000080 		.word	-2147483642
 302 0058 00030140 		.word	1073808128
 303 005c 00000140 		.word	1073807360
 304 0060 40FF0080 		.word	-2147418304
 305 0064 08010B40 		.word	1074462984
 306 0068 00010B40 		.word	1074462976
 307 006c 4C010140 		.word	1073807692
 308 0070 0C020B40 		.word	1074463244
 309              		.cfi_endproc
 310              	.LFE5:
 311              		.size	ClockSetup, .-ClockSetup
 312              		.section	.text.AnalogSetDefault,"ax",%progbits
 313              		.align	2
 314              		.code	16
 315              		.thumb_func
 316              		.type	AnalogSetDefault, %function
 317              	AnalogSetDefault:
 318              	.LFB6:
 237:Generated_Source\PSoC4/cyfitter_cfg.c **** 
 238:Generated_Source\PSoC4/cyfitter_cfg.c **** 
 239:Generated_Source\PSoC4/cyfitter_cfg.c **** /* Analog API Functions */
 240:Generated_Source\PSoC4/cyfitter_cfg.c **** 
 241:Generated_Source\PSoC4/cyfitter_cfg.c **** 
 242:Generated_Source\PSoC4/cyfitter_cfg.c **** /*******************************************************************************
 243:Generated_Source\PSoC4/cyfitter_cfg.c **** * Function Name: AnalogSetDefault
 244:Generated_Source\PSoC4/cyfitter_cfg.c **** ********************************************************************************
 245:Generated_Source\PSoC4/cyfitter_cfg.c **** *
 246:Generated_Source\PSoC4/cyfitter_cfg.c **** * Summary:
 247:Generated_Source\PSoC4/cyfitter_cfg.c **** *  Sets up the analog portions of the chip to default values based on chip
 248:Generated_Source\PSoC4/cyfitter_cfg.c **** *  configuration options from the project.
 249:Generated_Source\PSoC4/cyfitter_cfg.c **** *
ARM GAS  C:\Users\HPz420\AppData\Local\Temp\ccOwvgum.s 			page 11


 250:Generated_Source\PSoC4/cyfitter_cfg.c **** * Parameters:
 251:Generated_Source\PSoC4/cyfitter_cfg.c **** *  void
 252:Generated_Source\PSoC4/cyfitter_cfg.c **** *
 253:Generated_Source\PSoC4/cyfitter_cfg.c **** * Return:
 254:Generated_Source\PSoC4/cyfitter_cfg.c **** *  void
 255:Generated_Source\PSoC4/cyfitter_cfg.c **** *
 256:Generated_Source\PSoC4/cyfitter_cfg.c **** *******************************************************************************/
 257:Generated_Source\PSoC4/cyfitter_cfg.c **** static void AnalogSetDefault(void);
 258:Generated_Source\PSoC4/cyfitter_cfg.c **** static void AnalogSetDefault(void)
 259:Generated_Source\PSoC4/cyfitter_cfg.c **** {
 319              		.loc 1 259 0
 320              		.cfi_startproc
 321              		@ args = 0, pretend = 0, frame = 0
 322              		@ frame_needed = 1, uses_anonymous_args = 0
 323 0000 80B5     		push	{r7, lr}
 324              		.cfi_def_cfa_offset 8
 325              		.cfi_offset 7, -8
 326              		.cfi_offset 14, -4
 327 0002 00AF     		add	r7, sp, #0
 328              		.cfi_def_cfa_register 7
 260:Generated_Source\PSoC4/cyfitter_cfg.c **** 	CY_SET_XTND_REG32((void CYFAR *)CYREG_CTBM0_DFT_CTRL, 0x00000003u);
 329              		.loc 1 260 0
 330 0004 054B     		ldr	r3, .L13
 331 0006 0322     		movs	r2, #3
 332 0008 1A60     		str	r2, [r3]
 261:Generated_Source\PSoC4/cyfitter_cfg.c **** 	CY_SET_XTND_REG32((void CYFAR *)CYREG_CTBM1_DFT_CTRL, 0x00000003u);
 333              		.loc 1 261 0
 334 000a 054B     		ldr	r3, .L13+4
 335 000c 0322     		movs	r2, #3
 336 000e 1A60     		str	r2, [r3]
 262:Generated_Source\PSoC4/cyfitter_cfg.c **** 	CY_SET_XTND_REG32((void CYFAR *)CYREG_PASS_DSAB_DSAB_CTRL, 0x00000000u);
 337              		.loc 1 262 0
 338 0010 044B     		ldr	r3, .L13+8
 339 0012 0022     		movs	r2, #0
 340 0014 1A60     		str	r2, [r3]
 263:Generated_Source\PSoC4/cyfitter_cfg.c **** }
 341              		.loc 1 263 0
 342 0016 C046     		nop
 343 0018 BD46     		mov	sp, r7
 344              		@ sp needed
 345 001a 80BD     		pop	{r7, pc}
 346              	.L14:
 347              		.align	2
 348              	.L13:
 349 001c 30003040 		.word	1076887600
 350 0020 30003140 		.word	1076953136
 351 0024 000E3F40 		.word	1077874176
 352              		.cfi_endproc
 353              	.LFE6:
 354              		.size	AnalogSetDefault, .-AnalogSetDefault
 355              		.section	.psocinit
 356              		.align	2
 357              		.global	cyfitter_cfg
 358              		.code	16
 359              		.thumb_func
 360              		.type	cyfitter_cfg, %function
 361              	cyfitter_cfg:
ARM GAS  C:\Users\HPz420\AppData\Local\Temp\ccOwvgum.s 			page 12


 362              	.LFB7:
 264:Generated_Source\PSoC4/cyfitter_cfg.c **** 
 265:Generated_Source\PSoC4/cyfitter_cfg.c **** 
 266:Generated_Source\PSoC4/cyfitter_cfg.c **** 
 267:Generated_Source\PSoC4/cyfitter_cfg.c **** 
 268:Generated_Source\PSoC4/cyfitter_cfg.c **** /*******************************************************************************
 269:Generated_Source\PSoC4/cyfitter_cfg.c **** * Function Name: cyfitter_cfg
 270:Generated_Source\PSoC4/cyfitter_cfg.c **** ********************************************************************************
 271:Generated_Source\PSoC4/cyfitter_cfg.c **** * Summary:
 272:Generated_Source\PSoC4/cyfitter_cfg.c **** *  This function is called by the start-up code for the selected device. It
 273:Generated_Source\PSoC4/cyfitter_cfg.c **** *  performs all of the necessary device configuration based on the design
 274:Generated_Source\PSoC4/cyfitter_cfg.c **** *  settings.  This includes settings from the Design Wide Resources (DWR) such
 275:Generated_Source\PSoC4/cyfitter_cfg.c **** *  as Clocks and Pins as well as any component configuration that is necessary.
 276:Generated_Source\PSoC4/cyfitter_cfg.c **** *
 277:Generated_Source\PSoC4/cyfitter_cfg.c **** * Parameters:
 278:Generated_Source\PSoC4/cyfitter_cfg.c **** *   void
 279:Generated_Source\PSoC4/cyfitter_cfg.c **** *
 280:Generated_Source\PSoC4/cyfitter_cfg.c **** * Return:
 281:Generated_Source\PSoC4/cyfitter_cfg.c **** *   void
 282:Generated_Source\PSoC4/cyfitter_cfg.c **** *
 283:Generated_Source\PSoC4/cyfitter_cfg.c **** *******************************************************************************/
 284:Generated_Source\PSoC4/cyfitter_cfg.c **** CY_CFG_SECTION
 285:Generated_Source\PSoC4/cyfitter_cfg.c **** void cyfitter_cfg(void)
 286:Generated_Source\PSoC4/cyfitter_cfg.c **** {
 363              		.loc 1 286 0
 364              		.cfi_startproc
 365              		@ args = 0, pretend = 0, frame = 8
 366              		@ frame_needed = 1, uses_anonymous_args = 0
 367 0074 80B5     		push	{r7, lr}
 368              		.cfi_def_cfa_offset 8
 369              		.cfi_offset 7, -8
 370              		.cfi_offset 14, -4
 371 0076 82B0     		sub	sp, sp, #8
 372              		.cfi_def_cfa_offset 16
 373 0078 00AF     		add	r7, sp, #0
 374              		.cfi_def_cfa_register 7
 287:Generated_Source\PSoC4/cyfitter_cfg.c **** 	/* Disable interrupts by default. Let user enable if/when they want. */
 288:Generated_Source\PSoC4/cyfitter_cfg.c **** 	CyGlobalIntDisable;
 375              		.loc 1 288 0
 376              		.syntax divided
 377              	@ 288 "Generated_Source\PSoC4\cyfitter_cfg.c" 1
 378 007a 72B6     		CPSID   i
 379              	@ 0 "" 2
 289:Generated_Source\PSoC4/cyfitter_cfg.c **** 
 290:Generated_Source\PSoC4/cyfitter_cfg.c **** 	/* Enable the clock in the interrupt controller for the routed interrupts */
 291:Generated_Source\PSoC4/cyfitter_cfg.c **** 	CY_SET_REG8((void *)CYREG_UDB_UDB_INT_CLK_CTL, 0x01u);
 380              		.loc 1 291 0
 381              		.thumb
 382              		.syntax unified
 383 007c 3F4B     		ldr	r3, .L18
 384 007e 0122     		movs	r2, #1
 385 0080 1A70     		strb	r2, [r3]
 386              	.LBB3:
 292:Generated_Source\PSoC4/cyfitter_cfg.c **** 	{
 293:Generated_Source\PSoC4/cyfitter_cfg.c **** 		static const uint32 CYCODE cy_cfg_addr_table[] = {
 294:Generated_Source\PSoC4/cyfitter_cfg.c **** 			0x400F0003u, /* Base address: 0x400F0000 Count: 3 */
 295:Generated_Source\PSoC4/cyfitter_cfg.c **** 			0x400F3047u, /* Base address: 0x400F3000 Count: 71 */
ARM GAS  C:\Users\HPz420\AppData\Local\Temp\ccOwvgum.s 			page 13


 296:Generated_Source\PSoC4/cyfitter_cfg.c **** 			0x400F3133u, /* Base address: 0x400F3100 Count: 51 */
 297:Generated_Source\PSoC4/cyfitter_cfg.c **** 			0x400F3254u, /* Base address: 0x400F3200 Count: 84 */
 298:Generated_Source\PSoC4/cyfitter_cfg.c **** 			0x400F3345u, /* Base address: 0x400F3300 Count: 69 */
 299:Generated_Source\PSoC4/cyfitter_cfg.c **** 			0x400F3451u, /* Base address: 0x400F3400 Count: 81 */
 300:Generated_Source\PSoC4/cyfitter_cfg.c **** 			0x400F3543u, /* Base address: 0x400F3500 Count: 67 */
 301:Generated_Source\PSoC4/cyfitter_cfg.c **** 			0x400F3706u, /* Base address: 0x400F3700 Count: 6 */
 302:Generated_Source\PSoC4/cyfitter_cfg.c **** 			0x400F4002u, /* Base address: 0x400F4000 Count: 2 */
 303:Generated_Source\PSoC4/cyfitter_cfg.c **** 			0x400F410Bu, /* Base address: 0x400F4100 Count: 11 */
 304:Generated_Source\PSoC4/cyfitter_cfg.c **** 			0x400F4207u, /* Base address: 0x400F4200 Count: 7 */
 305:Generated_Source\PSoC4/cyfitter_cfg.c **** 			0x400F4303u, /* Base address: 0x400F4300 Count: 3 */
 306:Generated_Source\PSoC4/cyfitter_cfg.c **** 			0x400F4704u, /* Base address: 0x400F4700 Count: 4 */
 307:Generated_Source\PSoC4/cyfitter_cfg.c **** 			0x400F6003u, /* Base address: 0x400F6000 Count: 3 */
 308:Generated_Source\PSoC4/cyfitter_cfg.c **** 		};
 309:Generated_Source\PSoC4/cyfitter_cfg.c **** 
 310:Generated_Source\PSoC4/cyfitter_cfg.c **** 		static const cy_cfg_addrvalue_t CYCODE cy_cfg_data_table[] = {
 311:Generated_Source\PSoC4/cyfitter_cfg.c **** 			{0x81u, 0x72u},
 312:Generated_Source\PSoC4/cyfitter_cfg.c **** 			{0x82u, 0x38u},
 313:Generated_Source\PSoC4/cyfitter_cfg.c **** 			{0x84u, 0x0Fu},
 314:Generated_Source\PSoC4/cyfitter_cfg.c **** 			{0x06u, 0x01u},
 315:Generated_Source\PSoC4/cyfitter_cfg.c **** 			{0x0Cu, 0x01u},
 316:Generated_Source\PSoC4/cyfitter_cfg.c **** 			{0x0Du, 0x01u},
 317:Generated_Source\PSoC4/cyfitter_cfg.c **** 			{0x10u, 0x01u},
 318:Generated_Source\PSoC4/cyfitter_cfg.c **** 			{0x11u, 0x01u},
 319:Generated_Source\PSoC4/cyfitter_cfg.c **** 			{0x15u, 0x01u},
 320:Generated_Source\PSoC4/cyfitter_cfg.c **** 			{0x16u, 0x01u},
 321:Generated_Source\PSoC4/cyfitter_cfg.c **** 			{0x19u, 0x01u},
 322:Generated_Source\PSoC4/cyfitter_cfg.c **** 			{0x34u, 0x01u},
 323:Generated_Source\PSoC4/cyfitter_cfg.c **** 			{0x37u, 0x01u},
 324:Generated_Source\PSoC4/cyfitter_cfg.c **** 			{0x38u, 0x20u},
 325:Generated_Source\PSoC4/cyfitter_cfg.c **** 			{0x3Fu, 0x40u},
 326:Generated_Source\PSoC4/cyfitter_cfg.c **** 			{0x58u, 0x04u},
 327:Generated_Source\PSoC4/cyfitter_cfg.c **** 			{0x59u, 0x04u},
 328:Generated_Source\PSoC4/cyfitter_cfg.c **** 			{0x5Fu, 0x01u},
 329:Generated_Source\PSoC4/cyfitter_cfg.c **** 			{0x80u, 0x01u},
 330:Generated_Source\PSoC4/cyfitter_cfg.c **** 			{0x81u, 0x08u},
 331:Generated_Source\PSoC4/cyfitter_cfg.c **** 			{0x84u, 0x0Cu},
 332:Generated_Source\PSoC4/cyfitter_cfg.c **** 			{0x85u, 0x04u},
 333:Generated_Source\PSoC4/cyfitter_cfg.c **** 			{0x88u, 0x01u},
 334:Generated_Source\PSoC4/cyfitter_cfg.c **** 			{0x89u, 0x0Cu},
 335:Generated_Source\PSoC4/cyfitter_cfg.c **** 			{0x8Cu, 0x08u},
 336:Generated_Source\PSoC4/cyfitter_cfg.c **** 			{0x8Du, 0x01u},
 337:Generated_Source\PSoC4/cyfitter_cfg.c **** 			{0x90u, 0x0Eu},
 338:Generated_Source\PSoC4/cyfitter_cfg.c **** 			{0x91u, 0x0Fu},
 339:Generated_Source\PSoC4/cyfitter_cfg.c **** 			{0x94u, 0x0Cu},
 340:Generated_Source\PSoC4/cyfitter_cfg.c **** 			{0x95u, 0x0Cu},
 341:Generated_Source\PSoC4/cyfitter_cfg.c **** 			{0x96u, 0x02u},
 342:Generated_Source\PSoC4/cyfitter_cfg.c **** 			{0x97u, 0x03u},
 343:Generated_Source\PSoC4/cyfitter_cfg.c **** 			{0x98u, 0x0Cu},
 344:Generated_Source\PSoC4/cyfitter_cfg.c **** 			{0x99u, 0x10u},
 345:Generated_Source\PSoC4/cyfitter_cfg.c **** 			{0x9Au, 0x02u},
 346:Generated_Source\PSoC4/cyfitter_cfg.c **** 			{0x9Du, 0x03u},
 347:Generated_Source\PSoC4/cyfitter_cfg.c **** 			{0x9Fu, 0x0Cu},
 348:Generated_Source\PSoC4/cyfitter_cfg.c **** 			{0xA2u, 0x02u},
 349:Generated_Source\PSoC4/cyfitter_cfg.c **** 			{0xA3u, 0x03u},
 350:Generated_Source\PSoC4/cyfitter_cfg.c **** 			{0xA4u, 0x01u},
 351:Generated_Source\PSoC4/cyfitter_cfg.c **** 			{0xA5u, 0x0Fu},
 352:Generated_Source\PSoC4/cyfitter_cfg.c **** 			{0xA8u, 0x04u},
ARM GAS  C:\Users\HPz420\AppData\Local\Temp\ccOwvgum.s 			page 14


 353:Generated_Source\PSoC4/cyfitter_cfg.c **** 			{0xA9u, 0x03u},
 354:Generated_Source\PSoC4/cyfitter_cfg.c **** 			{0xACu, 0x02u},
 355:Generated_Source\PSoC4/cyfitter_cfg.c **** 			{0xADu, 0x02u},
 356:Generated_Source\PSoC4/cyfitter_cfg.c **** 			{0xAEu, 0x0Cu},
 357:Generated_Source\PSoC4/cyfitter_cfg.c **** 			{0xB1u, 0x0Fu},
 358:Generated_Source\PSoC4/cyfitter_cfg.c **** 			{0xB2u, 0x01u},
 359:Generated_Source\PSoC4/cyfitter_cfg.c **** 			{0xB4u, 0x0Eu},
 360:Generated_Source\PSoC4/cyfitter_cfg.c **** 			{0xB7u, 0x10u},
 361:Generated_Source\PSoC4/cyfitter_cfg.c **** 			{0xBAu, 0x20u},
 362:Generated_Source\PSoC4/cyfitter_cfg.c **** 			{0xBBu, 0x02u},
 363:Generated_Source\PSoC4/cyfitter_cfg.c **** 			{0xBFu, 0x40u},
 364:Generated_Source\PSoC4/cyfitter_cfg.c **** 			{0xC0u, 0x02u},
 365:Generated_Source\PSoC4/cyfitter_cfg.c **** 			{0xC7u, 0x04u},
 366:Generated_Source\PSoC4/cyfitter_cfg.c **** 			{0xC9u, 0xFFu},
 367:Generated_Source\PSoC4/cyfitter_cfg.c **** 			{0xCAu, 0x07u},
 368:Generated_Source\PSoC4/cyfitter_cfg.c **** 			{0xCBu, 0xFFu},
 369:Generated_Source\PSoC4/cyfitter_cfg.c **** 			{0xCCu, 0x40u},
 370:Generated_Source\PSoC4/cyfitter_cfg.c **** 			{0xCDu, 0x20u},
 371:Generated_Source\PSoC4/cyfitter_cfg.c **** 			{0xCEu, 0xF0u},
 372:Generated_Source\PSoC4/cyfitter_cfg.c **** 			{0xCFu, 0x05u},
 373:Generated_Source\PSoC4/cyfitter_cfg.c **** 			{0xD0u, 0x08u},
 374:Generated_Source\PSoC4/cyfitter_cfg.c **** 			{0xD6u, 0x02u},
 375:Generated_Source\PSoC4/cyfitter_cfg.c **** 			{0xD7u, 0x13u},
 376:Generated_Source\PSoC4/cyfitter_cfg.c **** 			{0xD8u, 0x04u},
 377:Generated_Source\PSoC4/cyfitter_cfg.c **** 			{0xD9u, 0x04u},
 378:Generated_Source\PSoC4/cyfitter_cfg.c **** 			{0xDAu, 0x04u},
 379:Generated_Source\PSoC4/cyfitter_cfg.c **** 			{0xDBu, 0x04u},
 380:Generated_Source\PSoC4/cyfitter_cfg.c **** 			{0xDFu, 0x01u},
 381:Generated_Source\PSoC4/cyfitter_cfg.c **** 			{0xE0u, 0x40u},
 382:Generated_Source\PSoC4/cyfitter_cfg.c **** 			{0xE1u, 0xA8u},
 383:Generated_Source\PSoC4/cyfitter_cfg.c **** 			{0xE2u, 0x40u},
 384:Generated_Source\PSoC4/cyfitter_cfg.c **** 			{0xE3u, 0x20u},
 385:Generated_Source\PSoC4/cyfitter_cfg.c **** 			{0x00u, 0x40u},
 386:Generated_Source\PSoC4/cyfitter_cfg.c **** 			{0x03u, 0x20u},
 387:Generated_Source\PSoC4/cyfitter_cfg.c **** 			{0x04u, 0x22u},
 388:Generated_Source\PSoC4/cyfitter_cfg.c **** 			{0x06u, 0x22u},
 389:Generated_Source\PSoC4/cyfitter_cfg.c **** 			{0x09u, 0x0Au},
 390:Generated_Source\PSoC4/cyfitter_cfg.c **** 			{0x0Au, 0x08u},
 391:Generated_Source\PSoC4/cyfitter_cfg.c **** 			{0x0Bu, 0x08u},
 392:Generated_Source\PSoC4/cyfitter_cfg.c **** 			{0x0Du, 0x0Au},
 393:Generated_Source\PSoC4/cyfitter_cfg.c **** 			{0x0Eu, 0x08u},
 394:Generated_Source\PSoC4/cyfitter_cfg.c **** 			{0x14u, 0x40u},
 395:Generated_Source\PSoC4/cyfitter_cfg.c **** 			{0x15u, 0x40u},
 396:Generated_Source\PSoC4/cyfitter_cfg.c **** 			{0x16u, 0x08u},
 397:Generated_Source\PSoC4/cyfitter_cfg.c **** 			{0x17u, 0x04u},
 398:Generated_Source\PSoC4/cyfitter_cfg.c **** 			{0x1Bu, 0x10u},
 399:Generated_Source\PSoC4/cyfitter_cfg.c **** 			{0x1Du, 0x10u},
 400:Generated_Source\PSoC4/cyfitter_cfg.c **** 			{0x1Eu, 0x08u},
 401:Generated_Source\PSoC4/cyfitter_cfg.c **** 			{0x1Fu, 0x24u},
 402:Generated_Source\PSoC4/cyfitter_cfg.c **** 			{0x23u, 0x01u},
 403:Generated_Source\PSoC4/cyfitter_cfg.c **** 			{0x24u, 0x40u},
 404:Generated_Source\PSoC4/cyfitter_cfg.c **** 			{0x26u, 0x80u},
 405:Generated_Source\PSoC4/cyfitter_cfg.c **** 			{0x27u, 0x40u},
 406:Generated_Source\PSoC4/cyfitter_cfg.c **** 			{0x2Cu, 0x44u},
 407:Generated_Source\PSoC4/cyfitter_cfg.c **** 			{0x2Eu, 0x80u},
 408:Generated_Source\PSoC4/cyfitter_cfg.c **** 			{0x2Fu, 0x20u},
 409:Generated_Source\PSoC4/cyfitter_cfg.c **** 			{0x31u, 0x1Au},
ARM GAS  C:\Users\HPz420\AppData\Local\Temp\ccOwvgum.s 			page 15


 410:Generated_Source\PSoC4/cyfitter_cfg.c **** 			{0x32u, 0x08u},
 411:Generated_Source\PSoC4/cyfitter_cfg.c **** 			{0x33u, 0x01u},
 412:Generated_Source\PSoC4/cyfitter_cfg.c **** 			{0x35u, 0x20u},
 413:Generated_Source\PSoC4/cyfitter_cfg.c **** 			{0x36u, 0x08u},
 414:Generated_Source\PSoC4/cyfitter_cfg.c **** 			{0x37u, 0x41u},
 415:Generated_Source\PSoC4/cyfitter_cfg.c **** 			{0x38u, 0x40u},
 416:Generated_Source\PSoC4/cyfitter_cfg.c **** 			{0x39u, 0x40u},
 417:Generated_Source\PSoC4/cyfitter_cfg.c **** 			{0x3Eu, 0x2Au},
 418:Generated_Source\PSoC4/cyfitter_cfg.c **** 			{0x3Fu, 0x40u},
 419:Generated_Source\PSoC4/cyfitter_cfg.c **** 			{0x47u, 0x10u},
 420:Generated_Source\PSoC4/cyfitter_cfg.c **** 			{0x55u, 0x10u},
 421:Generated_Source\PSoC4/cyfitter_cfg.c **** 			{0x56u, 0x04u},
 422:Generated_Source\PSoC4/cyfitter_cfg.c **** 			{0x5Fu, 0x01u},
 423:Generated_Source\PSoC4/cyfitter_cfg.c **** 			{0x6Cu, 0x11u},
 424:Generated_Source\PSoC4/cyfitter_cfg.c **** 			{0x6Fu, 0x04u},
 425:Generated_Source\PSoC4/cyfitter_cfg.c **** 			{0x76u, 0x2Au},
 426:Generated_Source\PSoC4/cyfitter_cfg.c **** 			{0x84u, 0x40u},
 427:Generated_Source\PSoC4/cyfitter_cfg.c **** 			{0x86u, 0x04u},
 428:Generated_Source\PSoC4/cyfitter_cfg.c **** 			{0xC0u, 0xF5u},
 429:Generated_Source\PSoC4/cyfitter_cfg.c **** 			{0xC2u, 0x7Cu},
 430:Generated_Source\PSoC4/cyfitter_cfg.c **** 			{0xC4u, 0xF0u},
 431:Generated_Source\PSoC4/cyfitter_cfg.c **** 			{0xCAu, 0xF0u},
 432:Generated_Source\PSoC4/cyfitter_cfg.c **** 			{0xCCu, 0xF7u},
 433:Generated_Source\PSoC4/cyfitter_cfg.c **** 			{0xCEu, 0xF8u},
 434:Generated_Source\PSoC4/cyfitter_cfg.c **** 			{0xD0u, 0x20u},
 435:Generated_Source\PSoC4/cyfitter_cfg.c **** 			{0xD6u, 0x80u},
 436:Generated_Source\PSoC4/cyfitter_cfg.c **** 			{0x01u, 0x10u},
 437:Generated_Source\PSoC4/cyfitter_cfg.c **** 			{0x05u, 0x08u},
 438:Generated_Source\PSoC4/cyfitter_cfg.c **** 			{0x06u, 0x10u},
 439:Generated_Source\PSoC4/cyfitter_cfg.c **** 			{0x08u, 0x03u},
 440:Generated_Source\PSoC4/cyfitter_cfg.c **** 			{0x09u, 0x18u},
 441:Generated_Source\PSoC4/cyfitter_cfg.c **** 			{0x0Du, 0x40u},
 442:Generated_Source\PSoC4/cyfitter_cfg.c **** 			{0x10u, 0x01u},
 443:Generated_Source\PSoC4/cyfitter_cfg.c **** 			{0x11u, 0xE7u},
 444:Generated_Source\PSoC4/cyfitter_cfg.c **** 			{0x12u, 0x0Au},
 445:Generated_Source\PSoC4/cyfitter_cfg.c **** 			{0x13u, 0x18u},
 446:Generated_Source\PSoC4/cyfitter_cfg.c **** 			{0x16u, 0x04u},
 447:Generated_Source\PSoC4/cyfitter_cfg.c **** 			{0x17u, 0xE3u},
 448:Generated_Source\PSoC4/cyfitter_cfg.c **** 			{0x18u, 0x02u},
 449:Generated_Source\PSoC4/cyfitter_cfg.c **** 			{0x19u, 0x9Cu},
 450:Generated_Source\PSoC4/cyfitter_cfg.c **** 			{0x1Au, 0x09u},
 451:Generated_Source\PSoC4/cyfitter_cfg.c **** 			{0x1Bu, 0x62u},
 452:Generated_Source\PSoC4/cyfitter_cfg.c **** 			{0x1Du, 0xFFu},
 453:Generated_Source\PSoC4/cyfitter_cfg.c **** 			{0x1Eu, 0x10u},
 454:Generated_Source\PSoC4/cyfitter_cfg.c **** 			{0x21u, 0x24u},
 455:Generated_Source\PSoC4/cyfitter_cfg.c **** 			{0x24u, 0x03u},
 456:Generated_Source\PSoC4/cyfitter_cfg.c **** 			{0x25u, 0x1Cu},
 457:Generated_Source\PSoC4/cyfitter_cfg.c **** 			{0x27u, 0xE1u},
 458:Generated_Source\PSoC4/cyfitter_cfg.c **** 			{0x29u, 0x60u},
 459:Generated_Source\PSoC4/cyfitter_cfg.c **** 			{0x2Fu, 0x04u},
 460:Generated_Source\PSoC4/cyfitter_cfg.c **** 			{0x31u, 0x60u},
 461:Generated_Source\PSoC4/cyfitter_cfg.c **** 			{0x32u, 0x10u},
 462:Generated_Source\PSoC4/cyfitter_cfg.c **** 			{0x33u, 0x1Fu},
 463:Generated_Source\PSoC4/cyfitter_cfg.c **** 			{0x34u, 0x03u},
 464:Generated_Source\PSoC4/cyfitter_cfg.c **** 			{0x35u, 0x98u},
 465:Generated_Source\PSoC4/cyfitter_cfg.c **** 			{0x36u, 0x0Cu},
 466:Generated_Source\PSoC4/cyfitter_cfg.c **** 			{0x3Bu, 0x08u},
ARM GAS  C:\Users\HPz420\AppData\Local\Temp\ccOwvgum.s 			page 16


 467:Generated_Source\PSoC4/cyfitter_cfg.c **** 			{0x3Eu, 0x44u},
 468:Generated_Source\PSoC4/cyfitter_cfg.c **** 			{0x40u, 0x56u},
 469:Generated_Source\PSoC4/cyfitter_cfg.c **** 			{0x41u, 0x04u},
 470:Generated_Source\PSoC4/cyfitter_cfg.c **** 			{0x42u, 0x03u},
 471:Generated_Source\PSoC4/cyfitter_cfg.c **** 			{0x44u, 0x01u},
 472:Generated_Source\PSoC4/cyfitter_cfg.c **** 			{0x45u, 0xC0u},
 473:Generated_Source\PSoC4/cyfitter_cfg.c **** 			{0x46u, 0x0Eu},
 474:Generated_Source\PSoC4/cyfitter_cfg.c **** 			{0x48u, 0x06u},
 475:Generated_Source\PSoC4/cyfitter_cfg.c **** 			{0x49u, 0xFFu},
 476:Generated_Source\PSoC4/cyfitter_cfg.c **** 			{0x4Au, 0xFFu},
 477:Generated_Source\PSoC4/cyfitter_cfg.c **** 			{0x4Bu, 0xFFu},
 478:Generated_Source\PSoC4/cyfitter_cfg.c **** 			{0x4Cu, 0x62u},
 479:Generated_Source\PSoC4/cyfitter_cfg.c **** 			{0x4Du, 0xA0u},
 480:Generated_Source\PSoC4/cyfitter_cfg.c **** 			{0x4Eu, 0xF0u},
 481:Generated_Source\PSoC4/cyfitter_cfg.c **** 			{0x4Fu, 0x41u},
 482:Generated_Source\PSoC4/cyfitter_cfg.c **** 			{0x50u, 0x0Cu},
 483:Generated_Source\PSoC4/cyfitter_cfg.c **** 			{0x54u, 0x18u},
 484:Generated_Source\PSoC4/cyfitter_cfg.c **** 			{0x58u, 0x04u},
 485:Generated_Source\PSoC4/cyfitter_cfg.c **** 			{0x59u, 0x04u},
 486:Generated_Source\PSoC4/cyfitter_cfg.c **** 			{0x5Au, 0x04u},
 487:Generated_Source\PSoC4/cyfitter_cfg.c **** 			{0x5Bu, 0x04u},
 488:Generated_Source\PSoC4/cyfitter_cfg.c **** 			{0x5Fu, 0x01u},
 489:Generated_Source\PSoC4/cyfitter_cfg.c **** 			{0x66u, 0x40u},
 490:Generated_Source\PSoC4/cyfitter_cfg.c **** 			{0x67u, 0x02u},
 491:Generated_Source\PSoC4/cyfitter_cfg.c **** 			{0x69u, 0x10u},
 492:Generated_Source\PSoC4/cyfitter_cfg.c **** 			{0x6Au, 0x30u},
 493:Generated_Source\PSoC4/cyfitter_cfg.c **** 			{0x6Bu, 0x10u},
 494:Generated_Source\PSoC4/cyfitter_cfg.c **** 			{0x6Du, 0x10u},
 495:Generated_Source\PSoC4/cyfitter_cfg.c **** 			{0x6Eu, 0x10u},
 496:Generated_Source\PSoC4/cyfitter_cfg.c **** 			{0x6Fu, 0x12u},
 497:Generated_Source\PSoC4/cyfitter_cfg.c **** 			{0x84u, 0x2Cu},
 498:Generated_Source\PSoC4/cyfitter_cfg.c **** 			{0x86u, 0x11u},
 499:Generated_Source\PSoC4/cyfitter_cfg.c **** 			{0x8Au, 0x03u},
 500:Generated_Source\PSoC4/cyfitter_cfg.c **** 			{0x8Cu, 0x30u},
 501:Generated_Source\PSoC4/cyfitter_cfg.c **** 			{0x8Eu, 0x0Cu},
 502:Generated_Source\PSoC4/cyfitter_cfg.c **** 			{0x90u, 0x09u},
 503:Generated_Source\PSoC4/cyfitter_cfg.c **** 			{0x92u, 0x10u},
 504:Generated_Source\PSoC4/cyfitter_cfg.c **** 			{0x98u, 0x40u},
 505:Generated_Source\PSoC4/cyfitter_cfg.c **** 			{0x9Cu, 0x1Cu},
 506:Generated_Source\PSoC4/cyfitter_cfg.c **** 			{0x9Eu, 0x22u},
 507:Generated_Source\PSoC4/cyfitter_cfg.c **** 			{0xA4u, 0x14u},
 508:Generated_Source\PSoC4/cyfitter_cfg.c **** 			{0xA7u, 0x01u},
 509:Generated_Source\PSoC4/cyfitter_cfg.c **** 			{0xA8u, 0x10u},
 510:Generated_Source\PSoC4/cyfitter_cfg.c **** 			{0xAFu, 0x01u},
 511:Generated_Source\PSoC4/cyfitter_cfg.c **** 			{0xB0u, 0x60u},
 512:Generated_Source\PSoC4/cyfitter_cfg.c **** 			{0xB4u, 0x1Fu},
 513:Generated_Source\PSoC4/cyfitter_cfg.c **** 			{0xB5u, 0x01u},
 514:Generated_Source\PSoC4/cyfitter_cfg.c **** 			{0xB8u, 0x02u},
 515:Generated_Source\PSoC4/cyfitter_cfg.c **** 			{0xBBu, 0x02u},
 516:Generated_Source\PSoC4/cyfitter_cfg.c **** 			{0xBFu, 0x10u},
 517:Generated_Source\PSoC4/cyfitter_cfg.c **** 			{0xD8u, 0x04u},
 518:Generated_Source\PSoC4/cyfitter_cfg.c **** 			{0xD9u, 0x04u},
 519:Generated_Source\PSoC4/cyfitter_cfg.c **** 			{0xDFu, 0x01u},
 520:Generated_Source\PSoC4/cyfitter_cfg.c **** 			{0x00u, 0x04u},
 521:Generated_Source\PSoC4/cyfitter_cfg.c **** 			{0x01u, 0x20u},
 522:Generated_Source\PSoC4/cyfitter_cfg.c **** 			{0x03u, 0x01u},
 523:Generated_Source\PSoC4/cyfitter_cfg.c **** 			{0x04u, 0x28u},
ARM GAS  C:\Users\HPz420\AppData\Local\Temp\ccOwvgum.s 			page 17


 524:Generated_Source\PSoC4/cyfitter_cfg.c **** 			{0x09u, 0x10u},
 525:Generated_Source\PSoC4/cyfitter_cfg.c **** 			{0x0Au, 0x42u},
 526:Generated_Source\PSoC4/cyfitter_cfg.c **** 			{0x0Cu, 0x04u},
 527:Generated_Source\PSoC4/cyfitter_cfg.c **** 			{0x0Eu, 0x24u},
 528:Generated_Source\PSoC4/cyfitter_cfg.c **** 			{0x0Fu, 0x42u},
 529:Generated_Source\PSoC4/cyfitter_cfg.c **** 			{0x10u, 0x20u},
 530:Generated_Source\PSoC4/cyfitter_cfg.c **** 			{0x12u, 0x04u},
 531:Generated_Source\PSoC4/cyfitter_cfg.c **** 			{0x17u, 0x04u},
 532:Generated_Source\PSoC4/cyfitter_cfg.c **** 			{0x19u, 0x20u},
 533:Generated_Source\PSoC4/cyfitter_cfg.c **** 			{0x1Au, 0x40u},
 534:Generated_Source\PSoC4/cyfitter_cfg.c **** 			{0x1Du, 0x80u},
 535:Generated_Source\PSoC4/cyfitter_cfg.c **** 			{0x1Eu, 0x04u},
 536:Generated_Source\PSoC4/cyfitter_cfg.c **** 			{0x1Fu, 0x04u},
 537:Generated_Source\PSoC4/cyfitter_cfg.c **** 			{0x21u, 0x02u},
 538:Generated_Source\PSoC4/cyfitter_cfg.c **** 			{0x23u, 0x04u},
 539:Generated_Source\PSoC4/cyfitter_cfg.c **** 			{0x24u, 0x08u},
 540:Generated_Source\PSoC4/cyfitter_cfg.c **** 			{0x25u, 0x08u},
 541:Generated_Source\PSoC4/cyfitter_cfg.c **** 			{0x26u, 0x01u},
 542:Generated_Source\PSoC4/cyfitter_cfg.c **** 			{0x27u, 0x28u},
 543:Generated_Source\PSoC4/cyfitter_cfg.c **** 			{0x2Au, 0x40u},
 544:Generated_Source\PSoC4/cyfitter_cfg.c **** 			{0x2Bu, 0x10u},
 545:Generated_Source\PSoC4/cyfitter_cfg.c **** 			{0x2Cu, 0x04u},
 546:Generated_Source\PSoC4/cyfitter_cfg.c **** 			{0x2Du, 0x02u},
 547:Generated_Source\PSoC4/cyfitter_cfg.c **** 			{0x2Fu, 0x22u},
 548:Generated_Source\PSoC4/cyfitter_cfg.c **** 			{0x34u, 0x40u},
 549:Generated_Source\PSoC4/cyfitter_cfg.c **** 			{0x36u, 0x0Au},
 550:Generated_Source\PSoC4/cyfitter_cfg.c **** 			{0x37u, 0x20u},
 551:Generated_Source\PSoC4/cyfitter_cfg.c **** 			{0x3Eu, 0xAAu},
 552:Generated_Source\PSoC4/cyfitter_cfg.c **** 			{0x44u, 0x40u},
 553:Generated_Source\PSoC4/cyfitter_cfg.c **** 			{0x45u, 0x82u},
 554:Generated_Source\PSoC4/cyfitter_cfg.c **** 			{0x47u, 0x08u},
 555:Generated_Source\PSoC4/cyfitter_cfg.c **** 			{0x4Du, 0x40u},
 556:Generated_Source\PSoC4/cyfitter_cfg.c **** 			{0x4Eu, 0x0Eu},
 557:Generated_Source\PSoC4/cyfitter_cfg.c **** 			{0x4Fu, 0x02u},
 558:Generated_Source\PSoC4/cyfitter_cfg.c **** 			{0x56u, 0x40u},
 559:Generated_Source\PSoC4/cyfitter_cfg.c **** 			{0x5Eu, 0x02u},
 560:Generated_Source\PSoC4/cyfitter_cfg.c **** 			{0x65u, 0x40u},
 561:Generated_Source\PSoC4/cyfitter_cfg.c **** 			{0x67u, 0x04u},
 562:Generated_Source\PSoC4/cyfitter_cfg.c **** 			{0x85u, 0x40u},
 563:Generated_Source\PSoC4/cyfitter_cfg.c **** 			{0x87u, 0x04u},
 564:Generated_Source\PSoC4/cyfitter_cfg.c **** 			{0x90u, 0x20u},
 565:Generated_Source\PSoC4/cyfitter_cfg.c **** 			{0x91u, 0x40u},
 566:Generated_Source\PSoC4/cyfitter_cfg.c **** 			{0x92u, 0x08u},
 567:Generated_Source\PSoC4/cyfitter_cfg.c **** 			{0x97u, 0x40u},
 568:Generated_Source\PSoC4/cyfitter_cfg.c **** 			{0x9Au, 0x2Eu},
 569:Generated_Source\PSoC4/cyfitter_cfg.c **** 			{0x9Bu, 0x04u},
 570:Generated_Source\PSoC4/cyfitter_cfg.c **** 			{0x9Cu, 0x04u},
 571:Generated_Source\PSoC4/cyfitter_cfg.c **** 			{0x9Du, 0x20u},
 572:Generated_Source\PSoC4/cyfitter_cfg.c **** 			{0x9Eu, 0x80u},
 573:Generated_Source\PSoC4/cyfitter_cfg.c **** 			{0x9Fu, 0x10u},
 574:Generated_Source\PSoC4/cyfitter_cfg.c **** 			{0xA1u, 0x10u},
 575:Generated_Source\PSoC4/cyfitter_cfg.c **** 			{0xA3u, 0x30u},
 576:Generated_Source\PSoC4/cyfitter_cfg.c **** 			{0xA5u, 0x0Au},
 577:Generated_Source\PSoC4/cyfitter_cfg.c **** 			{0xB2u, 0x80u},
 578:Generated_Source\PSoC4/cyfitter_cfg.c **** 			{0xC0u, 0x67u},
 579:Generated_Source\PSoC4/cyfitter_cfg.c **** 			{0xC2u, 0xFBu},
 580:Generated_Source\PSoC4/cyfitter_cfg.c **** 			{0xC4u, 0x26u},
ARM GAS  C:\Users\HPz420\AppData\Local\Temp\ccOwvgum.s 			page 18


 581:Generated_Source\PSoC4/cyfitter_cfg.c **** 			{0xCAu, 0xFAu},
 582:Generated_Source\PSoC4/cyfitter_cfg.c **** 			{0xCCu, 0xF0u},
 583:Generated_Source\PSoC4/cyfitter_cfg.c **** 			{0xCEu, 0xF0u},
 584:Generated_Source\PSoC4/cyfitter_cfg.c **** 			{0xD0u, 0xD0u},
 585:Generated_Source\PSoC4/cyfitter_cfg.c **** 			{0xD2u, 0x30u},
 586:Generated_Source\PSoC4/cyfitter_cfg.c **** 			{0xD6u, 0x80u},
 587:Generated_Source\PSoC4/cyfitter_cfg.c **** 			{0xD8u, 0x30u},
 588:Generated_Source\PSoC4/cyfitter_cfg.c **** 			{0xEAu, 0x80u},
 589:Generated_Source\PSoC4/cyfitter_cfg.c **** 			{0x00u, 0x01u},
 590:Generated_Source\PSoC4/cyfitter_cfg.c **** 			{0x02u, 0x06u},
 591:Generated_Source\PSoC4/cyfitter_cfg.c **** 			{0x04u, 0x01u},
 592:Generated_Source\PSoC4/cyfitter_cfg.c **** 			{0x05u, 0x01u},
 593:Generated_Source\PSoC4/cyfitter_cfg.c **** 			{0x06u, 0x0Eu},
 594:Generated_Source\PSoC4/cyfitter_cfg.c **** 			{0x0Bu, 0x01u},
 595:Generated_Source\PSoC4/cyfitter_cfg.c **** 			{0x0Cu, 0x0Cu},
 596:Generated_Source\PSoC4/cyfitter_cfg.c **** 			{0x0Eu, 0x03u},
 597:Generated_Source\PSoC4/cyfitter_cfg.c **** 			{0x12u, 0x0Cu},
 598:Generated_Source\PSoC4/cyfitter_cfg.c **** 			{0x17u, 0x01u},
 599:Generated_Source\PSoC4/cyfitter_cfg.c **** 			{0x1Au, 0x03u},
 600:Generated_Source\PSoC4/cyfitter_cfg.c **** 			{0x1Du, 0x01u},
 601:Generated_Source\PSoC4/cyfitter_cfg.c **** 			{0x24u, 0x10u},
 602:Generated_Source\PSoC4/cyfitter_cfg.c **** 			{0x2Au, 0x08u},
 603:Generated_Source\PSoC4/cyfitter_cfg.c **** 			{0x2Fu, 0x01u},
 604:Generated_Source\PSoC4/cyfitter_cfg.c **** 			{0x34u, 0x10u},
 605:Generated_Source\PSoC4/cyfitter_cfg.c **** 			{0x36u, 0x0Fu},
 606:Generated_Source\PSoC4/cyfitter_cfg.c **** 			{0x37u, 0x01u},
 607:Generated_Source\PSoC4/cyfitter_cfg.c **** 			{0x3Au, 0x80u},
 608:Generated_Source\PSoC4/cyfitter_cfg.c **** 			{0x3Eu, 0x10u},
 609:Generated_Source\PSoC4/cyfitter_cfg.c **** 			{0x3Fu, 0x40u},
 610:Generated_Source\PSoC4/cyfitter_cfg.c **** 			{0x40u, 0x13u},
 611:Generated_Source\PSoC4/cyfitter_cfg.c **** 			{0x41u, 0x02u},
 612:Generated_Source\PSoC4/cyfitter_cfg.c **** 			{0x45u, 0x0Eu},
 613:Generated_Source\PSoC4/cyfitter_cfg.c **** 			{0x46u, 0xB0u},
 614:Generated_Source\PSoC4/cyfitter_cfg.c **** 			{0x47u, 0x0Cu},
 615:Generated_Source\PSoC4/cyfitter_cfg.c **** 			{0x48u, 0x19u},
 616:Generated_Source\PSoC4/cyfitter_cfg.c **** 			{0x49u, 0xFFu},
 617:Generated_Source\PSoC4/cyfitter_cfg.c **** 			{0x4Au, 0xFFu},
 618:Generated_Source\PSoC4/cyfitter_cfg.c **** 			{0x4Bu, 0xFFu},
 619:Generated_Source\PSoC4/cyfitter_cfg.c **** 			{0x4Eu, 0xF0u},
 620:Generated_Source\PSoC4/cyfitter_cfg.c **** 			{0x4Fu, 0x44u},
 621:Generated_Source\PSoC4/cyfitter_cfg.c **** 			{0x50u, 0x0Cu},
 622:Generated_Source\PSoC4/cyfitter_cfg.c **** 			{0x54u, 0x01u},
 623:Generated_Source\PSoC4/cyfitter_cfg.c **** 			{0x58u, 0x04u},
 624:Generated_Source\PSoC4/cyfitter_cfg.c **** 			{0x59u, 0x04u},
 625:Generated_Source\PSoC4/cyfitter_cfg.c **** 			{0x5Au, 0x04u},
 626:Generated_Source\PSoC4/cyfitter_cfg.c **** 			{0x5Bu, 0x04u},
 627:Generated_Source\PSoC4/cyfitter_cfg.c **** 			{0x5Fu, 0x01u},
 628:Generated_Source\PSoC4/cyfitter_cfg.c **** 			{0x66u, 0xC0u},
 629:Generated_Source\PSoC4/cyfitter_cfg.c **** 			{0x6Au, 0x40u},
 630:Generated_Source\PSoC4/cyfitter_cfg.c **** 			{0x6Bu, 0x02u},
 631:Generated_Source\PSoC4/cyfitter_cfg.c **** 			{0x80u, 0x20u},
 632:Generated_Source\PSoC4/cyfitter_cfg.c **** 			{0x82u, 0x08u},
 633:Generated_Source\PSoC4/cyfitter_cfg.c **** 			{0x86u, 0x03u},
 634:Generated_Source\PSoC4/cyfitter_cfg.c **** 			{0x88u, 0x38u},
 635:Generated_Source\PSoC4/cyfitter_cfg.c **** 			{0x8Bu, 0x2Du},
 636:Generated_Source\PSoC4/cyfitter_cfg.c **** 			{0x8Cu, 0x06u},
 637:Generated_Source\PSoC4/cyfitter_cfg.c **** 			{0x8Eu, 0x01u},
ARM GAS  C:\Users\HPz420\AppData\Local\Temp\ccOwvgum.s 			page 19


 638:Generated_Source\PSoC4/cyfitter_cfg.c **** 			{0x91u, 0x03u},
 639:Generated_Source\PSoC4/cyfitter_cfg.c **** 			{0x92u, 0x06u},
 640:Generated_Source\PSoC4/cyfitter_cfg.c **** 			{0x93u, 0x08u},
 641:Generated_Source\PSoC4/cyfitter_cfg.c **** 			{0x94u, 0x08u},
 642:Generated_Source\PSoC4/cyfitter_cfg.c **** 			{0x96u, 0x30u},
 643:Generated_Source\PSoC4/cyfitter_cfg.c **** 			{0x98u, 0x10u},
 644:Generated_Source\PSoC4/cyfitter_cfg.c **** 			{0x9Au, 0x48u},
 645:Generated_Source\PSoC4/cyfitter_cfg.c **** 			{0x9Du, 0x63u},
 646:Generated_Source\PSoC4/cyfitter_cfg.c **** 			{0x9Fu, 0x1Cu},
 647:Generated_Source\PSoC4/cyfitter_cfg.c **** 			{0xA2u, 0x05u},
 648:Generated_Source\PSoC4/cyfitter_cfg.c **** 			{0xA3u, 0x10u},
 649:Generated_Source\PSoC4/cyfitter_cfg.c **** 			{0xA4u, 0x38u},
 650:Generated_Source\PSoC4/cyfitter_cfg.c **** 			{0xA5u, 0x63u},
 651:Generated_Source\PSoC4/cyfitter_cfg.c **** 			{0xA7u, 0x0Cu},
 652:Generated_Source\PSoC4/cyfitter_cfg.c **** 			{0xA9u, 0x03u},
 653:Generated_Source\PSoC4/cyfitter_cfg.c **** 			{0xAAu, 0x02u},
 654:Generated_Source\PSoC4/cyfitter_cfg.c **** 			{0xABu, 0x04u},
 655:Generated_Source\PSoC4/cyfitter_cfg.c **** 			{0xADu, 0x52u},
 656:Generated_Source\PSoC4/cyfitter_cfg.c **** 			{0xAEu, 0x01u},
 657:Generated_Source\PSoC4/cyfitter_cfg.c **** 			{0xAFu, 0x0Cu},
 658:Generated_Source\PSoC4/cyfitter_cfg.c **** 			{0xB0u, 0x40u},
 659:Generated_Source\PSoC4/cyfitter_cfg.c **** 			{0xB2u, 0x38u},
 660:Generated_Source\PSoC4/cyfitter_cfg.c **** 			{0xB3u, 0x60u},
 661:Generated_Source\PSoC4/cyfitter_cfg.c **** 			{0xB4u, 0x07u},
 662:Generated_Source\PSoC4/cyfitter_cfg.c **** 			{0xB7u, 0x1Fu},
 663:Generated_Source\PSoC4/cyfitter_cfg.c **** 			{0xB9u, 0x08u},
 664:Generated_Source\PSoC4/cyfitter_cfg.c **** 			{0xBAu, 0x20u},
 665:Generated_Source\PSoC4/cyfitter_cfg.c **** 			{0xBBu, 0x80u},
 666:Generated_Source\PSoC4/cyfitter_cfg.c **** 			{0xBFu, 0x04u},
 667:Generated_Source\PSoC4/cyfitter_cfg.c **** 			{0xD8u, 0x04u},
 668:Generated_Source\PSoC4/cyfitter_cfg.c **** 			{0xD9u, 0x04u},
 669:Generated_Source\PSoC4/cyfitter_cfg.c **** 			{0xDFu, 0x01u},
 670:Generated_Source\PSoC4/cyfitter_cfg.c **** 			{0x00u, 0x04u},
 671:Generated_Source\PSoC4/cyfitter_cfg.c **** 			{0x01u, 0x80u},
 672:Generated_Source\PSoC4/cyfitter_cfg.c **** 			{0x02u, 0x80u},
 673:Generated_Source\PSoC4/cyfitter_cfg.c **** 			{0x04u, 0x24u},
 674:Generated_Source\PSoC4/cyfitter_cfg.c **** 			{0x05u, 0x80u},
 675:Generated_Source\PSoC4/cyfitter_cfg.c **** 			{0x06u, 0x80u},
 676:Generated_Source\PSoC4/cyfitter_cfg.c **** 			{0x09u, 0x10u},
 677:Generated_Source\PSoC4/cyfitter_cfg.c **** 			{0x0Au, 0x40u},
 678:Generated_Source\PSoC4/cyfitter_cfg.c **** 			{0x0Bu, 0x80u},
 679:Generated_Source\PSoC4/cyfitter_cfg.c **** 			{0x0Cu, 0x10u},
 680:Generated_Source\PSoC4/cyfitter_cfg.c **** 			{0x0Eu, 0x60u},
 681:Generated_Source\PSoC4/cyfitter_cfg.c **** 			{0x12u, 0x24u},
 682:Generated_Source\PSoC4/cyfitter_cfg.c **** 			{0x15u, 0x80u},
 683:Generated_Source\PSoC4/cyfitter_cfg.c **** 			{0x16u, 0x04u},
 684:Generated_Source\PSoC4/cyfitter_cfg.c **** 			{0x17u, 0x05u},
 685:Generated_Source\PSoC4/cyfitter_cfg.c **** 			{0x19u, 0x80u},
 686:Generated_Source\PSoC4/cyfitter_cfg.c **** 			{0x1Au, 0x06u},
 687:Generated_Source\PSoC4/cyfitter_cfg.c **** 			{0x1Cu, 0x04u},
 688:Generated_Source\PSoC4/cyfitter_cfg.c **** 			{0x1Eu, 0x20u},
 689:Generated_Source\PSoC4/cyfitter_cfg.c **** 			{0x1Fu, 0x12u},
 690:Generated_Source\PSoC4/cyfitter_cfg.c **** 			{0x22u, 0x40u},
 691:Generated_Source\PSoC4/cyfitter_cfg.c **** 			{0x26u, 0x80u},
 692:Generated_Source\PSoC4/cyfitter_cfg.c **** 			{0x27u, 0x11u},
 693:Generated_Source\PSoC4/cyfitter_cfg.c **** 			{0x29u, 0x80u},
 694:Generated_Source\PSoC4/cyfitter_cfg.c **** 			{0x2Cu, 0x08u},
ARM GAS  C:\Users\HPz420\AppData\Local\Temp\ccOwvgum.s 			page 20


 695:Generated_Source\PSoC4/cyfitter_cfg.c **** 			{0x2Du, 0xA0u},
 696:Generated_Source\PSoC4/cyfitter_cfg.c **** 			{0x2Fu, 0x50u},
 697:Generated_Source\PSoC4/cyfitter_cfg.c **** 			{0x30u, 0x08u},
 698:Generated_Source\PSoC4/cyfitter_cfg.c **** 			{0x32u, 0x80u},
 699:Generated_Source\PSoC4/cyfitter_cfg.c **** 			{0x33u, 0x40u},
 700:Generated_Source\PSoC4/cyfitter_cfg.c **** 			{0x36u, 0x82u},
 701:Generated_Source\PSoC4/cyfitter_cfg.c **** 			{0x38u, 0x04u},
 702:Generated_Source\PSoC4/cyfitter_cfg.c **** 			{0x39u, 0x10u},
 703:Generated_Source\PSoC4/cyfitter_cfg.c **** 			{0x3Du, 0x30u},
 704:Generated_Source\PSoC4/cyfitter_cfg.c **** 			{0x3Eu, 0x10u},
 705:Generated_Source\PSoC4/cyfitter_cfg.c **** 			{0x40u, 0x04u},
 706:Generated_Source\PSoC4/cyfitter_cfg.c **** 			{0x42u, 0x10u},
 707:Generated_Source\PSoC4/cyfitter_cfg.c **** 			{0x43u, 0x40u},
 708:Generated_Source\PSoC4/cyfitter_cfg.c **** 			{0x4Au, 0x20u},
 709:Generated_Source\PSoC4/cyfitter_cfg.c **** 			{0x50u, 0x28u},
 710:Generated_Source\PSoC4/cyfitter_cfg.c **** 			{0x58u, 0x02u},
 711:Generated_Source\PSoC4/cyfitter_cfg.c **** 			{0x59u, 0x20u},
 712:Generated_Source\PSoC4/cyfitter_cfg.c **** 			{0x5Au, 0x84u},
 713:Generated_Source\PSoC4/cyfitter_cfg.c **** 			{0x90u, 0x20u},
 714:Generated_Source\PSoC4/cyfitter_cfg.c **** 			{0x92u, 0x40u},
 715:Generated_Source\PSoC4/cyfitter_cfg.c **** 			{0x94u, 0x04u},
 716:Generated_Source\PSoC4/cyfitter_cfg.c **** 			{0x96u, 0x02u},
 717:Generated_Source\PSoC4/cyfitter_cfg.c **** 			{0x98u, 0x10u},
 718:Generated_Source\PSoC4/cyfitter_cfg.c **** 			{0x9Au, 0x84u},
 719:Generated_Source\PSoC4/cyfitter_cfg.c **** 			{0x9Bu, 0x04u},
 720:Generated_Source\PSoC4/cyfitter_cfg.c **** 			{0x9Fu, 0x11u},
 721:Generated_Source\PSoC4/cyfitter_cfg.c **** 			{0xA1u, 0x10u},
 722:Generated_Source\PSoC4/cyfitter_cfg.c **** 			{0xA4u, 0x20u},
 723:Generated_Source\PSoC4/cyfitter_cfg.c **** 			{0xA6u, 0x10u},
 724:Generated_Source\PSoC4/cyfitter_cfg.c **** 			{0xA7u, 0x02u},
 725:Generated_Source\PSoC4/cyfitter_cfg.c **** 			{0xA9u, 0x02u},
 726:Generated_Source\PSoC4/cyfitter_cfg.c **** 			{0xACu, 0x10u},
 727:Generated_Source\PSoC4/cyfitter_cfg.c **** 			{0xAFu, 0x41u},
 728:Generated_Source\PSoC4/cyfitter_cfg.c **** 			{0xB2u, 0x84u},
 729:Generated_Source\PSoC4/cyfitter_cfg.c **** 			{0xC0u, 0xFDu},
 730:Generated_Source\PSoC4/cyfitter_cfg.c **** 			{0xC2u, 0x7Au},
 731:Generated_Source\PSoC4/cyfitter_cfg.c **** 			{0xC4u, 0xF6u},
 732:Generated_Source\PSoC4/cyfitter_cfg.c **** 			{0xCAu, 0xF8u},
 733:Generated_Source\PSoC4/cyfitter_cfg.c **** 			{0xCCu, 0x9Au},
 734:Generated_Source\PSoC4/cyfitter_cfg.c **** 			{0xCEu, 0x26u},
 735:Generated_Source\PSoC4/cyfitter_cfg.c **** 			{0xD0u, 0x0Eu},
 736:Generated_Source\PSoC4/cyfitter_cfg.c **** 			{0xD6u, 0x0Fu},
 737:Generated_Source\PSoC4/cyfitter_cfg.c **** 			{0xB0u, 0x02u},
 738:Generated_Source\PSoC4/cyfitter_cfg.c **** 			{0xB2u, 0x22u},
 739:Generated_Source\PSoC4/cyfitter_cfg.c **** 			{0xB5u, 0x40u},
 740:Generated_Source\PSoC4/cyfitter_cfg.c **** 			{0xB6u, 0x10u},
 741:Generated_Source\PSoC4/cyfitter_cfg.c **** 			{0xE2u, 0x80u},
 742:Generated_Source\PSoC4/cyfitter_cfg.c **** 			{0xECu, 0x20u},
 743:Generated_Source\PSoC4/cyfitter_cfg.c **** 			{0x68u, 0x01u},
 744:Generated_Source\PSoC4/cyfitter_cfg.c **** 			{0xDAu, 0x40u},
 745:Generated_Source\PSoC4/cyfitter_cfg.c **** 			{0x00u, 0x08u},
 746:Generated_Source\PSoC4/cyfitter_cfg.c **** 			{0x01u, 0x08u},
 747:Generated_Source\PSoC4/cyfitter_cfg.c **** 			{0x07u, 0x01u},
 748:Generated_Source\PSoC4/cyfitter_cfg.c **** 			{0x56u, 0x02u},
 749:Generated_Source\PSoC4/cyfitter_cfg.c **** 			{0x57u, 0x80u},
 750:Generated_Source\PSoC4/cyfitter_cfg.c **** 			{0xA3u, 0x80u},
 751:Generated_Source\PSoC4/cyfitter_cfg.c **** 			{0xA4u, 0x01u},
ARM GAS  C:\Users\HPz420\AppData\Local\Temp\ccOwvgum.s 			page 21


 752:Generated_Source\PSoC4/cyfitter_cfg.c **** 			{0xB3u, 0x80u},
 753:Generated_Source\PSoC4/cyfitter_cfg.c **** 			{0xC0u, 0x90u},
 754:Generated_Source\PSoC4/cyfitter_cfg.c **** 			{0xD4u, 0x40u},
 755:Generated_Source\PSoC4/cyfitter_cfg.c **** 			{0xD6u, 0x20u},
 756:Generated_Source\PSoC4/cyfitter_cfg.c **** 			{0x9Bu, 0x01u},
 757:Generated_Source\PSoC4/cyfitter_cfg.c **** 			{0xA4u, 0x01u},
 758:Generated_Source\PSoC4/cyfitter_cfg.c **** 			{0xA9u, 0x08u},
 759:Generated_Source\PSoC4/cyfitter_cfg.c **** 			{0xACu, 0x04u},
 760:Generated_Source\PSoC4/cyfitter_cfg.c **** 			{0xAEu, 0x02u},
 761:Generated_Source\PSoC4/cyfitter_cfg.c **** 			{0xECu, 0x60u},
 762:Generated_Source\PSoC4/cyfitter_cfg.c **** 			{0xEEu, 0x10u},
 763:Generated_Source\PSoC4/cyfitter_cfg.c **** 			{0x88u, 0x01u},
 764:Generated_Source\PSoC4/cyfitter_cfg.c **** 			{0xA4u, 0x01u},
 765:Generated_Source\PSoC4/cyfitter_cfg.c **** 			{0xB3u, 0x01u},
 766:Generated_Source\PSoC4/cyfitter_cfg.c **** 			{0x2Du, 0x08u},
 767:Generated_Source\PSoC4/cyfitter_cfg.c **** 			{0x89u, 0x08u},
 768:Generated_Source\PSoC4/cyfitter_cfg.c **** 			{0xCAu, 0x01u},
 769:Generated_Source\PSoC4/cyfitter_cfg.c **** 			{0xE2u, 0x01u},
 770:Generated_Source\PSoC4/cyfitter_cfg.c **** 			{0x10u, 0x01u},
 771:Generated_Source\PSoC4/cyfitter_cfg.c **** 			{0x11u, 0x01u},
 772:Generated_Source\PSoC4/cyfitter_cfg.c **** 			{0x12u, 0x01u},
 773:Generated_Source\PSoC4/cyfitter_cfg.c **** 		};
 774:Generated_Source\PSoC4/cyfitter_cfg.c **** 
 775:Generated_Source\PSoC4/cyfitter_cfg.c **** 
 776:Generated_Source\PSoC4/cyfitter_cfg.c **** 
 777:Generated_Source\PSoC4/cyfitter_cfg.c **** 		CYPACKED typedef struct {
 778:Generated_Source\PSoC4/cyfitter_cfg.c **** 			void CYFAR *address;
 779:Generated_Source\PSoC4/cyfitter_cfg.c **** 			uint16 size;
 780:Generated_Source\PSoC4/cyfitter_cfg.c **** 		} CYPACKED_ATTR cfg_memset_t;
 781:Generated_Source\PSoC4/cyfitter_cfg.c **** 
 782:Generated_Source\PSoC4/cyfitter_cfg.c **** 		static const cfg_memset_t CYCODE cfg_memset_list[] = {
 783:Generated_Source\PSoC4/cyfitter_cfg.c **** 			/* address, size */
 784:Generated_Source\PSoC4/cyfitter_cfg.c **** 			{(void CYFAR *)(CYDEV_UDB_P0_U0_BASE), 2048u},
 785:Generated_Source\PSoC4/cyfitter_cfg.c **** 			{(void CYFAR *)(CYDEV_UDB_DSI0_BASE), 2048u},
 786:Generated_Source\PSoC4/cyfitter_cfg.c **** 		};
 787:Generated_Source\PSoC4/cyfitter_cfg.c **** 
 788:Generated_Source\PSoC4/cyfitter_cfg.c **** 		uint8 CYDATA i;
 789:Generated_Source\PSoC4/cyfitter_cfg.c **** 
 790:Generated_Source\PSoC4/cyfitter_cfg.c **** 		/* Zero out critical memory blocks before beginning configuration */
 791:Generated_Source\PSoC4/cyfitter_cfg.c **** 		for (i = 0u; i < (sizeof(cfg_memset_list)/sizeof(cfg_memset_list[0])); i++)
 387              		.loc 1 791 0
 388 0082 FB1D     		adds	r3, r7, #7
 389 0084 0022     		movs	r2, #0
 390 0086 1A70     		strb	r2, [r3]
 391 0088 22E0     		b	.L16
 392              	.L17:
 393              	.LBB4:
 792:Generated_Source\PSoC4/cyfitter_cfg.c **** 		{
 793:Generated_Source\PSoC4/cyfitter_cfg.c **** 			const cfg_memset_t CYCODE * CYDATA ms = &cfg_memset_list[i];
 394              		.loc 1 793 0 discriminator 3
 395 008a FB1D     		adds	r3, r7, #7
 396 008c 1A78     		ldrb	r2, [r3]
 397 008e 1300     		movs	r3, r2
 398 0090 5B00     		lsls	r3, r3, #1
 399 0092 9B18     		adds	r3, r3, r2
 400 0094 5B00     		lsls	r3, r3, #1
 401 0096 3A4A     		ldr	r2, .L18+4
ARM GAS  C:\Users\HPz420\AppData\Local\Temp\ccOwvgum.s 			page 22


 402 0098 9B18     		adds	r3, r3, r2
 403 009a 3B60     		str	r3, [r7]
 794:Generated_Source\PSoC4/cyfitter_cfg.c **** 			CYMEMZERO(ms->address, (size_t)(uint32)(ms->size));
 404              		.loc 1 794 0 discriminator 3
 405 009c 3B68     		ldr	r3, [r7]
 406 009e 1A78     		ldrb	r2, [r3]
 407 00a0 5978     		ldrb	r1, [r3, #1]
 408 00a2 0902     		lsls	r1, r1, #8
 409 00a4 0A43     		orrs	r2, r1
 410 00a6 9978     		ldrb	r1, [r3, #2]
 411 00a8 0904     		lsls	r1, r1, #16
 412 00aa 0A43     		orrs	r2, r1
 413 00ac DB78     		ldrb	r3, [r3, #3]
 414 00ae 1B06     		lsls	r3, r3, #24
 415 00b0 1343     		orrs	r3, r2
 416 00b2 1800     		movs	r0, r3
 417 00b4 3B68     		ldr	r3, [r7]
 418 00b6 1A79     		ldrb	r2, [r3, #4]
 419 00b8 5B79     		ldrb	r3, [r3, #5]
 420 00ba 1B02     		lsls	r3, r3, #8
 421 00bc 1343     		orrs	r3, r2
 422 00be 9BB2     		uxth	r3, r3
 423 00c0 1900     		movs	r1, r3
 424 00c2 FFF7FEFF 		bl	CYMEMZERO
 425              	.LBE4:
 791:Generated_Source\PSoC4/cyfitter_cfg.c **** 		{
 426              		.loc 1 791 0 discriminator 3
 427 00c6 FB1D     		adds	r3, r7, #7
 428 00c8 1A78     		ldrb	r2, [r3]
 429 00ca FB1D     		adds	r3, r7, #7
 430 00cc 0132     		adds	r2, r2, #1
 431 00ce 1A70     		strb	r2, [r3]
 432              	.L16:
 791:Generated_Source\PSoC4/cyfitter_cfg.c **** 		{
 433              		.loc 1 791 0 is_stmt 0 discriminator 1
 434 00d0 FB1D     		adds	r3, r7, #7
 435 00d2 1B78     		ldrb	r3, [r3]
 436 00d4 012B     		cmp	r3, #1
 437 00d6 D8D9     		bls	.L17
 795:Generated_Source\PSoC4/cyfitter_cfg.c **** 		}
 796:Generated_Source\PSoC4/cyfitter_cfg.c **** 
 797:Generated_Source\PSoC4/cyfitter_cfg.c **** 		cfg_write_bytes32(cy_cfg_addr_table, cy_cfg_data_table);
 438              		.loc 1 797 0 is_stmt 1
 439 00d8 2A4A     		ldr	r2, .L18+8
 440 00da 2B4B     		ldr	r3, .L18+12
 441 00dc 1100     		movs	r1, r2
 442 00de 1800     		movs	r0, r3
 443 00e0 FFF7FEFF 		bl	cfg_write_bytes32
 798:Generated_Source\PSoC4/cyfitter_cfg.c **** 
 799:Generated_Source\PSoC4/cyfitter_cfg.c **** 		/* Perform normal device configuration. Order is not critical for these items. */
 800:Generated_Source\PSoC4/cyfitter_cfg.c **** 		CY_SET_REG16((void *)(CYREG_UDB_BCTL0_DRV), 0x0100u);
 444              		.loc 1 800 0
 445 00e4 294B     		ldr	r3, .L18+16
 446 00e6 8022     		movs	r2, #128
 447 00e8 5200     		lsls	r2, r2, #1
 448 00ea 1A80     		strh	r2, [r3]
 801:Generated_Source\PSoC4/cyfitter_cfg.c **** 		CY_SET_REG8((void *)(CYREG_UDB_BCTL0_DRV + 0x2u), 0x01u);
ARM GAS  C:\Users\HPz420\AppData\Local\Temp\ccOwvgum.s 			page 23


 449              		.loc 1 801 0
 450 00ec 284B     		ldr	r3, .L18+20
 451 00ee 0122     		movs	r2, #1
 452 00f0 1A70     		strb	r2, [r3]
 802:Generated_Source\PSoC4/cyfitter_cfg.c **** 
 803:Generated_Source\PSoC4/cyfitter_cfg.c **** 		/* HSIOM Starting address: CYDEV_HSIOM_BASE */
 804:Generated_Source\PSoC4/cyfitter_cfg.c **** 		CY_SET_REG32((void *)(CYREG_HSIOM_PORT_SEL1), 0x00000330u);
 453              		.loc 1 804 0
 454 00f2 284B     		ldr	r3, .L18+24
 455 00f4 CC22     		movs	r2, #204
 456 00f6 9200     		lsls	r2, r2, #2
 457 00f8 1A60     		str	r2, [r3]
 805:Generated_Source\PSoC4/cyfitter_cfg.c **** 		CY_SET_REG32((void *)(CYREG_HSIOM_PORT_SEL3), 0x0000EE00u);
 458              		.loc 1 805 0
 459 00fa 274B     		ldr	r3, .L18+28
 460 00fc EE22     		movs	r2, #238
 461 00fe 1202     		lsls	r2, r2, #8
 462 0100 1A60     		str	r2, [r3]
 806:Generated_Source\PSoC4/cyfitter_cfg.c **** 
 807:Generated_Source\PSoC4/cyfitter_cfg.c **** 		/* UDB_PA_1 Starting address: CYDEV_UDB_PA1_BASE */
 808:Generated_Source\PSoC4/cyfitter_cfg.c **** 		CY_SET_REG32((void *)(CYDEV_UDB_PA1_BASE), 0x00990004u);
 463              		.loc 1 808 0
 464 0102 264B     		ldr	r3, .L18+32
 465 0104 264A     		ldr	r2, .L18+36
 466 0106 1A60     		str	r2, [r3]
 809:Generated_Source\PSoC4/cyfitter_cfg.c **** 		CY_SET_REG32((void *)(CYREG_UDB_PA1_CFG4), 0x00020000u);
 467              		.loc 1 809 0
 468 0108 264B     		ldr	r3, .L18+40
 469 010a 8022     		movs	r2, #128
 470 010c 9202     		lsls	r2, r2, #10
 471 010e 1A60     		str	r2, [r3]
 810:Generated_Source\PSoC4/cyfitter_cfg.c **** 		CY_SET_REG32((void *)(CYREG_UDB_PA1_CFG8), 0x00340000u);
 472              		.loc 1 810 0
 473 0110 254B     		ldr	r3, .L18+44
 474 0112 D022     		movs	r2, #208
 475 0114 9203     		lsls	r2, r2, #14
 476 0116 1A60     		str	r2, [r3]
 811:Generated_Source\PSoC4/cyfitter_cfg.c **** 
 812:Generated_Source\PSoC4/cyfitter_cfg.c **** 		/* UDB_PA_7 Starting address: CYDEV_UDB_PA7_BASE */
 813:Generated_Source\PSoC4/cyfitter_cfg.c **** 		CY_SET_REG32((void *)(CYDEV_UDB_PA7_BASE), 0x00990000u);
 477              		.loc 1 813 0
 478 0118 244B     		ldr	r3, .L18+48
 479 011a 9922     		movs	r2, #153
 480 011c 1204     		lsls	r2, r2, #16
 481 011e 1A60     		str	r2, [r3]
 814:Generated_Source\PSoC4/cyfitter_cfg.c **** 
 815:Generated_Source\PSoC4/cyfitter_cfg.c **** 		/* INT_SELECT Starting address: CYDEV_CPUSS_INT_SEL */
 816:Generated_Source\PSoC4/cyfitter_cfg.c **** 		CY_SET_REG32((void *)(CYREG_CPUSS_INT_SEL), 0x00000001u);
 482              		.loc 1 816 0
 483 0120 234B     		ldr	r3, .L18+52
 484 0122 0122     		movs	r2, #1
 485 0124 1A60     		str	r2, [r3]
 817:Generated_Source\PSoC4/cyfitter_cfg.c **** 
 818:Generated_Source\PSoC4/cyfitter_cfg.c **** 		/* Enable UDB array and digital routing */
 819:Generated_Source\PSoC4/cyfitter_cfg.c **** 		CY_SET_XTND_REG8((void *)CYREG_UDB_UDB_WAIT_CFG, (uint8)((CY_GET_XTND_REG8((void *)CYREG_UDB_UDB_
 486              		.loc 1 819 0
 487 0126 234A     		ldr	r2, .L18+56
ARM GAS  C:\Users\HPz420\AppData\Local\Temp\ccOwvgum.s 			page 24


 488 0128 224B     		ldr	r3, .L18+56
 489 012a 1B78     		ldrb	r3, [r3]
 490 012c DBB2     		uxtb	r3, r3
 491 012e 3C21     		movs	r1, #60
 492 0130 8B43     		bics	r3, r1
 493 0132 DBB2     		uxtb	r3, r3
 494 0134 1421     		movs	r1, #20
 495 0136 0B43     		orrs	r3, r1
 496 0138 DBB2     		uxtb	r3, r3
 497 013a 1370     		strb	r3, [r2]
 820:Generated_Source\PSoC4/cyfitter_cfg.c **** 		CY_SET_XTND_REG8((void *)CYREG_UDB_UDB_BANK_CTL, (uint8)(CY_GET_XTND_REG8((void *)CYREG_UDB_UDB_B
 498              		.loc 1 820 0
 499 013c 1E4A     		ldr	r2, .L18+60
 500 013e 1E4B     		ldr	r3, .L18+60
 501 0140 1B78     		ldrb	r3, [r3]
 502 0142 DBB2     		uxtb	r3, r3
 503 0144 1621     		movs	r1, #22
 504 0146 0B43     		orrs	r3, r1
 505 0148 DBB2     		uxtb	r3, r3
 506 014a 1370     		strb	r3, [r2]
 507              	.LBE3:
 821:Generated_Source\PSoC4/cyfitter_cfg.c **** 	}
 822:Generated_Source\PSoC4/cyfitter_cfg.c **** 
 823:Generated_Source\PSoC4/cyfitter_cfg.c **** 	/* Perform second pass device configuration. These items must be configured in specific order afte
 824:Generated_Source\PSoC4/cyfitter_cfg.c **** 	/* IOPINS0_13 Starting address: CYDEV_GPIO_PRT13_BASE */
 825:Generated_Source\PSoC4/cyfitter_cfg.c **** 	CY_SET_REG32((void *)(CYDEV_GPIO_PRT13_BASE), 0x00000003u);
 508              		.loc 1 825 0
 509 014c 1B4B     		ldr	r3, .L18+64
 510 014e 0322     		movs	r2, #3
 511 0150 1A60     		str	r2, [r3]
 826:Generated_Source\PSoC4/cyfitter_cfg.c **** 	CY_SET_REG32((void *)(CYREG_GPIO_PRT13_INTR_CFG), 0x00000002u);
 512              		.loc 1 826 0
 513 0152 1B4B     		ldr	r3, .L18+68
 514 0154 0222     		movs	r2, #2
 515 0156 1A60     		str	r2, [r3]
 827:Generated_Source\PSoC4/cyfitter_cfg.c **** 
 828:Generated_Source\PSoC4/cyfitter_cfg.c **** 	/* IOPINS0_1 Starting address: CYDEV_GPIO_PRT1_BASE */
 829:Generated_Source\PSoC4/cyfitter_cfg.c **** 	CY_SET_REG32((void *)(CYDEV_GPIO_PRT1_BASE), 0x00000006u);
 516              		.loc 1 829 0
 517 0158 1A4B     		ldr	r3, .L18+72
 518 015a 0622     		movs	r2, #6
 519 015c 1A60     		str	r2, [r3]
 830:Generated_Source\PSoC4/cyfitter_cfg.c **** 	CY_SET_REG32((void *)(CYREG_GPIO_PRT1_PC), 0x000003B1u);
 520              		.loc 1 830 0
 521 015e 1A4B     		ldr	r3, .L18+76
 522 0160 1A4A     		ldr	r2, .L18+80
 523 0162 1A60     		str	r2, [r3]
 831:Generated_Source\PSoC4/cyfitter_cfg.c **** 
 832:Generated_Source\PSoC4/cyfitter_cfg.c **** 	/* IOPINS0_3 Starting address: CYDEV_GPIO_PRT3_BASE */
 833:Generated_Source\PSoC4/cyfitter_cfg.c **** 	CY_SET_REG32((void *)(CYREG_GPIO_PRT3_PC), 0x00000D80u);
 524              		.loc 1 833 0
 525 0164 1A4B     		ldr	r3, .L18+84
 526 0166 D822     		movs	r2, #216
 527 0168 1201     		lsls	r2, r2, #4
 528 016a 1A60     		str	r2, [r3]
 834:Generated_Source\PSoC4/cyfitter_cfg.c **** 
 835:Generated_Source\PSoC4/cyfitter_cfg.c **** 
ARM GAS  C:\Users\HPz420\AppData\Local\Temp\ccOwvgum.s 			page 25


 836:Generated_Source\PSoC4/cyfitter_cfg.c **** 	/* Setup clocks based on selections from Clock DWR */
 837:Generated_Source\PSoC4/cyfitter_cfg.c **** 	ClockSetup();
 529              		.loc 1 837 0
 530 016c FFF748FF 		bl	ClockSetup
 838:Generated_Source\PSoC4/cyfitter_cfg.c **** 
 839:Generated_Source\PSoC4/cyfitter_cfg.c **** 	/* Perform basic analog initialization to defaults */
 840:Generated_Source\PSoC4/cyfitter_cfg.c **** 	AnalogSetDefault();
 531              		.loc 1 840 0
 532 0170 FFF7FEFF 		bl	AnalogSetDefault
 841:Generated_Source\PSoC4/cyfitter_cfg.c **** 
 842:Generated_Source\PSoC4/cyfitter_cfg.c **** }
 533              		.loc 1 842 0
 534 0174 C046     		nop
 535 0176 BD46     		mov	sp, r7
 536 0178 02B0     		add	sp, sp, #8
 537              		@ sp needed
 538 017a 80BD     		pop	{r7, pc}
 539              	.L19:
 540              		.align	2
 541              	.L18:
 542 017c 1C700F40 		.word	1074753564
 543 0180 00000000 		.word	cfg_memset_list.4971
 544 0184 44000000 		.word	cy_cfg_data_table.4966
 545 0188 0C000000 		.word	cy_cfg_addr_table.4965
 546 018c 00600F40 		.word	1074749440
 547 0190 02600F40 		.word	1074749442
 548 0194 00010240 		.word	1073873152
 549 0198 00030240 		.word	1073873664
 550 019c 10500F40 		.word	1074745360
 551 01a0 04009900 		.word	10027012
 552 01a4 14500F40 		.word	1074745364
 553 01a8 18500F40 		.word	1074745368
 554 01ac 70500F40 		.word	1074745456
 555 01b0 20001040 		.word	1074790432
 556 01b4 01700F40 		.word	1074753537
 557 01b8 00700F40 		.word	1074753536
 558 01bc 000D0440 		.word	1074007296
 559 01c0 0C0D0440 		.word	1074007308
 560 01c4 00010440 		.word	1074004224
 561 01c8 08010440 		.word	1074004232
 562 01cc B1030000 		.word	945
 563 01d0 08030440 		.word	1074004744
 564              		.cfi_endproc
 565              	.LFE7:
 566              		.size	cyfitter_cfg, .-cyfitter_cfg
 567              		.section	.rodata
 568              		.align	2
 569              		.type	cfg_memset_list.4971, %object
 570              		.size	cfg_memset_list.4971, 12
 571              	cfg_memset_list.4971:
 572 0000 00300F40 		.word	1074737152
 573 0004 0008     		.short	2048
 574 0006 00400F40 		.4byte	1074741248
 575 000a 0008     		.short	2048
 576              		.align	2
 577              		.type	cy_cfg_addr_table.4965, %object
 578              		.size	cy_cfg_addr_table.4965, 56
ARM GAS  C:\Users\HPz420\AppData\Local\Temp\ccOwvgum.s 			page 26


 579              	cy_cfg_addr_table.4965:
 580 000c 03000F40 		.word	1074724867
 581 0010 47300F40 		.word	1074737223
 582 0014 33310F40 		.word	1074737459
 583 0018 54320F40 		.word	1074737748
 584 001c 45330F40 		.word	1074737989
 585 0020 51340F40 		.word	1074738257
 586 0024 43350F40 		.word	1074738499
 587 0028 06370F40 		.word	1074738950
 588 002c 02400F40 		.word	1074741250
 589 0030 0B410F40 		.word	1074741515
 590 0034 07420F40 		.word	1074741767
 591 0038 03430F40 		.word	1074742019
 592 003c 04470F40 		.word	1074743044
 593 0040 03600F40 		.word	1074749443
 594              		.align	2
 595              		.type	cy_cfg_data_table.4966, %object
 596              		.size	cy_cfg_data_table.4966, 924
 597              	cy_cfg_data_table.4966:
 598 0044 81       		.byte	-127
 599 0045 72       		.byte	114
 600 0046 82       		.byte	-126
 601 0047 38       		.byte	56
 602 0048 84       		.byte	-124
 603 0049 0F       		.byte	15
 604 004a 06       		.byte	6
 605 004b 01       		.byte	1
 606 004c 0C       		.byte	12
 607 004d 01       		.byte	1
 608 004e 0D       		.byte	13
 609 004f 01       		.byte	1
 610 0050 10       		.byte	16
 611 0051 01       		.byte	1
 612 0052 11       		.byte	17
 613 0053 01       		.byte	1
 614 0054 15       		.byte	21
 615 0055 01       		.byte	1
 616 0056 16       		.byte	22
 617 0057 01       		.byte	1
 618 0058 19       		.byte	25
 619 0059 01       		.byte	1
 620 005a 34       		.byte	52
 621 005b 01       		.byte	1
 622 005c 37       		.byte	55
 623 005d 01       		.byte	1
 624 005e 38       		.byte	56
 625 005f 20       		.byte	32
 626 0060 3F       		.byte	63
 627 0061 40       		.byte	64
 628 0062 58       		.byte	88
 629 0063 04       		.byte	4
 630 0064 59       		.byte	89
 631 0065 04       		.byte	4
 632 0066 5F       		.byte	95
 633 0067 01       		.byte	1
 634 0068 80       		.byte	-128
 635 0069 01       		.byte	1
ARM GAS  C:\Users\HPz420\AppData\Local\Temp\ccOwvgum.s 			page 27


 636 006a 81       		.byte	-127
 637 006b 08       		.byte	8
 638 006c 84       		.byte	-124
 639 006d 0C       		.byte	12
 640 006e 85       		.byte	-123
 641 006f 04       		.byte	4
 642 0070 88       		.byte	-120
 643 0071 01       		.byte	1
 644 0072 89       		.byte	-119
 645 0073 0C       		.byte	12
 646 0074 8C       		.byte	-116
 647 0075 08       		.byte	8
 648 0076 8D       		.byte	-115
 649 0077 01       		.byte	1
 650 0078 90       		.byte	-112
 651 0079 0E       		.byte	14
 652 007a 91       		.byte	-111
 653 007b 0F       		.byte	15
 654 007c 94       		.byte	-108
 655 007d 0C       		.byte	12
 656 007e 95       		.byte	-107
 657 007f 0C       		.byte	12
 658 0080 96       		.byte	-106
 659 0081 02       		.byte	2
 660 0082 97       		.byte	-105
 661 0083 03       		.byte	3
 662 0084 98       		.byte	-104
 663 0085 0C       		.byte	12
 664 0086 99       		.byte	-103
 665 0087 10       		.byte	16
 666 0088 9A       		.byte	-102
 667 0089 02       		.byte	2
 668 008a 9D       		.byte	-99
 669 008b 03       		.byte	3
 670 008c 9F       		.byte	-97
 671 008d 0C       		.byte	12
 672 008e A2       		.byte	-94
 673 008f 02       		.byte	2
 674 0090 A3       		.byte	-93
 675 0091 03       		.byte	3
 676 0092 A4       		.byte	-92
 677 0093 01       		.byte	1
 678 0094 A5       		.byte	-91
 679 0095 0F       		.byte	15
 680 0096 A8       		.byte	-88
 681 0097 04       		.byte	4
 682 0098 A9       		.byte	-87
 683 0099 03       		.byte	3
 684 009a AC       		.byte	-84
 685 009b 02       		.byte	2
 686 009c AD       		.byte	-83
 687 009d 02       		.byte	2
 688 009e AE       		.byte	-82
 689 009f 0C       		.byte	12
 690 00a0 B1       		.byte	-79
 691 00a1 0F       		.byte	15
 692 00a2 B2       		.byte	-78
ARM GAS  C:\Users\HPz420\AppData\Local\Temp\ccOwvgum.s 			page 28


 693 00a3 01       		.byte	1
 694 00a4 B4       		.byte	-76
 695 00a5 0E       		.byte	14
 696 00a6 B7       		.byte	-73
 697 00a7 10       		.byte	16
 698 00a8 BA       		.byte	-70
 699 00a9 20       		.byte	32
 700 00aa BB       		.byte	-69
 701 00ab 02       		.byte	2
 702 00ac BF       		.byte	-65
 703 00ad 40       		.byte	64
 704 00ae C0       		.byte	-64
 705 00af 02       		.byte	2
 706 00b0 C7       		.byte	-57
 707 00b1 04       		.byte	4
 708 00b2 C9       		.byte	-55
 709 00b3 FF       		.byte	-1
 710 00b4 CA       		.byte	-54
 711 00b5 07       		.byte	7
 712 00b6 CB       		.byte	-53
 713 00b7 FF       		.byte	-1
 714 00b8 CC       		.byte	-52
 715 00b9 40       		.byte	64
 716 00ba CD       		.byte	-51
 717 00bb 20       		.byte	32
 718 00bc CE       		.byte	-50
 719 00bd F0       		.byte	-16
 720 00be CF       		.byte	-49
 721 00bf 05       		.byte	5
 722 00c0 D0       		.byte	-48
 723 00c1 08       		.byte	8
 724 00c2 D6       		.byte	-42
 725 00c3 02       		.byte	2
 726 00c4 D7       		.byte	-41
 727 00c5 13       		.byte	19
 728 00c6 D8       		.byte	-40
 729 00c7 04       		.byte	4
 730 00c8 D9       		.byte	-39
 731 00c9 04       		.byte	4
 732 00ca DA       		.byte	-38
 733 00cb 04       		.byte	4
 734 00cc DB       		.byte	-37
 735 00cd 04       		.byte	4
 736 00ce DF       		.byte	-33
 737 00cf 01       		.byte	1
 738 00d0 E0       		.byte	-32
 739 00d1 40       		.byte	64
 740 00d2 E1       		.byte	-31
 741 00d3 A8       		.byte	-88
 742 00d4 E2       		.byte	-30
 743 00d5 40       		.byte	64
 744 00d6 E3       		.byte	-29
 745 00d7 20       		.byte	32
 746 00d8 00       		.byte	0
 747 00d9 40       		.byte	64
 748 00da 03       		.byte	3
 749 00db 20       		.byte	32
ARM GAS  C:\Users\HPz420\AppData\Local\Temp\ccOwvgum.s 			page 29


 750 00dc 04       		.byte	4
 751 00dd 22       		.byte	34
 752 00de 06       		.byte	6
 753 00df 22       		.byte	34
 754 00e0 09       		.byte	9
 755 00e1 0A       		.byte	10
 756 00e2 0A       		.byte	10
 757 00e3 08       		.byte	8
 758 00e4 0B       		.byte	11
 759 00e5 08       		.byte	8
 760 00e6 0D       		.byte	13
 761 00e7 0A       		.byte	10
 762 00e8 0E       		.byte	14
 763 00e9 08       		.byte	8
 764 00ea 14       		.byte	20
 765 00eb 40       		.byte	64
 766 00ec 15       		.byte	21
 767 00ed 40       		.byte	64
 768 00ee 16       		.byte	22
 769 00ef 08       		.byte	8
 770 00f0 17       		.byte	23
 771 00f1 04       		.byte	4
 772 00f2 1B       		.byte	27
 773 00f3 10       		.byte	16
 774 00f4 1D       		.byte	29
 775 00f5 10       		.byte	16
 776 00f6 1E       		.byte	30
 777 00f7 08       		.byte	8
 778 00f8 1F       		.byte	31
 779 00f9 24       		.byte	36
 780 00fa 23       		.byte	35
 781 00fb 01       		.byte	1
 782 00fc 24       		.byte	36
 783 00fd 40       		.byte	64
 784 00fe 26       		.byte	38
 785 00ff 80       		.byte	-128
 786 0100 27       		.byte	39
 787 0101 40       		.byte	64
 788 0102 2C       		.byte	44
 789 0103 44       		.byte	68
 790 0104 2E       		.byte	46
 791 0105 80       		.byte	-128
 792 0106 2F       		.byte	47
 793 0107 20       		.byte	32
 794 0108 31       		.byte	49
 795 0109 1A       		.byte	26
 796 010a 32       		.byte	50
 797 010b 08       		.byte	8
 798 010c 33       		.byte	51
 799 010d 01       		.byte	1
 800 010e 35       		.byte	53
 801 010f 20       		.byte	32
 802 0110 36       		.byte	54
 803 0111 08       		.byte	8
 804 0112 37       		.byte	55
 805 0113 41       		.byte	65
 806 0114 38       		.byte	56
ARM GAS  C:\Users\HPz420\AppData\Local\Temp\ccOwvgum.s 			page 30


 807 0115 40       		.byte	64
 808 0116 39       		.byte	57
 809 0117 40       		.byte	64
 810 0118 3E       		.byte	62
 811 0119 2A       		.byte	42
 812 011a 3F       		.byte	63
 813 011b 40       		.byte	64
 814 011c 47       		.byte	71
 815 011d 10       		.byte	16
 816 011e 55       		.byte	85
 817 011f 10       		.byte	16
 818 0120 56       		.byte	86
 819 0121 04       		.byte	4
 820 0122 5F       		.byte	95
 821 0123 01       		.byte	1
 822 0124 6C       		.byte	108
 823 0125 11       		.byte	17
 824 0126 6F       		.byte	111
 825 0127 04       		.byte	4
 826 0128 76       		.byte	118
 827 0129 2A       		.byte	42
 828 012a 84       		.byte	-124
 829 012b 40       		.byte	64
 830 012c 86       		.byte	-122
 831 012d 04       		.byte	4
 832 012e C0       		.byte	-64
 833 012f F5       		.byte	-11
 834 0130 C2       		.byte	-62
 835 0131 7C       		.byte	124
 836 0132 C4       		.byte	-60
 837 0133 F0       		.byte	-16
 838 0134 CA       		.byte	-54
 839 0135 F0       		.byte	-16
 840 0136 CC       		.byte	-52
 841 0137 F7       		.byte	-9
 842 0138 CE       		.byte	-50
 843 0139 F8       		.byte	-8
 844 013a D0       		.byte	-48
 845 013b 20       		.byte	32
 846 013c D6       		.byte	-42
 847 013d 80       		.byte	-128
 848 013e 01       		.byte	1
 849 013f 10       		.byte	16
 850 0140 05       		.byte	5
 851 0141 08       		.byte	8
 852 0142 06       		.byte	6
 853 0143 10       		.byte	16
 854 0144 08       		.byte	8
 855 0145 03       		.byte	3
 856 0146 09       		.byte	9
 857 0147 18       		.byte	24
 858 0148 0D       		.byte	13
 859 0149 40       		.byte	64
 860 014a 10       		.byte	16
 861 014b 01       		.byte	1
 862 014c 11       		.byte	17
 863 014d E7       		.byte	-25
ARM GAS  C:\Users\HPz420\AppData\Local\Temp\ccOwvgum.s 			page 31


 864 014e 12       		.byte	18
 865 014f 0A       		.byte	10
 866 0150 13       		.byte	19
 867 0151 18       		.byte	24
 868 0152 16       		.byte	22
 869 0153 04       		.byte	4
 870 0154 17       		.byte	23
 871 0155 E3       		.byte	-29
 872 0156 18       		.byte	24
 873 0157 02       		.byte	2
 874 0158 19       		.byte	25
 875 0159 9C       		.byte	-100
 876 015a 1A       		.byte	26
 877 015b 09       		.byte	9
 878 015c 1B       		.byte	27
 879 015d 62       		.byte	98
 880 015e 1D       		.byte	29
 881 015f FF       		.byte	-1
 882 0160 1E       		.byte	30
 883 0161 10       		.byte	16
 884 0162 21       		.byte	33
 885 0163 24       		.byte	36
 886 0164 24       		.byte	36
 887 0165 03       		.byte	3
 888 0166 25       		.byte	37
 889 0167 1C       		.byte	28
 890 0168 27       		.byte	39
 891 0169 E1       		.byte	-31
 892 016a 29       		.byte	41
 893 016b 60       		.byte	96
 894 016c 2F       		.byte	47
 895 016d 04       		.byte	4
 896 016e 31       		.byte	49
 897 016f 60       		.byte	96
 898 0170 32       		.byte	50
 899 0171 10       		.byte	16
 900 0172 33       		.byte	51
 901 0173 1F       		.byte	31
 902 0174 34       		.byte	52
 903 0175 03       		.byte	3
 904 0176 35       		.byte	53
 905 0177 98       		.byte	-104
 906 0178 36       		.byte	54
 907 0179 0C       		.byte	12
 908 017a 3B       		.byte	59
 909 017b 08       		.byte	8
 910 017c 3E       		.byte	62
 911 017d 44       		.byte	68
 912 017e 40       		.byte	64
 913 017f 56       		.byte	86
 914 0180 41       		.byte	65
 915 0181 04       		.byte	4
 916 0182 42       		.byte	66
 917 0183 03       		.byte	3
 918 0184 44       		.byte	68
 919 0185 01       		.byte	1
 920 0186 45       		.byte	69
ARM GAS  C:\Users\HPz420\AppData\Local\Temp\ccOwvgum.s 			page 32


 921 0187 C0       		.byte	-64
 922 0188 46       		.byte	70
 923 0189 0E       		.byte	14
 924 018a 48       		.byte	72
 925 018b 06       		.byte	6
 926 018c 49       		.byte	73
 927 018d FF       		.byte	-1
 928 018e 4A       		.byte	74
 929 018f FF       		.byte	-1
 930 0190 4B       		.byte	75
 931 0191 FF       		.byte	-1
 932 0192 4C       		.byte	76
 933 0193 62       		.byte	98
 934 0194 4D       		.byte	77
 935 0195 A0       		.byte	-96
 936 0196 4E       		.byte	78
 937 0197 F0       		.byte	-16
 938 0198 4F       		.byte	79
 939 0199 41       		.byte	65
 940 019a 50       		.byte	80
 941 019b 0C       		.byte	12
 942 019c 54       		.byte	84
 943 019d 18       		.byte	24
 944 019e 58       		.byte	88
 945 019f 04       		.byte	4
 946 01a0 59       		.byte	89
 947 01a1 04       		.byte	4
 948 01a2 5A       		.byte	90
 949 01a3 04       		.byte	4
 950 01a4 5B       		.byte	91
 951 01a5 04       		.byte	4
 952 01a6 5F       		.byte	95
 953 01a7 01       		.byte	1
 954 01a8 66       		.byte	102
 955 01a9 40       		.byte	64
 956 01aa 67       		.byte	103
 957 01ab 02       		.byte	2
 958 01ac 69       		.byte	105
 959 01ad 10       		.byte	16
 960 01ae 6A       		.byte	106
 961 01af 30       		.byte	48
 962 01b0 6B       		.byte	107
 963 01b1 10       		.byte	16
 964 01b2 6D       		.byte	109
 965 01b3 10       		.byte	16
 966 01b4 6E       		.byte	110
 967 01b5 10       		.byte	16
 968 01b6 6F       		.byte	111
 969 01b7 12       		.byte	18
 970 01b8 84       		.byte	-124
 971 01b9 2C       		.byte	44
 972 01ba 86       		.byte	-122
 973 01bb 11       		.byte	17
 974 01bc 8A       		.byte	-118
 975 01bd 03       		.byte	3
 976 01be 8C       		.byte	-116
 977 01bf 30       		.byte	48
ARM GAS  C:\Users\HPz420\AppData\Local\Temp\ccOwvgum.s 			page 33


 978 01c0 8E       		.byte	-114
 979 01c1 0C       		.byte	12
 980 01c2 90       		.byte	-112
 981 01c3 09       		.byte	9
 982 01c4 92       		.byte	-110
 983 01c5 10       		.byte	16
 984 01c6 98       		.byte	-104
 985 01c7 40       		.byte	64
 986 01c8 9C       		.byte	-100
 987 01c9 1C       		.byte	28
 988 01ca 9E       		.byte	-98
 989 01cb 22       		.byte	34
 990 01cc A4       		.byte	-92
 991 01cd 14       		.byte	20
 992 01ce A7       		.byte	-89
 993 01cf 01       		.byte	1
 994 01d0 A8       		.byte	-88
 995 01d1 10       		.byte	16
 996 01d2 AF       		.byte	-81
 997 01d3 01       		.byte	1
 998 01d4 B0       		.byte	-80
 999 01d5 60       		.byte	96
 1000 01d6 B4       		.byte	-76
 1001 01d7 1F       		.byte	31
 1002 01d8 B5       		.byte	-75
 1003 01d9 01       		.byte	1
 1004 01da B8       		.byte	-72
 1005 01db 02       		.byte	2
 1006 01dc BB       		.byte	-69
 1007 01dd 02       		.byte	2
 1008 01de BF       		.byte	-65
 1009 01df 10       		.byte	16
 1010 01e0 D8       		.byte	-40
 1011 01e1 04       		.byte	4
 1012 01e2 D9       		.byte	-39
 1013 01e3 04       		.byte	4
 1014 01e4 DF       		.byte	-33
 1015 01e5 01       		.byte	1
 1016 01e6 00       		.byte	0
 1017 01e7 04       		.byte	4
 1018 01e8 01       		.byte	1
 1019 01e9 20       		.byte	32
 1020 01ea 03       		.byte	3
 1021 01eb 01       		.byte	1
 1022 01ec 04       		.byte	4
 1023 01ed 28       		.byte	40
 1024 01ee 09       		.byte	9
 1025 01ef 10       		.byte	16
 1026 01f0 0A       		.byte	10
 1027 01f1 42       		.byte	66
 1028 01f2 0C       		.byte	12
 1029 01f3 04       		.byte	4
 1030 01f4 0E       		.byte	14
 1031 01f5 24       		.byte	36
 1032 01f6 0F       		.byte	15
 1033 01f7 42       		.byte	66
 1034 01f8 10       		.byte	16
ARM GAS  C:\Users\HPz420\AppData\Local\Temp\ccOwvgum.s 			page 34


 1035 01f9 20       		.byte	32
 1036 01fa 12       		.byte	18
 1037 01fb 04       		.byte	4
 1038 01fc 17       		.byte	23
 1039 01fd 04       		.byte	4
 1040 01fe 19       		.byte	25
 1041 01ff 20       		.byte	32
 1042 0200 1A       		.byte	26
 1043 0201 40       		.byte	64
 1044 0202 1D       		.byte	29
 1045 0203 80       		.byte	-128
 1046 0204 1E       		.byte	30
 1047 0205 04       		.byte	4
 1048 0206 1F       		.byte	31
 1049 0207 04       		.byte	4
 1050 0208 21       		.byte	33
 1051 0209 02       		.byte	2
 1052 020a 23       		.byte	35
 1053 020b 04       		.byte	4
 1054 020c 24       		.byte	36
 1055 020d 08       		.byte	8
 1056 020e 25       		.byte	37
 1057 020f 08       		.byte	8
 1058 0210 26       		.byte	38
 1059 0211 01       		.byte	1
 1060 0212 27       		.byte	39
 1061 0213 28       		.byte	40
 1062 0214 2A       		.byte	42
 1063 0215 40       		.byte	64
 1064 0216 2B       		.byte	43
 1065 0217 10       		.byte	16
 1066 0218 2C       		.byte	44
 1067 0219 04       		.byte	4
 1068 021a 2D       		.byte	45
 1069 021b 02       		.byte	2
 1070 021c 2F       		.byte	47
 1071 021d 22       		.byte	34
 1072 021e 34       		.byte	52
 1073 021f 40       		.byte	64
 1074 0220 36       		.byte	54
 1075 0221 0A       		.byte	10
 1076 0222 37       		.byte	55
 1077 0223 20       		.byte	32
 1078 0224 3E       		.byte	62
 1079 0225 AA       		.byte	-86
 1080 0226 44       		.byte	68
 1081 0227 40       		.byte	64
 1082 0228 45       		.byte	69
 1083 0229 82       		.byte	-126
 1084 022a 47       		.byte	71
 1085 022b 08       		.byte	8
 1086 022c 4D       		.byte	77
 1087 022d 40       		.byte	64
 1088 022e 4E       		.byte	78
 1089 022f 0E       		.byte	14
 1090 0230 4F       		.byte	79
 1091 0231 02       		.byte	2
ARM GAS  C:\Users\HPz420\AppData\Local\Temp\ccOwvgum.s 			page 35


 1092 0232 56       		.byte	86
 1093 0233 40       		.byte	64
 1094 0234 5E       		.byte	94
 1095 0235 02       		.byte	2
 1096 0236 65       		.byte	101
 1097 0237 40       		.byte	64
 1098 0238 67       		.byte	103
 1099 0239 04       		.byte	4
 1100 023a 85       		.byte	-123
 1101 023b 40       		.byte	64
 1102 023c 87       		.byte	-121
 1103 023d 04       		.byte	4
 1104 023e 90       		.byte	-112
 1105 023f 20       		.byte	32
 1106 0240 91       		.byte	-111
 1107 0241 40       		.byte	64
 1108 0242 92       		.byte	-110
 1109 0243 08       		.byte	8
 1110 0244 97       		.byte	-105
 1111 0245 40       		.byte	64
 1112 0246 9A       		.byte	-102
 1113 0247 2E       		.byte	46
 1114 0248 9B       		.byte	-101
 1115 0249 04       		.byte	4
 1116 024a 9C       		.byte	-100
 1117 024b 04       		.byte	4
 1118 024c 9D       		.byte	-99
 1119 024d 20       		.byte	32
 1120 024e 9E       		.byte	-98
 1121 024f 80       		.byte	-128
 1122 0250 9F       		.byte	-97
 1123 0251 10       		.byte	16
 1124 0252 A1       		.byte	-95
 1125 0253 10       		.byte	16
 1126 0254 A3       		.byte	-93
 1127 0255 30       		.byte	48
 1128 0256 A5       		.byte	-91
 1129 0257 0A       		.byte	10
 1130 0258 B2       		.byte	-78
 1131 0259 80       		.byte	-128
 1132 025a C0       		.byte	-64
 1133 025b 67       		.byte	103
 1134 025c C2       		.byte	-62
 1135 025d FB       		.byte	-5
 1136 025e C4       		.byte	-60
 1137 025f 26       		.byte	38
 1138 0260 CA       		.byte	-54
 1139 0261 FA       		.byte	-6
 1140 0262 CC       		.byte	-52
 1141 0263 F0       		.byte	-16
 1142 0264 CE       		.byte	-50
 1143 0265 F0       		.byte	-16
 1144 0266 D0       		.byte	-48
 1145 0267 D0       		.byte	-48
 1146 0268 D2       		.byte	-46
 1147 0269 30       		.byte	48
 1148 026a D6       		.byte	-42
ARM GAS  C:\Users\HPz420\AppData\Local\Temp\ccOwvgum.s 			page 36


 1149 026b 80       		.byte	-128
 1150 026c D8       		.byte	-40
 1151 026d 30       		.byte	48
 1152 026e EA       		.byte	-22
 1153 026f 80       		.byte	-128
 1154 0270 00       		.byte	0
 1155 0271 01       		.byte	1
 1156 0272 02       		.byte	2
 1157 0273 06       		.byte	6
 1158 0274 04       		.byte	4
 1159 0275 01       		.byte	1
 1160 0276 05       		.byte	5
 1161 0277 01       		.byte	1
 1162 0278 06       		.byte	6
 1163 0279 0E       		.byte	14
 1164 027a 0B       		.byte	11
 1165 027b 01       		.byte	1
 1166 027c 0C       		.byte	12
 1167 027d 0C       		.byte	12
 1168 027e 0E       		.byte	14
 1169 027f 03       		.byte	3
 1170 0280 12       		.byte	18
 1171 0281 0C       		.byte	12
 1172 0282 17       		.byte	23
 1173 0283 01       		.byte	1
 1174 0284 1A       		.byte	26
 1175 0285 03       		.byte	3
 1176 0286 1D       		.byte	29
 1177 0287 01       		.byte	1
 1178 0288 24       		.byte	36
 1179 0289 10       		.byte	16
 1180 028a 2A       		.byte	42
 1181 028b 08       		.byte	8
 1182 028c 2F       		.byte	47
 1183 028d 01       		.byte	1
 1184 028e 34       		.byte	52
 1185 028f 10       		.byte	16
 1186 0290 36       		.byte	54
 1187 0291 0F       		.byte	15
 1188 0292 37       		.byte	55
 1189 0293 01       		.byte	1
 1190 0294 3A       		.byte	58
 1191 0295 80       		.byte	-128
 1192 0296 3E       		.byte	62
 1193 0297 10       		.byte	16
 1194 0298 3F       		.byte	63
 1195 0299 40       		.byte	64
 1196 029a 40       		.byte	64
 1197 029b 13       		.byte	19
 1198 029c 41       		.byte	65
 1199 029d 02       		.byte	2
 1200 029e 45       		.byte	69
 1201 029f 0E       		.byte	14
 1202 02a0 46       		.byte	70
 1203 02a1 B0       		.byte	-80
 1204 02a2 47       		.byte	71
 1205 02a3 0C       		.byte	12
ARM GAS  C:\Users\HPz420\AppData\Local\Temp\ccOwvgum.s 			page 37


 1206 02a4 48       		.byte	72
 1207 02a5 19       		.byte	25
 1208 02a6 49       		.byte	73
 1209 02a7 FF       		.byte	-1
 1210 02a8 4A       		.byte	74
 1211 02a9 FF       		.byte	-1
 1212 02aa 4B       		.byte	75
 1213 02ab FF       		.byte	-1
 1214 02ac 4E       		.byte	78
 1215 02ad F0       		.byte	-16
 1216 02ae 4F       		.byte	79
 1217 02af 44       		.byte	68
 1218 02b0 50       		.byte	80
 1219 02b1 0C       		.byte	12
 1220 02b2 54       		.byte	84
 1221 02b3 01       		.byte	1
 1222 02b4 58       		.byte	88
 1223 02b5 04       		.byte	4
 1224 02b6 59       		.byte	89
 1225 02b7 04       		.byte	4
 1226 02b8 5A       		.byte	90
 1227 02b9 04       		.byte	4
 1228 02ba 5B       		.byte	91
 1229 02bb 04       		.byte	4
 1230 02bc 5F       		.byte	95
 1231 02bd 01       		.byte	1
 1232 02be 66       		.byte	102
 1233 02bf C0       		.byte	-64
 1234 02c0 6A       		.byte	106
 1235 02c1 40       		.byte	64
 1236 02c2 6B       		.byte	107
 1237 02c3 02       		.byte	2
 1238 02c4 80       		.byte	-128
 1239 02c5 20       		.byte	32
 1240 02c6 82       		.byte	-126
 1241 02c7 08       		.byte	8
 1242 02c8 86       		.byte	-122
 1243 02c9 03       		.byte	3
 1244 02ca 88       		.byte	-120
 1245 02cb 38       		.byte	56
 1246 02cc 8B       		.byte	-117
 1247 02cd 2D       		.byte	45
 1248 02ce 8C       		.byte	-116
 1249 02cf 06       		.byte	6
 1250 02d0 8E       		.byte	-114
 1251 02d1 01       		.byte	1
 1252 02d2 91       		.byte	-111
 1253 02d3 03       		.byte	3
 1254 02d4 92       		.byte	-110
 1255 02d5 06       		.byte	6
 1256 02d6 93       		.byte	-109
 1257 02d7 08       		.byte	8
 1258 02d8 94       		.byte	-108
 1259 02d9 08       		.byte	8
 1260 02da 96       		.byte	-106
 1261 02db 30       		.byte	48
 1262 02dc 98       		.byte	-104
ARM GAS  C:\Users\HPz420\AppData\Local\Temp\ccOwvgum.s 			page 38


 1263 02dd 10       		.byte	16
 1264 02de 9A       		.byte	-102
 1265 02df 48       		.byte	72
 1266 02e0 9D       		.byte	-99
 1267 02e1 63       		.byte	99
 1268 02e2 9F       		.byte	-97
 1269 02e3 1C       		.byte	28
 1270 02e4 A2       		.byte	-94
 1271 02e5 05       		.byte	5
 1272 02e6 A3       		.byte	-93
 1273 02e7 10       		.byte	16
 1274 02e8 A4       		.byte	-92
 1275 02e9 38       		.byte	56
 1276 02ea A5       		.byte	-91
 1277 02eb 63       		.byte	99
 1278 02ec A7       		.byte	-89
 1279 02ed 0C       		.byte	12
 1280 02ee A9       		.byte	-87
 1281 02ef 03       		.byte	3
 1282 02f0 AA       		.byte	-86
 1283 02f1 02       		.byte	2
 1284 02f2 AB       		.byte	-85
 1285 02f3 04       		.byte	4
 1286 02f4 AD       		.byte	-83
 1287 02f5 52       		.byte	82
 1288 02f6 AE       		.byte	-82
 1289 02f7 01       		.byte	1
 1290 02f8 AF       		.byte	-81
 1291 02f9 0C       		.byte	12
 1292 02fa B0       		.byte	-80
 1293 02fb 40       		.byte	64
 1294 02fc B2       		.byte	-78
 1295 02fd 38       		.byte	56
 1296 02fe B3       		.byte	-77
 1297 02ff 60       		.byte	96
 1298 0300 B4       		.byte	-76
 1299 0301 07       		.byte	7
 1300 0302 B7       		.byte	-73
 1301 0303 1F       		.byte	31
 1302 0304 B9       		.byte	-71
 1303 0305 08       		.byte	8
 1304 0306 BA       		.byte	-70
 1305 0307 20       		.byte	32
 1306 0308 BB       		.byte	-69
 1307 0309 80       		.byte	-128
 1308 030a BF       		.byte	-65
 1309 030b 04       		.byte	4
 1310 030c D8       		.byte	-40
 1311 030d 04       		.byte	4
 1312 030e D9       		.byte	-39
 1313 030f 04       		.byte	4
 1314 0310 DF       		.byte	-33
 1315 0311 01       		.byte	1
 1316 0312 00       		.byte	0
 1317 0313 04       		.byte	4
 1318 0314 01       		.byte	1
 1319 0315 80       		.byte	-128
ARM GAS  C:\Users\HPz420\AppData\Local\Temp\ccOwvgum.s 			page 39


 1320 0316 02       		.byte	2
 1321 0317 80       		.byte	-128
 1322 0318 04       		.byte	4
 1323 0319 24       		.byte	36
 1324 031a 05       		.byte	5
 1325 031b 80       		.byte	-128
 1326 031c 06       		.byte	6
 1327 031d 80       		.byte	-128
 1328 031e 09       		.byte	9
 1329 031f 10       		.byte	16
 1330 0320 0A       		.byte	10
 1331 0321 40       		.byte	64
 1332 0322 0B       		.byte	11
 1333 0323 80       		.byte	-128
 1334 0324 0C       		.byte	12
 1335 0325 10       		.byte	16
 1336 0326 0E       		.byte	14
 1337 0327 60       		.byte	96
 1338 0328 12       		.byte	18
 1339 0329 24       		.byte	36
 1340 032a 15       		.byte	21
 1341 032b 80       		.byte	-128
 1342 032c 16       		.byte	22
 1343 032d 04       		.byte	4
 1344 032e 17       		.byte	23
 1345 032f 05       		.byte	5
 1346 0330 19       		.byte	25
 1347 0331 80       		.byte	-128
 1348 0332 1A       		.byte	26
 1349 0333 06       		.byte	6
 1350 0334 1C       		.byte	28
 1351 0335 04       		.byte	4
 1352 0336 1E       		.byte	30
 1353 0337 20       		.byte	32
 1354 0338 1F       		.byte	31
 1355 0339 12       		.byte	18
 1356 033a 22       		.byte	34
 1357 033b 40       		.byte	64
 1358 033c 26       		.byte	38
 1359 033d 80       		.byte	-128
 1360 033e 27       		.byte	39
 1361 033f 11       		.byte	17
 1362 0340 29       		.byte	41
 1363 0341 80       		.byte	-128
 1364 0342 2C       		.byte	44
 1365 0343 08       		.byte	8
 1366 0344 2D       		.byte	45
 1367 0345 A0       		.byte	-96
 1368 0346 2F       		.byte	47
 1369 0347 50       		.byte	80
 1370 0348 30       		.byte	48
 1371 0349 08       		.byte	8
 1372 034a 32       		.byte	50
 1373 034b 80       		.byte	-128
 1374 034c 33       		.byte	51
 1375 034d 40       		.byte	64
 1376 034e 36       		.byte	54
ARM GAS  C:\Users\HPz420\AppData\Local\Temp\ccOwvgum.s 			page 40


 1377 034f 82       		.byte	-126
 1378 0350 38       		.byte	56
 1379 0351 04       		.byte	4
 1380 0352 39       		.byte	57
 1381 0353 10       		.byte	16
 1382 0354 3D       		.byte	61
 1383 0355 30       		.byte	48
 1384 0356 3E       		.byte	62
 1385 0357 10       		.byte	16
 1386 0358 40       		.byte	64
 1387 0359 04       		.byte	4
 1388 035a 42       		.byte	66
 1389 035b 10       		.byte	16
 1390 035c 43       		.byte	67
 1391 035d 40       		.byte	64
 1392 035e 4A       		.byte	74
 1393 035f 20       		.byte	32
 1394 0360 50       		.byte	80
 1395 0361 28       		.byte	40
 1396 0362 58       		.byte	88
 1397 0363 02       		.byte	2
 1398 0364 59       		.byte	89
 1399 0365 20       		.byte	32
 1400 0366 5A       		.byte	90
 1401 0367 84       		.byte	-124
 1402 0368 90       		.byte	-112
 1403 0369 20       		.byte	32
 1404 036a 92       		.byte	-110
 1405 036b 40       		.byte	64
 1406 036c 94       		.byte	-108
 1407 036d 04       		.byte	4
 1408 036e 96       		.byte	-106
 1409 036f 02       		.byte	2
 1410 0370 98       		.byte	-104
 1411 0371 10       		.byte	16
 1412 0372 9A       		.byte	-102
 1413 0373 84       		.byte	-124
 1414 0374 9B       		.byte	-101
 1415 0375 04       		.byte	4
 1416 0376 9F       		.byte	-97
 1417 0377 11       		.byte	17
 1418 0378 A1       		.byte	-95
 1419 0379 10       		.byte	16
 1420 037a A4       		.byte	-92
 1421 037b 20       		.byte	32
 1422 037c A6       		.byte	-90
 1423 037d 10       		.byte	16
 1424 037e A7       		.byte	-89
 1425 037f 02       		.byte	2
 1426 0380 A9       		.byte	-87
 1427 0381 02       		.byte	2
 1428 0382 AC       		.byte	-84
 1429 0383 10       		.byte	16
 1430 0384 AF       		.byte	-81
 1431 0385 41       		.byte	65
 1432 0386 B2       		.byte	-78
 1433 0387 84       		.byte	-124
ARM GAS  C:\Users\HPz420\AppData\Local\Temp\ccOwvgum.s 			page 41


 1434 0388 C0       		.byte	-64
 1435 0389 FD       		.byte	-3
 1436 038a C2       		.byte	-62
 1437 038b 7A       		.byte	122
 1438 038c C4       		.byte	-60
 1439 038d F6       		.byte	-10
 1440 038e CA       		.byte	-54
 1441 038f F8       		.byte	-8
 1442 0390 CC       		.byte	-52
 1443 0391 9A       		.byte	-102
 1444 0392 CE       		.byte	-50
 1445 0393 26       		.byte	38
 1446 0394 D0       		.byte	-48
 1447 0395 0E       		.byte	14
 1448 0396 D6       		.byte	-42
 1449 0397 0F       		.byte	15
 1450 0398 B0       		.byte	-80
 1451 0399 02       		.byte	2
 1452 039a B2       		.byte	-78
 1453 039b 22       		.byte	34
 1454 039c B5       		.byte	-75
 1455 039d 40       		.byte	64
 1456 039e B6       		.byte	-74
 1457 039f 10       		.byte	16
 1458 03a0 E2       		.byte	-30
 1459 03a1 80       		.byte	-128
 1460 03a2 EC       		.byte	-20
 1461 03a3 20       		.byte	32
 1462 03a4 68       		.byte	104
 1463 03a5 01       		.byte	1
 1464 03a6 DA       		.byte	-38
 1465 03a7 40       		.byte	64
 1466 03a8 00       		.byte	0
 1467 03a9 08       		.byte	8
 1468 03aa 01       		.byte	1
 1469 03ab 08       		.byte	8
 1470 03ac 07       		.byte	7
 1471 03ad 01       		.byte	1
 1472 03ae 56       		.byte	86
 1473 03af 02       		.byte	2
 1474 03b0 57       		.byte	87
 1475 03b1 80       		.byte	-128
 1476 03b2 A3       		.byte	-93
 1477 03b3 80       		.byte	-128
 1478 03b4 A4       		.byte	-92
 1479 03b5 01       		.byte	1
 1480 03b6 B3       		.byte	-77
 1481 03b7 80       		.byte	-128
 1482 03b8 C0       		.byte	-64
 1483 03b9 90       		.byte	-112
 1484 03ba D4       		.byte	-44
 1485 03bb 40       		.byte	64
 1486 03bc D6       		.byte	-42
 1487 03bd 20       		.byte	32
 1488 03be 9B       		.byte	-101
 1489 03bf 01       		.byte	1
 1490 03c0 A4       		.byte	-92
ARM GAS  C:\Users\HPz420\AppData\Local\Temp\ccOwvgum.s 			page 42


 1491 03c1 01       		.byte	1
 1492 03c2 A9       		.byte	-87
 1493 03c3 08       		.byte	8
 1494 03c4 AC       		.byte	-84
 1495 03c5 04       		.byte	4
 1496 03c6 AE       		.byte	-82
 1497 03c7 02       		.byte	2
 1498 03c8 EC       		.byte	-20
 1499 03c9 60       		.byte	96
 1500 03ca EE       		.byte	-18
 1501 03cb 10       		.byte	16
 1502 03cc 88       		.byte	-120
 1503 03cd 01       		.byte	1
 1504 03ce A4       		.byte	-92
 1505 03cf 01       		.byte	1
 1506 03d0 B3       		.byte	-77
 1507 03d1 01       		.byte	1
 1508 03d2 2D       		.byte	45
 1509 03d3 08       		.byte	8
 1510 03d4 89       		.byte	-119
 1511 03d5 08       		.byte	8
 1512 03d6 CA       		.byte	-54
 1513 03d7 01       		.byte	1
 1514 03d8 E2       		.byte	-30
 1515 03d9 01       		.byte	1
 1516 03da 10       		.byte	16
 1517 03db 01       		.byte	1
 1518 03dc 11       		.byte	17
 1519 03dd 01       		.byte	1
 1520 03de 12       		.byte	18
 1521 03df 01       		.byte	1
 1522              		.text
 1523              	.Letext0:
 1524              		.file 2 "c:\\program files (x86)\\cypress\\psoc creator\\4.2\\psoc creator\\import\\gnu\\arm\\5.4.
 1525              		.file 3 "Generated_Source\\PSoC4\\cytypes.h"