ARM GAS  C:\Users\HPz420\AppData\Local\Temp\ccAdodLg.s 			page 1


   1              		.syntax unified
   2              		.cpu cortex-m0
   3              		.fpu softvfp
   4              		.eabi_attribute 20, 1
   5              		.eabi_attribute 21, 1
   6              		.eabi_attribute 23, 3
   7              		.eabi_attribute 24, 1
   8              		.eabi_attribute 25, 1
   9              		.eabi_attribute 26, 1
  10              		.eabi_attribute 30, 6
  11              		.eabi_attribute 34, 0
  12              		.eabi_attribute 18, 4
  13              		.thumb
  14              		.syntax unified
  15              		.file	"CyLib.c"
  16              		.text
  17              	.Ltext0:
  18              		.cfi_sections	.debug_frame
  19              		.global	cydelayFreqHz
  20              		.data
  21              		.align	2
  22              		.type	cydelayFreqHz, %object
  23              		.size	cydelayFreqHz, 4
  24              	cydelayFreqHz:
  25 0000 006CDC02 		.word	48000000
  26              		.global	cydelayFreqKhz
  27              		.align	2
  28              		.type	cydelayFreqKhz, %object
  29              		.size	cydelayFreqKhz, 4
  30              	cydelayFreqKhz:
  31 0004 80BB0000 		.word	48000
  32              		.global	cydelayFreqMhz
  33              		.type	cydelayFreqMhz, %object
  34              		.size	cydelayFreqMhz, 1
  35              	cydelayFreqMhz:
  36 0008 30       		.byte	48
  37              		.global	cydelay32kMs
  38 0009 000000   		.align	2
  39              		.type	cydelay32kMs, %object
  40              		.size	cydelay32kMs, 4
  41              	cydelay32kMs:
  42 000c 0000C05D 		.word	1572864000
  43              		.bss
  44              		.align	2
  45              	CySysTickCallbacks:
  46 0000 00000000 		.space	20
  46      00000000 
  46      00000000 
  46      00000000 
  46      00000000 
  47              		.global	CySysTickInitVar
  48              		.align	2
  49              		.type	CySysTickInitVar, %object
  50              		.size	CySysTickInitVar, 4
  51              	CySysTickInitVar:
  52 0014 00000000 		.space	4
  53              		.global	cyImoFreqMhz2Reg
ARM GAS  C:\Users\HPz420\AppData\Local\Temp\ccAdodLg.s 			page 2


  54              		.section	.rodata
  55              		.align	2
  56              		.type	cyImoFreqMhz2Reg, %object
  57              		.size	cyImoFreqMhz2Reg, 46
  58              	cyImoFreqMhz2Reg:
  59 0000 03       		.byte	3
  60 0001 04       		.byte	4
  61 0002 05       		.byte	5
  62 0003 06       		.byte	6
  63 0004 07       		.byte	7
  64 0005 08       		.byte	8
  65 0006 09       		.byte	9
  66 0007 0A       		.byte	10
  67 0008 0B       		.byte	11
  68 0009 0C       		.byte	12
  69 000a 0E       		.byte	14
  70 000b 0F       		.byte	15
  71 000c 10       		.byte	16
  72 000d 11       		.byte	17
  73 000e 12       		.byte	18
  74 000f 13       		.byte	19
  75 0010 14       		.byte	20
  76 0011 15       		.byte	21
  77 0012 16       		.byte	22
  78 0013 17       		.byte	23
  79 0014 18       		.byte	24
  80 0015 19       		.byte	25
  81 0016 1B       		.byte	27
  82 0017 1C       		.byte	28
  83 0018 1D       		.byte	29
  84 0019 1E       		.byte	30
  85 001a 1F       		.byte	31
  86 001b 20       		.byte	32
  87 001c 21       		.byte	33
  88 001d 22       		.byte	34
  89 001e 23       		.byte	35
  90 001f 25       		.byte	37
  91 0020 26       		.byte	38
  92 0021 27       		.byte	39
  93 0022 28       		.byte	40
  94 0023 29       		.byte	41
  95 0024 2A       		.byte	42
  96 0025 2B       		.byte	43
  97 0026 2E       		.byte	46
  98 0027 2F       		.byte	47
  99 0028 30       		.byte	48
 100 0029 31       		.byte	49
 101 002a 32       		.byte	50
 102 002b 33       		.byte	51
 103 002c 34       		.byte	52
 104 002d 35       		.byte	53
 105              		.global	cyImoFreqMhz2DpllOffset
 106 002e 0000     		.align	2
 107              		.type	cyImoFreqMhz2DpllOffset, %object
 108              		.size	cyImoFreqMhz2DpllOffset, 23
 109              	cyImoFreqMhz2DpllOffset:
 110 0030 EE       		.byte	-18
ARM GAS  C:\Users\HPz420\AppData\Local\Temp\ccAdodLg.s 			page 3


 111 0031 DB       		.byte	-37
 112 0032 C9       		.byte	-55
 113 0033 B9       		.byte	-71
 114 0034 AA       		.byte	-86
 115 0035 9B       		.byte	-101
 116 0036 8E       		.byte	-114
 117 0037 82       		.byte	-126
 118 0038 76       		.byte	118
 119 0039 6B       		.byte	107
 120 003a 60       		.byte	96
 121 003b 56       		.byte	86
 122 003c 4D       		.byte	77
 123 003d 44       		.byte	68
 124 003e 3B       		.byte	59
 125 003f 33       		.byte	51
 126 0040 2C       		.byte	44
 127 0041 24       		.byte	36
 128 0042 1D       		.byte	29
 129 0043 17       		.byte	23
 130 0044 10       		.byte	16
 131 0045 0A       		.byte	10
 132 0046 04       		.byte	4
 133              		.global	CySysClkImoTrim4
 134              		.bss
 135              		.align	2
 136              		.type	CySysClkImoTrim4, %object
 137              		.size	CySysClkImoTrim4, 4
 138              	CySysClkImoTrim4:
 139 0018 00000000 		.space	4
 140              		.global	CySysClkPumpConfig
 141              		.data
 142              		.align	2
 143              		.type	CySysClkPumpConfig, %object
 144              		.size	CySysClkPumpConfig, 4
 145              	CySysClkPumpConfig:
 146 0010 01000000 		.word	1
 147              		.section	.text.CySysClkImoStart,"ax",%progbits
 148              		.align	2
 149              		.global	CySysClkImoStart
 150              		.code	16
 151              		.thumb_func
 152              		.type	CySysClkImoStart, %function
 153              	CySysClkImoStart:
 154              	.LFB1:
 155              		.file 1 "Generated_Source\\PSoC4\\CyLib.c"
   1:Generated_Source\PSoC4/CyLib.c **** /***************************************************************************//**
   2:Generated_Source\PSoC4/CyLib.c **** * \file CyLib.c
   3:Generated_Source\PSoC4/CyLib.c **** * \version 5.60
   4:Generated_Source\PSoC4/CyLib.c **** *
   5:Generated_Source\PSoC4/CyLib.c **** * \brief Provides a system API for the Clocking, Interrupts, SysTick, and
   6:Generated_Source\PSoC4/CyLib.c **** * Voltage Detect.
   7:Generated_Source\PSoC4/CyLib.c **** *
   8:Generated_Source\PSoC4/CyLib.c **** * \note Documentation of the API's in this file is located in the PSoC 4 System
   9:Generated_Source\PSoC4/CyLib.c **** * Reference Guide provided with PSoC Creator.
  10:Generated_Source\PSoC4/CyLib.c **** *
  11:Generated_Source\PSoC4/CyLib.c **** ********************************************************************************
  12:Generated_Source\PSoC4/CyLib.c **** * \copyright
ARM GAS  C:\Users\HPz420\AppData\Local\Temp\ccAdodLg.s 			page 4


  13:Generated_Source\PSoC4/CyLib.c **** * Copyright 2010-2017, Cypress Semiconductor Corporation.  All rights reserved.
  14:Generated_Source\PSoC4/CyLib.c **** * You may use this file only in accordance with the license, terms, conditions,
  15:Generated_Source\PSoC4/CyLib.c **** * disclaimers, and limitations in the end user license agreement accompanying
  16:Generated_Source\PSoC4/CyLib.c **** * the software package with which this file was provided.
  17:Generated_Source\PSoC4/CyLib.c **** *******************************************************************************/
  18:Generated_Source\PSoC4/CyLib.c **** 
  19:Generated_Source\PSoC4/CyLib.c **** #include "CyLib.h"
  20:Generated_Source\PSoC4/CyLib.c **** 
  21:Generated_Source\PSoC4/CyLib.c **** /* CySysClkWriteImoFreq() || CySysClkImoEnableWcoLock() */
  22:Generated_Source\PSoC4/CyLib.c **** #if ((CY_IP_SRSSV2 && CY_IP_FMLT) || CY_IP_IMO_TRIMMABLE_BY_WCO)
  23:Generated_Source\PSoC4/CyLib.c ****     #include "CyFlash.h"
  24:Generated_Source\PSoC4/CyLib.c **** #endif /* (CY_IP_SRSSV2 && CY_IP_FMLT) */
  25:Generated_Source\PSoC4/CyLib.c **** 
  26:Generated_Source\PSoC4/CyLib.c **** /* Do not use these definitions directly in your application */
  27:Generated_Source\PSoC4/CyLib.c **** uint32 cydelayFreqHz  = CYDEV_BCLK__SYSCLK__HZ;
  28:Generated_Source\PSoC4/CyLib.c **** uint32 cydelayFreqKhz = (CYDEV_BCLK__SYSCLK__HZ + CY_DELAY_1K_MINUS_1_THRESHOLD) / CY_DELAY_1K_THRE
  29:Generated_Source\PSoC4/CyLib.c **** uint8  cydelayFreqMhz = (uint8)((CYDEV_BCLK__SYSCLK__HZ + CY_DELAY_1M_MINUS_1_THRESHOLD) / CY_DELAY
  30:Generated_Source\PSoC4/CyLib.c **** uint32 cydelay32kMs   = CY_DELAY_MS_OVERFLOW * ((CYDEV_BCLK__SYSCLK__HZ + CY_DELAY_1K_MINUS_1_THRES
  31:Generated_Source\PSoC4/CyLib.c ****                         CY_DELAY_1K_THRESHOLD);
  32:Generated_Source\PSoC4/CyLib.c **** 
  33:Generated_Source\PSoC4/CyLib.c **** 
  34:Generated_Source\PSoC4/CyLib.c **** static cySysTickCallback CySysTickCallbacks[CY_SYS_SYST_NUM_OF_CALLBACKS];
  35:Generated_Source\PSoC4/CyLib.c **** static void CySysTickServiceCallbacks(void);
  36:Generated_Source\PSoC4/CyLib.c **** 
  37:Generated_Source\PSoC4/CyLib.c **** #if (CY_IP_SRSSV2 && CY_IP_PLL)
  38:Generated_Source\PSoC4/CyLib.c ****     static uint32 CySysClkPllGetBypassMode(uint32 pll);
  39:Generated_Source\PSoC4/CyLib.c ****     static cystatus CySysClkPllConfigChangeAllowed(uint32 pll);
  40:Generated_Source\PSoC4/CyLib.c **** #endif /* #if (CY_IP_SRSSV2 && CY_IP_PLL) */
  41:Generated_Source\PSoC4/CyLib.c **** 
  42:Generated_Source\PSoC4/CyLib.c **** 
  43:Generated_Source\PSoC4/CyLib.c **** /***************************************************************************//**
  44:Generated_Source\PSoC4/CyLib.c **** * Indicates whether or not the SysTick has been initialized. The variable is
  45:Generated_Source\PSoC4/CyLib.c **** * initialized to 0 and set to 1 the first time CySysTickStart() is called.
  46:Generated_Source\PSoC4/CyLib.c **** *
  47:Generated_Source\PSoC4/CyLib.c **** * This allows the component to restart without reinitialization after the first
  48:Generated_Source\PSoC4/CyLib.c **** * call to the CySysTickStart() routine.
  49:Generated_Source\PSoC4/CyLib.c **** *
  50:Generated_Source\PSoC4/CyLib.c **** * If reinitialization of the SysTick is required, call CySysTickInit() before
  51:Generated_Source\PSoC4/CyLib.c **** * calling CySysTickStart(). Alternatively, the SysTick can be reinitialized by
  52:Generated_Source\PSoC4/CyLib.c **** * calling the CySysTickInit() and CySysTickEnable() functions.
  53:Generated_Source\PSoC4/CyLib.c **** *******************************************************************************/
  54:Generated_Source\PSoC4/CyLib.c **** uint32 CySysTickInitVar = 0u;
  55:Generated_Source\PSoC4/CyLib.c **** 
  56:Generated_Source\PSoC4/CyLib.c **** 
  57:Generated_Source\PSoC4/CyLib.c **** #if(CY_IP_SRSSV2)
  58:Generated_Source\PSoC4/CyLib.c ****         /* Conversion between CySysClkWriteImoFreq() parameter and register's value */
  59:Generated_Source\PSoC4/CyLib.c ****         const uint8 cyImoFreqMhz2Reg[CY_SYS_CLK_IMO_FREQ_TABLE_SIZE] = {
  60:Generated_Source\PSoC4/CyLib.c ****             /*  3 MHz */ 0x03u,  /*  4 MHz */ 0x04u,  /*  5 MHz */ 0x05u,  /*  6 MHz */ 0x06u,
  61:Generated_Source\PSoC4/CyLib.c ****             /*  7 MHz */ 0x07u,  /*  8 MHz */ 0x08u,  /*  9 MHz */ 0x09u,  /* 10 MHz */ 0x0Au,
  62:Generated_Source\PSoC4/CyLib.c ****             /* 11 MHz */ 0x0Bu,  /* 12 MHz */ 0x0Cu,  /* 13 MHz */ 0x0Eu,  /* 14 MHz */ 0x0Fu,
  63:Generated_Source\PSoC4/CyLib.c ****             /* 15 MHz */ 0x10u,  /* 16 MHz */ 0x11u,  /* 17 MHz */ 0x12u,  /* 18 MHz */ 0x13u,
  64:Generated_Source\PSoC4/CyLib.c ****             /* 19 MHz */ 0x14u,  /* 20 MHz */ 0x15u,  /* 21 MHz */ 0x16u,  /* 22 MHz */ 0x17u,
  65:Generated_Source\PSoC4/CyLib.c ****             /* 23 MHz */ 0x18u,  /* 24 MHz */ 0x19u,  /* 25 MHz */ 0x1Bu,  /* 26 MHz */ 0x1Cu,
  66:Generated_Source\PSoC4/CyLib.c ****             /* 27 MHz */ 0x1Du,  /* 28 MHz */ 0x1Eu,  /* 29 MHz */ 0x1Fu,  /* 30 MHz */ 0x20u,
  67:Generated_Source\PSoC4/CyLib.c ****             /* 31 MHz */ 0x21u,  /* 32 MHz */ 0x22u,  /* 33 MHz */ 0x23u,  /* 34 MHz */ 0x25u,
  68:Generated_Source\PSoC4/CyLib.c ****             /* 35 MHz */ 0x26u,  /* 36 MHz */ 0x27u,  /* 37 MHz */ 0x28u,  /* 38 MHz */ 0x29u,
  69:Generated_Source\PSoC4/CyLib.c ****             /* 39 MHz */ 0x2Au,  /* 40 MHz */ 0x2Bu,  /* 41 MHz */ 0x2Eu,  /* 42 MHz */ 0x2Fu,
ARM GAS  C:\Users\HPz420\AppData\Local\Temp\ccAdodLg.s 			page 5


  70:Generated_Source\PSoC4/CyLib.c ****             /* 43 MHz */ 0x30u,  /* 44 MHz */ 0x31u,  /* 45 MHz */ 0x32u,  /* 46 MHz */ 0x33u,
  71:Generated_Source\PSoC4/CyLib.c ****             /* 47 MHz */ 0x34u,  /* 48 MHz */ 0x35u };
  72:Generated_Source\PSoC4/CyLib.c **** #endif /* (CY_IP_SRSSV2) */
  73:Generated_Source\PSoC4/CyLib.c **** 
  74:Generated_Source\PSoC4/CyLib.c **** #if (CY_IP_IMO_TRIMMABLE_BY_WCO)
  75:Generated_Source\PSoC4/CyLib.c ****         /* Conversion between IMO frequency and WCO DPLL max offset steps */
  76:Generated_Source\PSoC4/CyLib.c ****         const uint8 cyImoFreqMhz2DpllOffset[CY_SYS_CLK_IMO_FREQ_WCO_DPLL_TABLE_SIZE] = {
  77:Generated_Source\PSoC4/CyLib.c ****             /* 26 MHz */  238u, /* 27 MHz */  219u, /* 28 MHz */  201u, /* 29 MHz */  185u,
  78:Generated_Source\PSoC4/CyLib.c ****             /* 30 MHz */  170u, /* 31 MHz */  155u, /* 32 MHz */  142u, /* 33 MHz */  130u,
  79:Generated_Source\PSoC4/CyLib.c ****             /* 34 MHz */  118u, /* 35 MHz */  107u, /* 36 MHz */   96u, /* 37 MHz */  86u,
  80:Generated_Source\PSoC4/CyLib.c ****             /* 38 MHz */   77u, /* 39 MHz */   68u, /* 40 MHz */   59u, /* 41 MHz */  51u,
  81:Generated_Source\PSoC4/CyLib.c ****             /* 42 MHz */   44u, /* 43 MHz */   36u, /* 44 MHz */   29u, /* 45 MHz */  23u,
  82:Generated_Source\PSoC4/CyLib.c ****             /* 46 MHz */   16u, /* 47 MHz */   10u, /* 48 MHz */   4u };
  83:Generated_Source\PSoC4/CyLib.c **** #endif /* (CY_IP_IMO_TRIMMABLE_BY_WCO) */
  84:Generated_Source\PSoC4/CyLib.c **** 
  85:Generated_Source\PSoC4/CyLib.c **** /* Stored CY_SYS_CLK_IMO_TRIM4_REG when modified for USB lock */
  86:Generated_Source\PSoC4/CyLib.c **** #if (CY_IP_IMO_TRIMMABLE_BY_USB && CY_IP_SRSSV2)
  87:Generated_Source\PSoC4/CyLib.c ****     uint32 CySysClkImoTrim4 = 0u;
  88:Generated_Source\PSoC4/CyLib.c **** #endif /* (CY_IP_IMO_TRIMMABLE_BY_USB && CY_IP_SRSSV2) */
  89:Generated_Source\PSoC4/CyLib.c **** 
  90:Generated_Source\PSoC4/CyLib.c **** /* Stored PUMP_SEL configuration during disable (IMO output by default) */
  91:Generated_Source\PSoC4/CyLib.c **** uint32 CySysClkPumpConfig = CY_SYS_CLK_PUMP_ENABLE;
  92:Generated_Source\PSoC4/CyLib.c **** 
  93:Generated_Source\PSoC4/CyLib.c **** /*******************************************************************************
  94:Generated_Source\PSoC4/CyLib.c **** * Function Name: CySysClkImoStart
  95:Generated_Source\PSoC4/CyLib.c **** ****************************************************************************//**
  96:Generated_Source\PSoC4/CyLib.c **** *
  97:Generated_Source\PSoC4/CyLib.c **** * Enables the IMO.
  98:Generated_Source\PSoC4/CyLib.c **** *
  99:Generated_Source\PSoC4/CyLib.c **** * For PSoC 4100M / PSoC 4200M / PSoC 4000S / PSoC 4100S / PSoC 4400 devices,
 100:Generated_Source\PSoC4/CyLib.c **** * this function will also enable WCO lock if selected in the Design Wide
 101:Generated_Source\PSoC4/CyLib.c **** * Resources tab.
 102:Generated_Source\PSoC4/CyLib.c **** *
 103:Generated_Source\PSoC4/CyLib.c **** * For PSoC 4200L / devices, this function will also enable USB lock if selected
 104:Generated_Source\PSoC4/CyLib.c **** * in the Design Wide Resources tab.
 105:Generated_Source\PSoC4/CyLib.c **** *
 106:Generated_Source\PSoC4/CyLib.c **** *******************************************************************************/
 107:Generated_Source\PSoC4/CyLib.c **** void CySysClkImoStart(void)
 108:Generated_Source\PSoC4/CyLib.c **** {
 156              		.loc 1 108 0
 157              		.cfi_startproc
 158              		@ args = 0, pretend = 0, frame = 0
 159              		@ frame_needed = 1, uses_anonymous_args = 0
 160 0000 80B5     		push	{r7, lr}
 161              		.cfi_def_cfa_offset 8
 162              		.cfi_offset 7, -8
 163              		.cfi_offset 14, -4
 164 0002 00AF     		add	r7, sp, #0
 165              		.cfi_def_cfa_register 7
 109:Generated_Source\PSoC4/CyLib.c ****     CY_SYS_CLK_IMO_CONFIG_REG |= CY_SYS_CLK_IMO_CONFIG_ENABLE;
 166              		.loc 1 109 0
 167 0004 054B     		ldr	r3, .L2
 168 0006 054A     		ldr	r2, .L2
 169 0008 1268     		ldr	r2, [r2]
 170 000a 8021     		movs	r1, #128
 171 000c 0906     		lsls	r1, r1, #24
 172 000e 0A43     		orrs	r2, r1
ARM GAS  C:\Users\HPz420\AppData\Local\Temp\ccAdodLg.s 			page 6


 173 0010 1A60     		str	r2, [r3]
 110:Generated_Source\PSoC4/CyLib.c **** 
 111:Generated_Source\PSoC4/CyLib.c ****     #if (CY_IP_IMO_TRIMMABLE_BY_WCO)
 112:Generated_Source\PSoC4/CyLib.c ****         #if (CYDEV_IMO_TRIMMED_BY_WCO == 1u)
 113:Generated_Source\PSoC4/CyLib.c ****             CySysClkImoEnableWcoLock();
 114:Generated_Source\PSoC4/CyLib.c ****         #endif  /* (CYDEV_IMO_TRIMMED_BY_WCO == 1u) */
 115:Generated_Source\PSoC4/CyLib.c ****     #endif  /* (CY_IP_IMO_TRIMMABLE_BY_WCO) */
 116:Generated_Source\PSoC4/CyLib.c **** 
 117:Generated_Source\PSoC4/CyLib.c **** 
 118:Generated_Source\PSoC4/CyLib.c ****     #if (CY_IP_IMO_TRIMMABLE_BY_USB)
 119:Generated_Source\PSoC4/CyLib.c ****         #if (CYDEV_IMO_TRIMMED_BY_USB == 1u)
 120:Generated_Source\PSoC4/CyLib.c ****             CySysClkImoEnableUsbLock();
 174              		.loc 1 120 0
 175 0012 FFF7FEFF 		bl	CySysClkImoEnableUsbLock
 121:Generated_Source\PSoC4/CyLib.c ****         #endif  /* (CYDEV_IMO_TRIMMED_BY_USB == 1u) */
 122:Generated_Source\PSoC4/CyLib.c ****     #endif  /* (CY_IP_IMO_TRIMMABLE_BY_USB) */
 123:Generated_Source\PSoC4/CyLib.c **** 
 124:Generated_Source\PSoC4/CyLib.c **** }
 176              		.loc 1 124 0
 177 0016 C046     		nop
 178 0018 BD46     		mov	sp, r7
 179              		@ sp needed
 180 001a 80BD     		pop	{r7, pc}
 181              	.L3:
 182              		.align	2
 183              	.L2:
 184 001c 08010B40 		.word	1074462984
 185              		.cfi_endproc
 186              	.LFE1:
 187              		.size	CySysClkImoStart, .-CySysClkImoStart
 188              		.section	.text.CySysClkImoStop,"ax",%progbits
 189              		.align	2
 190              		.global	CySysClkImoStop
 191              		.code	16
 192              		.thumb_func
 193              		.type	CySysClkImoStop, %function
 194              	CySysClkImoStop:
 195              	.LFB2:
 125:Generated_Source\PSoC4/CyLib.c **** 
 126:Generated_Source\PSoC4/CyLib.c **** 
 127:Generated_Source\PSoC4/CyLib.c **** /*******************************************************************************
 128:Generated_Source\PSoC4/CyLib.c **** * Function Name: CySysClkImoStop
 129:Generated_Source\PSoC4/CyLib.c **** ****************************************************************************//**
 130:Generated_Source\PSoC4/CyLib.c **** *
 131:Generated_Source\PSoC4/CyLib.c **** * Disables the IMO.
 132:Generated_Source\PSoC4/CyLib.c **** *
 133:Generated_Source\PSoC4/CyLib.c **** * For PSoC 4100M / PSoC 4200M / PSoC 4000S / PSoC 4100S / PSoC 4400 devices,
 134:Generated_Source\PSoC4/CyLib.c **** * this function will also disable WCO lock.
 135:Generated_Source\PSoC4/CyLib.c **** *
 136:Generated_Source\PSoC4/CyLib.c **** * For PSoC PSoC 4200L devices, this function will also disable USB lock.
 137:Generated_Source\PSoC4/CyLib.c **** *
 138:Generated_Source\PSoC4/CyLib.c **** *******************************************************************************/
 139:Generated_Source\PSoC4/CyLib.c **** void CySysClkImoStop(void)
 140:Generated_Source\PSoC4/CyLib.c **** {
 196              		.loc 1 140 0
 197              		.cfi_startproc
 198              		@ args = 0, pretend = 0, frame = 0
ARM GAS  C:\Users\HPz420\AppData\Local\Temp\ccAdodLg.s 			page 7


 199              		@ frame_needed = 1, uses_anonymous_args = 0
 200 0000 80B5     		push	{r7, lr}
 201              		.cfi_def_cfa_offset 8
 202              		.cfi_offset 7, -8
 203              		.cfi_offset 14, -4
 204 0002 00AF     		add	r7, sp, #0
 205              		.cfi_def_cfa_register 7
 141:Generated_Source\PSoC4/CyLib.c ****     #if (CY_IP_IMO_TRIMMABLE_BY_WCO)
 142:Generated_Source\PSoC4/CyLib.c ****         CySysClkImoDisableWcoLock();
 206              		.loc 1 142 0
 207 0004 FFF7FEFF 		bl	CySysClkImoDisableWcoLock
 143:Generated_Source\PSoC4/CyLib.c ****     #endif  /* (CY_IP_IMO_TRIMMABLE_BY_WCO) */
 144:Generated_Source\PSoC4/CyLib.c **** 
 145:Generated_Source\PSoC4/CyLib.c ****     #if (CY_IP_IMO_TRIMMABLE_BY_USB)
 146:Generated_Source\PSoC4/CyLib.c ****         CySysClkImoDisableUsbLock();
 208              		.loc 1 146 0
 209 0008 FFF7FEFF 		bl	CySysClkImoDisableUsbLock
 147:Generated_Source\PSoC4/CyLib.c ****     #endif  /* (CY_IP_IMO_TRIMMABLE_BY_USB) */
 148:Generated_Source\PSoC4/CyLib.c **** 
 149:Generated_Source\PSoC4/CyLib.c ****     CY_SYS_CLK_IMO_CONFIG_REG &= ( uint32 ) ( ~( uint32 )CY_SYS_CLK_IMO_CONFIG_ENABLE);
 210              		.loc 1 149 0
 211 000c 044B     		ldr	r3, .L5
 212 000e 044A     		ldr	r2, .L5
 213 0010 1268     		ldr	r2, [r2]
 214 0012 5200     		lsls	r2, r2, #1
 215 0014 5208     		lsrs	r2, r2, #1
 216 0016 1A60     		str	r2, [r3]
 150:Generated_Source\PSoC4/CyLib.c **** }
 217              		.loc 1 150 0
 218 0018 C046     		nop
 219 001a BD46     		mov	sp, r7
 220              		@ sp needed
 221 001c 80BD     		pop	{r7, pc}
 222              	.L6:
 223 001e C046     		.align	2
 224              	.L5:
 225 0020 08010B40 		.word	1074462984
 226              		.cfi_endproc
 227              	.LFE2:
 228              		.size	CySysClkImoStop, .-CySysClkImoStop
 229              		.section	.text.CySysClkImoEnableWcoLock,"ax",%progbits
 230              		.align	2
 231              		.global	CySysClkImoEnableWcoLock
 232              		.code	16
 233              		.thumb_func
 234              		.type	CySysClkImoEnableWcoLock, %function
 235              	CySysClkImoEnableWcoLock:
 236              	.LFB3:
 151:Generated_Source\PSoC4/CyLib.c **** 
 152:Generated_Source\PSoC4/CyLib.c **** #if (CY_IP_IMO_TRIMMABLE_BY_WCO)
 153:Generated_Source\PSoC4/CyLib.c **** 
 154:Generated_Source\PSoC4/CyLib.c ****     /*******************************************************************************
 155:Generated_Source\PSoC4/CyLib.c ****     * Function Name: CySysClkImoEnableWcoLock
 156:Generated_Source\PSoC4/CyLib.c ****     ****************************************************************************//**
 157:Generated_Source\PSoC4/CyLib.c ****     *
 158:Generated_Source\PSoC4/CyLib.c ****     * Enables the IMO to WCO lock feature. This function works only if the WCO is
 159:Generated_Source\PSoC4/CyLib.c ****     * already enabled. If the WCO is not enabled then this function returns
ARM GAS  C:\Users\HPz420\AppData\Local\Temp\ccAdodLg.s 			page 8


 160:Generated_Source\PSoC4/CyLib.c ****     * without enabling the lock feature.
 161:Generated_Source\PSoC4/CyLib.c ****     *
 162:Generated_Source\PSoC4/CyLib.c ****     * It takes up to 20 ms for the IMO to stabilize. The delay is implemented with
 163:Generated_Source\PSoC4/CyLib.c ****     * CyDelay() function. The delay interval is measured based on the system
 164:Generated_Source\PSoC4/CyLib.c ****     * frequency defined by PSoC Creator at build time. If System clock frequency
 165:Generated_Source\PSoC4/CyLib.c ****     * is changed in runtime, the CyDelayFreq() with the appropriate parameter
 166:Generated_Source\PSoC4/CyLib.c ****     * should be called.
 167:Generated_Source\PSoC4/CyLib.c ****     *
 168:Generated_Source\PSoC4/CyLib.c ****     * For PSoC 4200L devices, note that the IMO can lock to either WCO or USB
 169:Generated_Source\PSoC4/CyLib.c ****     * but not both.
 170:Generated_Source\PSoC4/CyLib.c ****     *
 171:Generated_Source\PSoC4/CyLib.c ****     * This function is applicable for PSoC 4100M / PSoC 4200M / PSoC 4000S /
 172:Generated_Source\PSoC4/CyLib.c ****     * PSoC 4100S / PSoC 4400 / PSoC 4200L.
 173:Generated_Source\PSoC4/CyLib.c ****     *
 174:Generated_Source\PSoC4/CyLib.c ****     *******************************************************************************/
 175:Generated_Source\PSoC4/CyLib.c ****     void CySysClkImoEnableWcoLock(void)
 176:Generated_Source\PSoC4/CyLib.c ****     {
 237              		.loc 1 176 0
 238              		.cfi_startproc
 239              		@ args = 0, pretend = 0, frame = 24
 240              		@ frame_needed = 1, uses_anonymous_args = 0
 241 0000 90B5     		push	{r4, r7, lr}
 242              		.cfi_def_cfa_offset 12
 243              		.cfi_offset 4, -12
 244              		.cfi_offset 7, -8
 245              		.cfi_offset 14, -4
 246 0002 87B0     		sub	sp, sp, #28
 247              		.cfi_def_cfa_offset 40
 248 0004 00AF     		add	r7, sp, #0
 249              		.cfi_def_cfa_register 7
 177:Generated_Source\PSoC4/CyLib.c ****         #if(CY_IP_SRSSV2)
 178:Generated_Source\PSoC4/CyLib.c ****             uint32 i;
 179:Generated_Source\PSoC4/CyLib.c ****         #endif  /* (CY_IP_SRSSV2) */
 180:Generated_Source\PSoC4/CyLib.c **** 
 181:Generated_Source\PSoC4/CyLib.c ****         uint32 freq;
 182:Generated_Source\PSoC4/CyLib.c ****         uint8  interruptState;
 183:Generated_Source\PSoC4/CyLib.c ****         uint32 regTmp;
 184:Generated_Source\PSoC4/CyLib.c ****         uint32 lfLimit = 0u;
 250              		.loc 1 184 0
 251 0006 0023     		movs	r3, #0
 252 0008 BB60     		str	r3, [r7, #8]
 185:Generated_Source\PSoC4/CyLib.c ****         volatile uint32 flashCtlReg;
 186:Generated_Source\PSoC4/CyLib.c **** 
 187:Generated_Source\PSoC4/CyLib.c ****         if (0u != CySysClkWcoEnabled())
 253              		.loc 1 187 0
 254 000a FFF7FEFF 		bl	CySysClkWcoEnabled
 255 000e 031E     		subs	r3, r0, #0
 256 0010 00D1     		bne	.LCB82
 257 0012 84E0     		b	.L17	@long jump
 258              	.LCB82:
 188:Generated_Source\PSoC4/CyLib.c ****         {
 189:Generated_Source\PSoC4/CyLib.c ****             interruptState = CyEnterCriticalSection();
 259              		.loc 1 189 0
 260 0014 FC1D     		adds	r4, r7, #7
 261 0016 FFF7FEFF 		bl	CyEnterCriticalSection
 262 001a 0300     		movs	r3, r0
 263 001c 2370     		strb	r3, [r4]
ARM GAS  C:\Users\HPz420\AppData\Local\Temp\ccAdodLg.s 			page 9


 190:Generated_Source\PSoC4/CyLib.c **** 
 191:Generated_Source\PSoC4/CyLib.c ****             /* Set oscillator interface control port to WCO */
 192:Generated_Source\PSoC4/CyLib.c ****             #if (CY_IP_IMO_TRIMMABLE_BY_WCO && CY_IP_IMO_TRIMMABLE_BY_USB)
 193:Generated_Source\PSoC4/CyLib.c ****                 CY_SYS_CLK_OSCINTF_CTL_REG =
 264              		.loc 1 193 0
 265 001e 424B     		ldr	r3, .L18
 194:Generated_Source\PSoC4/CyLib.c ****                     (CY_SYS_CLK_OSCINTF_CTL_REG & (uint32) ~CY_SYS_CLK_OSCINTF_CTL_PORT_SEL_MASK) |
 266              		.loc 1 194 0
 267 0020 414A     		ldr	r2, .L18
 268 0022 1268     		ldr	r2, [r2]
 269 0024 0121     		movs	r1, #1
 270 0026 0A43     		orrs	r2, r1
 193:Generated_Source\PSoC4/CyLib.c ****                     (CY_SYS_CLK_OSCINTF_CTL_REG & (uint32) ~CY_SYS_CLK_OSCINTF_CTL_PORT_SEL_MASK) |
 271              		.loc 1 193 0
 272 0028 1A60     		str	r2, [r3]
 195:Generated_Source\PSoC4/CyLib.c ****                     CY_SYS_CLK_OSCINTF_CTL_PORT_SEL_WCO;
 196:Generated_Source\PSoC4/CyLib.c ****             #endif /* (CY_IP_IMO_TRIMMABLE_BY_WCO && CY_IP_IMO_TRIMMABLE_BY_USB) */
 197:Generated_Source\PSoC4/CyLib.c **** 
 198:Generated_Source\PSoC4/CyLib.c ****             /* Get current IMO frequency based on the register value */
 199:Generated_Source\PSoC4/CyLib.c ****             #if(CY_IP_SRSSV2)
 200:Generated_Source\PSoC4/CyLib.c ****                 freq = CY_SYS_CLK_IMO_MIN_FREQ_MHZ;
 273              		.loc 1 200 0
 274 002a 0323     		movs	r3, #3
 275 002c 3B61     		str	r3, [r7, #16]
 201:Generated_Source\PSoC4/CyLib.c ****                 for(i = 0u; i < CY_SYS_CLK_IMO_FREQ_TABLE_SIZE; i++)
 276              		.loc 1 201 0
 277 002e 0023     		movs	r3, #0
 278 0030 7B61     		str	r3, [r7, #20]
 279 0032 11E0     		b	.L9
 280              	.L12:
 202:Generated_Source\PSoC4/CyLib.c ****                 {
 203:Generated_Source\PSoC4/CyLib.c ****                     if ((uint8) (CY_SYS_CLK_IMO_TRIM2_REG & CY_SYS_CLK_IMO_FREQ_BITS_MASK) == cyImo
 281              		.loc 1 203 0
 282 0034 3D4B     		ldr	r3, .L18+4
 283 0036 1B68     		ldr	r3, [r3]
 284 0038 1A00     		movs	r2, r3
 285 003a 3F23     		movs	r3, #63
 286 003c 1340     		ands	r3, r2
 287 003e 3C49     		ldr	r1, .L18+8
 288 0040 7A69     		ldr	r2, [r7, #20]
 289 0042 8A18     		adds	r2, r1, r2
 290 0044 1278     		ldrb	r2, [r2]
 291 0046 9342     		cmp	r3, r2
 292 0048 03D1     		bne	.L10
 204:Generated_Source\PSoC4/CyLib.c ****                     {
 205:Generated_Source\PSoC4/CyLib.c ****                         freq = i + CY_SYS_CLK_IMO_FREQ_TABLE_OFFSET;
 293              		.loc 1 205 0
 294 004a 7B69     		ldr	r3, [r7, #20]
 295 004c 0333     		adds	r3, r3, #3
 296 004e 3B61     		str	r3, [r7, #16]
 206:Generated_Source\PSoC4/CyLib.c ****                         break;
 297              		.loc 1 206 0
 298 0050 05E0     		b	.L11
 299              	.L10:
 201:Generated_Source\PSoC4/CyLib.c ****                 {
 300              		.loc 1 201 0 discriminator 2
 301 0052 7B69     		ldr	r3, [r7, #20]
ARM GAS  C:\Users\HPz420\AppData\Local\Temp\ccAdodLg.s 			page 10


 302 0054 0133     		adds	r3, r3, #1
 303 0056 7B61     		str	r3, [r7, #20]
 304              	.L9:
 201:Generated_Source\PSoC4/CyLib.c ****                 {
 305              		.loc 1 201 0 is_stmt 0 discriminator 1
 306 0058 7B69     		ldr	r3, [r7, #20]
 307 005a 2D2B     		cmp	r3, #45
 308 005c EAD9     		bls	.L12
 309              	.L11:
 207:Generated_Source\PSoC4/CyLib.c ****                     }
 208:Generated_Source\PSoC4/CyLib.c ****                 }
 209:Generated_Source\PSoC4/CyLib.c ****             #else
 210:Generated_Source\PSoC4/CyLib.c ****                 /* Calculate frequency by shifting register field value and adding constant. */
 211:Generated_Source\PSoC4/CyLib.c ****                 #if(CY_IP_SRSSLT)
 212:Generated_Source\PSoC4/CyLib.c ****                     freq = (((uint32) ((CY_SYS_CLK_IMO_SELECT_REG & ((uint32) CY_SYS_CLK_IMO_SELECT
 213:Generated_Source\PSoC4/CyLib.c ****                                         CY_SYS_CLK_IMO_SELECT_FREQ_SHIFT) + CY_SYS_CLK_IMO_MIN_FREQ
 214:Generated_Source\PSoC4/CyLib.c ****                                       ((CY_SYS_CLK_SELECT_REG >> CY_SYS_CLK_SELECT_HFCLK_DIV_SHIFT)
 215:Generated_Source\PSoC4/CyLib.c ****                                        (uint32) CY_SYS_CLK_SELECT_HFCLK_DIV_MASK));
 216:Generated_Source\PSoC4/CyLib.c ****                 #else
 217:Generated_Source\PSoC4/CyLib.c ****                     freq = ((uint32) ((CY_SYS_CLK_IMO_SELECT_REG & ((uint32) CY_SYS_CLK_IMO_SELECT_
 218:Generated_Source\PSoC4/CyLib.c ****                                        CY_SYS_CLK_IMO_SELECT_FREQ_SHIFT) + CY_SYS_CLK_IMO_MIN_FREQ_
 219:Generated_Source\PSoC4/CyLib.c ****                 #endif  /* (CY_IP_SRSSLT) */
 220:Generated_Source\PSoC4/CyLib.c **** 
 221:Generated_Source\PSoC4/CyLib.c ****             #endif  /* (CY_IP_SRSSV2) */
 222:Generated_Source\PSoC4/CyLib.c **** 
 223:Generated_Source\PSoC4/CyLib.c ****             /* For the WCO locking mode, the IMO gain needs to be CY_SYS_CLK_IMO_TRIM4_GAIN */
 224:Generated_Source\PSoC4/CyLib.c ****             #if(CY_IP_SRSSV2)
 225:Generated_Source\PSoC4/CyLib.c ****                 if ((CY_SYS_CLK_IMO_TRIM4_REG & CY_SYS_CLK_IMO_TRIM4_GAIN_MASK) == 0u)
 310              		.loc 1 225 0 is_stmt 1
 311 005e 354B     		ldr	r3, .L18+12
 312 0060 1B68     		ldr	r3, [r3]
 313 0062 1F22     		movs	r2, #31
 314 0064 1340     		ands	r3, r2
 315 0066 07D1     		bne	.L13
 226:Generated_Source\PSoC4/CyLib.c ****                 {
 227:Generated_Source\PSoC4/CyLib.c **** 			         CY_SYS_CLK_IMO_TRIM4_REG = (CY_SYS_CLK_IMO_TRIM4_REG & (uint32) ~CY_SYS_CLK_IMO_TRIM4_G
 316              		.loc 1 227 0
 317 0068 324B     		ldr	r3, .L18+12
 318 006a 324A     		ldr	r2, .L18+12
 319 006c 1268     		ldr	r2, [r2]
 320 006e 1F21     		movs	r1, #31
 321 0070 8A43     		bics	r2, r1
 322 0072 0C21     		movs	r1, #12
 323 0074 0A43     		orrs	r2, r1
 324 0076 1A60     		str	r2, [r3]
 325              	.L13:
 228:Generated_Source\PSoC4/CyLib.c **** 			                  				     CY_SYS_CLK_IMO_TRIM4_WCO_GAIN;
 229:Generated_Source\PSoC4/CyLib.c ****                 }
 230:Generated_Source\PSoC4/CyLib.c ****             #endif /* (CY_IP_SRSSV2) */
 231:Generated_Source\PSoC4/CyLib.c **** 
 232:Generated_Source\PSoC4/CyLib.c ****             regTmp  = CY_SYS_CLK_WCO_DPLL_REG & ~(CY_SYS_CLK_WCO_DPLL_MULT_MASK |
 326              		.loc 1 232 0
 327 0078 2F4B     		ldr	r3, .L18+16
 328 007a 1B68     		ldr	r3, [r3]
 329 007c 2F4A     		ldr	r2, .L18+20
 330 007e 1340     		ands	r3, r2
 331 0080 FB60     		str	r3, [r7, #12]
ARM GAS  C:\Users\HPz420\AppData\Local\Temp\ccAdodLg.s 			page 11


 233:Generated_Source\PSoC4/CyLib.c ****                                                   CY_SYS_CLK_WCO_CONFIG_DPLL_LF_IGAIN_MASK |
 234:Generated_Source\PSoC4/CyLib.c ****                                                   CY_SYS_CLK_WCO_CONFIG_DPLL_LF_PGAIN_MASK |
 235:Generated_Source\PSoC4/CyLib.c ****                                                   CY_SYS_CLK_WCO_CONFIG_DPLL_LF_LIMIT_MASK);
 236:Generated_Source\PSoC4/CyLib.c **** 
 237:Generated_Source\PSoC4/CyLib.c ****             /* Set multiplier to determine IMO frequency in multiples of the WCO frequency */
 238:Generated_Source\PSoC4/CyLib.c ****             regTmp |= (CY_SYS_CLK_WCO_DPLL_MULT_VALUE(freq) & CY_SYS_CLK_WCO_DPLL_MULT_MASK);
 332              		.loc 1 238 0
 333 0082 3B69     		ldr	r3, [r7, #16]
 334 0084 2E4A     		ldr	r2, .L18+24
 335 0086 5343     		muls	r3, r2
 336 0088 8022     		movs	r2, #128
 337 008a D201     		lsls	r2, r2, #7
 338 008c 9446     		mov	ip, r2
 339 008e 6344     		add	r3, r3, ip
 340 0090 DB0B     		lsrs	r3, r3, #15
 341 0092 013B     		subs	r3, r3, #1
 342 0094 5B05     		lsls	r3, r3, #21
 343 0096 5B0D     		lsrs	r3, r3, #21
 344 0098 FA68     		ldr	r2, [r7, #12]
 345 009a 1343     		orrs	r3, r2
 346 009c FB60     		str	r3, [r7, #12]
 239:Generated_Source\PSoC4/CyLib.c **** 
 240:Generated_Source\PSoC4/CyLib.c ****             /* Set DPLL Loop Filter Integral and Proportional Gains Setting */
 241:Generated_Source\PSoC4/CyLib.c ****             regTmp |= (CY_SYS_CLK_WCO_CONFIG_DPLL_LF_IGAIN | CY_SYS_CLK_WCO_CONFIG_DPLL_LF_PGAIN);
 347              		.loc 1 241 0
 348 009e FB68     		ldr	r3, [r7, #12]
 349 00a0 A022     		movs	r2, #160
 350 00a2 5203     		lsls	r2, r2, #13
 351 00a4 1343     		orrs	r3, r2
 352 00a6 FB60     		str	r3, [r7, #12]
 242:Generated_Source\PSoC4/CyLib.c **** 
 243:Generated_Source\PSoC4/CyLib.c ****             /* Set maximum allowed IMO offset */
 244:Generated_Source\PSoC4/CyLib.c ****             if (freq < CY_SYS_CLK_IMO_FREQ_WCO_DPLL_SAFE_POINT)
 353              		.loc 1 244 0
 354 00a8 3B69     		ldr	r3, [r7, #16]
 355 00aa 192B     		cmp	r3, #25
 356 00ac 05D8     		bhi	.L14
 245:Generated_Source\PSoC4/CyLib.c ****             {
 246:Generated_Source\PSoC4/CyLib.c ****                 regTmp |= (CY_SYS_CLK_WCO_CONFIG_DPLL_LF_LIMIT_MAX << CY_SYS_CLK_WCO_CONFIG_DPLL_LF
 357              		.loc 1 246 0
 358 00ae FB68     		ldr	r3, [r7, #12]
 359 00b0 FF22     		movs	r2, #255
 360 00b2 9205     		lsls	r2, r2, #22
 361 00b4 1343     		orrs	r3, r2
 362 00b6 FB60     		str	r3, [r7, #12]
 363 00b8 16E0     		b	.L15
 364              	.L14:
 247:Generated_Source\PSoC4/CyLib.c ****             }
 248:Generated_Source\PSoC4/CyLib.c ****             else
 249:Generated_Source\PSoC4/CyLib.c ****             {
 250:Generated_Source\PSoC4/CyLib.c ****                 lfLimit = (uint32) CY_SFLASH_IMO_TRIM_REG(freq - CY_SYS_CLK_IMO_MIN_FREQ_MHZ) +
 365              		.loc 1 250 0
 366 00ba 3B69     		ldr	r3, [r7, #16]
 367 00bc 214A     		ldr	r2, .L18+28
 368 00be 9446     		mov	ip, r2
 369 00c0 6344     		add	r3, r3, ip
 370 00c2 1B78     		ldrb	r3, [r3]
ARM GAS  C:\Users\HPz420\AppData\Local\Temp\ccAdodLg.s 			page 12


 371 00c4 DBB2     		uxtb	r3, r3
 372 00c6 1900     		movs	r1, r3
 251:Generated_Source\PSoC4/CyLib.c ****                     cyImoFreqMhz2DpllOffset[freq - CY_SYS_CLK_IMO_FREQ_WCO_DPLL_TABLE_OFFSET];
 373              		.loc 1 251 0
 374 00c8 3B69     		ldr	r3, [r7, #16]
 375 00ca 1A3B     		subs	r3, r3, #26
 376 00cc 1E4A     		ldr	r2, .L18+32
 377 00ce D35C     		ldrb	r3, [r2, r3]
 250:Generated_Source\PSoC4/CyLib.c ****                     cyImoFreqMhz2DpllOffset[freq - CY_SYS_CLK_IMO_FREQ_WCO_DPLL_TABLE_OFFSET];
 378              		.loc 1 250 0
 379 00d0 CB18     		adds	r3, r1, r3
 380 00d2 BB60     		str	r3, [r7, #8]
 252:Generated_Source\PSoC4/CyLib.c **** 
 253:Generated_Source\PSoC4/CyLib.c ****                 lfLimit = (lfLimit > CY_SYS_CLK_WCO_CONFIG_DPLL_LF_LIMIT_MAX) ?
 381              		.loc 1 253 0
 382 00d4 BB68     		ldr	r3, [r7, #8]
 383 00d6 FF2B     		cmp	r3, #255
 384 00d8 00D9     		bls	.L16
 385 00da FF23     		movs	r3, #255
 386              	.L16:
 387 00dc BB60     		str	r3, [r7, #8]
 254:Generated_Source\PSoC4/CyLib.c ****                     CY_SYS_CLK_WCO_CONFIG_DPLL_LF_LIMIT_MAX : lfLimit;
 255:Generated_Source\PSoC4/CyLib.c **** 
 256:Generated_Source\PSoC4/CyLib.c ****                 regTmp |= (lfLimit << CY_SYS_CLK_WCO_CONFIG_DPLL_LF_LIMIT_SHIFT);
 388              		.loc 1 256 0
 389 00de BB68     		ldr	r3, [r7, #8]
 390 00e0 9B05     		lsls	r3, r3, #22
 391 00e2 FA68     		ldr	r2, [r7, #12]
 392 00e4 1343     		orrs	r3, r2
 393 00e6 FB60     		str	r3, [r7, #12]
 394              	.L15:
 257:Generated_Source\PSoC4/CyLib.c ****             }
 258:Generated_Source\PSoC4/CyLib.c **** 
 259:Generated_Source\PSoC4/CyLib.c ****             CY_SYS_CLK_WCO_DPLL_REG = regTmp;
 395              		.loc 1 259 0
 396 00e8 134B     		ldr	r3, .L18+16
 397 00ea FA68     		ldr	r2, [r7, #12]
 398 00ec 1A60     		str	r2, [r3]
 260:Generated_Source\PSoC4/CyLib.c **** 
 261:Generated_Source\PSoC4/CyLib.c ****             flashCtlReg = CY_FLASH_CTL_REG;
 399              		.loc 1 261 0
 400 00ee 174B     		ldr	r3, .L18+36
 401 00f0 1B68     		ldr	r3, [r3]
 402 00f2 3B60     		str	r3, [r7]
 262:Generated_Source\PSoC4/CyLib.c ****             CySysFlashSetWaitCycles(CY_SYS_CLK_IMO_MAX_FREQ_MHZ);
 403              		.loc 1 262 0
 404 00f4 3020     		movs	r0, #48
 405 00f6 FFF7FEFF 		bl	CySysFlashSetWaitCycles
 263:Generated_Source\PSoC4/CyLib.c ****             CY_SYS_CLK_WCO_CONFIG_REG |= CY_SYS_CLK_WCO_CONFIG_DPLL_ENABLE;
 406              		.loc 1 263 0
 407 00fa 154B     		ldr	r3, .L18+40
 408 00fc 144A     		ldr	r2, .L18+40
 409 00fe 1268     		ldr	r2, [r2]
 410 0100 8021     		movs	r1, #128
 411 0102 C905     		lsls	r1, r1, #23
 412 0104 0A43     		orrs	r2, r1
 413 0106 1A60     		str	r2, [r3]
ARM GAS  C:\Users\HPz420\AppData\Local\Temp\ccAdodLg.s 			page 13


 264:Generated_Source\PSoC4/CyLib.c ****             CyDelay(CY_SYS_CLK_WCO_IMO_TIMEOUT_MS);
 414              		.loc 1 264 0
 415 0108 1420     		movs	r0, #20
 416 010a FFF7FEFF 		bl	CyDelay
 265:Generated_Source\PSoC4/CyLib.c ****             CY_FLASH_CTL_REG = flashCtlReg;
 417              		.loc 1 265 0
 418 010e 0F4B     		ldr	r3, .L18+36
 419 0110 3A68     		ldr	r2, [r7]
 420 0112 1A60     		str	r2, [r3]
 266:Generated_Source\PSoC4/CyLib.c **** 
 267:Generated_Source\PSoC4/CyLib.c ****             CyExitCriticalSection(interruptState);
 421              		.loc 1 267 0
 422 0114 FB1D     		adds	r3, r7, #7
 423 0116 1B78     		ldrb	r3, [r3]
 424 0118 1800     		movs	r0, r3
 425 011a FFF7FEFF 		bl	CyExitCriticalSection
 426              	.L17:
 268:Generated_Source\PSoC4/CyLib.c ****         }
 269:Generated_Source\PSoC4/CyLib.c ****     }
 427              		.loc 1 269 0
 428 011e C046     		nop
 429 0120 BD46     		mov	sp, r7
 430 0122 07B0     		add	sp, sp, #28
 431              		@ sp needed
 432 0124 90BD     		pop	{r4, r7, pc}
 433              	.L19:
 434 0126 C046     		.align	2
 435              	.L18:
 436 0128 50000C40 		.word	1074528336
 437 012c 2CFF0B40 		.word	1074528044
 438 0130 00000000 		.word	cyImoFreqMhz2Reg
 439 0134 34FF0B40 		.word	1074528052
 440 0138 08002240 		.word	1075970056
 441 013c 00F800C0 		.word	-1073678336
 442 0140 40420F00 		.word	1000000
 443 0144 4DF3FF0F 		.word	268432205
 444 0148 00000000 		.word	cyImoFreqMhz2DpllOffset
 445 014c 30001040 		.word	1074790448
 446 0150 00002240 		.word	1075970048
 447              		.cfi_endproc
 448              	.LFE3:
 449              		.size	CySysClkImoEnableWcoLock, .-CySysClkImoEnableWcoLock
 450              		.section	.text.CySysClkImoDisableWcoLock,"ax",%progbits
 451              		.align	2
 452              		.global	CySysClkImoDisableWcoLock
 453              		.code	16
 454              		.thumb_func
 455              		.type	CySysClkImoDisableWcoLock, %function
 456              	CySysClkImoDisableWcoLock:
 457              	.LFB4:
 270:Generated_Source\PSoC4/CyLib.c **** 
 271:Generated_Source\PSoC4/CyLib.c **** 
 272:Generated_Source\PSoC4/CyLib.c ****     /*******************************************************************************
 273:Generated_Source\PSoC4/CyLib.c ****     * Function Name: CySysClkImoDisableWcoLock
 274:Generated_Source\PSoC4/CyLib.c ****     ****************************************************************************//**
 275:Generated_Source\PSoC4/CyLib.c ****     *
 276:Generated_Source\PSoC4/CyLib.c ****     * Disables the IMO to WCO lock feature.
ARM GAS  C:\Users\HPz420\AppData\Local\Temp\ccAdodLg.s 			page 14


 277:Generated_Source\PSoC4/CyLib.c ****     *
 278:Generated_Source\PSoC4/CyLib.c ****     * For PSoC 4200L devices, note that the IMO can lock to either WCO or USB
 279:Generated_Source\PSoC4/CyLib.c ****     * but not both.
 280:Generated_Source\PSoC4/CyLib.c ****     *
 281:Generated_Source\PSoC4/CyLib.c ****     * This function is applicable for PSoC 4100M / PSoC 4200M / PSoC 4000S /
 282:Generated_Source\PSoC4/CyLib.c ****     * PSoC 4100S / PSoC 4400 / PSoC 4200L.
 283:Generated_Source\PSoC4/CyLib.c ****     *
 284:Generated_Source\PSoC4/CyLib.c ****     *******************************************************************************/
 285:Generated_Source\PSoC4/CyLib.c ****     void CySysClkImoDisableWcoLock(void)
 286:Generated_Source\PSoC4/CyLib.c ****     {
 458              		.loc 1 286 0
 459              		.cfi_startproc
 460              		@ args = 0, pretend = 0, frame = 0
 461              		@ frame_needed = 1, uses_anonymous_args = 0
 462 0000 80B5     		push	{r7, lr}
 463              		.cfi_def_cfa_offset 8
 464              		.cfi_offset 7, -8
 465              		.cfi_offset 14, -4
 466 0002 00AF     		add	r7, sp, #0
 467              		.cfi_def_cfa_register 7
 287:Generated_Source\PSoC4/CyLib.c ****         CY_SYS_CLK_WCO_CONFIG_REG &= (uint32) ~CY_SYS_CLK_WCO_CONFIG_DPLL_ENABLE;
 468              		.loc 1 287 0
 469 0004 044B     		ldr	r3, .L21
 470 0006 044A     		ldr	r2, .L21
 471 0008 1268     		ldr	r2, [r2]
 472 000a 0449     		ldr	r1, .L21+4
 473 000c 0A40     		ands	r2, r1
 474 000e 1A60     		str	r2, [r3]
 288:Generated_Source\PSoC4/CyLib.c ****     }
 475              		.loc 1 288 0
 476 0010 C046     		nop
 477 0012 BD46     		mov	sp, r7
 478              		@ sp needed
 479 0014 80BD     		pop	{r7, pc}
 480              	.L22:
 481 0016 C046     		.align	2
 482              	.L21:
 483 0018 00002240 		.word	1075970048
 484 001c FFFFFFBF 		.word	-1073741825
 485              		.cfi_endproc
 486              	.LFE4:
 487              		.size	CySysClkImoDisableWcoLock, .-CySysClkImoDisableWcoLock
 488              		.section	.text.CySysClkImoGetWcoLock,"ax",%progbits
 489              		.align	2
 490              		.global	CySysClkImoGetWcoLock
 491              		.code	16
 492              		.thumb_func
 493              		.type	CySysClkImoGetWcoLock, %function
 494              	CySysClkImoGetWcoLock:
 495              	.LFB5:
 289:Generated_Source\PSoC4/CyLib.c **** 
 290:Generated_Source\PSoC4/CyLib.c **** 
 291:Generated_Source\PSoC4/CyLib.c ****     /*******************************************************************************
 292:Generated_Source\PSoC4/CyLib.c ****     * Function Name: CySysClkImoGetWcoLock
 293:Generated_Source\PSoC4/CyLib.c ****     ****************************************************************************//**
 294:Generated_Source\PSoC4/CyLib.c ****     *
 295:Generated_Source\PSoC4/CyLib.c ****     * Reports the IMO to WCO lock enable state.
ARM GAS  C:\Users\HPz420\AppData\Local\Temp\ccAdodLg.s 			page 15


 296:Generated_Source\PSoC4/CyLib.c ****     *
 297:Generated_Source\PSoC4/CyLib.c ****     * This function is applicable for PSoC 4100M / PSoC 4200M / PSoC 4000S /
 298:Generated_Source\PSoC4/CyLib.c ****     * PSoC 4100S / PSoC 4400 / PSoC 4200L.
 299:Generated_Source\PSoC4/CyLib.c ****     *
 300:Generated_Source\PSoC4/CyLib.c ****     * \return 1 if IMO to WCO lock is enabled.
 301:Generated_Source\PSoC4/CyLib.c ****     * \return 0 if IMO to WCO lock is disabled.
 302:Generated_Source\PSoC4/CyLib.c ****     *
 303:Generated_Source\PSoC4/CyLib.c ****     *******************************************************************************/
 304:Generated_Source\PSoC4/CyLib.c ****     uint32 CySysClkImoGetWcoLock(void)
 305:Generated_Source\PSoC4/CyLib.c ****     {
 496              		.loc 1 305 0
 497              		.cfi_startproc
 498              		@ args = 0, pretend = 0, frame = 0
 499              		@ frame_needed = 1, uses_anonymous_args = 0
 500 0000 80B5     		push	{r7, lr}
 501              		.cfi_def_cfa_offset 8
 502              		.cfi_offset 7, -8
 503              		.cfi_offset 14, -4
 504 0002 00AF     		add	r7, sp, #0
 505              		.cfi_def_cfa_register 7
 306:Generated_Source\PSoC4/CyLib.c ****         return ((0u != (CY_SYS_CLK_WCO_CONFIG_REG & CY_SYS_CLK_WCO_CONFIG_DPLL_ENABLE)) ?
 506              		.loc 1 306 0
 507 0004 054B     		ldr	r3, .L27
 508 0006 1A68     		ldr	r2, [r3]
 509 0008 8023     		movs	r3, #128
 510 000a DB05     		lsls	r3, r3, #23
 511 000c 1340     		ands	r3, r2
 307:Generated_Source\PSoC4/CyLib.c ****                 (uint32) 1u :
 512              		.loc 1 307 0
 513 000e 01D0     		beq	.L24
 514              		.loc 1 307 0 is_stmt 0 discriminator 1
 515 0010 0123     		movs	r3, #1
 306:Generated_Source\PSoC4/CyLib.c ****         return ((0u != (CY_SYS_CLK_WCO_CONFIG_REG & CY_SYS_CLK_WCO_CONFIG_DPLL_ENABLE)) ?
 516              		.loc 1 306 0 is_stmt 1 discriminator 1
 517 0012 00E0     		b	.L26
 518              	.L24:
 519              		.loc 1 307 0 discriminator 2
 520 0014 0023     		movs	r3, #0
 521              	.L26:
 308:Generated_Source\PSoC4/CyLib.c ****                 (uint32) 0u);
 309:Generated_Source\PSoC4/CyLib.c ****     }
 522              		.loc 1 309 0 discriminator 1
 523 0016 1800     		movs	r0, r3
 524 0018 BD46     		mov	sp, r7
 525              		@ sp needed
 526 001a 80BD     		pop	{r7, pc}
 527              	.L28:
 528              		.align	2
 529              	.L27:
 530 001c 00002240 		.word	1075970048
 531              		.cfi_endproc
 532              	.LFE5:
 533              		.size	CySysClkImoGetWcoLock, .-CySysClkImoGetWcoLock
 534              		.section	.text.CySysClkImoEnableUsbLock,"ax",%progbits
 535              		.align	2
 536              		.global	CySysClkImoEnableUsbLock
 537              		.code	16
ARM GAS  C:\Users\HPz420\AppData\Local\Temp\ccAdodLg.s 			page 16


 538              		.thumb_func
 539              		.type	CySysClkImoEnableUsbLock, %function
 540              	CySysClkImoEnableUsbLock:
 541              	.LFB6:
 310:Generated_Source\PSoC4/CyLib.c **** 
 311:Generated_Source\PSoC4/CyLib.c **** #endif /* (CY_IP_IMO_TRIMMABLE_BY_WCO) */
 312:Generated_Source\PSoC4/CyLib.c **** 
 313:Generated_Source\PSoC4/CyLib.c **** 
 314:Generated_Source\PSoC4/CyLib.c **** #if (CY_IP_IMO_TRIMMABLE_BY_USB)
 315:Generated_Source\PSoC4/CyLib.c **** 
 316:Generated_Source\PSoC4/CyLib.c ****     /*******************************************************************************
 317:Generated_Source\PSoC4/CyLib.c ****     * Function Name: CySysClkImoEnableUsbLock
 318:Generated_Source\PSoC4/CyLib.c ****     ****************************************************************************//**
 319:Generated_Source\PSoC4/CyLib.c ****     *
 320:Generated_Source\PSoC4/CyLib.c ****     * Enables the IMO to USB lock feature.
 321:Generated_Source\PSoC4/CyLib.c ****     *
 322:Generated_Source\PSoC4/CyLib.c ****     * This function must be called before CySysClkWriteImoFreq().
 323:Generated_Source\PSoC4/CyLib.c ****     *
 324:Generated_Source\PSoC4/CyLib.c ****     * This function is called from CySysClkImoStart() function if USB lock
 325:Generated_Source\PSoC4/CyLib.c ****     * selected in the Design Wide Resources tab.
 326:Generated_Source\PSoC4/CyLib.c ****     *
 327:Generated_Source\PSoC4/CyLib.c ****     * This is applicable for PSoC 4200L family of devices only. For PSoC 4200L
 328:Generated_Source\PSoC4/CyLib.c ****     * devices, the IMO can lock to either WCO or USB, but not both.
 329:Generated_Source\PSoC4/CyLib.c ****     *
 330:Generated_Source\PSoC4/CyLib.c ****     *******************************************************************************/
 331:Generated_Source\PSoC4/CyLib.c ****     void CySysClkImoEnableUsbLock(void)
 332:Generated_Source\PSoC4/CyLib.c ****     {
 542              		.loc 1 332 0
 543              		.cfi_startproc
 544              		@ args = 0, pretend = 0, frame = 0
 545              		@ frame_needed = 1, uses_anonymous_args = 0
 546 0000 80B5     		push	{r7, lr}
 547              		.cfi_def_cfa_offset 8
 548              		.cfi_offset 7, -8
 549              		.cfi_offset 14, -4
 550 0002 00AF     		add	r7, sp, #0
 551              		.cfi_def_cfa_register 7
 333:Generated_Source\PSoC4/CyLib.c ****         /* Set oscillator interface control port to USB */
 334:Generated_Source\PSoC4/CyLib.c ****         #if (CY_IP_IMO_TRIMMABLE_BY_WCO && CY_IP_IMO_TRIMMABLE_BY_USB)
 335:Generated_Source\PSoC4/CyLib.c ****             CY_SYS_CLK_OSCINTF_CTL_REG = (CY_SYS_CLK_OSCINTF_CTL_REG & (uint32) ~CY_SYS_CLK_OSCINTF
 552              		.loc 1 335 0
 553 0004 0E4B     		ldr	r3, .L30
 554 0006 0E4A     		ldr	r2, .L30
 555 0008 1268     		ldr	r2, [r2]
 556 000a 0121     		movs	r1, #1
 557 000c 8A43     		bics	r2, r1
 558 000e 1A60     		str	r2, [r3]
 336:Generated_Source\PSoC4/CyLib.c ****                                           CY_SYS_CLK_OSCINTF_CTL_PORT_SEL_USB;
 337:Generated_Source\PSoC4/CyLib.c ****         #endif /* (CY_IP_IMO_TRIMMABLE_BY_WCO && CY_IP_IMO_TRIMMABLE_BY_USB) */
 338:Generated_Source\PSoC4/CyLib.c **** 
 339:Generated_Source\PSoC4/CyLib.c ****         #if(CY_IP_SRSSV2)
 340:Generated_Source\PSoC4/CyLib.c ****             /* Save CY_SYS_CLK_IMO_TRIM4_REG and set IMO gain for USB lock */
 341:Generated_Source\PSoC4/CyLib.c ****             CySysClkImoTrim4 = CY_SYS_CLK_IMO_TRIM4_REG & (uint32) ~CY_SYS_CLK_IMO_TRIM4_GAIN_MASK;
 559              		.loc 1 341 0
 560 0010 0C4B     		ldr	r3, .L30+4
 561 0012 1B68     		ldr	r3, [r3]
 562 0014 1F22     		movs	r2, #31
ARM GAS  C:\Users\HPz420\AppData\Local\Temp\ccAdodLg.s 			page 17


 563 0016 9343     		bics	r3, r2
 564 0018 1A00     		movs	r2, r3
 565 001a 0B4B     		ldr	r3, .L30+8
 566 001c 1A60     		str	r2, [r3]
 342:Generated_Source\PSoC4/CyLib.c ****             CY_SYS_CLK_IMO_TRIM4_REG = (CY_SYS_CLK_IMO_TRIM4_REG & (uint32) ~CY_SYS_CLK_IMO_TRIM4_G
 567              		.loc 1 342 0
 568 001e 094B     		ldr	r3, .L30+4
 569 0020 084A     		ldr	r2, .L30+4
 570 0022 1268     		ldr	r2, [r2]
 571 0024 1F21     		movs	r1, #31
 572 0026 8A43     		bics	r2, r1
 573 0028 0821     		movs	r1, #8
 574 002a 0A43     		orrs	r2, r1
 575 002c 1A60     		str	r2, [r3]
 343:Generated_Source\PSoC4/CyLib.c ****                                         CY_SYS_CLK_IMO_TRIM4_USB_GAIN;
 344:Generated_Source\PSoC4/CyLib.c ****         #endif  /* (CY_IP_SRSSV2) */
 345:Generated_Source\PSoC4/CyLib.c **** 
 346:Generated_Source\PSoC4/CyLib.c ****         CY_SYS_CLK_USBDEVv2_CR1_REG |= CY_SYS_CLK_USBDEVv2_CR1_ENABLE_LOCK;
 576              		.loc 1 346 0
 577 002e 074B     		ldr	r3, .L30+12
 578 0030 064A     		ldr	r2, .L30+12
 579 0032 1268     		ldr	r2, [r2]
 580 0034 0221     		movs	r1, #2
 581 0036 0A43     		orrs	r2, r1
 582 0038 1A60     		str	r2, [r3]
 347:Generated_Source\PSoC4/CyLib.c ****     }
 583              		.loc 1 347 0
 584 003a C046     		nop
 585 003c BD46     		mov	sp, r7
 586              		@ sp needed
 587 003e 80BD     		pop	{r7, pc}
 588              	.L31:
 589              		.align	2
 590              	.L30:
 591 0040 50000C40 		.word	1074528336
 592 0044 34FF0B40 		.word	1074528052
 593 0048 00000000 		.word	CySysClkImoTrim4
 594 004c 24002C40 		.word	1076625444
 595              		.cfi_endproc
 596              	.LFE6:
 597              		.size	CySysClkImoEnableUsbLock, .-CySysClkImoEnableUsbLock
 598              		.section	.text.CySysClkImoDisableUsbLock,"ax",%progbits
 599              		.align	2
 600              		.global	CySysClkImoDisableUsbLock
 601              		.code	16
 602              		.thumb_func
 603              		.type	CySysClkImoDisableUsbLock, %function
 604              	CySysClkImoDisableUsbLock:
 605              	.LFB7:
 348:Generated_Source\PSoC4/CyLib.c **** 
 349:Generated_Source\PSoC4/CyLib.c **** 
 350:Generated_Source\PSoC4/CyLib.c ****     /*******************************************************************************
 351:Generated_Source\PSoC4/CyLib.c ****     * Function Name: CySysClkImoDisableUsbLock
 352:Generated_Source\PSoC4/CyLib.c ****     ****************************************************************************//**
 353:Generated_Source\PSoC4/CyLib.c ****     *
 354:Generated_Source\PSoC4/CyLib.c ****     * Disables the IMO to USB lock feature.
 355:Generated_Source\PSoC4/CyLib.c ****     *
ARM GAS  C:\Users\HPz420\AppData\Local\Temp\ccAdodLg.s 			page 18


 356:Generated_Source\PSoC4/CyLib.c ****     * This function is called from CySysClkImoStop() function if USB lock selected
 357:Generated_Source\PSoC4/CyLib.c ****     * in the Design Wide Resources tab.
 358:Generated_Source\PSoC4/CyLib.c ****     *
 359:Generated_Source\PSoC4/CyLib.c ****     * This is applicable for PSoC 4200L family of devices only. For PSoC 4200L
 360:Generated_Source\PSoC4/CyLib.c ****     * devices, the IMO can lock to either WCO or USB, but not both.
 361:Generated_Source\PSoC4/CyLib.c ****     *
 362:Generated_Source\PSoC4/CyLib.c ****     *******************************************************************************/
 363:Generated_Source\PSoC4/CyLib.c ****     void CySysClkImoDisableUsbLock(void)
 364:Generated_Source\PSoC4/CyLib.c ****     {
 606              		.loc 1 364 0
 607              		.cfi_startproc
 608              		@ args = 0, pretend = 0, frame = 0
 609              		@ frame_needed = 1, uses_anonymous_args = 0
 610 0000 80B5     		push	{r7, lr}
 611              		.cfi_def_cfa_offset 8
 612              		.cfi_offset 7, -8
 613              		.cfi_offset 14, -4
 614 0002 00AF     		add	r7, sp, #0
 615              		.cfi_def_cfa_register 7
 365:Generated_Source\PSoC4/CyLib.c ****         CY_SYS_CLK_USBDEVv2_CR1_REG &= (uint32) ~CY_SYS_CLK_USBDEVv2_CR1_ENABLE_LOCK;
 616              		.loc 1 365 0
 617 0004 094B     		ldr	r3, .L33
 618 0006 094A     		ldr	r2, .L33
 619 0008 1268     		ldr	r2, [r2]
 620 000a 0221     		movs	r1, #2
 621 000c 8A43     		bics	r2, r1
 622 000e 1A60     		str	r2, [r3]
 366:Generated_Source\PSoC4/CyLib.c **** 
 367:Generated_Source\PSoC4/CyLib.c ****         #if(CY_IP_SRSSV2)
 368:Generated_Source\PSoC4/CyLib.c ****             /* Restore CY_SYS_CLK_IMO_TRIM4_REG */
 369:Generated_Source\PSoC4/CyLib.c ****             CY_SYS_CLK_IMO_TRIM4_REG = (CY_SYS_CLK_IMO_TRIM4_REG & (uint32) ~CY_SYS_CLK_IMO_TRIM4_G
 623              		.loc 1 369 0
 624 0010 074A     		ldr	r2, .L33+4
 625 0012 074B     		ldr	r3, .L33+4
 626 0014 1B68     		ldr	r3, [r3]
 627 0016 1F21     		movs	r1, #31
 628 0018 8B43     		bics	r3, r1
 629 001a 1900     		movs	r1, r3
 630 001c 054B     		ldr	r3, .L33+8
 631 001e 1B68     		ldr	r3, [r3]
 632 0020 0B43     		orrs	r3, r1
 633 0022 1360     		str	r3, [r2]
 370:Generated_Source\PSoC4/CyLib.c ****                                     CySysClkImoTrim4;
 371:Generated_Source\PSoC4/CyLib.c ****         #endif  /* (CY_IP_SRSSV2) */
 372:Generated_Source\PSoC4/CyLib.c ****     }
 634              		.loc 1 372 0
 635 0024 C046     		nop
 636 0026 BD46     		mov	sp, r7
 637              		@ sp needed
 638 0028 80BD     		pop	{r7, pc}
 639              	.L34:
 640 002a C046     		.align	2
 641              	.L33:
 642 002c 24002C40 		.word	1076625444
 643 0030 34FF0B40 		.word	1074528052
 644 0034 00000000 		.word	CySysClkImoTrim4
 645              		.cfi_endproc
ARM GAS  C:\Users\HPz420\AppData\Local\Temp\ccAdodLg.s 			page 19


 646              	.LFE7:
 647              		.size	CySysClkImoDisableUsbLock, .-CySysClkImoDisableUsbLock
 648              		.section	.text.CySysClkImoGetUsbLock,"ax",%progbits
 649              		.align	2
 650              		.global	CySysClkImoGetUsbLock
 651              		.code	16
 652              		.thumb_func
 653              		.type	CySysClkImoGetUsbLock, %function
 654              	CySysClkImoGetUsbLock:
 655              	.LFB8:
 373:Generated_Source\PSoC4/CyLib.c **** 
 374:Generated_Source\PSoC4/CyLib.c **** 
 375:Generated_Source\PSoC4/CyLib.c ****     /*******************************************************************************
 376:Generated_Source\PSoC4/CyLib.c ****     * Function Name: CySysClkImoGetUsbLock
 377:Generated_Source\PSoC4/CyLib.c ****     ****************************************************************************//**
 378:Generated_Source\PSoC4/CyLib.c ****     *
 379:Generated_Source\PSoC4/CyLib.c ****     * Reports the IMO to USB lock enable state.
 380:Generated_Source\PSoC4/CyLib.c ****     *
 381:Generated_Source\PSoC4/CyLib.c ****     * This is applicable for PSoC 4200L family of devices only. For PSoC 4200L
 382:Generated_Source\PSoC4/CyLib.c ****     * devices, the IMO can lock to either WCO or USB, but not both.
 383:Generated_Source\PSoC4/CyLib.c ****     *
 384:Generated_Source\PSoC4/CyLib.c ****     * \return 1 if IMO to USB lock is enabled.
 385:Generated_Source\PSoC4/CyLib.c ****     * \return 0 if IMO to USB lock is disabled.
 386:Generated_Source\PSoC4/CyLib.c ****     *
 387:Generated_Source\PSoC4/CyLib.c ****     *******************************************************************************/
 388:Generated_Source\PSoC4/CyLib.c ****     uint32 CySysClkImoGetUsbLock(void)
 389:Generated_Source\PSoC4/CyLib.c ****     {
 656              		.loc 1 389 0
 657              		.cfi_startproc
 658              		@ args = 0, pretend = 0, frame = 0
 659              		@ frame_needed = 1, uses_anonymous_args = 0
 660 0000 80B5     		push	{r7, lr}
 661              		.cfi_def_cfa_offset 8
 662              		.cfi_offset 7, -8
 663              		.cfi_offset 14, -4
 664 0002 00AF     		add	r7, sp, #0
 665              		.cfi_def_cfa_register 7
 390:Generated_Source\PSoC4/CyLib.c ****         return ((0u != (CY_SYS_CLK_USBDEVv2_CR1_REG & CY_SYS_CLK_USBDEVv2_CR1_ENABLE_LOCK)) ?
 666              		.loc 1 390 0
 667 0004 054B     		ldr	r3, .L39
 668 0006 1B68     		ldr	r3, [r3]
 669 0008 0222     		movs	r2, #2
 670 000a 1340     		ands	r3, r2
 391:Generated_Source\PSoC4/CyLib.c ****                 (uint32) 1u :
 671              		.loc 1 391 0
 672 000c 01D0     		beq	.L36
 673              		.loc 1 391 0 is_stmt 0 discriminator 1
 674 000e 0123     		movs	r3, #1
 390:Generated_Source\PSoC4/CyLib.c ****         return ((0u != (CY_SYS_CLK_USBDEVv2_CR1_REG & CY_SYS_CLK_USBDEVv2_CR1_ENABLE_LOCK)) ?
 675              		.loc 1 390 0 is_stmt 1 discriminator 1
 676 0010 00E0     		b	.L38
 677              	.L36:
 678              		.loc 1 391 0 discriminator 2
 679 0012 0023     		movs	r3, #0
 680              	.L38:
 392:Generated_Source\PSoC4/CyLib.c ****                 (uint32) 0u);
 393:Generated_Source\PSoC4/CyLib.c ****     }
ARM GAS  C:\Users\HPz420\AppData\Local\Temp\ccAdodLg.s 			page 20


 681              		.loc 1 393 0 discriminator 1
 682 0014 1800     		movs	r0, r3
 683 0016 BD46     		mov	sp, r7
 684              		@ sp needed
 685 0018 80BD     		pop	{r7, pc}
 686              	.L40:
 687 001a C046     		.align	2
 688              	.L39:
 689 001c 24002C40 		.word	1076625444
 690              		.cfi_endproc
 691              	.LFE8:
 692              		.size	CySysClkImoGetUsbLock, .-CySysClkImoGetUsbLock
 693              		.section	.text.CySysClkWriteHfclkDirect,"ax",%progbits
 694              		.align	2
 695              		.global	CySysClkWriteHfclkDirect
 696              		.code	16
 697              		.thumb_func
 698              		.type	CySysClkWriteHfclkDirect, %function
 699              	CySysClkWriteHfclkDirect:
 700              	.LFB9:
 394:Generated_Source\PSoC4/CyLib.c **** #endif  /* (CY_IP_IMO_TRIMMABLE_BY_USB) */
 395:Generated_Source\PSoC4/CyLib.c **** 
 396:Generated_Source\PSoC4/CyLib.c **** 
 397:Generated_Source\PSoC4/CyLib.c **** 
 398:Generated_Source\PSoC4/CyLib.c **** /*******************************************************************************
 399:Generated_Source\PSoC4/CyLib.c **** * Function Name: CySysClkWriteHfclkDirect
 400:Generated_Source\PSoC4/CyLib.c **** ****************************************************************************//**
 401:Generated_Source\PSoC4/CyLib.c **** *
 402:Generated_Source\PSoC4/CyLib.c **** * Selects the direct source for the HFCLK.
 403:Generated_Source\PSoC4/CyLib.c **** *
 404:Generated_Source\PSoC4/CyLib.c **** * The new source must be running and stable before calling this function.
 405:Generated_Source\PSoC4/CyLib.c **** *
 406:Generated_Source\PSoC4/CyLib.c **** * PSoC 4000:
 407:Generated_Source\PSoC4/CyLib.c **** * The SYSCLK has a maximum speed of 16 MHz, so HFCLK and SYSCLK dividers should
 408:Generated_Source\PSoC4/CyLib.c **** * be selected in a way to not to exceed 16 MHz for the System clock.
 409:Generated_Source\PSoC4/CyLib.c **** *
 410:Generated_Source\PSoC4/CyLib.c **** * If the SYSCLK clock frequency increases during device operation, call
 411:Generated_Source\PSoC4/CyLib.c **** * CySysFlashSetWaitCycles() with the appropriate parameter to adjust the number
 412:Generated_Source\PSoC4/CyLib.c **** * of clock cycles the cache will wait before sampling data comes back from
 413:Generated_Source\PSoC4/CyLib.c **** * Flash. If the SYSCLK clock frequency decreases, you can call
 414:Generated_Source\PSoC4/CyLib.c **** * CySysFlashSetWaitCycles() to improve the CPU performance. See
 415:Generated_Source\PSoC4/CyLib.c **** * CySysFlashSetWaitCycles() description for more information.
 416:Generated_Source\PSoC4/CyLib.c **** *
 417:Generated_Source\PSoC4/CyLib.c **** * Do not select PLL as the source for HFCLK if PLL output frequency exceeds
 418:Generated_Source\PSoC4/CyLib.c **** * maximum permissible value for HFCLK.
 419:Generated_Source\PSoC4/CyLib.c **** *
 420:Generated_Source\PSoC4/CyLib.c **** * \param clkSelect One of the available HFCLK direct sources.
 421:Generated_Source\PSoC4/CyLib.c **** * CY_SYS_CLK_HFCLK_IMO     IMO.
 422:Generated_Source\PSoC4/CyLib.c **** * CY_SYS_CLK_HFCLK_EXTCLK  External clock pin.
 423:Generated_Source\PSoC4/CyLib.c **** * CY_SYS_CLK_HFCLK_ECO     External crystal oscillator. Applicable for
 424:Generated_Source\PSoC4/CyLib.c **** *                          PSoC 4100 BLE / PSoC 4200 BLE / PSoC 4200L.
 425:Generated_Source\PSoC4/CyLib.c **** * CY_SYS_CLK_HFCLK_PLL0    PLL#0. Applicable for PSoC 4200L.
 426:Generated_Source\PSoC4/CyLib.c **** * CY_SYS_CLK_HFCLK_PLL1    PLL#1. Applicable for PSoC 4200L.
 427:Generated_Source\PSoC4/CyLib.c **** *
 428:Generated_Source\PSoC4/CyLib.c **** *******************************************************************************/
 429:Generated_Source\PSoC4/CyLib.c **** void CySysClkWriteHfclkDirect(uint32 clkSelect)
 430:Generated_Source\PSoC4/CyLib.c **** {
ARM GAS  C:\Users\HPz420\AppData\Local\Temp\ccAdodLg.s 			page 21


 701              		.loc 1 430 0
 702              		.cfi_startproc
 703              		@ args = 0, pretend = 0, frame = 16
 704              		@ frame_needed = 1, uses_anonymous_args = 0
 705 0000 90B5     		push	{r4, r7, lr}
 706              		.cfi_def_cfa_offset 12
 707              		.cfi_offset 4, -12
 708              		.cfi_offset 7, -8
 709              		.cfi_offset 14, -4
 710 0002 85B0     		sub	sp, sp, #20
 711              		.cfi_def_cfa_offset 32
 712 0004 00AF     		add	r7, sp, #0
 713              		.cfi_def_cfa_register 7
 714 0006 7860     		str	r0, [r7, #4]
 431:Generated_Source\PSoC4/CyLib.c ****     uint8  interruptState;
 432:Generated_Source\PSoC4/CyLib.c ****     uint32 tmpReg;
 433:Generated_Source\PSoC4/CyLib.c **** 
 434:Generated_Source\PSoC4/CyLib.c ****     interruptState = CyEnterCriticalSection();
 715              		.loc 1 434 0
 716 0008 0B23     		movs	r3, #11
 717 000a FC18     		adds	r4, r7, r3
 718 000c FFF7FEFF 		bl	CyEnterCriticalSection
 719 0010 0300     		movs	r3, r0
 720 0012 2370     		strb	r3, [r4]
 435:Generated_Source\PSoC4/CyLib.c **** 
 436:Generated_Source\PSoC4/CyLib.c **** 
 437:Generated_Source\PSoC4/CyLib.c ****     tmpReg = CY_SYS_CLK_SELECT_REG & ~(CY_SYS_CLK_SELECT_DIRECT_SEL_MASK |
 721              		.loc 1 437 0
 722 0014 144B     		ldr	r3, .L45
 723 0016 1B68     		ldr	r3, [r3]
 724 0018 144A     		ldr	r2, .L45+4
 725 001a 1340     		ands	r3, r2
 726 001c FB60     		str	r3, [r7, #12]
 438:Generated_Source\PSoC4/CyLib.c ****                                        CY_SYS_CLK_SELECT_HFCLK_SEL_MASK);
 439:Generated_Source\PSoC4/CyLib.c **** 
 440:Generated_Source\PSoC4/CyLib.c **** #if (CY_IP_SRSSV2 && CY_IP_PLL)
 441:Generated_Source\PSoC4/CyLib.c ****     if ((CY_SYS_CLK_HFCLK_PLL0 == clkSelect) || (CY_SYS_CLK_HFCLK_PLL1 == clkSelect))
 727              		.loc 1 441 0
 728 001e 7A68     		ldr	r2, [r7, #4]
 729 0020 8023     		movs	r3, #128
 730 0022 9B02     		lsls	r3, r3, #10
 731 0024 9A42     		cmp	r2, r3
 732 0026 04D0     		beq	.L42
 733              		.loc 1 441 0 is_stmt 0 discriminator 1
 734 0028 7A68     		ldr	r2, [r7, #4]
 735 002a 8023     		movs	r3, #128
 736 002c 5B02     		lsls	r3, r3, #9
 737 002e 9A42     		cmp	r2, r3
 738 0030 07D1     		bne	.L43
 739              	.L42:
 442:Generated_Source\PSoC4/CyLib.c ****     {
 443:Generated_Source\PSoC4/CyLib.c ****         tmpReg |= (clkSelect & CY_SYS_CLK_SELECT_HFCLK_SEL_MASK);
 740              		.loc 1 443 0 is_stmt 1
 741 0032 7A68     		ldr	r2, [r7, #4]
 742 0034 C023     		movs	r3, #192
 743 0036 9B02     		lsls	r3, r3, #10
 744 0038 1340     		ands	r3, r2
ARM GAS  C:\Users\HPz420\AppData\Local\Temp\ccAdodLg.s 			page 22


 745 003a FA68     		ldr	r2, [r7, #12]
 746 003c 1343     		orrs	r3, r2
 747 003e FB60     		str	r3, [r7, #12]
 748 0040 05E0     		b	.L44
 749              	.L43:
 444:Generated_Source\PSoC4/CyLib.c ****     }
 445:Generated_Source\PSoC4/CyLib.c ****     else
 446:Generated_Source\PSoC4/CyLib.c **** #endif /* (CY_IP_SRSSV2 && CY_IP_PLL) */
 447:Generated_Source\PSoC4/CyLib.c ****     {
 448:Generated_Source\PSoC4/CyLib.c ****         tmpReg |= (clkSelect & CY_SYS_CLK_SELECT_DIRECT_SEL_MASK);
 750              		.loc 1 448 0
 751 0042 7B68     		ldr	r3, [r7, #4]
 752 0044 0722     		movs	r2, #7
 753 0046 1340     		ands	r3, r2
 754 0048 FA68     		ldr	r2, [r7, #12]
 755 004a 1343     		orrs	r3, r2
 756 004c FB60     		str	r3, [r7, #12]
 757              	.L44:
 449:Generated_Source\PSoC4/CyLib.c ****     }
 450:Generated_Source\PSoC4/CyLib.c **** 
 451:Generated_Source\PSoC4/CyLib.c ****     CY_SYS_CLK_SELECT_REG = tmpReg;
 758              		.loc 1 451 0
 759 004e 064B     		ldr	r3, .L45
 760 0050 FA68     		ldr	r2, [r7, #12]
 761 0052 1A60     		str	r2, [r3]
 452:Generated_Source\PSoC4/CyLib.c **** 
 453:Generated_Source\PSoC4/CyLib.c ****     CyExitCriticalSection(interruptState);
 762              		.loc 1 453 0
 763 0054 0B23     		movs	r3, #11
 764 0056 FB18     		adds	r3, r7, r3
 765 0058 1B78     		ldrb	r3, [r3]
 766 005a 1800     		movs	r0, r3
 767 005c FFF7FEFF 		bl	CyExitCriticalSection
 454:Generated_Source\PSoC4/CyLib.c **** }
 768              		.loc 1 454 0
 769 0060 C046     		nop
 770 0062 BD46     		mov	sp, r7
 771 0064 05B0     		add	sp, sp, #20
 772              		@ sp needed
 773 0066 90BD     		pop	{r4, r7, pc}
 774              	.L46:
 775              		.align	2
 776              	.L45:
 777 0068 00010B40 		.word	1074462976
 778 006c F8FFFCFF 		.word	-196616
 779              		.cfi_endproc
 780              	.LFE9:
 781              		.size	CySysClkWriteHfclkDirect, .-CySysClkWriteHfclkDirect
 782              		.section	.text.CySysEnablePumpClock,"ax",%progbits
 783              		.align	2
 784              		.global	CySysEnablePumpClock
 785              		.code	16
 786              		.thumb_func
 787              		.type	CySysEnablePumpClock, %function
 788              	CySysEnablePumpClock:
 789              	.LFB10:
 455:Generated_Source\PSoC4/CyLib.c **** 
ARM GAS  C:\Users\HPz420\AppData\Local\Temp\ccAdodLg.s 			page 23


 456:Generated_Source\PSoC4/CyLib.c **** 
 457:Generated_Source\PSoC4/CyLib.c **** /*******************************************************************************
 458:Generated_Source\PSoC4/CyLib.c **** * Function Name: CySysEnablePumpClock
 459:Generated_Source\PSoC4/CyLib.c **** ****************************************************************************//**
 460:Generated_Source\PSoC4/CyLib.c **** *
 461:Generated_Source\PSoC4/CyLib.c **** * Enables / disables the pump clock.
 462:Generated_Source\PSoC4/CyLib.c **** *
 463:Generated_Source\PSoC4/CyLib.c **** * \param enable  
 464:Generated_Source\PSoC4/CyLib.c **** * CY_SYS_CLK_PUMP_DISABLE - Disables the pump clock
 465:Generated_Source\PSoC4/CyLib.c **** * CY_SYS_CLK_PUMP_ENABLE - Enables and restores the operating source of 
 466:Generated_Source\PSoC4/CyLib.c **** * the pump clock.
 467:Generated_Source\PSoC4/CyLib.c **** *
 468:Generated_Source\PSoC4/CyLib.c **** * \sideeffect
 469:Generated_Source\PSoC4/CyLib.c **** *  Enabling/disabling the pump clock does not guarantee glitch free operation 
 470:Generated_Source\PSoC4/CyLib.c **** *  when changing the IMO parameters or clock divider settings.
 471:Generated_Source\PSoC4/CyLib.c **** *
 472:Generated_Source\PSoC4/CyLib.c **** *******************************************************************************/
 473:Generated_Source\PSoC4/CyLib.c **** void CySysEnablePumpClock(uint32 enable)
 474:Generated_Source\PSoC4/CyLib.c **** {
 790              		.loc 1 474 0
 791              		.cfi_startproc
 792              		@ args = 0, pretend = 0, frame = 8
 793              		@ frame_needed = 1, uses_anonymous_args = 0
 794 0000 80B5     		push	{r7, lr}
 795              		.cfi_def_cfa_offset 8
 796              		.cfi_offset 7, -8
 797              		.cfi_offset 14, -4
 798 0002 82B0     		sub	sp, sp, #8
 799              		.cfi_def_cfa_offset 16
 800 0004 00AF     		add	r7, sp, #0
 801              		.cfi_def_cfa_register 7
 802 0006 7860     		str	r0, [r7, #4]
 475:Generated_Source\PSoC4/CyLib.c ****     #if(CY_IP_SRSSV2)
 476:Generated_Source\PSoC4/CyLib.c ****         if (0u != (CY_SYS_CLK_PUMP_ENABLE & enable))
 803              		.loc 1 476 0
 804 0008 7B68     		ldr	r3, [r7, #4]
 805 000a 0122     		movs	r2, #1
 806 000c 1340     		ands	r3, r2
 807 000e 08D0     		beq	.L48
 477:Generated_Source\PSoC4/CyLib.c ****         {
 478:Generated_Source\PSoC4/CyLib.c ****             CY_SYS_CLK_IMO_CONFIG_REG |= (CySysClkPumpConfig << CY_SYS_CLK_IMO_CONFIG_PUMP_SEL_SHIF
 808              		.loc 1 478 0
 809 0010 0C4A     		ldr	r2, .L51
 810 0012 0C4B     		ldr	r3, .L51
 811 0014 1968     		ldr	r1, [r3]
 812 0016 0C4B     		ldr	r3, .L51+4
 813 0018 1B68     		ldr	r3, [r3]
 814 001a 5B06     		lsls	r3, r3, #25
 815 001c 0B43     		orrs	r3, r1
 816 001e 1360     		str	r3, [r2]
 479:Generated_Source\PSoC4/CyLib.c ****         }
 480:Generated_Source\PSoC4/CyLib.c ****         else
 481:Generated_Source\PSoC4/CyLib.c ****         {
 482:Generated_Source\PSoC4/CyLib.c ****             CySysClkPumpConfig = (CY_SYS_CLK_IMO_CONFIG_REG >> CY_SYS_CLK_IMO_CONFIG_PUMP_SEL_SHIFT
 483:Generated_Source\PSoC4/CyLib.c ****                                   CY_SYS_CLK_IMO_CONFIG_PUMP_SEL_MASK;
 484:Generated_Source\PSoC4/CyLib.c ****             CY_SYS_CLK_IMO_CONFIG_REG &= ~(CY_SYS_CLK_IMO_CONFIG_PUMP_SEL_MASK << CY_SYS_CLK_IMO_CO
 485:Generated_Source\PSoC4/CyLib.c ****         }
ARM GAS  C:\Users\HPz420\AppData\Local\Temp\ccAdodLg.s 			page 24


 486:Generated_Source\PSoC4/CyLib.c ****     #else /* CY_IP_SRSSLT */
 487:Generated_Source\PSoC4/CyLib.c ****         if (0u != (CY_SYS_CLK_PUMP_ENABLE & enable))
 488:Generated_Source\PSoC4/CyLib.c ****         {
 489:Generated_Source\PSoC4/CyLib.c ****             CY_SYS_CLK_SELECT_REG |= (CySysClkPumpConfig << CY_SYS_CLK_SELECT_PUMP_SEL_SHIFT);
 490:Generated_Source\PSoC4/CyLib.c ****         }
 491:Generated_Source\PSoC4/CyLib.c ****         else
 492:Generated_Source\PSoC4/CyLib.c ****         {
 493:Generated_Source\PSoC4/CyLib.c ****             CySysClkPumpConfig = (CY_SYS_CLK_SELECT_REG >> CY_SYS_CLK_SELECT_PUMP_SEL_SHIFT) & 
 494:Generated_Source\PSoC4/CyLib.c ****                                   CY_SYS_CLK_SELECT_PUMP_SEL_MASK;
 495:Generated_Source\PSoC4/CyLib.c ****             CY_SYS_CLK_SELECT_REG &= ~(CY_SYS_CLK_SELECT_PUMP_SEL_MASK << CY_SYS_CLK_SELECT_PUMP_SE
 496:Generated_Source\PSoC4/CyLib.c ****         }
 497:Generated_Source\PSoC4/CyLib.c ****     #endif  /* (CY_IP_SRSSV2) */
 498:Generated_Source\PSoC4/CyLib.c **** }
 817              		.loc 1 498 0
 818 0020 0CE0     		b	.L50
 819              	.L48:
 482:Generated_Source\PSoC4/CyLib.c ****                                   CY_SYS_CLK_IMO_CONFIG_PUMP_SEL_MASK;
 820              		.loc 1 482 0
 821 0022 084B     		ldr	r3, .L51
 822 0024 1B68     		ldr	r3, [r3]
 823 0026 5B0E     		lsrs	r3, r3, #25
 824 0028 0722     		movs	r2, #7
 825 002a 1A40     		ands	r2, r3
 826 002c 064B     		ldr	r3, .L51+4
 827 002e 1A60     		str	r2, [r3]
 484:Generated_Source\PSoC4/CyLib.c ****         }
 828              		.loc 1 484 0
 829 0030 044B     		ldr	r3, .L51
 830 0032 044A     		ldr	r2, .L51
 831 0034 1268     		ldr	r2, [r2]
 832 0036 0549     		ldr	r1, .L51+8
 833 0038 0A40     		ands	r2, r1
 834 003a 1A60     		str	r2, [r3]
 835              	.L50:
 836              		.loc 1 498 0
 837 003c C046     		nop
 838 003e BD46     		mov	sp, r7
 839 0040 02B0     		add	sp, sp, #8
 840              		@ sp needed
 841 0042 80BD     		pop	{r7, pc}
 842              	.L52:
 843              		.align	2
 844              	.L51:
 845 0044 08010B40 		.word	1074462984
 846 0048 00000000 		.word	CySysClkPumpConfig
 847 004c FFFFFFF1 		.word	-234881025
 848              		.cfi_endproc
 849              	.LFE10:
 850              		.size	CySysEnablePumpClock, .-CySysEnablePumpClock
 851              		.section	.text.CySysClkGetSysclkSource,"ax",%progbits
 852              		.align	2
 853              		.global	CySysClkGetSysclkSource
 854              		.code	16
 855              		.thumb_func
 856              		.type	CySysClkGetSysclkSource, %function
 857              	CySysClkGetSysclkSource:
 858              	.LFB11:
ARM GAS  C:\Users\HPz420\AppData\Local\Temp\ccAdodLg.s 			page 25


 499:Generated_Source\PSoC4/CyLib.c **** 
 500:Generated_Source\PSoC4/CyLib.c **** 
 501:Generated_Source\PSoC4/CyLib.c **** /*******************************************************************************
 502:Generated_Source\PSoC4/CyLib.c **** * Function Name: CySysClkGetSysclkSource
 503:Generated_Source\PSoC4/CyLib.c **** ****************************************************************************//**
 504:Generated_Source\PSoC4/CyLib.c **** *
 505:Generated_Source\PSoC4/CyLib.c **** * Returns the source of the System clock.
 506:Generated_Source\PSoC4/CyLib.c **** *
 507:Generated_Source\PSoC4/CyLib.c **** * \return The same as \ref CySysClkWriteHfclkDirect() function parameters.
 508:Generated_Source\PSoC4/CyLib.c **** *
 509:Generated_Source\PSoC4/CyLib.c **** *******************************************************************************/
 510:Generated_Source\PSoC4/CyLib.c **** uint32 CySysClkGetSysclkSource(void)
 511:Generated_Source\PSoC4/CyLib.c **** {
 859              		.loc 1 511 0
 860              		.cfi_startproc
 861              		@ args = 0, pretend = 0, frame = 8
 862              		@ frame_needed = 1, uses_anonymous_args = 0
 863 0000 90B5     		push	{r4, r7, lr}
 864              		.cfi_def_cfa_offset 12
 865              		.cfi_offset 4, -12
 866              		.cfi_offset 7, -8
 867              		.cfi_offset 14, -4
 868 0002 83B0     		sub	sp, sp, #12
 869              		.cfi_def_cfa_offset 24
 870 0004 00AF     		add	r7, sp, #0
 871              		.cfi_def_cfa_register 7
 512:Generated_Source\PSoC4/CyLib.c ****     uint8  interruptState;
 513:Generated_Source\PSoC4/CyLib.c ****     uint32 sysclkSource;
 514:Generated_Source\PSoC4/CyLib.c **** 
 515:Generated_Source\PSoC4/CyLib.c ****     interruptState = CyEnterCriticalSection();
 872              		.loc 1 515 0
 873 0006 FC1C     		adds	r4, r7, #3
 874 0008 FFF7FEFF 		bl	CyEnterCriticalSection
 875 000c 0300     		movs	r3, r0
 876 000e 2370     		strb	r3, [r4]
 516:Generated_Source\PSoC4/CyLib.c **** 
 517:Generated_Source\PSoC4/CyLib.c **** #if (CY_IP_SRSSV2 && CY_IP_PLL)
 518:Generated_Source\PSoC4/CyLib.c ****     if ((CY_SYS_CLK_SELECT_REG & CY_SYS_CLK_SELECT_HFCLK_SEL_MASK) != 0u)
 877              		.loc 1 518 0
 878 0010 0D4B     		ldr	r3, .L57
 879 0012 1A68     		ldr	r2, [r3]
 880 0014 C023     		movs	r3, #192
 881 0016 9B02     		lsls	r3, r3, #10
 882 0018 1340     		ands	r3, r2
 883 001a 06D0     		beq	.L54
 519:Generated_Source\PSoC4/CyLib.c ****     {
 520:Generated_Source\PSoC4/CyLib.c ****         sysclkSource = (CY_SYS_CLK_SELECT_REG & CY_SYS_CLK_SELECT_HFCLK_SEL_MASK);
 884              		.loc 1 520 0
 885 001c 0A4B     		ldr	r3, .L57
 886 001e 1A68     		ldr	r2, [r3]
 887 0020 C023     		movs	r3, #192
 888 0022 9B02     		lsls	r3, r3, #10
 889 0024 1340     		ands	r3, r2
 890 0026 7B60     		str	r3, [r7, #4]
 891 0028 04E0     		b	.L55
 892              	.L54:
 521:Generated_Source\PSoC4/CyLib.c ****     }
ARM GAS  C:\Users\HPz420\AppData\Local\Temp\ccAdodLg.s 			page 26


 522:Generated_Source\PSoC4/CyLib.c ****     else
 523:Generated_Source\PSoC4/CyLib.c **** #endif /* (CY_IP_SRSSV2 && CY_IP_PLL) */
 524:Generated_Source\PSoC4/CyLib.c ****     {
 525:Generated_Source\PSoC4/CyLib.c ****         sysclkSource = (CY_SYS_CLK_SELECT_REG & CY_SYS_CLK_SELECT_DIRECT_SEL_MASK);
 893              		.loc 1 525 0
 894 002a 074B     		ldr	r3, .L57
 895 002c 1B68     		ldr	r3, [r3]
 896 002e 0722     		movs	r2, #7
 897 0030 1340     		ands	r3, r2
 898 0032 7B60     		str	r3, [r7, #4]
 899              	.L55:
 526:Generated_Source\PSoC4/CyLib.c ****     }
 527:Generated_Source\PSoC4/CyLib.c **** 
 528:Generated_Source\PSoC4/CyLib.c ****     CyExitCriticalSection(interruptState);
 900              		.loc 1 528 0
 901 0034 FB1C     		adds	r3, r7, #3
 902 0036 1B78     		ldrb	r3, [r3]
 903 0038 1800     		movs	r0, r3
 904 003a FFF7FEFF 		bl	CyExitCriticalSection
 529:Generated_Source\PSoC4/CyLib.c **** 
 530:Generated_Source\PSoC4/CyLib.c ****     return (sysclkSource);
 905              		.loc 1 530 0
 906 003e 7B68     		ldr	r3, [r7, #4]
 531:Generated_Source\PSoC4/CyLib.c **** }
 907              		.loc 1 531 0
 908 0040 1800     		movs	r0, r3
 909 0042 BD46     		mov	sp, r7
 910 0044 03B0     		add	sp, sp, #12
 911              		@ sp needed
 912 0046 90BD     		pop	{r4, r7, pc}
 913              	.L58:
 914              		.align	2
 915              	.L57:
 916 0048 00010B40 		.word	1074462976
 917              		.cfi_endproc
 918              	.LFE11:
 919              		.size	CySysClkGetSysclkSource, .-CySysClkGetSysclkSource
 920              		.section	.text.CySysClkWriteSysclkDiv,"ax",%progbits
 921              		.align	2
 922              		.global	CySysClkWriteSysclkDiv
 923              		.code	16
 924              		.thumb_func
 925              		.type	CySysClkWriteSysclkDiv, %function
 926              	CySysClkWriteSysclkDiv:
 927              	.LFB12:
 532:Generated_Source\PSoC4/CyLib.c **** 
 533:Generated_Source\PSoC4/CyLib.c **** 
 534:Generated_Source\PSoC4/CyLib.c **** /*******************************************************************************
 535:Generated_Source\PSoC4/CyLib.c **** * Function Name: CySysClkWriteSysclkDiv
 536:Generated_Source\PSoC4/CyLib.c **** ****************************************************************************//**
 537:Generated_Source\PSoC4/CyLib.c **** *
 538:Generated_Source\PSoC4/CyLib.c **** * Selects the prescaler divide amount for SYSCLK from HFCLK.
 539:Generated_Source\PSoC4/CyLib.c **** *
 540:Generated_Source\PSoC4/CyLib.c **** * PSoC 4000: The SYSCLK has the speed of 16 MHz, so HFCLK and SYSCLK dividers
 541:Generated_Source\PSoC4/CyLib.c **** * should be selected in a way, not to exceed 16 MHz for SYSCLK.
 542:Generated_Source\PSoC4/CyLib.c **** *
 543:Generated_Source\PSoC4/CyLib.c **** * PSoC 4100 \ PSoC 4100 BLE \ PSoC 4100M: The SYSCLK has the speed of 24 MHz,
ARM GAS  C:\Users\HPz420\AppData\Local\Temp\ccAdodLg.s 			page 27


 544:Generated_Source\PSoC4/CyLib.c **** * so HFCLK and SYSCLK dividers should be selected in a way, not to exceed 24 MHz
 545:Generated_Source\PSoC4/CyLib.c **** * for SYSCLK.
 546:Generated_Source\PSoC4/CyLib.c **** *
 547:Generated_Source\PSoC4/CyLib.c **** * If the SYSCLK clock frequency increases during the device operation, call
 548:Generated_Source\PSoC4/CyLib.c **** * \ref CySysFlashSetWaitCycles() with the appropriate parameter to adjust the
 549:Generated_Source\PSoC4/CyLib.c **** * number of clock cycles the cache will wait before sampling data comes back
 550:Generated_Source\PSoC4/CyLib.c **** * from Flash. If the SYSCLK clock frequency decreases, you can call
 551:Generated_Source\PSoC4/CyLib.c **** * \ref CySysFlashSetWaitCycles() to improve the CPU performance. See
 552:Generated_Source\PSoC4/CyLib.c **** * \ref CySysFlashSetWaitCycles() description for more information.
 553:Generated_Source\PSoC4/CyLib.c **** *
 554:Generated_Source\PSoC4/CyLib.c **** * \param divider Power of 2 prescaler selection
 555:Generated_Source\PSoC4/CyLib.c **** *  CY_SYS_CLK_SYSCLK_DIV1        SYSCLK = HFCLK / 1
 556:Generated_Source\PSoC4/CyLib.c **** *  CY_SYS_CLK_SYSCLK_DIV2        SYSCLK = HFCLK / 2
 557:Generated_Source\PSoC4/CyLib.c **** *  CY_SYS_CLK_SYSCLK_DIV4        SYSCLK = HFCLK / 4
 558:Generated_Source\PSoC4/CyLib.c **** *  CY_SYS_CLK_SYSCLK_DIV8        SYSCLK = HFCLK / 8
 559:Generated_Source\PSoC4/CyLib.c **** *  CY_SYS_CLK_SYSCLK_DIV16       SYSCLK = HFCLK / 16  (N/A for 4000 Family)
 560:Generated_Source\PSoC4/CyLib.c **** *  CY_SYS_CLK_SYSCLK_DIV32       SYSCLK = HFCLK / 32  (N/A for 4000 Family)
 561:Generated_Source\PSoC4/CyLib.c **** *  CY_SYS_CLK_SYSCLK_DIV64       SYSCLK = HFCLK / 64  (N/A for 4000 Family)
 562:Generated_Source\PSoC4/CyLib.c **** *  CY_SYS_CLK_SYSCLK_DIV128      SYSCLK = HFCLK / 128 (N/A for 4000 Family)
 563:Generated_Source\PSoC4/CyLib.c **** *
 564:Generated_Source\PSoC4/CyLib.c **** *******************************************************************************/
 565:Generated_Source\PSoC4/CyLib.c **** void CySysClkWriteSysclkDiv(uint32 divider)
 566:Generated_Source\PSoC4/CyLib.c **** {
 928              		.loc 1 566 0
 929              		.cfi_startproc
 930              		@ args = 0, pretend = 0, frame = 16
 931              		@ frame_needed = 1, uses_anonymous_args = 0
 932 0000 90B5     		push	{r4, r7, lr}
 933              		.cfi_def_cfa_offset 12
 934              		.cfi_offset 4, -12
 935              		.cfi_offset 7, -8
 936              		.cfi_offset 14, -4
 937 0002 85B0     		sub	sp, sp, #20
 938              		.cfi_def_cfa_offset 32
 939 0004 00AF     		add	r7, sp, #0
 940              		.cfi_def_cfa_register 7
 941 0006 7860     		str	r0, [r7, #4]
 567:Generated_Source\PSoC4/CyLib.c ****     uint8  interruptState;
 568:Generated_Source\PSoC4/CyLib.c **** 
 569:Generated_Source\PSoC4/CyLib.c ****     interruptState = CyEnterCriticalSection();
 942              		.loc 1 569 0
 943 0008 0F23     		movs	r3, #15
 944 000a FC18     		adds	r4, r7, r3
 945 000c FFF7FEFF 		bl	CyEnterCriticalSection
 946 0010 0300     		movs	r3, r0
 947 0012 2370     		strb	r3, [r4]
 570:Generated_Source\PSoC4/CyLib.c **** 
 571:Generated_Source\PSoC4/CyLib.c ****     CY_SYS_CLK_SELECT_REG = ((uint32)(((uint32)divider & CY_SYS_CLK_SELECT_SYSCLK_DIV_MASK) <<
 948              		.loc 1 571 0
 949 0014 0A4B     		ldr	r3, .L60
 950 0016 7A68     		ldr	r2, [r7, #4]
 951 0018 D104     		lsls	r1, r2, #19
 952 001a E022     		movs	r2, #224
 953 001c 9203     		lsls	r2, r2, #14
 954 001e 1140     		ands	r1, r2
 572:Generated_Source\PSoC4/CyLib.c ****                                     CY_SYS_CLK_SELECT_SYSCLK_DIV_SHIFT)) |
 573:Generated_Source\PSoC4/CyLib.c ****                             (CY_SYS_CLK_SELECT_REG & ((uint32)(~(uint32)(CY_SYS_CLK_SELECT_SYSCLK_D
ARM GAS  C:\Users\HPz420\AppData\Local\Temp\ccAdodLg.s 			page 28


 955              		.loc 1 573 0
 956 0020 074A     		ldr	r2, .L60
 957 0022 1268     		ldr	r2, [r2]
 958 0024 0748     		ldr	r0, .L60+4
 959 0026 0240     		ands	r2, r0
 572:Generated_Source\PSoC4/CyLib.c ****                                     CY_SYS_CLK_SELECT_SYSCLK_DIV_SHIFT)) |
 960              		.loc 1 572 0
 961 0028 0A43     		orrs	r2, r1
 571:Generated_Source\PSoC4/CyLib.c ****                                     CY_SYS_CLK_SELECT_SYSCLK_DIV_SHIFT)) |
 962              		.loc 1 571 0
 963 002a 1A60     		str	r2, [r3]
 574:Generated_Source\PSoC4/CyLib.c ****                                     CY_SYS_CLK_SELECT_SYSCLK_DIV_SHIFT))));
 575:Generated_Source\PSoC4/CyLib.c **** 
 576:Generated_Source\PSoC4/CyLib.c ****     CyExitCriticalSection(interruptState);
 964              		.loc 1 576 0
 965 002c 0F23     		movs	r3, #15
 966 002e FB18     		adds	r3, r7, r3
 967 0030 1B78     		ldrb	r3, [r3]
 968 0032 1800     		movs	r0, r3
 969 0034 FFF7FEFF 		bl	CyExitCriticalSection
 577:Generated_Source\PSoC4/CyLib.c **** }
 970              		.loc 1 577 0
 971 0038 C046     		nop
 972 003a BD46     		mov	sp, r7
 973 003c 05B0     		add	sp, sp, #20
 974              		@ sp needed
 975 003e 90BD     		pop	{r4, r7, pc}
 976              	.L61:
 977              		.align	2
 978              	.L60:
 979 0040 00010B40 		.word	1074462976
 980 0044 FFFFC7FF 		.word	-3670017
 981              		.cfi_endproc
 982              	.LFE12:
 983              		.size	CySysClkWriteSysclkDiv, .-CySysClkWriteSysclkDiv
 984              		.section	.text.CySysClkWriteImoFreq,"ax",%progbits
 985              		.align	2
 986              		.global	CySysClkWriteImoFreq
 987              		.code	16
 988              		.thumb_func
 989              		.type	CySysClkWriteImoFreq, %function
 990              	CySysClkWriteImoFreq:
 991              	.LFB13:
 578:Generated_Source\PSoC4/CyLib.c **** 
 579:Generated_Source\PSoC4/CyLib.c **** 
 580:Generated_Source\PSoC4/CyLib.c **** /*******************************************************************************
 581:Generated_Source\PSoC4/CyLib.c **** * Function Name: CySysClkWriteImoFreq
 582:Generated_Source\PSoC4/CyLib.c **** ****************************************************************************//**
 583:Generated_Source\PSoC4/CyLib.c **** *
 584:Generated_Source\PSoC4/CyLib.c **** * Sets the frequency of the IMO.
 585:Generated_Source\PSoC4/CyLib.c **** *
 586:Generated_Source\PSoC4/CyLib.c **** * PSoC 4000: The SYSCLK has the speed of 16 MHz, so HFCLK and SYSCLK dividers
 587:Generated_Source\PSoC4/CyLib.c **** * should be selected in a way, not to exceed 16 MHz for SYSCLK.
 588:Generated_Source\PSoC4/CyLib.c **** *
 589:Generated_Source\PSoC4/CyLib.c **** * PSoC 4100 \ PSoC 4100 BLE \ PSoC 4100M: The SYSCLK has the speed of 24 MHz,
 590:Generated_Source\PSoC4/CyLib.c **** * so HFCLK and SYSCLK dividers should be selected in a way, not to exceed 24 MHz
 591:Generated_Source\PSoC4/CyLib.c **** * for SYSCLK.
ARM GAS  C:\Users\HPz420\AppData\Local\Temp\ccAdodLg.s 			page 29


 592:Generated_Source\PSoC4/CyLib.c **** *
 593:Generated_Source\PSoC4/CyLib.c **** * For PSoC 4200M and PSoC 4200L device families, if WCO lock feature is enabled
 594:Generated_Source\PSoC4/CyLib.c **** * then this API will disable the lock, write the new IMO frequency and then
 595:Generated_Source\PSoC4/CyLib.c **** * re-enable the lock.
 596:Generated_Source\PSoC4/CyLib.c **** *
 597:Generated_Source\PSoC4/CyLib.c **** * For PSoC 4200L device families, this function enables the USB lock when 24 or
 598:Generated_Source\PSoC4/CyLib.c **** * 48 MHz passed as a parameter if the USB lock option is enabled in Design Wide
 599:Generated_Source\PSoC4/CyLib.c **** * Resources tab or CySysClkImoEnableUsbLock() was called before. Note the USB
 600:Generated_Source\PSoC4/CyLib.c **** * lock is disabled during IMO frequency change.
 601:Generated_Source\PSoC4/CyLib.c **** *
 602:Generated_Source\PSoC4/CyLib.c **** * The CPU is halted if new frequency is invalid and project is compiled
 603:Generated_Source\PSoC4/CyLib.c **** * in debug mode.
 604:Generated_Source\PSoC4/CyLib.c **** *
 605:Generated_Source\PSoC4/CyLib.c **** * If the SYSCLK clock frequency increases during the device operation, call
 606:Generated_Source\PSoC4/CyLib.c **** * \ref CySysFlashSetWaitCycles() with the appropriate parameter to adjust the
 607:Generated_Source\PSoC4/CyLib.c **** * number of clock cycles the cache will wait before sampling data comes back
 608:Generated_Source\PSoC4/CyLib.c **** * from Flash. If the SYSCLK clock frequency decreases, you can call
 609:Generated_Source\PSoC4/CyLib.c **** * \ref CySysFlashSetWaitCycles() to improve the CPU performance. See
 610:Generated_Source\PSoC4/CyLib.c **** * \ref CySysFlashSetWaitCycles() description for more information.
 611:Generated_Source\PSoC4/CyLib.c **** *
 612:Generated_Source\PSoC4/CyLib.c **** * PSoC 4000: The System Clock (SYSCLK) has maximum speed of 16 MHz, so HFCLK
 613:Generated_Source\PSoC4/CyLib.c **** * and SYSCLK dividers should be selected in a way, to not to exceed 16 MHz for
 614:Generated_Source\PSoC4/CyLib.c **** * the System clock.
 615:Generated_Source\PSoC4/CyLib.c **** *
 616:Generated_Source\PSoC4/CyLib.c **** * \param freq All PSoC 4 families excluding the following: Valid range [3-48]
 617:Generated_Source\PSoC4/CyLib.c **** * with step size equals 1. PSoC 4000: Valid values are 24, 32, and 48.
 618:Generated_Source\PSoC4/CyLib.c **** * PSoC 4000S / PSoC 4100S / PSoC 4400: Valid range [24-48] with step size equals
 619:Generated_Source\PSoC4/CyLib.c **** * 4.
 620:Generated_Source\PSoC4/CyLib.c **** *
 621:Generated_Source\PSoC4/CyLib.c **** *******************************************************************************/
 622:Generated_Source\PSoC4/CyLib.c **** #if(CY_IP_SRSSV2)
 623:Generated_Source\PSoC4/CyLib.c ****     void CySysClkWriteImoFreq(uint32 freq)
 624:Generated_Source\PSoC4/CyLib.c ****     {
 992              		.loc 1 624 0
 993              		.cfi_startproc
 994              		@ args = 0, pretend = 0, frame = 24
 995              		@ frame_needed = 1, uses_anonymous_args = 0
 996 0000 90B5     		push	{r4, r7, lr}
 997              		.cfi_def_cfa_offset 12
 998              		.cfi_offset 4, -12
 999              		.cfi_offset 7, -8
 1000              		.cfi_offset 14, -4
 1001 0002 87B0     		sub	sp, sp, #28
 1002              		.cfi_def_cfa_offset 40
 1003 0004 00AF     		add	r7, sp, #0
 1004              		.cfi_def_cfa_register 7
 1005 0006 7860     		str	r0, [r7, #4]
 625:Generated_Source\PSoC4/CyLib.c ****         #if (CY_IP_FMLT)
 626:Generated_Source\PSoC4/CyLib.c ****             volatile uint32   parameters[2u];
 627:Generated_Source\PSoC4/CyLib.c ****             volatile uint32   regValues[4u];
 628:Generated_Source\PSoC4/CyLib.c ****         #else
 629:Generated_Source\PSoC4/CyLib.c ****             uint8  bgTrim4;
 630:Generated_Source\PSoC4/CyLib.c ****             uint8  bgTrim5;
 631:Generated_Source\PSoC4/CyLib.c ****             uint8  newImoTrim2Value;
 632:Generated_Source\PSoC4/CyLib.c ****             uint8  currentImoTrim2Value;
 633:Generated_Source\PSoC4/CyLib.c ****             uint8  imoTrim1Value;
 634:Generated_Source\PSoC4/CyLib.c ****         #endif /* (CY_IP_FM) */
ARM GAS  C:\Users\HPz420\AppData\Local\Temp\ccAdodLg.s 			page 30


 635:Generated_Source\PSoC4/CyLib.c **** 
 636:Generated_Source\PSoC4/CyLib.c ****         #if (CY_IP_IMO_TRIMMABLE_BY_WCO)
 637:Generated_Source\PSoC4/CyLib.c ****             uint32 wcoLock = 0u;
 1006              		.loc 1 637 0
 1007 0008 0023     		movs	r3, #0
 1008 000a 3B61     		str	r3, [r7, #16]
 638:Generated_Source\PSoC4/CyLib.c ****         #endif  /* (CY_IP_IMO_TRIMMABLE_BY_WCO) */
 639:Generated_Source\PSoC4/CyLib.c **** 
 640:Generated_Source\PSoC4/CyLib.c ****         #if (CY_IP_IMO_TRIMMABLE_BY_USB)
 641:Generated_Source\PSoC4/CyLib.c ****             uint32 usbLock = 0u;
 1009              		.loc 1 641 0
 1010 000c 0023     		movs	r3, #0
 1011 000e FB60     		str	r3, [r7, #12]
 642:Generated_Source\PSoC4/CyLib.c ****         #endif  /* (CY_IP_IMO_TRIMMABLE_BY_USB) */
 643:Generated_Source\PSoC4/CyLib.c **** 
 644:Generated_Source\PSoC4/CyLib.c ****         uint8  interruptState;
 645:Generated_Source\PSoC4/CyLib.c **** 
 646:Generated_Source\PSoC4/CyLib.c **** 
 647:Generated_Source\PSoC4/CyLib.c ****         interruptState = CyEnterCriticalSection();
 1012              		.loc 1 647 0
 1013 0010 0B23     		movs	r3, #11
 1014 0012 FC18     		adds	r4, r7, r3
 1015 0014 FFF7FEFF 		bl	CyEnterCriticalSection
 1016 0018 0300     		movs	r3, r0
 1017 001a 2370     		strb	r3, [r4]
 648:Generated_Source\PSoC4/CyLib.c **** 
 649:Generated_Source\PSoC4/CyLib.c ****         #if (CY_IP_IMO_TRIMMABLE_BY_WCO)
 650:Generated_Source\PSoC4/CyLib.c ****             if(0u != CySysClkImoGetWcoLock())
 1018              		.loc 1 650 0
 1019 001c FFF7FEFF 		bl	CySysClkImoGetWcoLock
 1020 0020 031E     		subs	r3, r0, #0
 1021 0022 03D0     		beq	.L63
 651:Generated_Source\PSoC4/CyLib.c ****             {
 652:Generated_Source\PSoC4/CyLib.c ****                 wcoLock = 1u;
 1022              		.loc 1 652 0
 1023 0024 0123     		movs	r3, #1
 1024 0026 3B61     		str	r3, [r7, #16]
 653:Generated_Source\PSoC4/CyLib.c ****                 CySysClkImoDisableWcoLock();
 1025              		.loc 1 653 0
 1026 0028 FFF7FEFF 		bl	CySysClkImoDisableWcoLock
 1027              	.L63:
 654:Generated_Source\PSoC4/CyLib.c ****             }
 655:Generated_Source\PSoC4/CyLib.c ****         #endif  /* (CY_IP_IMO_TRIMMABLE_BY_WCO) */
 656:Generated_Source\PSoC4/CyLib.c **** 
 657:Generated_Source\PSoC4/CyLib.c **** 
 658:Generated_Source\PSoC4/CyLib.c ****         #if (CY_IP_IMO_TRIMMABLE_BY_USB)
 659:Generated_Source\PSoC4/CyLib.c **** 
 660:Generated_Source\PSoC4/CyLib.c ****             #if (CYDEV_IMO_TRIMMED_BY_USB == 0u)
 661:Generated_Source\PSoC4/CyLib.c ****                 if(0u != CySysClkImoGetUsbLock())
 662:Generated_Source\PSoC4/CyLib.c ****                 {
 663:Generated_Source\PSoC4/CyLib.c ****             #endif  /* (CYDEV_IMO_TRIMMED_BY_USB == 0u) */
 664:Generated_Source\PSoC4/CyLib.c **** 
 665:Generated_Source\PSoC4/CyLib.c ****                 if ((24u == freq) || (48u == freq))
 1028              		.loc 1 665 0
 1029 002c 7B68     		ldr	r3, [r7, #4]
 1030 002e 182B     		cmp	r3, #24
 1031 0030 02D0     		beq	.L64
ARM GAS  C:\Users\HPz420\AppData\Local\Temp\ccAdodLg.s 			page 31


 1032              		.loc 1 665 0 is_stmt 0 discriminator 1
 1033 0032 7B68     		ldr	r3, [r7, #4]
 1034 0034 302B     		cmp	r3, #48
 1035 0036 03D1     		bne	.L65
 1036              	.L64:
 666:Generated_Source\PSoC4/CyLib.c ****                 {
 667:Generated_Source\PSoC4/CyLib.c ****                     usbLock = 1u;
 1037              		.loc 1 667 0 is_stmt 1
 1038 0038 0123     		movs	r3, #1
 1039 003a FB60     		str	r3, [r7, #12]
 668:Generated_Source\PSoC4/CyLib.c ****                     CySysClkImoDisableUsbLock();
 1040              		.loc 1 668 0
 1041 003c FFF7FEFF 		bl	CySysClkImoDisableUsbLock
 1042              	.L65:
 669:Generated_Source\PSoC4/CyLib.c ****                 }
 670:Generated_Source\PSoC4/CyLib.c **** 
 671:Generated_Source\PSoC4/CyLib.c ****             #if (CYDEV_IMO_TRIMMED_BY_USB == 0u)
 672:Generated_Source\PSoC4/CyLib.c ****                 }
 673:Generated_Source\PSoC4/CyLib.c ****             #endif  /* (CYDEV_IMO_TRIMMED_BY_USB == 0u) */
 674:Generated_Source\PSoC4/CyLib.c **** 
 675:Generated_Source\PSoC4/CyLib.c ****         #endif  /* (CYDEV_IMO_TRIMMED_BY_USB == 0u) */
 676:Generated_Source\PSoC4/CyLib.c **** 
 677:Generated_Source\PSoC4/CyLib.c **** 
 678:Generated_Source\PSoC4/CyLib.c ****         #if (CY_IP_FMLT)
 679:Generated_Source\PSoC4/CyLib.c **** 
 680:Generated_Source\PSoC4/CyLib.c ****             /* FM-Lite Clock Restore */
 681:Generated_Source\PSoC4/CyLib.c ****             regValues[0u] = CY_SYS_CLK_IMO_CONFIG_REG;
 682:Generated_Source\PSoC4/CyLib.c ****             regValues[1u] = CY_SYS_CLK_SELECT_REG;
 683:Generated_Source\PSoC4/CyLib.c ****             regValues[2u] = cyImoFreqMhz2Reg[freq - CY_SYS_CLK_IMO_FREQ_TABLE_OFFSET];
 684:Generated_Source\PSoC4/CyLib.c ****             regValues[3u] = CY_FLASH_CTL_REG;
 685:Generated_Source\PSoC4/CyLib.c **** 
 686:Generated_Source\PSoC4/CyLib.c ****             parameters[0u] =
 687:Generated_Source\PSoC4/CyLib.c ****                 (uint32) ((CY_FLASH_KEY_TWO(CY_FLASH_API_OPCODE_CLK_RESTORE) <<  CY_FLASH_PARAM_KEY
 688:Generated_Source\PSoC4/CyLib.c ****                             CY_FLASH_KEY_ONE);
 689:Generated_Source\PSoC4/CyLib.c ****             parameters[1u] = (uint32) &regValues[0u];
 690:Generated_Source\PSoC4/CyLib.c **** 
 691:Generated_Source\PSoC4/CyLib.c ****             CY_FLASH_CPUSS_SYSARG_REG = (uint32) &parameters[0u];
 692:Generated_Source\PSoC4/CyLib.c ****             CY_FLASH_CPUSS_SYSREQ_REG = CY_FLASH_CPUSS_REQ_START | CY_FLASH_API_OPCODE_CLK_RESTORE;
 693:Generated_Source\PSoC4/CyLib.c ****             (void) CY_FLASH_CPUSS_SYSARG_REG;
 694:Generated_Source\PSoC4/CyLib.c **** 
 695:Generated_Source\PSoC4/CyLib.c ****         #else /* (CY_IP_FM) */
 696:Generated_Source\PSoC4/CyLib.c **** 
 697:Generated_Source\PSoC4/CyLib.c ****         if ((freq >= CY_SYS_CLK_IMO_MIN_FREQ_MHZ) && (freq <= CY_SYS_CLK_IMO_MAX_FREQ_MHZ))
 1043              		.loc 1 697 0
 1044 0040 7B68     		ldr	r3, [r7, #4]
 1045 0042 022B     		cmp	r3, #2
 1046 0044 00D8     		bhi	.LCB779
 1047 0046 CBE0     		b	.L66	@long jump
 1048              	.LCB779:
 1049              		.loc 1 697 0 is_stmt 0 discriminator 1
 1050 0048 7B68     		ldr	r3, [r7, #4]
 1051 004a 302B     		cmp	r3, #48
 1052 004c 00D9     		bls	.LCB782
 1053 004e C7E0     		b	.L66	@long jump
 1054              	.LCB782:
 698:Generated_Source\PSoC4/CyLib.c ****         {
 699:Generated_Source\PSoC4/CyLib.c ****             if(freq <= CY_SFLASH_IMO_MAXF0_REG)
ARM GAS  C:\Users\HPz420\AppData\Local\Temp\ccAdodLg.s 			page 32


 1055              		.loc 1 699 0 is_stmt 1
 1056 0050 6F4B     		ldr	r3, .L82
 1057 0052 1B78     		ldrb	r3, [r3]
 1058 0054 DBB2     		uxtb	r3, r3
 1059 0056 1A00     		movs	r2, r3
 1060 0058 7B68     		ldr	r3, [r7, #4]
 1061 005a 9A42     		cmp	r2, r3
 1062 005c 0AD3     		bcc	.L67
 700:Generated_Source\PSoC4/CyLib.c ****             {
 701:Generated_Source\PSoC4/CyLib.c ****                 bgTrim4 = CY_SFLASH_IMO_ABS0_REG;
 1063              		.loc 1 701 0
 1064 005e 6D4A     		ldr	r2, .L82+4
 1065 0060 1723     		movs	r3, #23
 1066 0062 FB18     		adds	r3, r7, r3
 1067 0064 1278     		ldrb	r2, [r2]
 1068 0066 1A70     		strb	r2, [r3]
 702:Generated_Source\PSoC4/CyLib.c ****                 bgTrim5 = CY_SFLASH_IMO_TMPCO0_REG;
 1069              		.loc 1 702 0
 1070 0068 6B4A     		ldr	r2, .L82+8
 1071 006a 1623     		movs	r3, #22
 1072 006c FB18     		adds	r3, r7, r3
 1073 006e 1278     		ldrb	r2, [r2]
 1074 0070 1A70     		strb	r2, [r3]
 1075 0072 3FE0     		b	.L68
 1076              	.L67:
 703:Generated_Source\PSoC4/CyLib.c ****             }
 704:Generated_Source\PSoC4/CyLib.c ****             else if(freq <= CY_SFLASH_IMO_MAXF1_REG)
 1077              		.loc 1 704 0
 1078 0074 694B     		ldr	r3, .L82+12
 1079 0076 1B78     		ldrb	r3, [r3]
 1080 0078 DBB2     		uxtb	r3, r3
 1081 007a 1A00     		movs	r2, r3
 1082 007c 7B68     		ldr	r3, [r7, #4]
 1083 007e 9A42     		cmp	r2, r3
 1084 0080 0AD3     		bcc	.L69
 705:Generated_Source\PSoC4/CyLib.c ****             {
 706:Generated_Source\PSoC4/CyLib.c ****                 bgTrim4 = CY_SFLASH_IMO_ABS1_REG;
 1085              		.loc 1 706 0
 1086 0082 674A     		ldr	r2, .L82+16
 1087 0084 1723     		movs	r3, #23
 1088 0086 FB18     		adds	r3, r7, r3
 1089 0088 1278     		ldrb	r2, [r2]
 1090 008a 1A70     		strb	r2, [r3]
 707:Generated_Source\PSoC4/CyLib.c ****                 bgTrim5 = CY_SFLASH_IMO_TMPCO1_REG;
 1091              		.loc 1 707 0
 1092 008c 654A     		ldr	r2, .L82+20
 1093 008e 1623     		movs	r3, #22
 1094 0090 FB18     		adds	r3, r7, r3
 1095 0092 1278     		ldrb	r2, [r2]
 1096 0094 1A70     		strb	r2, [r3]
 1097 0096 2DE0     		b	.L68
 1098              	.L69:
 708:Generated_Source\PSoC4/CyLib.c ****             }
 709:Generated_Source\PSoC4/CyLib.c ****             else if(freq <= CY_SFLASH_IMO_MAXF2_REG)
 1099              		.loc 1 709 0
 1100 0098 634B     		ldr	r3, .L82+24
 1101 009a 1B78     		ldrb	r3, [r3]
ARM GAS  C:\Users\HPz420\AppData\Local\Temp\ccAdodLg.s 			page 33


 1102 009c DBB2     		uxtb	r3, r3
 1103 009e 1A00     		movs	r2, r3
 1104 00a0 7B68     		ldr	r3, [r7, #4]
 1105 00a2 9A42     		cmp	r2, r3
 1106 00a4 0AD3     		bcc	.L70
 710:Generated_Source\PSoC4/CyLib.c ****             {
 711:Generated_Source\PSoC4/CyLib.c ****                 bgTrim4 = CY_SFLASH_IMO_ABS2_REG;
 1107              		.loc 1 711 0
 1108 00a6 614A     		ldr	r2, .L82+28
 1109 00a8 1723     		movs	r3, #23
 1110 00aa FB18     		adds	r3, r7, r3
 1111 00ac 1278     		ldrb	r2, [r2]
 1112 00ae 1A70     		strb	r2, [r3]
 712:Generated_Source\PSoC4/CyLib.c ****                 bgTrim5 = CY_SFLASH_IMO_TMPCO2_REG;
 1113              		.loc 1 712 0
 1114 00b0 5F4A     		ldr	r2, .L82+32
 1115 00b2 1623     		movs	r3, #22
 1116 00b4 FB18     		adds	r3, r7, r3
 1117 00b6 1278     		ldrb	r2, [r2]
 1118 00b8 1A70     		strb	r2, [r3]
 1119 00ba 1BE0     		b	.L68
 1120              	.L70:
 713:Generated_Source\PSoC4/CyLib.c ****             }
 714:Generated_Source\PSoC4/CyLib.c ****             else if(freq <= CY_SFLASH_IMO_MAXF3_REG)
 1121              		.loc 1 714 0
 1122 00bc 5D4B     		ldr	r3, .L82+36
 1123 00be 1B78     		ldrb	r3, [r3]
 1124 00c0 DBB2     		uxtb	r3, r3
 1125 00c2 1A00     		movs	r2, r3
 1126 00c4 7B68     		ldr	r3, [r7, #4]
 1127 00c6 9A42     		cmp	r2, r3
 1128 00c8 0AD3     		bcc	.L71
 715:Generated_Source\PSoC4/CyLib.c ****             {
 716:Generated_Source\PSoC4/CyLib.c ****                 bgTrim4 = CY_SFLASH_IMO_ABS3_REG;
 1129              		.loc 1 716 0
 1130 00ca 5B4A     		ldr	r2, .L82+40
 1131 00cc 1723     		movs	r3, #23
 1132 00ce FB18     		adds	r3, r7, r3
 1133 00d0 1278     		ldrb	r2, [r2]
 1134 00d2 1A70     		strb	r2, [r3]
 717:Generated_Source\PSoC4/CyLib.c ****                 bgTrim5 = CY_SFLASH_IMO_TMPCO3_REG;
 1135              		.loc 1 717 0
 1136 00d4 594A     		ldr	r2, .L82+44
 1137 00d6 1623     		movs	r3, #22
 1138 00d8 FB18     		adds	r3, r7, r3
 1139 00da 1278     		ldrb	r2, [r2]
 1140 00dc 1A70     		strb	r2, [r3]
 1141 00de 09E0     		b	.L68
 1142              	.L71:
 718:Generated_Source\PSoC4/CyLib.c ****             }
 719:Generated_Source\PSoC4/CyLib.c ****             else
 720:Generated_Source\PSoC4/CyLib.c ****             {
 721:Generated_Source\PSoC4/CyLib.c ****                 bgTrim4 = CY_SFLASH_IMO_ABS4_REG;
 1143              		.loc 1 721 0
 1144 00e0 574A     		ldr	r2, .L82+48
 1145 00e2 1723     		movs	r3, #23
 1146 00e4 FB18     		adds	r3, r7, r3
ARM GAS  C:\Users\HPz420\AppData\Local\Temp\ccAdodLg.s 			page 34


 1147 00e6 1278     		ldrb	r2, [r2]
 1148 00e8 1A70     		strb	r2, [r3]
 722:Generated_Source\PSoC4/CyLib.c ****                 bgTrim5 = CY_SFLASH_IMO_TMPCO4_REG;
 1149              		.loc 1 722 0
 1150 00ea 564A     		ldr	r2, .L82+52
 1151 00ec 1623     		movs	r3, #22
 1152 00ee FB18     		adds	r3, r7, r3
 1153 00f0 1278     		ldrb	r2, [r2]
 1154 00f2 1A70     		strb	r2, [r3]
 1155              	.L68:
 723:Generated_Source\PSoC4/CyLib.c ****             }
 724:Generated_Source\PSoC4/CyLib.c **** 
 725:Generated_Source\PSoC4/CyLib.c ****             /* Get IMO_TRIM2 value for the new frequency */
 726:Generated_Source\PSoC4/CyLib.c ****             newImoTrim2Value = cyImoFreqMhz2Reg[freq - CY_SYS_CLK_IMO_FREQ_TABLE_OFFSET];
 1156              		.loc 1 726 0
 1157 00f4 7B68     		ldr	r3, [r7, #4]
 1158 00f6 DA1E     		subs	r2, r3, #3
 1159 00f8 0A23     		movs	r3, #10
 1160 00fa FB18     		adds	r3, r7, r3
 1161 00fc 5249     		ldr	r1, .L82+56
 1162 00fe 8A5C     		ldrb	r2, [r1, r2]
 1163 0100 1A70     		strb	r2, [r3]
 727:Generated_Source\PSoC4/CyLib.c **** 
 728:Generated_Source\PSoC4/CyLib.c **** 
 729:Generated_Source\PSoC4/CyLib.c ****             /****************************************************************************
 730:Generated_Source\PSoC4/CyLib.c ****             * The IMO can have a different trim per frequency. To avoid possible corner
 731:Generated_Source\PSoC4/CyLib.c ****             * cases where a trim change can exceed the maximum frequency, the trim must
 732:Generated_Source\PSoC4/CyLib.c ****             * be applied at a frequency that is low enough.
 733:Generated_Source\PSoC4/CyLib.c ****             *
 734:Generated_Source\PSoC4/CyLib.c ****             * Comparing IMO_TRIM2 values for the current and new frequencies, since
 735:Generated_Source\PSoC4/CyLib.c ****             * IMO_TRIM2 value as a function of IMO frequency is a strictly increasing
 736:Generated_Source\PSoC4/CyLib.c ****             * function and is time-invariant.
 737:Generated_Source\PSoC4/CyLib.c ****             ***************************************************************************/
 738:Generated_Source\PSoC4/CyLib.c ****             if ((newImoTrim2Value >= CY_SYS_CLK_IMO_BOUNDARY_FREQ_TRIM2) && (freq >= CY_SYS_CLK_IMO
 1164              		.loc 1 738 0
 1165 0102 0A23     		movs	r3, #10
 1166 0104 FB18     		adds	r3, r7, r3
 1167 0106 1B78     		ldrb	r3, [r3]
 1168 0108 2F2B     		cmp	r3, #47
 1169 010a 0DD9     		bls	.L72
 1170              		.loc 1 738 0 is_stmt 0 discriminator 1
 1171 010c 7B68     		ldr	r3, [r7, #4]
 1172 010e 2A2B     		cmp	r3, #42
 1173 0110 0AD9     		bls	.L72
 739:Generated_Source\PSoC4/CyLib.c ****             {
 740:Generated_Source\PSoC4/CyLib.c ****                 /* Set boundary IMO frequency: safe for IMO above 48 MHZ trimming */
 741:Generated_Source\PSoC4/CyLib.c ****                 CY_SYS_CLK_IMO_TRIM2_REG = (uint32) cyImoFreqMhz2Reg[CY_SYS_CLK_IMO_TEMP_FREQ_MHZ -
 1174              		.loc 1 741 0 is_stmt 1
 1175 0112 4E4B     		ldr	r3, .L82+60
 1176 0114 1922     		movs	r2, #25
 1177 0116 1A60     		str	r2, [r3]
 742:Generated_Source\PSoC4/CyLib.c ****                                                                      CY_SYS_CLK_IMO_FREQ_TABLE_OFFS
 743:Generated_Source\PSoC4/CyLib.c **** 
 744:Generated_Source\PSoC4/CyLib.c ****                 CyDelayCycles(CY_SYS_CLK_IMO_FREQ_TIMEOUT_CYCLES);
 1178              		.loc 1 744 0
 1179 0118 0520     		movs	r0, #5
 1180 011a FFF7FEFF 		bl	CyDelayCycles
ARM GAS  C:\Users\HPz420\AppData\Local\Temp\ccAdodLg.s 			page 35


 745:Generated_Source\PSoC4/CyLib.c **** 
 746:Generated_Source\PSoC4/CyLib.c ****                 currentImoTrim2Value = CY_SYS_CLK_IMO_TEMP_FREQ_TRIM2;
 1181              		.loc 1 746 0
 1182 011e 1523     		movs	r3, #21
 1183 0120 FB18     		adds	r3, r7, r3
 1184 0122 1922     		movs	r2, #25
 1185 0124 1A70     		strb	r2, [r3]
 1186 0126 07E0     		b	.L73
 1187              	.L72:
 747:Generated_Source\PSoC4/CyLib.c ****             }
 748:Generated_Source\PSoC4/CyLib.c ****             else
 749:Generated_Source\PSoC4/CyLib.c ****             {
 750:Generated_Source\PSoC4/CyLib.c ****                 currentImoTrim2Value = (uint8) (CY_SYS_CLK_IMO_TRIM2_REG & CY_SYS_CLK_IMO_FREQ_BITS
 1188              		.loc 1 750 0
 1189 0128 484B     		ldr	r3, .L82+60
 1190 012a 1B68     		ldr	r3, [r3]
 1191 012c DAB2     		uxtb	r2, r3
 1192 012e 1523     		movs	r3, #21
 1193 0130 FB18     		adds	r3, r7, r3
 1194 0132 3F21     		movs	r1, #63
 1195 0134 0A40     		ands	r2, r1
 1196 0136 1A70     		strb	r2, [r3]
 1197              	.L73:
 751:Generated_Source\PSoC4/CyLib.c ****             }
 752:Generated_Source\PSoC4/CyLib.c **** 
 753:Generated_Source\PSoC4/CyLib.c **** 
 754:Generated_Source\PSoC4/CyLib.c ****             /***************************************************************************
 755:Generated_Source\PSoC4/CyLib.c ****             * A trim change needs to be allowed to settle (within 5us) before the Freq
 756:Generated_Source\PSoC4/CyLib.c ****             * can be changed to a new frequency.
 757:Generated_Source\PSoC4/CyLib.c ****             *
 758:Generated_Source\PSoC4/CyLib.c ****             * Comparing IMO_TRIM2 values for the current and new frequencies, since
 759:Generated_Source\PSoC4/CyLib.c ****             * IMO_TRIM2 value as a function of IMO frequency is a strictly increasing
 760:Generated_Source\PSoC4/CyLib.c ****             * function and is time-invariant.
 761:Generated_Source\PSoC4/CyLib.c ****             ***************************************************************************/
 762:Generated_Source\PSoC4/CyLib.c ****             if (newImoTrim2Value < currentImoTrim2Value)
 1198              		.loc 1 762 0
 1199 0138 0A23     		movs	r3, #10
 1200 013a FA18     		adds	r2, r7, r3
 1201 013c 1523     		movs	r3, #21
 1202 013e FB18     		adds	r3, r7, r3
 1203 0140 1278     		ldrb	r2, [r2]
 1204 0142 1B78     		ldrb	r3, [r3]
 1205 0144 9A42     		cmp	r2, r3
 1206 0146 08D2     		bcs	.L74
 763:Generated_Source\PSoC4/CyLib.c ****             {
 764:Generated_Source\PSoC4/CyLib.c ****                 /* Set new IMO frequency */
 765:Generated_Source\PSoC4/CyLib.c ****                 CY_SYS_CLK_IMO_TRIM2_REG = cyImoFreqMhz2Reg[freq - CY_SYS_CLK_IMO_FREQ_TABLE_OFFSET
 1207              		.loc 1 765 0
 1208 0148 404B     		ldr	r3, .L82+60
 1209 014a 7A68     		ldr	r2, [r7, #4]
 1210 014c 033A     		subs	r2, r2, #3
 1211 014e 3E49     		ldr	r1, .L82+56
 1212 0150 8A5C     		ldrb	r2, [r1, r2]
 1213 0152 1A60     		str	r2, [r3]
 766:Generated_Source\PSoC4/CyLib.c ****                 CyDelayCycles(CY_SYS_CLK_IMO_FREQ_TIMEOUT_CYCLES);
 1214              		.loc 1 766 0
 1215 0154 0520     		movs	r0, #5
ARM GAS  C:\Users\HPz420\AppData\Local\Temp\ccAdodLg.s 			page 36


 1216 0156 FFF7FEFF 		bl	CyDelayCycles
 1217              	.L74:
 767:Generated_Source\PSoC4/CyLib.c ****             }
 768:Generated_Source\PSoC4/CyLib.c **** 
 769:Generated_Source\PSoC4/CyLib.c ****             /* Set trims for the new IMO frequency */
 770:Generated_Source\PSoC4/CyLib.c **** 
 771:Generated_Source\PSoC4/CyLib.c ****             #if (CY_IP_IMO_TRIMMABLE_BY_USB)
 772:Generated_Source\PSoC4/CyLib.c ****                 if ((1u == usbLock) && (48u == freq))
 1218              		.loc 1 772 0
 1219 015a FB68     		ldr	r3, [r7, #12]
 1220 015c 012B     		cmp	r3, #1
 1221 015e 08D1     		bne	.L75
 1222              		.loc 1 772 0 is_stmt 0 discriminator 1
 1223 0160 7B68     		ldr	r3, [r7, #4]
 1224 0162 302B     		cmp	r3, #48
 1225 0164 05D1     		bne	.L75
 773:Generated_Source\PSoC4/CyLib.c ****                 {
 774:Generated_Source\PSoC4/CyLib.c ****                     imoTrim1Value = CY_SFLASH_IMO_TRIM_USBMODE_48_REG;
 1226              		.loc 1 774 0 is_stmt 1
 1227 0166 3A4A     		ldr	r2, .L82+64
 1228 0168 1423     		movs	r3, #20
 1229 016a FB18     		adds	r3, r7, r3
 1230 016c 1278     		ldrb	r2, [r2]
 1231 016e 1A70     		strb	r2, [r3]
 1232 0170 12E0     		b	.L76
 1233              	.L75:
 775:Generated_Source\PSoC4/CyLib.c ****                 }
 776:Generated_Source\PSoC4/CyLib.c ****                 else if ((1u == usbLock) && (24u == freq))
 1234              		.loc 1 776 0
 1235 0172 FB68     		ldr	r3, [r7, #12]
 1236 0174 012B     		cmp	r3, #1
 1237 0176 08D1     		bne	.L77
 1238              		.loc 1 776 0 is_stmt 0 discriminator 1
 1239 0178 7B68     		ldr	r3, [r7, #4]
 1240 017a 182B     		cmp	r3, #24
 1241 017c 05D1     		bne	.L77
 777:Generated_Source\PSoC4/CyLib.c ****                 {
 778:Generated_Source\PSoC4/CyLib.c ****                     imoTrim1Value = CY_SFLASH_IMO_TRIM_USBMODE_24_REG;
 1242              		.loc 1 778 0 is_stmt 1
 1243 017e 354A     		ldr	r2, .L82+68
 1244 0180 1423     		movs	r3, #20
 1245 0182 FB18     		adds	r3, r7, r3
 1246 0184 1278     		ldrb	r2, [r2]
 1247 0186 1A70     		strb	r2, [r3]
 1248 0188 06E0     		b	.L76
 1249              	.L77:
 779:Generated_Source\PSoC4/CyLib.c ****                 }
 780:Generated_Source\PSoC4/CyLib.c ****                 else
 781:Generated_Source\PSoC4/CyLib.c ****                 {
 782:Generated_Source\PSoC4/CyLib.c ****                     imoTrim1Value = (uint8) CY_SFLASH_IMO_TRIM_REG(freq - CY_SYS_CLK_IMO_FREQ_TABLE
 1250              		.loc 1 782 0
 1251 018a 7B68     		ldr	r3, [r7, #4]
 1252 018c 2D4A     		ldr	r2, .L82+52
 1253 018e 9A18     		adds	r2, r3, r2
 1254 0190 1423     		movs	r3, #20
 1255 0192 FB18     		adds	r3, r7, r3
 1256 0194 1278     		ldrb	r2, [r2]
ARM GAS  C:\Users\HPz420\AppData\Local\Temp\ccAdodLg.s 			page 37


 1257 0196 1A70     		strb	r2, [r3]
 1258              	.L76:
 783:Generated_Source\PSoC4/CyLib.c ****                 }
 784:Generated_Source\PSoC4/CyLib.c ****             #else
 785:Generated_Source\PSoC4/CyLib.c ****                 imoTrim1Value = (uint8) CY_SFLASH_IMO_TRIM_REG(freq - CY_SYS_CLK_IMO_FREQ_TABLE_OFF
 786:Generated_Source\PSoC4/CyLib.c ****             #endif  /* (CY_IP_IMO_TRIMMABLE_BY_USB) */
 787:Generated_Source\PSoC4/CyLib.c **** 
 788:Generated_Source\PSoC4/CyLib.c **** 
 789:Generated_Source\PSoC4/CyLib.c ****             CY_SYS_CLK_IMO_TRIM1_REG = (uint32) imoTrim1Value;
 1259              		.loc 1 789 0
 1260 0198 2F4B     		ldr	r3, .L82+72
 1261 019a 1422     		movs	r2, #20
 1262 019c BA18     		adds	r2, r7, r2
 1263 019e 1278     		ldrb	r2, [r2]
 1264 01a0 1A60     		str	r2, [r3]
 790:Generated_Source\PSoC4/CyLib.c ****             CY_PWR_BG_TRIM4_REG  = bgTrim4;
 1265              		.loc 1 790 0
 1266 01a2 2E4B     		ldr	r3, .L82+76
 1267 01a4 1722     		movs	r2, #23
 1268 01a6 BA18     		adds	r2, r7, r2
 1269 01a8 1278     		ldrb	r2, [r2]
 1270 01aa 1A60     		str	r2, [r3]
 791:Generated_Source\PSoC4/CyLib.c ****             CY_PWR_BG_TRIM5_REG  = bgTrim5;
 1271              		.loc 1 791 0
 1272 01ac 2C4B     		ldr	r3, .L82+80
 1273 01ae 1622     		movs	r2, #22
 1274 01b0 BA18     		adds	r2, r7, r2
 1275 01b2 1278     		ldrb	r2, [r2]
 1276 01b4 1A60     		str	r2, [r3]
 792:Generated_Source\PSoC4/CyLib.c ****             CyDelayUs(CY_SYS_CLK_IMO_TRIM_TIMEOUT_US);
 1277              		.loc 1 792 0
 1278 01b6 0520     		movs	r0, #5
 1279 01b8 FFF7FEFF 		bl	CyDelayUs
 793:Generated_Source\PSoC4/CyLib.c **** 
 794:Generated_Source\PSoC4/CyLib.c ****             if (newImoTrim2Value > currentImoTrim2Value)
 1280              		.loc 1 794 0
 1281 01bc 0A23     		movs	r3, #10
 1282 01be FA18     		adds	r2, r7, r3
 1283 01c0 1523     		movs	r3, #21
 1284 01c2 FB18     		adds	r3, r7, r3
 1285 01c4 1278     		ldrb	r2, [r2]
 1286 01c6 1B78     		ldrb	r3, [r3]
 1287 01c8 9A42     		cmp	r2, r3
 1288 01ca 0CD9     		bls	.L79
 795:Generated_Source\PSoC4/CyLib.c ****             {
 796:Generated_Source\PSoC4/CyLib.c ****                 /* Set new IMO frequency */
 797:Generated_Source\PSoC4/CyLib.c ****                 CY_SYS_CLK_IMO_TRIM2_REG = cyImoFreqMhz2Reg[freq - CY_SYS_CLK_IMO_FREQ_TABLE_OFFSET
 1289              		.loc 1 797 0
 1290 01cc 1F4B     		ldr	r3, .L82+60
 1291 01ce 7A68     		ldr	r2, [r7, #4]
 1292 01d0 033A     		subs	r2, r2, #3
 1293 01d2 1D49     		ldr	r1, .L82+56
 1294 01d4 8A5C     		ldrb	r2, [r1, r2]
 1295 01d6 1A60     		str	r2, [r3]
 798:Generated_Source\PSoC4/CyLib.c ****                 CyDelayCycles(CY_SYS_CLK_IMO_FREQ_TIMEOUT_CYCLES);
 1296              		.loc 1 798 0
 1297 01d8 0520     		movs	r0, #5
ARM GAS  C:\Users\HPz420\AppData\Local\Temp\ccAdodLg.s 			page 38


 1298 01da FFF7FEFF 		bl	CyDelayCycles
 794:Generated_Source\PSoC4/CyLib.c ****             {
 1299              		.loc 1 794 0
 1300 01de 02E0     		b	.L79
 1301              	.L66:
 799:Generated_Source\PSoC4/CyLib.c ****             }
 800:Generated_Source\PSoC4/CyLib.c ****         }
 801:Generated_Source\PSoC4/CyLib.c ****         else
 802:Generated_Source\PSoC4/CyLib.c ****         {
 803:Generated_Source\PSoC4/CyLib.c ****             /* Halt CPU in debug mode if new frequency is invalid */
 804:Generated_Source\PSoC4/CyLib.c ****             CYASSERT(0u != 0u);
 1302              		.loc 1 804 0 discriminator 1
 1303 01e0 0020     		movs	r0, #0
 1304 01e2 FFF7FEFF 		bl	CyHalt
 1305              	.L79:
 805:Generated_Source\PSoC4/CyLib.c ****         }
 806:Generated_Source\PSoC4/CyLib.c **** 
 807:Generated_Source\PSoC4/CyLib.c ****         #endif /* (CY_IP_FMLT) */
 808:Generated_Source\PSoC4/CyLib.c **** 
 809:Generated_Source\PSoC4/CyLib.c ****         #if (CY_IP_IMO_TRIMMABLE_BY_WCO)
 810:Generated_Source\PSoC4/CyLib.c ****             if (1u == wcoLock)
 1306              		.loc 1 810 0
 1307 01e6 3B69     		ldr	r3, [r7, #16]
 1308 01e8 012B     		cmp	r3, #1
 1309 01ea 01D1     		bne	.L80
 811:Generated_Source\PSoC4/CyLib.c ****             {
 812:Generated_Source\PSoC4/CyLib.c ****                 CySysClkImoEnableWcoLock();
 1310              		.loc 1 812 0
 1311 01ec FFF7FEFF 		bl	CySysClkImoEnableWcoLock
 1312              	.L80:
 813:Generated_Source\PSoC4/CyLib.c ****             }
 814:Generated_Source\PSoC4/CyLib.c ****         #endif  /* (CY_IP_IMO_TRIMMABLE_BY_WCO) */
 815:Generated_Source\PSoC4/CyLib.c **** 
 816:Generated_Source\PSoC4/CyLib.c ****         #if (CY_IP_IMO_TRIMMABLE_BY_USB)
 817:Generated_Source\PSoC4/CyLib.c ****             if (1u == usbLock)
 1313              		.loc 1 817 0
 1314 01f0 FB68     		ldr	r3, [r7, #12]
 1315 01f2 012B     		cmp	r3, #1
 1316 01f4 01D1     		bne	.L81
 818:Generated_Source\PSoC4/CyLib.c ****             {
 819:Generated_Source\PSoC4/CyLib.c ****                 CySysClkImoEnableUsbLock();
 1317              		.loc 1 819 0
 1318 01f6 FFF7FEFF 		bl	CySysClkImoEnableUsbLock
 1319              	.L81:
 820:Generated_Source\PSoC4/CyLib.c ****             }
 821:Generated_Source\PSoC4/CyLib.c ****         #endif  /* (CY_IP_IMO_TRIMMABLE_BY_USB) */
 822:Generated_Source\PSoC4/CyLib.c **** 
 823:Generated_Source\PSoC4/CyLib.c ****         CyExitCriticalSection(interruptState);
 1320              		.loc 1 823 0
 1321 01fa 0B23     		movs	r3, #11
 1322 01fc FB18     		adds	r3, r7, r3
 1323 01fe 1B78     		ldrb	r3, [r3]
 1324 0200 1800     		movs	r0, r3
 1325 0202 FFF7FEFF 		bl	CyExitCriticalSection
 824:Generated_Source\PSoC4/CyLib.c ****     }
 1326              		.loc 1 824 0
 1327 0206 C046     		nop
ARM GAS  C:\Users\HPz420\AppData\Local\Temp\ccAdodLg.s 			page 39


 1328 0208 BD46     		mov	sp, r7
 1329 020a 07B0     		add	sp, sp, #28
 1330              		@ sp needed
 1331 020c 90BD     		pop	{r4, r7, pc}
 1332              	.L83:
 1333 020e C046     		.align	2
 1334              	.L82:
 1335 0210 40F3FF0F 		.word	268432192
 1336 0214 41F3FF0F 		.word	268432193
 1337 0218 42F3FF0F 		.word	268432194
 1338 021c 43F3FF0F 		.word	268432195
 1339 0220 44F3FF0F 		.word	268432196
 1340 0224 45F3FF0F 		.word	268432197
 1341 0228 46F3FF0F 		.word	268432198
 1342 022c 47F3FF0F 		.word	268432199
 1343 0230 48F3FF0F 		.word	268432200
 1344 0234 49F3FF0F 		.word	268432201
 1345 0238 4AF3FF0F 		.word	268432202
 1346 023c 4BF3FF0F 		.word	268432203
 1347 0240 4CF3FF0F 		.word	268432204
 1348 0244 4DF3FF0F 		.word	268432205
 1349 0248 00000000 		.word	cyImoFreqMhz2Reg
 1350 024c 2CFF0B40 		.word	1074528044
 1351 0250 3FF3FF0F 		.word	268432191
 1352 0254 3EF3FF0F 		.word	268432190
 1353 0258 28FF0B40 		.word	1074528040
 1354 025c 1CFF0B40 		.word	1074528028
 1355 0260 20FF0B40 		.word	1074528032
 1356              		.cfi_endproc
 1357              	.LFE13:
 1358              		.size	CySysClkWriteImoFreq, .-CySysClkWriteImoFreq
 1359              		.section	.text.CySysClkEcoStart,"ax",%progbits
 1360              		.align	2
 1361              		.global	CySysClkEcoStart
 1362              		.code	16
 1363              		.thumb_func
 1364              		.type	CySysClkEcoStart, %function
 1365              	CySysClkEcoStart:
 1366              	.LFB14:
 825:Generated_Source\PSoC4/CyLib.c **** 
 826:Generated_Source\PSoC4/CyLib.c **** #else
 827:Generated_Source\PSoC4/CyLib.c **** 
 828:Generated_Source\PSoC4/CyLib.c ****     void CySysClkWriteImoFreq(uint32 freq)
 829:Generated_Source\PSoC4/CyLib.c ****     {
 830:Generated_Source\PSoC4/CyLib.c ****         uint8  interruptState;
 831:Generated_Source\PSoC4/CyLib.c ****         uint8  imoTrim1Value;
 832:Generated_Source\PSoC4/CyLib.c **** 
 833:Generated_Source\PSoC4/CyLib.c ****         #if (CY_IP_IMO_TRIMMABLE_BY_WCO)
 834:Generated_Source\PSoC4/CyLib.c ****             uint32 wcoLock = 0u;
 835:Generated_Source\PSoC4/CyLib.c ****         #endif  /* (CY_IP_IMO_TRIMMABLE_BY_WCO) */        
 836:Generated_Source\PSoC4/CyLib.c ****         
 837:Generated_Source\PSoC4/CyLib.c ****         #if (CY_IP_IMO_TRIMMABLE_BY_USB)
 838:Generated_Source\PSoC4/CyLib.c ****             uint32 usbLock = 0u;
 839:Generated_Source\PSoC4/CyLib.c ****         #endif  /* (CY_IP_IMO_TRIMMABLE_BY_USB) */
 840:Generated_Source\PSoC4/CyLib.c **** 
 841:Generated_Source\PSoC4/CyLib.c ****         #if (CY_PSOC4_4000)
 842:Generated_Source\PSoC4/CyLib.c ****             if ((freq == 24u) || (freq == 32u) || (freq == 48u))
ARM GAS  C:\Users\HPz420\AppData\Local\Temp\ccAdodLg.s 			page 40


 843:Generated_Source\PSoC4/CyLib.c ****         #elif (CY_CCG3)
 844:Generated_Source\PSoC4/CyLib.c ****             if ((freq == 24u) || (freq == 36u) || (freq == 48u))
 845:Generated_Source\PSoC4/CyLib.c ****         #else
 846:Generated_Source\PSoC4/CyLib.c ****             if ((freq == 24u) || (freq == 28u) || (freq == 32u) ||
 847:Generated_Source\PSoC4/CyLib.c ****                 (freq == 36u) || (freq == 40u) || (freq == 44u) ||
 848:Generated_Source\PSoC4/CyLib.c ****                 (freq == 48u))
 849:Generated_Source\PSoC4/CyLib.c ****         #endif /* (CY_PSOC4_4000) */
 850:Generated_Source\PSoC4/CyLib.c ****         {
 851:Generated_Source\PSoC4/CyLib.c ****             interruptState = CyEnterCriticalSection();
 852:Generated_Source\PSoC4/CyLib.c **** 
 853:Generated_Source\PSoC4/CyLib.c ****             #if (CY_IP_IMO_TRIMMABLE_BY_WCO)
 854:Generated_Source\PSoC4/CyLib.c ****                 if(0u != CySysClkImoGetWcoLock())
 855:Generated_Source\PSoC4/CyLib.c ****                 {
 856:Generated_Source\PSoC4/CyLib.c ****                     wcoLock = 1u;
 857:Generated_Source\PSoC4/CyLib.c ****                     CySysClkImoDisableWcoLock();
 858:Generated_Source\PSoC4/CyLib.c ****                 }
 859:Generated_Source\PSoC4/CyLib.c ****             #endif  /* (CY_IP_IMO_TRIMMABLE_BY_WCO) */
 860:Generated_Source\PSoC4/CyLib.c **** 
 861:Generated_Source\PSoC4/CyLib.c ****             #if (CY_IP_IMO_TRIMMABLE_BY_USB)
 862:Generated_Source\PSoC4/CyLib.c **** 
 863:Generated_Source\PSoC4/CyLib.c ****                 #if (CYDEV_IMO_TRIMMED_BY_USB == 0u)
 864:Generated_Source\PSoC4/CyLib.c ****                     if(0u != CySysClkImoGetUsbLock())
 865:Generated_Source\PSoC4/CyLib.c ****                     {
 866:Generated_Source\PSoC4/CyLib.c ****                 #endif  /* (CYDEV_IMO_TRIMMED_BY_USB == 0u) */
 867:Generated_Source\PSoC4/CyLib.c **** 
 868:Generated_Source\PSoC4/CyLib.c ****                     if (48u == freq)
 869:Generated_Source\PSoC4/CyLib.c ****                     {
 870:Generated_Source\PSoC4/CyLib.c ****                         usbLock = 1u;
 871:Generated_Source\PSoC4/CyLib.c ****                         CySysClkImoDisableUsbLock();
 872:Generated_Source\PSoC4/CyLib.c ****                     }
 873:Generated_Source\PSoC4/CyLib.c **** 
 874:Generated_Source\PSoC4/CyLib.c ****                 #if (CYDEV_IMO_TRIMMED_BY_USB == 0u)
 875:Generated_Source\PSoC4/CyLib.c ****                     }
 876:Generated_Source\PSoC4/CyLib.c ****                 #endif  /* (CYDEV_IMO_TRIMMED_BY_USB == 0u) */
 877:Generated_Source\PSoC4/CyLib.c **** 
 878:Generated_Source\PSoC4/CyLib.c ****             #endif  /* (CYDEV_IMO_TRIMMED_BY_USB == 0u) */
 879:Generated_Source\PSoC4/CyLib.c **** 
 880:Generated_Source\PSoC4/CyLib.c **** 
 881:Generated_Source\PSoC4/CyLib.c ****             /* Set IMO to 24 MHz - CLK_IMO_SELECT.FREQ = 0 */
 882:Generated_Source\PSoC4/CyLib.c ****             CY_SYS_CLK_IMO_SELECT_REG &= ((uint32) ~CY_SYS_CLK_IMO_SELECT_FREQ_MASK);
 883:Generated_Source\PSoC4/CyLib.c **** 
 884:Generated_Source\PSoC4/CyLib.c **** 
 885:Generated_Source\PSoC4/CyLib.c ****             /* Apply coarse trim */
 886:Generated_Source\PSoC4/CyLib.c ****             #if (CY_IP_IMO_TRIMMABLE_BY_USB)
 887:Generated_Source\PSoC4/CyLib.c ****                 if ((1u == usbLock) && (48u == freq))
 888:Generated_Source\PSoC4/CyLib.c ****                 {
 889:Generated_Source\PSoC4/CyLib.c ****                     imoTrim1Value = CY_SFLASH_IMO_TRIM_USBMODE_48_REG;
 890:Generated_Source\PSoC4/CyLib.c ****                 }
 891:Generated_Source\PSoC4/CyLib.c ****                 else if ((1u == usbLock) && (24u == freq))
 892:Generated_Source\PSoC4/CyLib.c ****                 {
 893:Generated_Source\PSoC4/CyLib.c ****                     imoTrim1Value = CY_SFLASH_IMO_TRIM_USBMODE_24_REG;
 894:Generated_Source\PSoC4/CyLib.c ****                 }
 895:Generated_Source\PSoC4/CyLib.c ****                 else
 896:Generated_Source\PSoC4/CyLib.c ****                 {
 897:Generated_Source\PSoC4/CyLib.c ****                     imoTrim1Value = (uint8) CY_SFLASH_IMO_TRIM_REG(freq - CY_SYS_CLK_IMO_MIN_FREQ_M
 898:Generated_Source\PSoC4/CyLib.c ****                 }
 899:Generated_Source\PSoC4/CyLib.c ****             #else
ARM GAS  C:\Users\HPz420\AppData\Local\Temp\ccAdodLg.s 			page 41


 900:Generated_Source\PSoC4/CyLib.c ****                 imoTrim1Value = (uint8) CY_SFLASH_IMO_TRIM_REG(freq - CY_SYS_CLK_IMO_MIN_FREQ_MHZ);
 901:Generated_Source\PSoC4/CyLib.c ****             #endif  /* (CY_IP_IMO_TRIMMABLE_BY_USB) */
 902:Generated_Source\PSoC4/CyLib.c ****             CY_SYS_CLK_IMO_TRIM1_REG = (uint32) imoTrim1Value;
 903:Generated_Source\PSoC4/CyLib.c **** 
 904:Generated_Source\PSoC4/CyLib.c ****             /* Zero out fine trim */
 905:Generated_Source\PSoC4/CyLib.c ****             CY_SYS_CLK_IMO_TRIM2_REG = CY_SYS_CLK_IMO_TRIM2_REG & ((uint32) ~CY_SYS_CLK_IMO_TRIM2_F
 906:Generated_Source\PSoC4/CyLib.c **** 
 907:Generated_Source\PSoC4/CyLib.c ****             /* Apply TC trim */
 908:Generated_Source\PSoC4/CyLib.c ****             CY_SYS_CLK_IMO_TRIM3_REG = (CY_SYS_CLK_IMO_TRIM3_REG & ((uint32) ~CY_SYS_CLK_IMO_TRIM3_
 909:Generated_Source\PSoC4/CyLib.c ****                 (CY_SFLASH_IMO_TCTRIM_REG(freq - CY_SYS_CLK_IMO_MIN_FREQ_MHZ) & CY_SYS_CLK_IMO_TRIM
 910:Generated_Source\PSoC4/CyLib.c **** 
 911:Generated_Source\PSoC4/CyLib.c ****             CyDelayCycles(CY_SYS_CLK_IMO_TRIM_DELAY_CYCLES);
 912:Generated_Source\PSoC4/CyLib.c **** 
 913:Generated_Source\PSoC4/CyLib.c ****             if (freq > CY_SYS_CLK_IMO_MIN_FREQ_MHZ)
 914:Generated_Source\PSoC4/CyLib.c ****             {
 915:Generated_Source\PSoC4/CyLib.c ****                 /* Select nearby intermediate frequency */
 916:Generated_Source\PSoC4/CyLib.c ****                 CY_SYS_CLK_IMO_SELECT_REG = (CY_SYS_CLK_IMO_SELECT_REG & ((uint32) ~CY_SYS_CLK_IMO_
 917:Generated_Source\PSoC4/CyLib.c ****                     (((freq - 4u - CY_SYS_CLK_IMO_MIN_FREQ_MHZ) >> 2u) & CY_SYS_CLK_IMO_SELECT_FREQ
 918:Generated_Source\PSoC4/CyLib.c **** 
 919:Generated_Source\PSoC4/CyLib.c ****                 CyDelayCycles(CY_SYS_CLK_IMO_TRIM_DELAY_CYCLES);
 920:Generated_Source\PSoC4/CyLib.c **** 
 921:Generated_Source\PSoC4/CyLib.c ****                 /* Make small step to final frequency */
 922:Generated_Source\PSoC4/CyLib.c ****                 /* Select nearby intermediate frequency */
 923:Generated_Source\PSoC4/CyLib.c ****                 CY_SYS_CLK_IMO_SELECT_REG = (CY_SYS_CLK_IMO_SELECT_REG & ((uint32) ~CY_SYS_CLK_IMO_
 924:Generated_Source\PSoC4/CyLib.c ****                     (((freq - CY_SYS_CLK_IMO_MIN_FREQ_MHZ) >> 2u) & CY_SYS_CLK_IMO_SELECT_FREQ_MASK
 925:Generated_Source\PSoC4/CyLib.c ****             }
 926:Generated_Source\PSoC4/CyLib.c **** 
 927:Generated_Source\PSoC4/CyLib.c ****             #if (CY_IP_IMO_TRIMMABLE_BY_WCO)
 928:Generated_Source\PSoC4/CyLib.c ****                 if (1u == wcoLock)
 929:Generated_Source\PSoC4/CyLib.c ****                 {
 930:Generated_Source\PSoC4/CyLib.c ****                     CySysClkImoEnableWcoLock();
 931:Generated_Source\PSoC4/CyLib.c ****                 }
 932:Generated_Source\PSoC4/CyLib.c ****             #endif  /* (CY_IP_IMO_TRIMMABLE_BY_WCO) */
 933:Generated_Source\PSoC4/CyLib.c ****         
 934:Generated_Source\PSoC4/CyLib.c ****         
 935:Generated_Source\PSoC4/CyLib.c ****             #if (CY_IP_IMO_TRIMMABLE_BY_USB)
 936:Generated_Source\PSoC4/CyLib.c ****                 if (1u == usbLock)
 937:Generated_Source\PSoC4/CyLib.c ****                 {
 938:Generated_Source\PSoC4/CyLib.c ****                     CySysClkImoEnableUsbLock();
 939:Generated_Source\PSoC4/CyLib.c ****                 }
 940:Generated_Source\PSoC4/CyLib.c ****             #endif  /* (CY_IP_IMO_TRIMMABLE_BY_USB) */
 941:Generated_Source\PSoC4/CyLib.c **** 
 942:Generated_Source\PSoC4/CyLib.c ****             CyExitCriticalSection(interruptState);
 943:Generated_Source\PSoC4/CyLib.c ****         }
 944:Generated_Source\PSoC4/CyLib.c ****         else
 945:Generated_Source\PSoC4/CyLib.c ****         {
 946:Generated_Source\PSoC4/CyLib.c ****             /* Halt CPU in debug mode if new frequency is invalid */
 947:Generated_Source\PSoC4/CyLib.c ****             CYASSERT(0u != 0u);
 948:Generated_Source\PSoC4/CyLib.c ****         }
 949:Generated_Source\PSoC4/CyLib.c ****     }
 950:Generated_Source\PSoC4/CyLib.c **** 
 951:Generated_Source\PSoC4/CyLib.c **** #endif /* (CY_IP_SRSSV2) */
 952:Generated_Source\PSoC4/CyLib.c **** 
 953:Generated_Source\PSoC4/CyLib.c **** 
 954:Generated_Source\PSoC4/CyLib.c **** #if(CY_IP_SRSSLT)
 955:Generated_Source\PSoC4/CyLib.c ****     /*******************************************************************************
 956:Generated_Source\PSoC4/CyLib.c ****     * Function Name: CySysClkWriteHfclkDiv
ARM GAS  C:\Users\HPz420\AppData\Local\Temp\ccAdodLg.s 			page 42


 957:Generated_Source\PSoC4/CyLib.c ****     ****************************************************************************//**
 958:Generated_Source\PSoC4/CyLib.c ****     *
 959:Generated_Source\PSoC4/CyLib.c ****     * Selects the pre-scaler divider value for HFCLK from IMO.
 960:Generated_Source\PSoC4/CyLib.c ****     *
 961:Generated_Source\PSoC4/CyLib.c ****     * The HFCLK predivider allows the device to divide the HFCLK selection mux
 962:Generated_Source\PSoC4/CyLib.c ****     * input before use as HFCLK. The predivider is capable of dividing the HFCLK by
 963:Generated_Source\PSoC4/CyLib.c ****     * powers of 2 between 1 and 8.
 964:Generated_Source\PSoC4/CyLib.c ****     *
 965:Generated_Source\PSoC4/CyLib.c ****     * PSoC 4000: The SYSCLK has the speed of 16 MHz, so HFCLK and SYSCLK dividers
 966:Generated_Source\PSoC4/CyLib.c ****     * should be selected in a way, not to exceed 16 MHz for SYSCLK.
 967:Generated_Source\PSoC4/CyLib.c ****     *
 968:Generated_Source\PSoC4/CyLib.c ****     * If the SYSCLK clock frequency increases during the device operation, call
 969:Generated_Source\PSoC4/CyLib.c ****     * \ref CySysFlashSetWaitCycles() with the appropriate parameter to adjust the
 970:Generated_Source\PSoC4/CyLib.c ****     * number of clock cycles the cache will wait before sampling data comes back
 971:Generated_Source\PSoC4/CyLib.c ****     * from Flash. If the SYSCLK clock frequency decreases, you can call
 972:Generated_Source\PSoC4/CyLib.c ****     * \ref CySysFlashSetWaitCycles() to improve the CPU performance. See
 973:Generated_Source\PSoC4/CyLib.c ****     * \ref CySysFlashSetWaitCycles() description for more information.
 974:Generated_Source\PSoC4/CyLib.c ****     *
 975:Generated_Source\PSoC4/CyLib.c ****     * \param \ref CY_SYS_CLK_HFCLK_DIV_NODIV    Transparent mode (w/o dividing)
 976:Generated_Source\PSoC4/CyLib.c ****     * \param \ref CY_SYS_CLK_HFCLK_DIV_2        Divide selected clock source by 2
 977:Generated_Source\PSoC4/CyLib.c ****     * \param \ref CY_SYS_CLK_HFCLK_DIV_4        Divide selected clock source by 4
 978:Generated_Source\PSoC4/CyLib.c ****     * \param \ref CY_SYS_CLK_HFCLK_DIV_8        Divide selected clock source by 8
 979:Generated_Source\PSoC4/CyLib.c ****     *
 980:Generated_Source\PSoC4/CyLib.c ****     *******************************************************************************/
 981:Generated_Source\PSoC4/CyLib.c ****     void CySysClkWriteHfclkDiv(uint32 divider)
 982:Generated_Source\PSoC4/CyLib.c ****     {
 983:Generated_Source\PSoC4/CyLib.c ****         uint8  interruptState;
 984:Generated_Source\PSoC4/CyLib.c **** 
 985:Generated_Source\PSoC4/CyLib.c ****         interruptState = CyEnterCriticalSection();
 986:Generated_Source\PSoC4/CyLib.c **** 
 987:Generated_Source\PSoC4/CyLib.c ****         CY_SYS_CLK_SELECT_REG = ((CY_SYS_CLK_SELECT_REG & ((uint32) (~(CY_SYS_CLK_SELECT_HFCLK_DIV_
 988:Generated_Source\PSoC4/CyLib.c ****                                         CY_SYS_CLK_SELECT_HFCLK_DIV_SHIFT)))) |
 989:Generated_Source\PSoC4/CyLib.c ****                     ((uint32)((divider & CY_SYS_CLK_SELECT_HFCLK_DIV_MASK) << CY_SYS_CLK_SELECT_HFC
 990:Generated_Source\PSoC4/CyLib.c **** 
 991:Generated_Source\PSoC4/CyLib.c ****         CyExitCriticalSection(interruptState);
 992:Generated_Source\PSoC4/CyLib.c ****     }
 993:Generated_Source\PSoC4/CyLib.c **** #endif /* (CY_IP_SRSSLT) */
 994:Generated_Source\PSoC4/CyLib.c **** 
 995:Generated_Source\PSoC4/CyLib.c **** 
 996:Generated_Source\PSoC4/CyLib.c **** #if (CY_IP_ECO)
 997:Generated_Source\PSoC4/CyLib.c **** 
 998:Generated_Source\PSoC4/CyLib.c ****     /*******************************************************************************
 999:Generated_Source\PSoC4/CyLib.c ****     * Function Name: CySysClkEcoStart
1000:Generated_Source\PSoC4/CyLib.c ****     ****************************************************************************//**
1001:Generated_Source\PSoC4/CyLib.c ****     *
1002:Generated_Source\PSoC4/CyLib.c ****     * Starts the External Crystal Oscillator (ECO). Refer to the device datasheet
1003:Generated_Source\PSoC4/CyLib.c ****     * for the ECO startup time.
1004:Generated_Source\PSoC4/CyLib.c ****     *
1005:Generated_Source\PSoC4/CyLib.c ****     * The timeout interval is measured based on the system frequency defined by
1006:Generated_Source\PSoC4/CyLib.c ****     * PSoC Creator at build time. If System clock frequency is changed in
1007:Generated_Source\PSoC4/CyLib.c ****     * runtime, the \ref CyDelayFreq() with the appropriate parameter should be
1008:Generated_Source\PSoC4/CyLib.c ****     * called.
1009:Generated_Source\PSoC4/CyLib.c ****     *
1010:Generated_Source\PSoC4/CyLib.c ****     * PSoC 4100 BLE / PSoC 4200 BLE: The WCO must be enabled prior to enabling ECO.
1011:Generated_Source\PSoC4/CyLib.c ****     *
1012:Generated_Source\PSoC4/CyLib.c ****     * \param timeoutUs Timeout in microseconds.
1013:Generated_Source\PSoC4/CyLib.c ****     *
ARM GAS  C:\Users\HPz420\AppData\Local\Temp\ccAdodLg.s 			page 43


1014:Generated_Source\PSoC4/CyLib.c ****     * If zero is specified, the function does not wait for timeout and returns
1015:Generated_Source\PSoC4/CyLib.c ****     * CYRET_SUCCESS. If non-zero is specified, the function waits for the timeout.
1016:Generated_Source\PSoC4/CyLib.c ****     *
1017:Generated_Source\PSoC4/CyLib.c ****     * \return \ref CYRET_SUCCESS Completed successfully. The ECO is oscillating and
1018:Generated_Source\PSoC4/CyLib.c ****     * amplitude reached 60% and it does not mean 24 MHz crystal is within 50 ppm.
1019:Generated_Source\PSoC4/CyLib.c ****     *
1020:Generated_Source\PSoC4/CyLib.c ****     * \return \ref CYRET_TIMEOUT Timeout occurred. If the crystal is not oscillating
1021:Generated_Source\PSoC4/CyLib.c ****     * or amplitude didn't reach 60% after specified amount of time, CYRET_TIMEOUT
1022:Generated_Source\PSoC4/CyLib.c ****     * is returned.
1023:Generated_Source\PSoC4/CyLib.c ****     *
1024:Generated_Source\PSoC4/CyLib.c ****     * \return \ref CYRET_BAD_PARAM One or more invalid parameters.
1025:Generated_Source\PSoC4/CyLib.c ****     *
1026:Generated_Source\PSoC4/CyLib.c ****     *******************************************************************************/
1027:Generated_Source\PSoC4/CyLib.c ****     cystatus CySysClkEcoStart(uint32 timeoutUs)
1028:Generated_Source\PSoC4/CyLib.c ****     {
 1367              		.loc 1 1028 0
 1368              		.cfi_startproc
 1369              		@ args = 0, pretend = 0, frame = 16
 1370              		@ frame_needed = 1, uses_anonymous_args = 0
 1371 0000 80B5     		push	{r7, lr}
 1372              		.cfi_def_cfa_offset 8
 1373              		.cfi_offset 7, -8
 1374              		.cfi_offset 14, -4
 1375 0002 84B0     		sub	sp, sp, #16
 1376              		.cfi_def_cfa_offset 24
 1377 0004 00AF     		add	r7, sp, #0
 1378              		.cfi_def_cfa_register 7
 1379 0006 7860     		str	r0, [r7, #4]
1029:Generated_Source\PSoC4/CyLib.c ****         cystatus returnStatus = CYRET_SUCCESS;
 1380              		.loc 1 1029 0
 1381 0008 0023     		movs	r3, #0
 1382 000a FB60     		str	r3, [r7, #12]
1030:Generated_Source\PSoC4/CyLib.c **** 
1031:Generated_Source\PSoC4/CyLib.c ****         #if (CY_IP_ECO_BLESS)
1032:Generated_Source\PSoC4/CyLib.c ****             /* Enable the RF oscillator band gap */
1033:Generated_Source\PSoC4/CyLib.c ****             CY_SYS_XTAL_BLESS_RF_CONFIG_REG |= CY_SYS_XTAL_BLESS_RF_CONFIG_RF_ENABLE;
1034:Generated_Source\PSoC4/CyLib.c **** 
1035:Generated_Source\PSoC4/CyLib.c ****             /* Update trimming register */
1036:Generated_Source\PSoC4/CyLib.c ****             CY_SYS_XTAL_BLERD_BB_XO_REG = CY_SYS_XTAL_BLERD_BB_XO_TRIM;
1037:Generated_Source\PSoC4/CyLib.c **** 
1038:Generated_Source\PSoC4/CyLib.c ****             /* Enable the Crystal */
1039:Generated_Source\PSoC4/CyLib.c ****             CY_SYS_XTAL_BLERD_DBUS_REG |= CY_SYS_XTAL_BLERD_DBUS_XTAL_ENABLE;
1040:Generated_Source\PSoC4/CyLib.c ****         
1041:Generated_Source\PSoC4/CyLib.c ****         #elif (CY_IP_ECO_BLESSV3)
1042:Generated_Source\PSoC4/CyLib.c ****             uint32 regConfig;
1043:Generated_Source\PSoC4/CyLib.c ****             uint32 intrRegMaskStore = 0u;
1044:Generated_Source\PSoC4/CyLib.c ****             
1045:Generated_Source\PSoC4/CyLib.c ****             if (0u != (CY_SYS_BLESS_MT_CFG_REG & (CY_SYS_BLESS_MT_CFG_ENABLE_BLERD <<  CYFLD_BLE_BL
1046:Generated_Source\PSoC4/CyLib.c ****             {
1047:Generated_Source\PSoC4/CyLib.c ****                 CY_SYS_BLESS_MT_CFG_REG |= (CY_SYS_BLESS_MT_CFG_DPSLP_ECO_ON  <<  CYFLD_BLE_BLESS_D
1048:Generated_Source\PSoC4/CyLib.c ****             }
1049:Generated_Source\PSoC4/CyLib.c ****             else
1050:Generated_Source\PSoC4/CyLib.c ****             {
1051:Generated_Source\PSoC4/CyLib.c ****                 /* Init BLE core */
1052:Generated_Source\PSoC4/CyLib.c ****                 CY_SYS_BLESS_MT_DELAY_CFG_REG = CY_SYS_BLESS_MT_DELAY_CFG_INIT;
1053:Generated_Source\PSoC4/CyLib.c ****                 CY_SYS_BLESS_MT_DELAY_CFG2_REG = CY_SYS_BLESS_MT_DELAY_CFG2_INIT;
1054:Generated_Source\PSoC4/CyLib.c ****                 CY_SYS_BLESS_MT_DELAY_CFG3_REG = CY_SYS_BLESS_MT_DELAY_CFG3_INIT;
ARM GAS  C:\Users\HPz420\AppData\Local\Temp\ccAdodLg.s 			page 44


1055:Generated_Source\PSoC4/CyLib.c ****             
1056:Generated_Source\PSoC4/CyLib.c ****                 /* RCB init */
1057:Generated_Source\PSoC4/CyLib.c ****                 regConfig = CY_SYS_RCB_CTRL_REG;
1058:Generated_Source\PSoC4/CyLib.c ****                 regConfig &= CY_SYS_RCB_CTRL_CLEAR;
1059:Generated_Source\PSoC4/CyLib.c ****                 regConfig |= CY_SYS_RCB_CTRL_INIT;
1060:Generated_Source\PSoC4/CyLib.c ****                 CY_SYS_RCB_CTRL_REG = regConfig;
1061:Generated_Source\PSoC4/CyLib.c ****                 
1062:Generated_Source\PSoC4/CyLib.c ****                 intrRegMaskStore = CY_SYS_BLESS_INTR_MASK_REG;
1063:Generated_Source\PSoC4/CyLib.c ****                 if(0u != (CY_SYS_BLESS_BLERD_ACTIVE_INTR_MASK & intrRegMaskStore))
1064:Generated_Source\PSoC4/CyLib.c ****                 {
1065:Generated_Source\PSoC4/CyLib.c ****                     CY_SYS_BLESS_INTR_MASK_REG &= ~CY_SYS_BLESS_BLERD_ACTIVE_INTR_MASK;
1066:Generated_Source\PSoC4/CyLib.c ****                 }
1067:Generated_Source\PSoC4/CyLib.c ****                 
1068:Generated_Source\PSoC4/CyLib.c ****                 /* Enable BLE core */
1069:Generated_Source\PSoC4/CyLib.c ****                 regConfig = CY_SYS_BLESS_MT_CFG_REG;
1070:Generated_Source\PSoC4/CyLib.c ****                 regConfig &= CY_SYS_BLESS_MT_CFG_CLEAR;
1071:Generated_Source\PSoC4/CyLib.c ****                 regConfig |= CY_SYS_BLESS_MT_CFG_INIT;
1072:Generated_Source\PSoC4/CyLib.c ****                 CY_SYS_BLESS_MT_CFG_REG = regConfig;
1073:Generated_Source\PSoC4/CyLib.c **** 
1074:Generated_Source\PSoC4/CyLib.c ****                 while(0u == ((CY_SYS_BLESS_BLERD_ACTIVE_INTR_STAT & CY_SYS_BLESS_INTR_STAT_REG)))
1075:Generated_Source\PSoC4/CyLib.c ****                 {
1076:Generated_Source\PSoC4/CyLib.c ****                     /* Wait until BLERD55 moves to active state */
1077:Generated_Source\PSoC4/CyLib.c ****                 }
1078:Generated_Source\PSoC4/CyLib.c **** 
1079:Generated_Source\PSoC4/CyLib.c ****                 if(0u != (CY_SYS_BLESS_BLERD_ACTIVE_INTR_MASK & intrRegMaskStore))
1080:Generated_Source\PSoC4/CyLib.c ****                 {
1081:Generated_Source\PSoC4/CyLib.c ****                     CY_SYS_BLESS_INTR_MASK_REG |= CY_SYS_BLESS_BLERD_ACTIVE_INTR_MASK;
1082:Generated_Source\PSoC4/CyLib.c ****                 }
1083:Generated_Source\PSoC4/CyLib.c ****                 
1084:Generated_Source\PSoC4/CyLib.c ****                 /* Send write commands to RBUS */
1085:Generated_Source\PSoC4/CyLib.c ****                 CY_SYS_RCB_TX_FIFO_WR_REG = CY_SYS_RCB_RBUS_FREQ_NRST_SET;
1086:Generated_Source\PSoC4/CyLib.c ****                 CY_SYS_RCB_TX_FIFO_WR_REG = CY_SYS_RCB_RBUS_DIG_CLK_SET;
1087:Generated_Source\PSoC4/CyLib.c ****                 
1088:Generated_Source\PSoC4/CyLib.c ****                 #if (CY_SYS_BLE_CLK_ECO_FREQ_32MHZ == CYDEV_ECO_CLK_MHZ)
1089:Generated_Source\PSoC4/CyLib.c ****                     CY_SYS_RCB_TX_FIFO_WR_REG = CY_SYS_RCB_RBUS_FREQ_XTAL_DIV_SET;
1090:Generated_Source\PSoC4/CyLib.c ****                     CY_SYS_RCB_TX_FIFO_WR_REG = (CY_SYS_RCB_RBUS_RF_DCXO_CFG_SET | CY_SYS_RCB_RBUS_
1091:Generated_Source\PSoC4/CyLib.c ****                 #else
1092:Generated_Source\PSoC4/CyLib.c ****                     CY_SYS_RCB_TX_FIFO_WR_REG = CY_SYS_RCB_RBUS_FREQ_XTAL_NODIV_SET;
1093:Generated_Source\PSoC4/CyLib.c ****                 #endif
1094:Generated_Source\PSoC4/CyLib.c ****                 
1095:Generated_Source\PSoC4/CyLib.c ****                 intrRegMaskStore = CY_SYS_BLESS_INTR_MASK_REG;
1096:Generated_Source\PSoC4/CyLib.c ****                 if(0u != (CY_SYS_RCB_INTR_RCB_DONE & intrRegMaskStore))
1097:Generated_Source\PSoC4/CyLib.c ****                 {
1098:Generated_Source\PSoC4/CyLib.c ****                     CY_SYS_BLESS_INTR_MASK_REG &= ~(CY_SYS_RCB_INTR_RCB_DONE | CY_SYS_RCB_INTR_RCB_
1099:Generated_Source\PSoC4/CyLib.c ****                 }
1100:Generated_Source\PSoC4/CyLib.c ****                 
1101:Generated_Source\PSoC4/CyLib.c ****                 /* Send read commands to RBUS */
1102:Generated_Source\PSoC4/CyLib.c ****                 CY_SYS_RCB_TX_FIFO_WR_REG = (CY_SYS_RCB_RBUS_RD_CMD | 
1103:Generated_Source\PSoC4/CyLib.c ****                                             (CY_SYS_RCB_RBUS_RF_DCXO_CFG_SET & ~CY_SYS_RCB_RBUS_VAL
1104:Generated_Source\PSoC4/CyLib.c ****                                             
1105:Generated_Source\PSoC4/CyLib.c ****                 while (0u == (CY_SYS_RCB_INTR_RCB_RX_FIFO_NOT_EMPTY & CY_SYS_RCB_INTR_REG))
1106:Generated_Source\PSoC4/CyLib.c ****                 {
1107:Generated_Source\PSoC4/CyLib.c ****                     /* Wait until RX_FIFO_NOT_EMPTY state */
1108:Generated_Source\PSoC4/CyLib.c ****                 }
1109:Generated_Source\PSoC4/CyLib.c **** 
1110:Generated_Source\PSoC4/CyLib.c ****                 CY_SYS_RCB_INTR_REG |= CY_SYS_RCB_INTR_RCB_DONE;
1111:Generated_Source\PSoC4/CyLib.c ****                 
ARM GAS  C:\Users\HPz420\AppData\Local\Temp\ccAdodLg.s 			page 45


1112:Generated_Source\PSoC4/CyLib.c ****                 regConfig = CY_SYS_RCB_RX_FIFO_RD_REG & CY_SYS_RCB_RBUS_TRIM_MASK;
1113:Generated_Source\PSoC4/CyLib.c ****                 
1114:Generated_Source\PSoC4/CyLib.c ****                 /* Send write commands to RBUS */
1115:Generated_Source\PSoC4/CyLib.c ****                 CY_SYS_RCB_TX_FIFO_WR_REG = (CY_SYS_RCB_RBUS_RF_DCXO_CFG_SET | regConfig | CY_SYS_R
1116:Generated_Source\PSoC4/CyLib.c ****                 
1117:Generated_Source\PSoC4/CyLib.c ****                 while (0u == (CY_SYS_RCB_INTR_RCB_DONE & CY_SYS_RCB_INTR_REG))
1118:Generated_Source\PSoC4/CyLib.c ****                 {
1119:Generated_Source\PSoC4/CyLib.c ****                     /* Wait until RCB_DONE state */
1120:Generated_Source\PSoC4/CyLib.c ****                 }
1121:Generated_Source\PSoC4/CyLib.c ****                 
1122:Generated_Source\PSoC4/CyLib.c ****                 /* Clear Interrupt */
1123:Generated_Source\PSoC4/CyLib.c ****                 CY_SYS_RCB_INTR_REG = CY_SYS_RCB_INTR_CLEAR;
1124:Generated_Source\PSoC4/CyLib.c ****                 
1125:Generated_Source\PSoC4/CyLib.c ****                 if(0u != ((CY_SYS_RCB_INTR_RCB_DONE | CY_SYS_RCB_INTR_RCB_RX_FIFO_NOT_EMPTY) & intr
1126:Generated_Source\PSoC4/CyLib.c ****                 {
1127:Generated_Source\PSoC4/CyLib.c ****                     CY_SYS_BLESS_INTR_MASK_REG |= intrRegMaskStore;
1128:Generated_Source\PSoC4/CyLib.c ****                 }
1129:Generated_Source\PSoC4/CyLib.c ****                 
1130:Generated_Source\PSoC4/CyLib.c ****             }
1131:Generated_Source\PSoC4/CyLib.c ****         #else /* CY_IP_ECO_SRSSV2 */
1132:Generated_Source\PSoC4/CyLib.c ****             CY_SYS_CLK_ECO_CONFIG_REG |= CY_SYS_CLK_ECO_CONFIG_ENABLE;
 1383              		.loc 1 1132 0
 1384 000c 154B     		ldr	r3, .L90
 1385 000e 154A     		ldr	r2, .L90
 1386 0010 1268     		ldr	r2, [r2]
 1387 0012 8021     		movs	r1, #128
 1388 0014 0906     		lsls	r1, r1, #24
 1389 0016 0A43     		orrs	r2, r1
 1390 0018 1A60     		str	r2, [r3]
1133:Generated_Source\PSoC4/CyLib.c ****             CyDelayUs(CY_SYS_CLK_ECO_CONFIG_CLK_EN_TIMEOUT_US);
 1391              		.loc 1 1133 0
 1392 001a 0A20     		movs	r0, #10
 1393 001c FFF7FEFF 		bl	CyDelayUs
1134:Generated_Source\PSoC4/CyLib.c ****             CY_SYS_CLK_ECO_CONFIG_REG |= CY_SYS_CLK_ECO_CONFIG_CLK_EN;
 1394              		.loc 1 1134 0
 1395 0020 104B     		ldr	r3, .L90
 1396 0022 104A     		ldr	r2, .L90
 1397 0024 1268     		ldr	r2, [r2]
 1398 0026 0121     		movs	r1, #1
 1399 0028 0A43     		orrs	r2, r1
 1400 002a 1A60     		str	r2, [r3]
1135:Generated_Source\PSoC4/CyLib.c ****         #endif /* (CY_IP_ECO_BLESS) */
1136:Generated_Source\PSoC4/CyLib.c **** 
1137:Generated_Source\PSoC4/CyLib.c ****         if(timeoutUs > 0u)
 1401              		.loc 1 1137 0
 1402 002c 7B68     		ldr	r3, [r7, #4]
 1403 002e 002B     		cmp	r3, #0
 1404 0030 12D0     		beq	.L85
1138:Generated_Source\PSoC4/CyLib.c ****         {
1139:Generated_Source\PSoC4/CyLib.c ****             returnStatus = CYRET_TIMEOUT;
 1405              		.loc 1 1139 0
 1406 0032 1023     		movs	r3, #16
 1407 0034 FB60     		str	r3, [r7, #12]
1140:Generated_Source\PSoC4/CyLib.c **** 
1141:Generated_Source\PSoC4/CyLib.c ****             for( ; timeoutUs > 0u; timeoutUs--)
 1408              		.loc 1 1141 0
 1409 0036 0CE0     		b	.L86
ARM GAS  C:\Users\HPz420\AppData\Local\Temp\ccAdodLg.s 			page 46


 1410              	.L88:
1142:Generated_Source\PSoC4/CyLib.c ****             {
1143:Generated_Source\PSoC4/CyLib.c ****                 CyDelayUs(1u);
 1411              		.loc 1 1143 0
 1412 0038 0120     		movs	r0, #1
 1413 003a FFF7FEFF 		bl	CyDelayUs
1144:Generated_Source\PSoC4/CyLib.c **** 
1145:Generated_Source\PSoC4/CyLib.c ****                 if(0u != CySysClkEcoReadStatus())
 1414              		.loc 1 1145 0
 1415 003e FFF7FEFF 		bl	CySysClkEcoReadStatus
 1416 0042 031E     		subs	r3, r0, #0
 1417 0044 02D0     		beq	.L87
1146:Generated_Source\PSoC4/CyLib.c ****                 {
1147:Generated_Source\PSoC4/CyLib.c ****                     returnStatus = CYRET_SUCCESS;
 1418              		.loc 1 1147 0
 1419 0046 0023     		movs	r3, #0
 1420 0048 FB60     		str	r3, [r7, #12]
1148:Generated_Source\PSoC4/CyLib.c ****                     break;
 1421              		.loc 1 1148 0
 1422 004a 05E0     		b	.L85
 1423              	.L87:
1141:Generated_Source\PSoC4/CyLib.c ****             {
 1424              		.loc 1 1141 0
 1425 004c 7B68     		ldr	r3, [r7, #4]
 1426 004e 013B     		subs	r3, r3, #1
 1427 0050 7B60     		str	r3, [r7, #4]
 1428              	.L86:
1141:Generated_Source\PSoC4/CyLib.c ****             {
 1429              		.loc 1 1141 0 is_stmt 0 discriminator 1
 1430 0052 7B68     		ldr	r3, [r7, #4]
 1431 0054 002B     		cmp	r3, #0
 1432 0056 EFD1     		bne	.L88
 1433              	.L85:
1149:Generated_Source\PSoC4/CyLib.c ****                 }
1150:Generated_Source\PSoC4/CyLib.c ****             }
1151:Generated_Source\PSoC4/CyLib.c **** 
1152:Generated_Source\PSoC4/CyLib.c ****         }
1153:Generated_Source\PSoC4/CyLib.c **** 
1154:Generated_Source\PSoC4/CyLib.c ****         return(returnStatus);
 1434              		.loc 1 1154 0 is_stmt 1
 1435 0058 FB68     		ldr	r3, [r7, #12]
1155:Generated_Source\PSoC4/CyLib.c ****     }
 1436              		.loc 1 1155 0
 1437 005a 1800     		movs	r0, r3
 1438 005c BD46     		mov	sp, r7
 1439 005e 04B0     		add	sp, sp, #16
 1440              		@ sp needed
 1441 0060 80BD     		pop	{r7, pc}
 1442              	.L91:
 1443 0062 C046     		.align	2
 1444              	.L90:
 1445 0064 08000C40 		.word	1074528264
 1446              		.cfi_endproc
 1447              	.LFE14:
 1448              		.size	CySysClkEcoStart, .-CySysClkEcoStart
 1449              		.section	.text.CySysClkEcoStop,"ax",%progbits
 1450              		.align	2
ARM GAS  C:\Users\HPz420\AppData\Local\Temp\ccAdodLg.s 			page 47


 1451              		.global	CySysClkEcoStop
 1452              		.code	16
 1453              		.thumb_func
 1454              		.type	CySysClkEcoStop, %function
 1455              	CySysClkEcoStop:
 1456              	.LFB15:
1156:Generated_Source\PSoC4/CyLib.c **** 
1157:Generated_Source\PSoC4/CyLib.c **** 
1158:Generated_Source\PSoC4/CyLib.c ****     /*******************************************************************************
1159:Generated_Source\PSoC4/CyLib.c ****     * Function Name: CySysClkEcoStop
1160:Generated_Source\PSoC4/CyLib.c ****     ****************************************************************************//**
1161:Generated_Source\PSoC4/CyLib.c ****     *
1162:Generated_Source\PSoC4/CyLib.c ****     * Stops the megahertz crystal.
1163:Generated_Source\PSoC4/CyLib.c ****     *
1164:Generated_Source\PSoC4/CyLib.c ****     * If ECO is disabled when it is sourcing HFCLK, the CPU will halt. In addition,
1165:Generated_Source\PSoC4/CyLib.c ****     * for PSoC 4100 BLE / PSoC 4200 BLE devices, the BLE sub-system will stop
1166:Generated_Source\PSoC4/CyLib.c ****     * functioning.
1167:Generated_Source\PSoC4/CyLib.c ****     *
1168:Generated_Source\PSoC4/CyLib.c ****     *******************************************************************************/
1169:Generated_Source\PSoC4/CyLib.c ****     void CySysClkEcoStop(void)
1170:Generated_Source\PSoC4/CyLib.c ****     {
 1457              		.loc 1 1170 0
 1458              		.cfi_startproc
 1459              		@ args = 0, pretend = 0, frame = 0
 1460              		@ frame_needed = 1, uses_anonymous_args = 0
 1461 0000 80B5     		push	{r7, lr}
 1462              		.cfi_def_cfa_offset 8
 1463              		.cfi_offset 7, -8
 1464              		.cfi_offset 14, -4
 1465 0002 00AF     		add	r7, sp, #0
 1466              		.cfi_def_cfa_register 7
1171:Generated_Source\PSoC4/CyLib.c ****         #if (CY_IP_WCO_BLESS)
1172:Generated_Source\PSoC4/CyLib.c ****             /* Disable the RF oscillator band gap */
1173:Generated_Source\PSoC4/CyLib.c ****             CY_SYS_XTAL_BLESS_RF_CONFIG_REG &= (uint32) ~CY_SYS_XTAL_BLESS_RF_CONFIG_RF_ENABLE;
1174:Generated_Source\PSoC4/CyLib.c **** 
1175:Generated_Source\PSoC4/CyLib.c ****             /* Disable the Crystal */
1176:Generated_Source\PSoC4/CyLib.c ****             CY_SYS_XTAL_BLERD_DBUS_REG &= (uint32) ~CY_SYS_XTAL_BLERD_DBUS_XTAL_ENABLE;
1177:Generated_Source\PSoC4/CyLib.c ****         #elif (CY_IP_ECO_BLESSV3)
1178:Generated_Source\PSoC4/CyLib.c ****             CY_SYS_BLESS_MT_CFG_REG &= ~(CY_SYS_BLESS_MT_CFG_DPSLP_ECO_ON  <<  CYFLD_BLE_BLESS_DPSL
1179:Generated_Source\PSoC4/CyLib.c ****         #else
1180:Generated_Source\PSoC4/CyLib.c ****             CY_SYS_CLK_ECO_CONFIG_REG &= (uint32) ~(CY_SYS_CLK_ECO_CONFIG_ENABLE | CY_SYS_CLK_ECO_C
 1467              		.loc 1 1180 0
 1468 0004 044B     		ldr	r3, .L93
 1469 0006 044A     		ldr	r2, .L93
 1470 0008 1268     		ldr	r2, [r2]
 1471 000a 0449     		ldr	r1, .L93+4
 1472 000c 0A40     		ands	r2, r1
 1473 000e 1A60     		str	r2, [r3]
1181:Generated_Source\PSoC4/CyLib.c ****         #endif /* (CY_IP_WCO_BLESS) */
1182:Generated_Source\PSoC4/CyLib.c ****     }
 1474              		.loc 1 1182 0
 1475 0010 C046     		nop
 1476 0012 BD46     		mov	sp, r7
 1477              		@ sp needed
 1478 0014 80BD     		pop	{r7, pc}
 1479              	.L94:
 1480 0016 C046     		.align	2
ARM GAS  C:\Users\HPz420\AppData\Local\Temp\ccAdodLg.s 			page 48


 1481              	.L93:
 1482 0018 08000C40 		.word	1074528264
 1483 001c FEFFFF7F 		.word	2147483646
 1484              		.cfi_endproc
 1485              	.LFE15:
 1486              		.size	CySysClkEcoStop, .-CySysClkEcoStop
 1487              		.section	.text.CySysClkEcoReadStatus,"ax",%progbits
 1488              		.align	2
 1489              		.global	CySysClkEcoReadStatus
 1490              		.code	16
 1491              		.thumb_func
 1492              		.type	CySysClkEcoReadStatus, %function
 1493              	CySysClkEcoReadStatus:
 1494              	.LFB16:
1183:Generated_Source\PSoC4/CyLib.c **** 
1184:Generated_Source\PSoC4/CyLib.c **** 
1185:Generated_Source\PSoC4/CyLib.c ****     /*******************************************************************************
1186:Generated_Source\PSoC4/CyLib.c ****     * Function Name: CySysClkEcoReadStatus
1187:Generated_Source\PSoC4/CyLib.c ****     ****************************************************************************//**
1188:Generated_Source\PSoC4/CyLib.c ****     *
1189:Generated_Source\PSoC4/CyLib.c ****     * Reads the status bit for the megahertz crystal.
1190:Generated_Source\PSoC4/CyLib.c ****     *
1191:Generated_Source\PSoC4/CyLib.c ****     * For PSoC 4100 BLE / PSoC 4200 BLE devices, the status bit is the
1192:Generated_Source\PSoC4/CyLib.c ****     * XO_AMP_DETECT bit in FSM register.
1193:Generated_Source\PSoC4/CyLib.c ****     *
1194:Generated_Source\PSoC4/CyLib.c ****     * For PSoC 4200L devices, the error status bit is the WATCHDOG_ERROR bit in
1195:Generated_Source\PSoC4/CyLib.c ****     * ECO_STATUS register.
1196:Generated_Source\PSoC4/CyLib.c ****     *
1197:Generated_Source\PSoC4/CyLib.c ****     * \return PSoC 4100 BLE/PSoC 4200 BLE: Non-zero indicates that ECO output
1198:Generated_Source\PSoC4/CyLib.c ****     * reached 50 ppm and is oscillating in valid range.
1199:Generated_Source\PSoC4/CyLib.c ****     *
1200:Generated_Source\PSoC4/CyLib.c ****     * \return PSoC 4200L: Non-zero indicates that ECO is running.
1201:Generated_Source\PSoC4/CyLib.c ****     *
1202:Generated_Source\PSoC4/CyLib.c ****     *******************************************************************************/
1203:Generated_Source\PSoC4/CyLib.c ****     uint32 CySysClkEcoReadStatus(void)
1204:Generated_Source\PSoC4/CyLib.c ****     {
 1495              		.loc 1 1204 0
 1496              		.cfi_startproc
 1497              		@ args = 0, pretend = 0, frame = 8
 1498              		@ frame_needed = 1, uses_anonymous_args = 0
 1499 0000 80B5     		push	{r7, lr}
 1500              		.cfi_def_cfa_offset 8
 1501              		.cfi_offset 7, -8
 1502              		.cfi_offset 14, -4
 1503 0002 82B0     		sub	sp, sp, #8
 1504              		.cfi_def_cfa_offset 16
 1505 0004 00AF     		add	r7, sp, #0
 1506              		.cfi_def_cfa_register 7
1205:Generated_Source\PSoC4/CyLib.c ****         uint32 returnValue;
1206:Generated_Source\PSoC4/CyLib.c **** 
1207:Generated_Source\PSoC4/CyLib.c ****         #if (CY_IP_WCO_BLESS)
1208:Generated_Source\PSoC4/CyLib.c ****             returnValue = CY_SYS_XTAL_BLERD_FSM_REG & CY_SYS_XTAL_BLERD_FSM_XO_AMP_DETECT;
1209:Generated_Source\PSoC4/CyLib.c ****         #elif (CY_IP_ECO_BLESSV3)
1210:Generated_Source\PSoC4/CyLib.c ****             returnValue = (CY_SYS_BLESS_MT_STATUS_REG & CY_SYS_BLESS_MT_STATUS_CURR_STATE_MASK) >> 
1211:Generated_Source\PSoC4/CyLib.c **** 
1212:Generated_Source\PSoC4/CyLib.c ****             returnValue =  ((CY_SYS_BLESS_MT_STATUS_BLERD_IDLE == returnValue) || 
1213:Generated_Source\PSoC4/CyLib.c ****                             (CY_SYS_BLESS_MT_STATUS_SWITCH_EN  == returnValue) ||
ARM GAS  C:\Users\HPz420\AppData\Local\Temp\ccAdodLg.s 			page 49


1214:Generated_Source\PSoC4/CyLib.c ****                             (CY_SYS_BLESS_MT_STATUS_ACTIVE  ==  returnValue) ||
1215:Generated_Source\PSoC4/CyLib.c ****                             (CY_SYS_BLESS_MT_STATUS_ISOLATE == returnValue));
1216:Generated_Source\PSoC4/CyLib.c ****         #else
1217:Generated_Source\PSoC4/CyLib.c ****             returnValue = (0u != (CY_SYS_CLK_ECO_STATUS_REG & CY_SYS_CLK_ECO_STATUS_WATCHDOG_ERROR)
 1507              		.loc 1 1217 0
 1508 0006 064B     		ldr	r3, .L97
 1509 0008 1B68     		ldr	r3, [r3]
 1510 000a 0122     		movs	r2, #1
 1511 000c 1340     		ands	r3, r2
 1512 000e 5A42     		rsbs	r2, r3, #0
 1513 0010 5341     		adcs	r3, r3, r2
 1514 0012 DBB2     		uxtb	r3, r3
 1515 0014 7B60     		str	r3, [r7, #4]
1218:Generated_Source\PSoC4/CyLib.c ****         #endif /* (CY_IP_WCO_BLESS) */
1219:Generated_Source\PSoC4/CyLib.c **** 
1220:Generated_Source\PSoC4/CyLib.c ****         return (returnValue);
 1516              		.loc 1 1220 0
 1517 0016 7B68     		ldr	r3, [r7, #4]
1221:Generated_Source\PSoC4/CyLib.c ****     }
 1518              		.loc 1 1221 0
 1519 0018 1800     		movs	r0, r3
 1520 001a BD46     		mov	sp, r7
 1521 001c 02B0     		add	sp, sp, #8
 1522              		@ sp needed
 1523 001e 80BD     		pop	{r7, pc}
 1524              	.L98:
 1525              		.align	2
 1526              	.L97:
 1527 0020 0C000C40 		.word	1074528268
 1528              		.cfi_endproc
 1529              	.LFE16:
 1530              		.size	CySysClkEcoReadStatus, .-CySysClkEcoReadStatus
 1531              		.section	.text.CySysClkConfigureEcoTrim,"ax",%progbits
 1532              		.align	2
 1533              		.global	CySysClkConfigureEcoTrim
 1534              		.code	16
 1535              		.thumb_func
 1536              		.type	CySysClkConfigureEcoTrim, %function
 1537              	CySysClkConfigureEcoTrim:
 1538              	.LFB17:
1222:Generated_Source\PSoC4/CyLib.c **** 
1223:Generated_Source\PSoC4/CyLib.c ****     #if (CY_IP_ECO_BLESS || CY_IP_ECO_BLESSV3)
1224:Generated_Source\PSoC4/CyLib.c ****         /*******************************************************************************
1225:Generated_Source\PSoC4/CyLib.c ****         * Function Name: CySysClkWriteEcoDiv
1226:Generated_Source\PSoC4/CyLib.c ****         ****************************************************************************//**
1227:Generated_Source\PSoC4/CyLib.c ****         *
1228:Generated_Source\PSoC4/CyLib.c ****         * Selects value for the ECO divider.
1229:Generated_Source\PSoC4/CyLib.c ****         *
1230:Generated_Source\PSoC4/CyLib.c ****         * The ECO must not be the HFCLK clock source when this function is called.
1231:Generated_Source\PSoC4/CyLib.c ****         * The HFCLK source can be changed to the other clock source by call to the
1232:Generated_Source\PSoC4/CyLib.c ****         * CySysClkWriteHfclkDirect() function. If the ECO sources the HFCLK this
1233:Generated_Source\PSoC4/CyLib.c ****         * function will not have any effect if compiler in release mode, and halt the
1234:Generated_Source\PSoC4/CyLib.c ****         * CPU when compiler in debug mode.
1235:Generated_Source\PSoC4/CyLib.c ****         *
1236:Generated_Source\PSoC4/CyLib.c ****         * If the SYSCLK clock frequency increases during the device operation, call
1237:Generated_Source\PSoC4/CyLib.c ****         * CySysFlashSetWaitCycles() with the appropriate parameter to adjust the number
1238:Generated_Source\PSoC4/CyLib.c ****         * of clock cycles the cache will wait before sampling data comes back from
ARM GAS  C:\Users\HPz420\AppData\Local\Temp\ccAdodLg.s 			page 50


1239:Generated_Source\PSoC4/CyLib.c ****         * Flash. If the SYSCLK clock frequency decreases, you can call
1240:Generated_Source\PSoC4/CyLib.c ****         * CySysFlashSetWaitCycles() to improve the CPU performance. See
1241:Generated_Source\PSoC4/CyLib.c ****         * CySysFlashSetWaitCycles() description for more information.
1242:Generated_Source\PSoC4/CyLib.c ****         *
1243:Generated_Source\PSoC4/CyLib.c ****         * \param divider Power of 2 divider selection.
1244:Generated_Source\PSoC4/CyLib.c ****         * - \ref CY_SYS_CLK_ECO_DIV1
1245:Generated_Source\PSoC4/CyLib.c ****         * - \ref CY_SYS_CLK_ECO_DIV2
1246:Generated_Source\PSoC4/CyLib.c ****         * - \ref CY_SYS_CLK_ECO_DIV4
1247:Generated_Source\PSoC4/CyLib.c ****         * - \ref CY_SYS_CLK_ECO_DIV8
1248:Generated_Source\PSoC4/CyLib.c ****         *
1249:Generated_Source\PSoC4/CyLib.c ****         *******************************************************************************/
1250:Generated_Source\PSoC4/CyLib.c ****         void CySysClkWriteEcoDiv(uint32 divider)
1251:Generated_Source\PSoC4/CyLib.c ****         {
1252:Generated_Source\PSoC4/CyLib.c ****             uint8  interruptState;
1253:Generated_Source\PSoC4/CyLib.c **** 
1254:Generated_Source\PSoC4/CyLib.c ****             if (CY_SYS_CLK_HFCLK_ECO != (CY_SYS_CLK_SELECT_REG & CY_SYS_CLK_SELECT_DIRECT_SEL_MASK)
1255:Generated_Source\PSoC4/CyLib.c ****             {
1256:Generated_Source\PSoC4/CyLib.c ****                 interruptState = CyEnterCriticalSection();
1257:Generated_Source\PSoC4/CyLib.c **** 
1258:Generated_Source\PSoC4/CyLib.c ****                 CY_SYS_CLK_XTAL_CLK_DIV_CONFIG_REG =  (divider & CY_SYS_CLK_XTAL_CLK_DIV_MASK) |
1259:Generated_Source\PSoC4/CyLib.c ****                                                       (CY_SYS_CLK_XTAL_CLK_DIV_CONFIG_REG & ((uint3
1260:Generated_Source\PSoC4/CyLib.c **** 
1261:Generated_Source\PSoC4/CyLib.c ****                 CyExitCriticalSection(interruptState);
1262:Generated_Source\PSoC4/CyLib.c ****             }
1263:Generated_Source\PSoC4/CyLib.c ****             else
1264:Generated_Source\PSoC4/CyLib.c ****             {
1265:Generated_Source\PSoC4/CyLib.c ****                 /* Halt CPU in debug mode if ECO sources HFCLK */
1266:Generated_Source\PSoC4/CyLib.c ****                 CYASSERT(0u != 0u);
1267:Generated_Source\PSoC4/CyLib.c ****             }
1268:Generated_Source\PSoC4/CyLib.c ****         }
1269:Generated_Source\PSoC4/CyLib.c **** 
1270:Generated_Source\PSoC4/CyLib.c ****     #else
1271:Generated_Source\PSoC4/CyLib.c **** 
1272:Generated_Source\PSoC4/CyLib.c ****         /*******************************************************************************
1273:Generated_Source\PSoC4/CyLib.c ****         * Function Name: CySysClkConfigureEcoTrim
1274:Generated_Source\PSoC4/CyLib.c ****         ****************************************************************************//**
1275:Generated_Source\PSoC4/CyLib.c ****         *
1276:Generated_Source\PSoC4/CyLib.c ****         * Selects trim setting values for ECO. This API is available only for PSoC
1277:Generated_Source\PSoC4/CyLib.c ****         * 4200L devices only.
1278:Generated_Source\PSoC4/CyLib.c ****         *
1279:Generated_Source\PSoC4/CyLib.c ****         * The following parameters can be trimmed for ECO. The affected registers are
1280:Generated_Source\PSoC4/CyLib.c ****         * ECO_TRIM0 and ECO_TRIM1.
1281:Generated_Source\PSoC4/CyLib.c ****         *
1282:Generated_Source\PSoC4/CyLib.c ****         * Watchdog trim - This bit field sets the error threshold below the steady
1283:Generated_Source\PSoC4/CyLib.c ****         * state amplitude level.
1284:Generated_Source\PSoC4/CyLib.c ****         *
1285:Generated_Source\PSoC4/CyLib.c ****         * Amplitude trim - This bit field is to set the crystal drive level when
1286:Generated_Source\PSoC4/CyLib.c ****         * ECO_CONFIG.AGC_EN = 1. WARNING: use care when setting this field because
1287:Generated_Source\PSoC4/CyLib.c ****         * driving a crystal beyond its rated limit can permanently damage the crystal.
1288:Generated_Source\PSoC4/CyLib.c ****         *
1289:Generated_Source\PSoC4/CyLib.c ****         * Filter frequency trim - This bit field sets LPF frequency trim and affects
1290:Generated_Source\PSoC4/CyLib.c ****         * the 3rd harmonic content.
1291:Generated_Source\PSoC4/CyLib.c ****         *
1292:Generated_Source\PSoC4/CyLib.c ****         * Feedback resistor trim - This bit field sets the feedback resistor trim and
1293:Generated_Source\PSoC4/CyLib.c ****         * impacts the oscillation amplitude.
1294:Generated_Source\PSoC4/CyLib.c ****         *
1295:Generated_Source\PSoC4/CyLib.c ****         * Amplifier gain trim - This bit field sets the amplifier gain trim and affects
ARM GAS  C:\Users\HPz420\AppData\Local\Temp\ccAdodLg.s 			page 51


1296:Generated_Source\PSoC4/CyLib.c ****         * the startup time of the crystal.
1297:Generated_Source\PSoC4/CyLib.c ****         *
1298:Generated_Source\PSoC4/CyLib.c ****         * Use care when setting the amplitude trim field because driving a crystal
1299:Generated_Source\PSoC4/CyLib.c ****         * beyond its rated limit can permanently damage the crystal.
1300:Generated_Source\PSoC4/CyLib.c ****         *
1301:Generated_Source\PSoC4/CyLib.c ****         * \param wDTrim: Watchdog trim
1302:Generated_Source\PSoC4/CyLib.c ****         * - \ref CY_SYS_CLK_ECO_WDTRIM0      Error threshold is 0.05 V
1303:Generated_Source\PSoC4/CyLib.c ****         * - \ref CY_SYS_CLK_ECO_WDTRIM1      Error threshold is 0.10 V
1304:Generated_Source\PSoC4/CyLib.c ****         * - \ref CY_SYS_CLK_ECO_WDTRIM2      Error threshold is 0.15 V
1305:Generated_Source\PSoC4/CyLib.c ****         * - \ref CY_SYS_CLK_ECO_WDTRIM3      Error threshold is 0.20 V
1306:Generated_Source\PSoC4/CyLib.c ****         *
1307:Generated_Source\PSoC4/CyLib.c ****         * \param aTrim: Amplitude trim
1308:Generated_Source\PSoC4/CyLib.c ****         * - \ref CY_SYS_CLK_ECO_ATRIM0       Amplitude is 0.3 Vpp
1309:Generated_Source\PSoC4/CyLib.c ****         * - \ref CY_SYS_CLK_ECO_ATRIM1       Amplitude is 0.4 Vpp
1310:Generated_Source\PSoC4/CyLib.c ****         * - \ref CY_SYS_CLK_ECO_ATRIM2       Amplitude is 0.5 Vpp
1311:Generated_Source\PSoC4/CyLib.c ****         * - \ref CY_SYS_CLK_ECO_ATRIM3       Amplitude is 0.6 Vpp
1312:Generated_Source\PSoC4/CyLib.c ****         * - \ref CY_SYS_CLK_ECO_ATRIM4       Amplitude is 0.7 Vpp
1313:Generated_Source\PSoC4/CyLib.c ****         * - \ref CY_SYS_CLK_ECO_ATRIM5       Amplitude is 0.8 Vpp
1314:Generated_Source\PSoC4/CyLib.c ****         * - \ref CY_SYS_CLK_ECO_ATRIM6       Amplitude is 0.9 Vpp
1315:Generated_Source\PSoC4/CyLib.c ****         * - \ref CY_SYS_CLK_ECO_ATRIM7       Amplitude is 1.0 Vpp
1316:Generated_Source\PSoC4/CyLib.c ****         *
1317:Generated_Source\PSoC4/CyLib.c ****         * \param fTrim: Filter frequency trim
1318:Generated_Source\PSoC4/CyLib.c ****         * - \ref CY_SYS_CLK_ECO_FTRIM0       Crystal frequency > 30 MHz
1319:Generated_Source\PSoC4/CyLib.c ****         * - \ref CY_SYS_CLK_ECO_FTRIM1       24 MHz < Crystal frequency <= 30 MHz
1320:Generated_Source\PSoC4/CyLib.c ****         * - \ref CY_SYS_CLK_ECO_FTRIM2       17 MHz < Crystal frequency <= 24 MHz
1321:Generated_Source\PSoC4/CyLib.c ****         * - \ref CY_SYS_CLK_ECO_FTRIM3       Crystal frequency <= 17 MHz
1322:Generated_Source\PSoC4/CyLib.c ****         *
1323:Generated_Source\PSoC4/CyLib.c ****         * \param rTrim: Feedback resistor trim
1324:Generated_Source\PSoC4/CyLib.c ****         * - \ref CY_SYS_CLK_ECO_RTRIM0       Crystal frequency > 30 MHz
1325:Generated_Source\PSoC4/CyLib.c ****         * - \ref CY_SYS_CLK_ECO_RTRIM1       24 MHz < Crystal frequency <= 30 MHz
1326:Generated_Source\PSoC4/CyLib.c ****         * - \ref CY_SYS_CLK_ECO_RTRIM2       17 MHz < Crystal frequency <= 24 MHz
1327:Generated_Source\PSoC4/CyLib.c ****         * - \ref CY_SYS_CLK_ECO_RTRIM3       Crystal frequency <= 17 MHz
1328:Generated_Source\PSoC4/CyLib.c ****         *
1329:Generated_Source\PSoC4/CyLib.c ****         * \param gTrim: Amplifier gain trim. Calculate the minimum required gm
1330:Generated_Source\PSoC4/CyLib.c ****         * (trans-conductance value). Divide the calculated gm value by 4.5 to
1331:Generated_Source\PSoC4/CyLib.c ****         * obtain an integer value 'result'. For more information please refer
1332:Generated_Source\PSoC4/CyLib.c ****         * to the device TRM.
1333:Generated_Source\PSoC4/CyLib.c ****         * - \ref CY_SYS_CLK_ECO_GTRIM0       If result = 1
1334:Generated_Source\PSoC4/CyLib.c ****         * - \ref CY_SYS_CLK_ECO_GTRIM1       If result = 0
1335:Generated_Source\PSoC4/CyLib.c ****         * - \ref CY_SYS_CLK_ECO_GTRIM2       If result = 2
1336:Generated_Source\PSoC4/CyLib.c ****         * - \ref CY_SYS_CLK_ECO_GTRIM2       If result = 3
1337:Generated_Source\PSoC4/CyLib.c ****         *
1338:Generated_Source\PSoC4/CyLib.c ****         *******************************************************************************/
1339:Generated_Source\PSoC4/CyLib.c ****         void CySysClkConfigureEcoTrim(uint32 wDTrim, uint32 aTrim, uint32 fTrim, uint32 rTrim, uint
1340:Generated_Source\PSoC4/CyLib.c ****         {
 1539              		.loc 1 1340 0
 1540              		.cfi_startproc
 1541              		@ args = 4, pretend = 0, frame = 24
 1542              		@ frame_needed = 1, uses_anonymous_args = 0
 1543 0000 90B5     		push	{r4, r7, lr}
 1544              		.cfi_def_cfa_offset 12
 1545              		.cfi_offset 4, -12
 1546              		.cfi_offset 7, -8
 1547              		.cfi_offset 14, -4
 1548 0002 87B0     		sub	sp, sp, #28
 1549              		.cfi_def_cfa_offset 40
 1550 0004 00AF     		add	r7, sp, #0
ARM GAS  C:\Users\HPz420\AppData\Local\Temp\ccAdodLg.s 			page 52


 1551              		.cfi_def_cfa_register 7
 1552 0006 F860     		str	r0, [r7, #12]
 1553 0008 B960     		str	r1, [r7, #8]
 1554 000a 7A60     		str	r2, [r7, #4]
 1555 000c 3B60     		str	r3, [r7]
1341:Generated_Source\PSoC4/CyLib.c ****             uint8  interruptState;
1342:Generated_Source\PSoC4/CyLib.c ****             uint32 regTmp;
1343:Generated_Source\PSoC4/CyLib.c **** 
1344:Generated_Source\PSoC4/CyLib.c ****             interruptState = CyEnterCriticalSection();
 1556              		.loc 1 1344 0
 1557 000e 1723     		movs	r3, #23
 1558 0010 FC18     		adds	r4, r7, r3
 1559 0012 FFF7FEFF 		bl	CyEnterCriticalSection
 1560 0016 0300     		movs	r3, r0
 1561 0018 2370     		strb	r3, [r4]
1345:Generated_Source\PSoC4/CyLib.c **** 
1346:Generated_Source\PSoC4/CyLib.c ****             regTmp  = CY_SYS_CLK_ECO_TRIM0_REG & ~(CY_SYS_CLK_ECO_TRIM0_WDTRIM_MASK | CY_SYS_CLK_EC
 1562              		.loc 1 1346 0
 1563 001a 1D4B     		ldr	r3, .L100
 1564 001c 1B68     		ldr	r3, [r3]
 1565 001e 1F22     		movs	r2, #31
 1566 0020 9343     		bics	r3, r2
 1567 0022 3B61     		str	r3, [r7, #16]
1347:Generated_Source\PSoC4/CyLib.c ****             regTmp |= ((uint32) (wDTrim << CY_SYS_CLK_ECO_TRIM0_WDTRIM_SHIFT) & CY_SYS_CLK_ECO_TRIM
 1568              		.loc 1 1347 0
 1569 0024 FB68     		ldr	r3, [r7, #12]
 1570 0026 0322     		movs	r2, #3
 1571 0028 1340     		ands	r3, r2
 1572 002a 3A69     		ldr	r2, [r7, #16]
 1573 002c 1343     		orrs	r3, r2
 1574 002e 3B61     		str	r3, [r7, #16]
1348:Generated_Source\PSoC4/CyLib.c ****             regTmp |= ((uint32) (aTrim << CY_SYS_CLK_ECO_TRIM0_ATRIM_SHIFT) & CY_SYS_CLK_ECO_TRIM0_
 1575              		.loc 1 1348 0
 1576 0030 BB68     		ldr	r3, [r7, #8]
 1577 0032 9B00     		lsls	r3, r3, #2
 1578 0034 1C22     		movs	r2, #28
 1579 0036 1340     		ands	r3, r2
 1580 0038 3A69     		ldr	r2, [r7, #16]
 1581 003a 1343     		orrs	r3, r2
 1582 003c 3B61     		str	r3, [r7, #16]
1349:Generated_Source\PSoC4/CyLib.c ****             CY_SYS_CLK_ECO_TRIM0_REG = regTmp;
 1583              		.loc 1 1349 0
 1584 003e 144B     		ldr	r3, .L100
 1585 0040 3A69     		ldr	r2, [r7, #16]
 1586 0042 1A60     		str	r2, [r3]
1350:Generated_Source\PSoC4/CyLib.c **** 
1351:Generated_Source\PSoC4/CyLib.c ****             regTmp  = CY_SYS_CLK_ECO_TRIM1_REG & ~(CY_SYS_CLK_ECO_TRIM1_FTRIM_MASK |
 1587              		.loc 1 1351 0
 1588 0044 134B     		ldr	r3, .L100+4
 1589 0046 1B68     		ldr	r3, [r3]
 1590 0048 3F22     		movs	r2, #63
 1591 004a 9343     		bics	r3, r2
 1592 004c 3B61     		str	r3, [r7, #16]
1352:Generated_Source\PSoC4/CyLib.c ****                                                    CY_SYS_CLK_ECO_TRIM1_RTRIM_MASK |
1353:Generated_Source\PSoC4/CyLib.c ****                                                    CY_SYS_CLK_ECO_TRIM1_GTRIM_MASK);
1354:Generated_Source\PSoC4/CyLib.c ****             regTmp |= ((uint32) (fTrim << CY_SYS_CLK_ECO_TRIM1_FTRIM_SHIFT) & CY_SYS_CLK_ECO_TRIM1_
 1593              		.loc 1 1354 0
ARM GAS  C:\Users\HPz420\AppData\Local\Temp\ccAdodLg.s 			page 53


 1594 004e 7B68     		ldr	r3, [r7, #4]
 1595 0050 0322     		movs	r2, #3
 1596 0052 1340     		ands	r3, r2
 1597 0054 3A69     		ldr	r2, [r7, #16]
 1598 0056 1343     		orrs	r3, r2
 1599 0058 3B61     		str	r3, [r7, #16]
1355:Generated_Source\PSoC4/CyLib.c ****             regTmp |= ((uint32) (rTrim << CY_SYS_CLK_ECO_TRIM1_RTRIM_SHIFT) & CY_SYS_CLK_ECO_TRIM1_
 1600              		.loc 1 1355 0
 1601 005a 3B68     		ldr	r3, [r7]
 1602 005c 9B00     		lsls	r3, r3, #2
 1603 005e 0C22     		movs	r2, #12
 1604 0060 1340     		ands	r3, r2
 1605 0062 3A69     		ldr	r2, [r7, #16]
 1606 0064 1343     		orrs	r3, r2
 1607 0066 3B61     		str	r3, [r7, #16]
1356:Generated_Source\PSoC4/CyLib.c ****             regTmp |= ((uint32) (gTrim << CY_SYS_CLK_ECO_TRIM1_GTRIM_SHIFT) & CY_SYS_CLK_ECO_TRIM1_
 1608              		.loc 1 1356 0
 1609 0068 BB6A     		ldr	r3, [r7, #40]
 1610 006a 1B01     		lsls	r3, r3, #4
 1611 006c 3022     		movs	r2, #48
 1612 006e 1340     		ands	r3, r2
 1613 0070 3A69     		ldr	r2, [r7, #16]
 1614 0072 1343     		orrs	r3, r2
 1615 0074 3B61     		str	r3, [r7, #16]
1357:Generated_Source\PSoC4/CyLib.c **** 
1358:Generated_Source\PSoC4/CyLib.c ****             CY_SYS_CLK_ECO_TRIM1_REG = regTmp;
 1616              		.loc 1 1358 0
 1617 0076 074B     		ldr	r3, .L100+4
 1618 0078 3A69     		ldr	r2, [r7, #16]
 1619 007a 1A60     		str	r2, [r3]
1359:Generated_Source\PSoC4/CyLib.c **** 
1360:Generated_Source\PSoC4/CyLib.c ****             CyExitCriticalSection(interruptState);
 1620              		.loc 1 1360 0
 1621 007c 1723     		movs	r3, #23
 1622 007e FB18     		adds	r3, r7, r3
 1623 0080 1B78     		ldrb	r3, [r3]
 1624 0082 1800     		movs	r0, r3
 1625 0084 FFF7FEFF 		bl	CyExitCriticalSection
1361:Generated_Source\PSoC4/CyLib.c ****         }
 1626              		.loc 1 1361 0
 1627 0088 C046     		nop
 1628 008a BD46     		mov	sp, r7
 1629 008c 07B0     		add	sp, sp, #28
 1630              		@ sp needed
 1631 008e 90BD     		pop	{r4, r7, pc}
 1632              	.L101:
 1633              		.align	2
 1634              	.L100:
 1635 0090 0CFF0C40 		.word	1074593548
 1636 0094 10FF0C40 		.word	1074593552
 1637              		.cfi_endproc
 1638              	.LFE17:
 1639              		.size	CySysClkConfigureEcoTrim, .-CySysClkConfigureEcoTrim
 1640              		.global	__aeabi_uidiv
 1641              		.section	.text.CySysClkConfigureEcoDrive,"ax",%progbits
 1642              		.align	2
 1643              		.global	CySysClkConfigureEcoDrive
ARM GAS  C:\Users\HPz420\AppData\Local\Temp\ccAdodLg.s 			page 54


 1644              		.code	16
 1645              		.thumb_func
 1646              		.type	CySysClkConfigureEcoDrive, %function
 1647              	CySysClkConfigureEcoDrive:
 1648              	.LFB18:
1362:Generated_Source\PSoC4/CyLib.c **** 
1363:Generated_Source\PSoC4/CyLib.c **** 
1364:Generated_Source\PSoC4/CyLib.c ****         /*******************************************************************************
1365:Generated_Source\PSoC4/CyLib.c ****         * Function Name: CySysClkConfigureEcoDrive
1366:Generated_Source\PSoC4/CyLib.c ****         ****************************************************************************//**
1367:Generated_Source\PSoC4/CyLib.c ****         *
1368:Generated_Source\PSoC4/CyLib.c ****         * Selects trim setting values for ECO based on crystal parameters. Use care
1369:Generated_Source\PSoC4/CyLib.c ****         * when setting the driveLevel parameter because driving a crystal beyond its
1370:Generated_Source\PSoC4/CyLib.c ****         * rated limit can permanently damage the crystal.
1371:Generated_Source\PSoC4/CyLib.c ****         *
1372:Generated_Source\PSoC4/CyLib.c ****         * This API is available only for PSoC 4200L devices only.
1373:Generated_Source\PSoC4/CyLib.c ****         *
1374:Generated_Source\PSoC4/CyLib.c ****         * \param freq Frequency of the crystal in kHz.
1375:Generated_Source\PSoC4/CyLib.c ****         * \param cLoad Crystal load capacitance in pF.
1376:Generated_Source\PSoC4/CyLib.c ****         * \param esr Equivalent series resistance of the crystal in ohm.
1377:Generated_Source\PSoC4/CyLib.c ****         *  maxAmplitude: maximum amplitude level in mV. Calculate as
1378:Generated_Source\PSoC4/CyLib.c ****         *  ((sqrt(driveLevel in uW / 2 / esr))/(3.14 * freq * cLoad)) * 10^9.
1379:Generated_Source\PSoC4/CyLib.c ****         *
1380:Generated_Source\PSoC4/CyLib.c ****         *  The Automatic Gain Control (AGC) is disabled when the specified maximum
1381:Generated_Source\PSoC4/CyLib.c ****         *  amplitude level equals or above 2. In this case the amplitude is not
1382:Generated_Source\PSoC4/CyLib.c ****         *  explicitly controlled and will grow until it saturates to the supply rail
1383:Generated_Source\PSoC4/CyLib.c ****         *  (1.8V nom). WARNING: use care when disabling AGC because driving a crystal
1384:Generated_Source\PSoC4/CyLib.c ****         *  beyond its rated limit can permanently damage the crystal.
1385:Generated_Source\PSoC4/CyLib.c ****         *
1386:Generated_Source\PSoC4/CyLib.c ****         * \return \ref CYRET_SUCCESS ECO configuration completed successfully.
1387:Generated_Source\PSoC4/CyLib.c ****         * \return \ref CYRET_BAD_PARAM One or more invalid parameters.
1388:Generated_Source\PSoC4/CyLib.c ****         *
1389:Generated_Source\PSoC4/CyLib.c ****         *******************************************************************************/
1390:Generated_Source\PSoC4/CyLib.c ****         cystatus CySysClkConfigureEcoDrive(uint32 freq, uint32 cLoad, uint32 esr, uint32 maxAmplitu
1391:Generated_Source\PSoC4/CyLib.c ****         {
 1649              		.loc 1 1391 0
 1650              		.cfi_startproc
 1651              		@ args = 0, pretend = 0, frame = 48
 1652              		@ frame_needed = 1, uses_anonymous_args = 0
 1653 0000 90B5     		push	{r4, r7, lr}
 1654              		.cfi_def_cfa_offset 12
 1655              		.cfi_offset 4, -12
 1656              		.cfi_offset 7, -8
 1657              		.cfi_offset 14, -4
 1658 0002 8FB0     		sub	sp, sp, #60
 1659              		.cfi_def_cfa_offset 72
 1660 0004 02AF     		add	r7, sp, #8
 1661              		.cfi_def_cfa 7, 64
 1662 0006 F860     		str	r0, [r7, #12]
 1663 0008 B960     		str	r1, [r7, #8]
 1664 000a 7A60     		str	r2, [r7, #4]
 1665 000c 3B60     		str	r3, [r7]
1392:Generated_Source\PSoC4/CyLib.c ****             cystatus returnStatus = CYRET_SUCCESS;
 1666              		.loc 1 1392 0
 1667 000e 0023     		movs	r3, #0
 1668 0010 FB62     		str	r3, [r7, #44]
1393:Generated_Source\PSoC4/CyLib.c **** 
ARM GAS  C:\Users\HPz420\AppData\Local\Temp\ccAdodLg.s 			page 55


1394:Generated_Source\PSoC4/CyLib.c ****             uint32 wDTrim;
1395:Generated_Source\PSoC4/CyLib.c ****             uint32 aTrim;
1396:Generated_Source\PSoC4/CyLib.c ****             uint32 fTrim;
1397:Generated_Source\PSoC4/CyLib.c ****             uint32 rTrim;
1398:Generated_Source\PSoC4/CyLib.c ****             uint32 gTrim;
1399:Generated_Source\PSoC4/CyLib.c **** 
1400:Generated_Source\PSoC4/CyLib.c ****             uint32 gmMin;
1401:Generated_Source\PSoC4/CyLib.c **** 
1402:Generated_Source\PSoC4/CyLib.c **** 
1403:Generated_Source\PSoC4/CyLib.c ****             if ((maxAmplitude < CY_SYS_CLK_ECO_MAX_AMPL_MIN_mV) ||
 1669              		.loc 1 1403 0
 1670 0012 3A68     		ldr	r2, [r7]
 1671 0014 F423     		movs	r3, #244
 1672 0016 FF33     		adds	r3, r3, #255
 1673 0018 9A42     		cmp	r2, r3
 1674 001a 07D9     		bls	.L103
 1675              		.loc 1 1403 0 is_stmt 0 discriminator 1
 1676 001c FB68     		ldr	r3, [r7, #12]
 1677 001e 634A     		ldr	r2, .L127
 1678 0020 9342     		cmp	r3, r2
 1679 0022 03D9     		bls	.L103
1404:Generated_Source\PSoC4/CyLib.c ****                 (freq < CY_SYS_CLK_ECO_FREQ_KHZ_MIN) || (freq > CY_SYS_CLK_ECO_FREQ_KHZ_MAX))
 1680              		.loc 1 1404 0 is_stmt 1
 1681 0024 FB68     		ldr	r3, [r7, #12]
 1682 0026 624A     		ldr	r2, .L127+4
 1683 0028 9342     		cmp	r3, r2
 1684 002a 02D9     		bls	.L104
 1685              	.L103:
1405:Generated_Source\PSoC4/CyLib.c ****             {
1406:Generated_Source\PSoC4/CyLib.c ****                 returnStatus = CYRET_BAD_PARAM;
 1686              		.loc 1 1406 0
 1687 002c 0123     		movs	r3, #1
 1688 002e FB62     		str	r3, [r7, #44]
 1689 0030 B6E0     		b	.L105
 1690              	.L104:
1407:Generated_Source\PSoC4/CyLib.c ****             }
1408:Generated_Source\PSoC4/CyLib.c ****             else
1409:Generated_Source\PSoC4/CyLib.c ****             {
1410:Generated_Source\PSoC4/CyLib.c ****                 /* Calculate amplitude trim */
1411:Generated_Source\PSoC4/CyLib.c ****                 aTrim = (maxAmplitude < CY_SYS_CLK_ECO_TRIM_BOUNDARY) ? ((maxAmplitude/100u) - 4u) 
 1691              		.loc 1 1411 0
 1692 0032 3B68     		ldr	r3, [r7]
 1693 0034 5F4A     		ldr	r2, .L127+8
 1694 0036 9342     		cmp	r3, r2
 1695 0038 07D8     		bhi	.L106
 1696              		.loc 1 1411 0 is_stmt 0 discriminator 1
 1697 003a 3B68     		ldr	r3, [r7]
 1698 003c 6421     		movs	r1, #100
 1699 003e 1800     		movs	r0, r3
 1700 0040 FFF7FEFF 		bl	__aeabi_uidiv
 1701 0044 0300     		movs	r3, r0
 1702 0046 043B     		subs	r3, r3, #4
 1703 0048 00E0     		b	.L107
 1704              	.L106:
 1705              		.loc 1 1411 0 discriminator 2
 1706 004a 0723     		movs	r3, #7
 1707              	.L107:
ARM GAS  C:\Users\HPz420\AppData\Local\Temp\ccAdodLg.s 			page 56


 1708              		.loc 1 1411 0 discriminator 4
 1709 004c BB62     		str	r3, [r7, #40]
1412:Generated_Source\PSoC4/CyLib.c **** 
1413:Generated_Source\PSoC4/CyLib.c ****                 if (maxAmplitude < CY_SYS_CLK_ECO_AMPL_FOR_ATRIM0)
 1710              		.loc 1 1413 0 is_stmt 1 discriminator 4
 1711 004e 3B68     		ldr	r3, [r7]
 1712 0050 594A     		ldr	r2, .L127+12
 1713 0052 9342     		cmp	r3, r2
 1714 0054 02D8     		bhi	.L108
1414:Generated_Source\PSoC4/CyLib.c ****                 {
1415:Generated_Source\PSoC4/CyLib.c ****                     aTrim = CY_SYS_CLK_ECO_ATRIM0;
 1715              		.loc 1 1415 0
 1716 0056 0023     		movs	r3, #0
 1717 0058 BB62     		str	r3, [r7, #40]
 1718 005a 2CE0     		b	.L109
 1719              	.L108:
1416:Generated_Source\PSoC4/CyLib.c ****                 }
1417:Generated_Source\PSoC4/CyLib.c ****                 else if (maxAmplitude < CY_SYS_CLK_ECO_AMPL_FOR_ATRIM1)
 1720              		.loc 1 1417 0
 1721 005c 3B68     		ldr	r3, [r7]
 1722 005e 574A     		ldr	r2, .L127+16
 1723 0060 9342     		cmp	r3, r2
 1724 0062 02D8     		bhi	.L110
1418:Generated_Source\PSoC4/CyLib.c ****                 {
1419:Generated_Source\PSoC4/CyLib.c ****                     aTrim = CY_SYS_CLK_ECO_ATRIM1;
 1725              		.loc 1 1419 0
 1726 0064 0123     		movs	r3, #1
 1727 0066 BB62     		str	r3, [r7, #40]
 1728 0068 25E0     		b	.L109
 1729              	.L110:
1420:Generated_Source\PSoC4/CyLib.c ****                 }
1421:Generated_Source\PSoC4/CyLib.c ****                 else if (maxAmplitude < CY_SYS_CLK_ECO_AMPL_FOR_ATRIM2)
 1730              		.loc 1 1421 0
 1731 006a 3B68     		ldr	r3, [r7]
 1732 006c 544A     		ldr	r2, .L127+20
 1733 006e 9342     		cmp	r3, r2
 1734 0070 02D8     		bhi	.L111
1422:Generated_Source\PSoC4/CyLib.c ****                 {
1423:Generated_Source\PSoC4/CyLib.c ****                     aTrim = CY_SYS_CLK_ECO_ATRIM2;
 1735              		.loc 1 1423 0
 1736 0072 0223     		movs	r3, #2
 1737 0074 BB62     		str	r3, [r7, #40]
 1738 0076 1EE0     		b	.L109
 1739              	.L111:
1424:Generated_Source\PSoC4/CyLib.c ****                 }
1425:Generated_Source\PSoC4/CyLib.c ****                 else if (maxAmplitude < CY_SYS_CLK_ECO_AMPL_FOR_ATRIM3)
 1740              		.loc 1 1425 0
 1741 0078 3B68     		ldr	r3, [r7]
 1742 007a 524A     		ldr	r2, .L127+24
 1743 007c 9342     		cmp	r3, r2
 1744 007e 02D8     		bhi	.L112
1426:Generated_Source\PSoC4/CyLib.c ****                 {
1427:Generated_Source\PSoC4/CyLib.c ****                     aTrim = CY_SYS_CLK_ECO_ATRIM3;
 1745              		.loc 1 1427 0
 1746 0080 0323     		movs	r3, #3
 1747 0082 BB62     		str	r3, [r7, #40]
 1748 0084 17E0     		b	.L109
ARM GAS  C:\Users\HPz420\AppData\Local\Temp\ccAdodLg.s 			page 57


 1749              	.L112:
1428:Generated_Source\PSoC4/CyLib.c ****                 }
1429:Generated_Source\PSoC4/CyLib.c ****                 else if (maxAmplitude < CY_SYS_CLK_ECO_AMPL_FOR_ATRIM4)
 1750              		.loc 1 1429 0
 1751 0086 3A68     		ldr	r2, [r7]
 1752 0088 8023     		movs	r3, #128
 1753 008a DB00     		lsls	r3, r3, #3
 1754 008c 9A42     		cmp	r2, r3
 1755 008e 02D8     		bhi	.L113
1430:Generated_Source\PSoC4/CyLib.c ****                 {
1431:Generated_Source\PSoC4/CyLib.c ****                     aTrim = CY_SYS_CLK_ECO_ATRIM4;
 1756              		.loc 1 1431 0
 1757 0090 0423     		movs	r3, #4
 1758 0092 BB62     		str	r3, [r7, #40]
 1759 0094 0FE0     		b	.L109
 1760              	.L113:
1432:Generated_Source\PSoC4/CyLib.c ****                 }
1433:Generated_Source\PSoC4/CyLib.c ****                 else if (maxAmplitude < CY_SYS_CLK_ECO_AMPL_FOR_ATRIM5)
 1761              		.loc 1 1433 0
 1762 0096 3B68     		ldr	r3, [r7]
 1763 0098 4B4A     		ldr	r2, .L127+28
 1764 009a 9342     		cmp	r3, r2
 1765 009c 02D8     		bhi	.L114
1434:Generated_Source\PSoC4/CyLib.c ****                 {
1435:Generated_Source\PSoC4/CyLib.c ****                     aTrim = CY_SYS_CLK_ECO_ATRIM5;
 1766              		.loc 1 1435 0
 1767 009e 0523     		movs	r3, #5
 1768 00a0 BB62     		str	r3, [r7, #40]
 1769 00a2 08E0     		b	.L109
 1770              	.L114:
1436:Generated_Source\PSoC4/CyLib.c ****                 }
1437:Generated_Source\PSoC4/CyLib.c ****                 else if (maxAmplitude < CY_SYS_CLK_ECO_AMPL_FOR_ATRIM6)
 1771              		.loc 1 1437 0
 1772 00a4 3B68     		ldr	r3, [r7]
 1773 00a6 494A     		ldr	r2, .L127+32
 1774 00a8 9342     		cmp	r3, r2
 1775 00aa 02D8     		bhi	.L115
1438:Generated_Source\PSoC4/CyLib.c ****                 {
1439:Generated_Source\PSoC4/CyLib.c ****                     aTrim = CY_SYS_CLK_ECO_ATRIM6;
 1776              		.loc 1 1439 0
 1777 00ac 0623     		movs	r3, #6
 1778 00ae BB62     		str	r3, [r7, #40]
 1779 00b0 01E0     		b	.L109
 1780              	.L115:
1440:Generated_Source\PSoC4/CyLib.c ****                 }
1441:Generated_Source\PSoC4/CyLib.c ****                 else
1442:Generated_Source\PSoC4/CyLib.c ****                 {
1443:Generated_Source\PSoC4/CyLib.c ****                     aTrim = CY_SYS_CLK_ECO_ATRIM7;
 1781              		.loc 1 1443 0
 1782 00b2 0723     		movs	r3, #7
 1783 00b4 BB62     		str	r3, [r7, #40]
 1784              	.L109:
1444:Generated_Source\PSoC4/CyLib.c ****                 }
1445:Generated_Source\PSoC4/CyLib.c **** 
1446:Generated_Source\PSoC4/CyLib.c ****                 /* Calculate Watchdog trim. */
1447:Generated_Source\PSoC4/CyLib.c ****                 wDTrim = (maxAmplitude < CY_SYS_CLK_ECO_TRIM_BOUNDARY) ? ((maxAmplitude/200u) - 2u)
 1785              		.loc 1 1447 0
ARM GAS  C:\Users\HPz420\AppData\Local\Temp\ccAdodLg.s 			page 58


 1786 00b6 3B68     		ldr	r3, [r7]
 1787 00b8 3E4A     		ldr	r2, .L127+8
 1788 00ba 9342     		cmp	r3, r2
 1789 00bc 07D8     		bhi	.L116
 1790              		.loc 1 1447 0 is_stmt 0 discriminator 1
 1791 00be 3B68     		ldr	r3, [r7]
 1792 00c0 C821     		movs	r1, #200
 1793 00c2 1800     		movs	r0, r3
 1794 00c4 FFF7FEFF 		bl	__aeabi_uidiv
 1795 00c8 0300     		movs	r3, r0
 1796 00ca 023B     		subs	r3, r3, #2
 1797 00cc 00E0     		b	.L117
 1798              	.L116:
 1799              		.loc 1 1447 0 discriminator 2
 1800 00ce 0323     		movs	r3, #3
 1801              	.L117:
 1802              		.loc 1 1447 0 discriminator 4
 1803 00d0 FB61     		str	r3, [r7, #28]
1448:Generated_Source\PSoC4/CyLib.c **** 
1449:Generated_Source\PSoC4/CyLib.c ****                 /* Calculate amplifier gain trim. */
1450:Generated_Source\PSoC4/CyLib.c ****                 gmMin = (uint32) (((((CY_SYS_CLK_ECO_GMMIN_COEFFICIENT * freq * cLoad) / 1000) * ((
 1804              		.loc 1 1450 0 is_stmt 1 discriminator 4
 1805 00d2 FB68     		ldr	r3, [r7, #12]
 1806 00d4 BA68     		ldr	r2, [r7, #8]
 1807 00d6 5A43     		muls	r2, r3
 1808 00d8 1300     		movs	r3, r2
 1809 00da 9B00     		lsls	r3, r3, #2
 1810 00dc 9B18     		adds	r3, r3, r2
 1811 00de 1B01     		lsls	r3, r3, #4
 1812 00e0 9A1A     		subs	r2, r3, r2
 1813 00e2 FA23     		movs	r3, #250
 1814 00e4 9900     		lsls	r1, r3, #2
 1815 00e6 1000     		movs	r0, r2
 1816 00e8 FFF7FEFF 		bl	__aeabi_uidiv
 1817 00ec 0300     		movs	r3, r0
 1818 00ee 1C00     		movs	r4, r3
 1819 00f0 FB68     		ldr	r3, [r7, #12]
 1820 00f2 BA68     		ldr	r2, [r7, #8]
 1821 00f4 5343     		muls	r3, r2
 1822 00f6 7A68     		ldr	r2, [r7, #4]
 1823 00f8 5A43     		muls	r2, r3
 1824 00fa FA23     		movs	r3, #250
 1825 00fc 9900     		lsls	r1, r3, #2
 1826 00fe 1000     		movs	r0, r2
 1827 0100 FFF7FEFF 		bl	__aeabi_uidiv
 1828 0104 0300     		movs	r3, r0
 1829 0106 6343     		muls	r3, r4
 1830 0108 3149     		ldr	r1, .L127+36
 1831 010a 1800     		movs	r0, r3
 1832 010c FFF7FEFF 		bl	__aeabi_uidiv
 1833 0110 0300     		movs	r3, r0
 1834 0112 BB61     		str	r3, [r7, #24]
1451:Generated_Source\PSoC4/CyLib.c ****                 if (gmMin > 3u)
 1835              		.loc 1 1451 0 discriminator 4
 1836 0114 BB69     		ldr	r3, [r7, #24]
 1837 0116 032B     		cmp	r3, #3
 1838 0118 04D9     		bls	.L118
ARM GAS  C:\Users\HPz420\AppData\Local\Temp\ccAdodLg.s 			page 59


1452:Generated_Source\PSoC4/CyLib.c ****                 {
1453:Generated_Source\PSoC4/CyLib.c ****                     returnStatus = CYRET_BAD_PARAM;
 1839              		.loc 1 1453 0
 1840 011a 0123     		movs	r3, #1
 1841 011c FB62     		str	r3, [r7, #44]
1454:Generated_Source\PSoC4/CyLib.c ****                     gTrim = 0u;
 1842              		.loc 1 1454 0
 1843 011e 0023     		movs	r3, #0
 1844 0120 3B62     		str	r3, [r7, #32]
 1845 0122 0BE0     		b	.L119
 1846              	.L118:
1455:Generated_Source\PSoC4/CyLib.c ****                 }
1456:Generated_Source\PSoC4/CyLib.c ****                 else if (gmMin > 1u)
 1847              		.loc 1 1456 0
 1848 0124 BB69     		ldr	r3, [r7, #24]
 1849 0126 012B     		cmp	r3, #1
 1850 0128 02D9     		bls	.L120
1457:Generated_Source\PSoC4/CyLib.c ****                 {
1458:Generated_Source\PSoC4/CyLib.c ****                     gTrim = gmMin;
 1851              		.loc 1 1458 0
 1852 012a BB69     		ldr	r3, [r7, #24]
 1853 012c 3B62     		str	r3, [r7, #32]
 1854 012e 05E0     		b	.L119
 1855              	.L120:
1459:Generated_Source\PSoC4/CyLib.c ****                 }
1460:Generated_Source\PSoC4/CyLib.c ****                 else
1461:Generated_Source\PSoC4/CyLib.c ****                 {
1462:Generated_Source\PSoC4/CyLib.c ****                     gTrim = (gmMin == 1u) ? 0u : 1u;
 1856              		.loc 1 1462 0
 1857 0130 BB69     		ldr	r3, [r7, #24]
 1858 0132 013B     		subs	r3, r3, #1
 1859 0134 5A1E     		subs	r2, r3, #1
 1860 0136 9341     		sbcs	r3, r3, r2
 1861 0138 DBB2     		uxtb	r3, r3
 1862 013a 3B62     		str	r3, [r7, #32]
 1863              	.L119:
1463:Generated_Source\PSoC4/CyLib.c ****                 }
1464:Generated_Source\PSoC4/CyLib.c **** 
1465:Generated_Source\PSoC4/CyLib.c ****                 /* Calculate feedback resistor trim */
1466:Generated_Source\PSoC4/CyLib.c ****                 if (freq > CY_SYS_CLK_ECO_FREQ_FOR_FTRIM0)
 1864              		.loc 1 1466 0
 1865 013c FB68     		ldr	r3, [r7, #12]
 1866 013e 254A     		ldr	r2, .L127+40
 1867 0140 9342     		cmp	r3, r2
 1868 0142 02D9     		bls	.L121
1467:Generated_Source\PSoC4/CyLib.c ****                 {
1468:Generated_Source\PSoC4/CyLib.c ****                     rTrim = CY_SYS_CLK_ECO_FTRIM0;
 1869              		.loc 1 1468 0
 1870 0144 0023     		movs	r3, #0
 1871 0146 7B62     		str	r3, [r7, #36]
 1872 0148 0FE0     		b	.L122
 1873              	.L121:
1469:Generated_Source\PSoC4/CyLib.c ****                 }
1470:Generated_Source\PSoC4/CyLib.c ****                 else if (freq > CY_SYS_CLK_ECO_FREQ_FOR_FTRIM1)
 1874              		.loc 1 1470 0
 1875 014a FB68     		ldr	r3, [r7, #12]
 1876 014c 224A     		ldr	r2, .L127+44
ARM GAS  C:\Users\HPz420\AppData\Local\Temp\ccAdodLg.s 			page 60


 1877 014e 9342     		cmp	r3, r2
 1878 0150 02D9     		bls	.L123
1471:Generated_Source\PSoC4/CyLib.c ****                 {
1472:Generated_Source\PSoC4/CyLib.c ****                     rTrim = CY_SYS_CLK_ECO_FTRIM1;
 1879              		.loc 1 1472 0
 1880 0152 0123     		movs	r3, #1
 1881 0154 7B62     		str	r3, [r7, #36]
 1882 0156 08E0     		b	.L122
 1883              	.L123:
1473:Generated_Source\PSoC4/CyLib.c ****                 }
1474:Generated_Source\PSoC4/CyLib.c ****                 else if (freq > CY_SYS_CLK_ECO_FREQ_FOR_FTRIM2)
 1884              		.loc 1 1474 0
 1885 0158 FB68     		ldr	r3, [r7, #12]
 1886 015a 204A     		ldr	r2, .L127+48
 1887 015c 9342     		cmp	r3, r2
 1888 015e 02D9     		bls	.L124
1475:Generated_Source\PSoC4/CyLib.c ****                 {
1476:Generated_Source\PSoC4/CyLib.c ****                     rTrim = CY_SYS_CLK_ECO_FTRIM2;
 1889              		.loc 1 1476 0
 1890 0160 0223     		movs	r3, #2
 1891 0162 7B62     		str	r3, [r7, #36]
 1892 0164 01E0     		b	.L122
 1893              	.L124:
1477:Generated_Source\PSoC4/CyLib.c ****                 }
1478:Generated_Source\PSoC4/CyLib.c ****                 else
1479:Generated_Source\PSoC4/CyLib.c ****                 {
1480:Generated_Source\PSoC4/CyLib.c ****                     rTrim = CY_SYS_CLK_ECO_FTRIM3;
 1894              		.loc 1 1480 0
 1895 0166 0323     		movs	r3, #3
 1896 0168 7B62     		str	r3, [r7, #36]
 1897              	.L122:
1481:Generated_Source\PSoC4/CyLib.c ****                 }
1482:Generated_Source\PSoC4/CyLib.c **** 
1483:Generated_Source\PSoC4/CyLib.c ****                 /* Calculate filter frequency trim */
1484:Generated_Source\PSoC4/CyLib.c ****                 fTrim = rTrim;
 1898              		.loc 1 1484 0
 1899 016a 7B6A     		ldr	r3, [r7, #36]
 1900 016c 7B61     		str	r3, [r7, #20]
1485:Generated_Source\PSoC4/CyLib.c **** 
1486:Generated_Source\PSoC4/CyLib.c ****                 CySysClkConfigureEcoTrim(wDTrim, aTrim, fTrim, rTrim, gTrim);
 1901              		.loc 1 1486 0
 1902 016e 7C6A     		ldr	r4, [r7, #36]
 1903 0170 7A69     		ldr	r2, [r7, #20]
 1904 0172 B96A     		ldr	r1, [r7, #40]
 1905 0174 F869     		ldr	r0, [r7, #28]
 1906 0176 3B6A     		ldr	r3, [r7, #32]
 1907 0178 0093     		str	r3, [sp]
 1908 017a 2300     		movs	r3, r4
 1909 017c FFF7FEFF 		bl	CySysClkConfigureEcoTrim
1487:Generated_Source\PSoC4/CyLib.c **** 
1488:Generated_Source\PSoC4/CyLib.c ****                 /* Automatic Gain Control (AGC) enable */
1489:Generated_Source\PSoC4/CyLib.c ****                 if (maxAmplitude < 2u)
 1910              		.loc 1 1489 0
 1911 0180 3B68     		ldr	r3, [r7]
 1912 0182 012B     		cmp	r3, #1
 1913 0184 06D8     		bhi	.L125
1490:Generated_Source\PSoC4/CyLib.c ****                 {
ARM GAS  C:\Users\HPz420\AppData\Local\Temp\ccAdodLg.s 			page 61


1491:Generated_Source\PSoC4/CyLib.c ****                     /* The oscillation amplitude is controlled to the level selected by amplitude t
1492:Generated_Source\PSoC4/CyLib.c ****                     CY_SYS_CLK_ECO_CONFIG_REG |= CY_SYS_CLK_ECO_CONFIG_AGC_EN;
 1914              		.loc 1 1492 0
 1915 0186 164B     		ldr	r3, .L127+52
 1916 0188 154A     		ldr	r2, .L127+52
 1917 018a 1268     		ldr	r2, [r2]
 1918 018c 0221     		movs	r1, #2
 1919 018e 0A43     		orrs	r2, r1
 1920 0190 1A60     		str	r2, [r3]
 1921 0192 05E0     		b	.L105
 1922              	.L125:
1493:Generated_Source\PSoC4/CyLib.c ****                 }
1494:Generated_Source\PSoC4/CyLib.c ****                 else
1495:Generated_Source\PSoC4/CyLib.c ****                 {
1496:Generated_Source\PSoC4/CyLib.c ****                     /* The amplitude is not explicitly controlled and will grow until it saturates 
1497:Generated_Source\PSoC4/CyLib.c ****                     * supply rail (1.8V nom).
1498:Generated_Source\PSoC4/CyLib.c ****                     */
1499:Generated_Source\PSoC4/CyLib.c ****                     CY_SYS_CLK_ECO_CONFIG_REG &= (uint32) ~CY_SYS_CLK_ECO_CONFIG_AGC_EN;
 1923              		.loc 1 1499 0
 1924 0194 124B     		ldr	r3, .L127+52
 1925 0196 124A     		ldr	r2, .L127+52
 1926 0198 1268     		ldr	r2, [r2]
 1927 019a 0221     		movs	r1, #2
 1928 019c 8A43     		bics	r2, r1
 1929 019e 1A60     		str	r2, [r3]
 1930              	.L105:
1500:Generated_Source\PSoC4/CyLib.c ****                 }
1501:Generated_Source\PSoC4/CyLib.c ****             }
1502:Generated_Source\PSoC4/CyLib.c **** 
1503:Generated_Source\PSoC4/CyLib.c ****             return (returnStatus);
 1931              		.loc 1 1503 0
 1932 01a0 FB6A     		ldr	r3, [r7, #44]
1504:Generated_Source\PSoC4/CyLib.c ****         }
 1933              		.loc 1 1504 0
 1934 01a2 1800     		movs	r0, r3
 1935 01a4 BD46     		mov	sp, r7
 1936 01a6 0DB0     		add	sp, sp, #52
 1937              		@ sp needed
 1938 01a8 90BD     		pop	{r4, r7, pc}
 1939              	.L128:
 1940 01aa C046     		.align	2
 1941              	.L127:
 1942 01ac 9F0F0000 		.word	3999
 1943 01b0 35820000 		.word	33333
 1944 01b4 AF040000 		.word	1199
 1945 01b8 57020000 		.word	599
 1946 01bc BB020000 		.word	699
 1947 01c0 1F030000 		.word	799
 1948 01c4 83030000 		.word	899
 1949 01c8 7D040000 		.word	1149
 1950 01cc FA040000 		.word	1274
 1951 01d0 8074D21A 		.word	450000000
 1952 01d4 30750000 		.word	30000
 1953 01d8 C05D0000 		.word	24000
 1954 01dc 68420000 		.word	17000
 1955 01e0 08000C40 		.word	1074528264
 1956              		.cfi_endproc
ARM GAS  C:\Users\HPz420\AppData\Local\Temp\ccAdodLg.s 			page 62


 1957              	.LFE18:
 1958              		.size	CySysClkConfigureEcoDrive, .-CySysClkConfigureEcoDrive
 1959              		.section	.text.CySysClkPllStart,"ax",%progbits
 1960              		.align	2
 1961              		.global	CySysClkPllStart
 1962              		.code	16
 1963              		.thumb_func
 1964              		.type	CySysClkPllStart, %function
 1965              	CySysClkPllStart:
 1966              	.LFB19:
1505:Generated_Source\PSoC4/CyLib.c **** 
1506:Generated_Source\PSoC4/CyLib.c ****     #endif /* CY_IP_ECO_BLESS */
1507:Generated_Source\PSoC4/CyLib.c **** 
1508:Generated_Source\PSoC4/CyLib.c **** #endif /* (CY_IP_ECO) */
1509:Generated_Source\PSoC4/CyLib.c **** 
1510:Generated_Source\PSoC4/CyLib.c **** 
1511:Generated_Source\PSoC4/CyLib.c **** #if (CY_IP_SRSSV2 && CY_IP_PLL)
1512:Generated_Source\PSoC4/CyLib.c ****     /*******************************************************************************
1513:Generated_Source\PSoC4/CyLib.c ****     * Function Name: CySysClkPllStart
1514:Generated_Source\PSoC4/CyLib.c ****     ****************************************************************************//**
1515:Generated_Source\PSoC4/CyLib.c ****     *
1516:Generated_Source\PSoC4/CyLib.c ****     * Enables the PLL. Optionally waits for it to become stable. Waits at least
1517:Generated_Source\PSoC4/CyLib.c ****     * 250 us or until it is detected that the PLL is stable.
1518:Generated_Source\PSoC4/CyLib.c ****     *
1519:Generated_Source\PSoC4/CyLib.c ****     * Clears the unlock occurred status bit by calling CySysClkPllGetUnlockStatus(),
1520:Generated_Source\PSoC4/CyLib.c ****     * once the PLL is locked if the wait parameter is 1).
1521:Generated_Source\PSoC4/CyLib.c ****     *
1522:Generated_Source\PSoC4/CyLib.c ****     * This API is available only for PSoC 4200L devices.
1523:Generated_Source\PSoC4/CyLib.c ****     *
1524:Generated_Source\PSoC4/CyLib.c ****     * \param PLL:
1525:Generated_Source\PSoC4/CyLib.c ****     * 0   PLL#0
1526:Generated_Source\PSoC4/CyLib.c ****     * 1   PLL#1
1527:Generated_Source\PSoC4/CyLib.c ****     *
1528:Generated_Source\PSoC4/CyLib.c ****     * \param wait:
1529:Generated_Source\PSoC4/CyLib.c ****     * 0 - Return immediately after configuration.
1530:Generated_Source\PSoC4/CyLib.c ****     * 1 - Wait for PLL lock or timeout. This API shall use the CyDelayUs() to
1531:Generated_Source\PSoC4/CyLib.c ****     * implement the timeout feature.
1532:Generated_Source\PSoC4/CyLib.c ****     *
1533:Generated_Source\PSoC4/CyLib.c ****     * \return CYRET_SUCCESS Completed successfully.
1534:Generated_Source\PSoC4/CyLib.c ****     * \return CYRET_TIMEOUT The timeout occurred without detecting a stable clock.
1535:Generated_Source\PSoC4/CyLib.c ****     * If the input source of the clock is jittery, then the lock indication may
1536:Generated_Source\PSoC4/CyLib.c ****     * not occur. However, after the timeout has expired, the generated PLL clock can
1537:Generated_Source\PSoC4/CyLib.c ****     * still be used.
1538:Generated_Source\PSoC4/CyLib.c ****     * \return CYRET_BAD_PARAM - Either the PLL or wait parameter is invalid.
1539:Generated_Source\PSoC4/CyLib.c ****     *
1540:Generated_Source\PSoC4/CyLib.c ****     *******************************************************************************/
1541:Generated_Source\PSoC4/CyLib.c ****     cystatus CySysClkPllStart(uint32 pll, uint32 wait)
1542:Generated_Source\PSoC4/CyLib.c ****     {
 1967              		.loc 1 1542 0
 1968              		.cfi_startproc
 1969              		@ args = 0, pretend = 0, frame = 24
 1970              		@ frame_needed = 1, uses_anonymous_args = 0
 1971 0000 90B5     		push	{r4, r7, lr}
 1972              		.cfi_def_cfa_offset 12
 1973              		.cfi_offset 4, -12
 1974              		.cfi_offset 7, -8
 1975              		.cfi_offset 14, -4
ARM GAS  C:\Users\HPz420\AppData\Local\Temp\ccAdodLg.s 			page 63


 1976 0002 87B0     		sub	sp, sp, #28
 1977              		.cfi_def_cfa_offset 40
 1978 0004 00AF     		add	r7, sp, #0
 1979              		.cfi_def_cfa_register 7
 1980 0006 7860     		str	r0, [r7, #4]
 1981 0008 3960     		str	r1, [r7]
1543:Generated_Source\PSoC4/CyLib.c ****         uint32 counts = CY_SYS_CLK_PLL_MAX_STARTUP_US;
 1982              		.loc 1 1543 0
 1983 000a FF23     		movs	r3, #255
 1984 000c 7B61     		str	r3, [r7, #20]
1544:Generated_Source\PSoC4/CyLib.c ****         uint8  interruptState;
1545:Generated_Source\PSoC4/CyLib.c ****         cystatus returnStatus = CYRET_SUCCESS;
 1985              		.loc 1 1545 0
 1986 000e 0023     		movs	r3, #0
 1987 0010 3B61     		str	r3, [r7, #16]
1546:Generated_Source\PSoC4/CyLib.c **** 
1547:Generated_Source\PSoC4/CyLib.c ****         if((pll < CY_IP_PLL_NR) && (wait <= 1u))
 1988              		.loc 1 1547 0
 1989 0012 7B68     		ldr	r3, [r7, #4]
 1990 0014 012B     		cmp	r3, #1
 1991 0016 70D8     		bhi	.L130
 1992              		.loc 1 1547 0 is_stmt 0 discriminator 1
 1993 0018 3B68     		ldr	r3, [r7]
 1994 001a 012B     		cmp	r3, #1
 1995 001c 6DD8     		bhi	.L130
1548:Generated_Source\PSoC4/CyLib.c ****         {
1549:Generated_Source\PSoC4/CyLib.c ****             interruptState = CyEnterCriticalSection();
 1996              		.loc 1 1549 0 is_stmt 1
 1997 001e 0F23     		movs	r3, #15
 1998 0020 FC18     		adds	r4, r7, r3
 1999 0022 FFF7FEFF 		bl	CyEnterCriticalSection
 2000 0026 0300     		movs	r3, r0
 2001 0028 2370     		strb	r3, [r4]
1550:Generated_Source\PSoC4/CyLib.c **** 
1551:Generated_Source\PSoC4/CyLib.c ****             /* Isolate PLL outputs */
1552:Generated_Source\PSoC4/CyLib.c ****             CY_SYS_CLK_PLL_BASE.pll[pll].config &= (uint32) ~CY_SYS_CLK_PLL_CONFIG_ISOLATE;
 2002              		.loc 1 1552 0
 2003 002a 3748     		ldr	r0, .L137
 2004 002c 3649     		ldr	r1, .L137
 2005 002e 7A68     		ldr	r2, [r7, #4]
 2006 0030 1300     		movs	r3, r2
 2007 0032 5B00     		lsls	r3, r3, #1
 2008 0034 9B18     		adds	r3, r3, r2
 2009 0036 9B00     		lsls	r3, r3, #2
 2010 0038 5B58     		ldr	r3, [r3, r1]
 2011 003a 344A     		ldr	r2, .L137+4
 2012 003c 1340     		ands	r3, r2
 2013 003e 1900     		movs	r1, r3
 2014 0040 7A68     		ldr	r2, [r7, #4]
 2015 0042 1300     		movs	r3, r2
 2016 0044 5B00     		lsls	r3, r3, #1
 2017 0046 9B18     		adds	r3, r3, r2
 2018 0048 9B00     		lsls	r3, r3, #2
 2019 004a 1950     		str	r1, [r3, r0]
1553:Generated_Source\PSoC4/CyLib.c **** 
1554:Generated_Source\PSoC4/CyLib.c ****             /* Enable PLL */
1555:Generated_Source\PSoC4/CyLib.c ****             CY_SYS_CLK_PLL_BASE.pll[pll].config |= CY_SYS_CLK_PLL_CONFIG_ENABLE;
ARM GAS  C:\Users\HPz420\AppData\Local\Temp\ccAdodLg.s 			page 64


 2020              		.loc 1 1555 0
 2021 004c 2E48     		ldr	r0, .L137
 2022 004e 2E49     		ldr	r1, .L137
 2023 0050 7A68     		ldr	r2, [r7, #4]
 2024 0052 1300     		movs	r3, r2
 2025 0054 5B00     		lsls	r3, r3, #1
 2026 0056 9B18     		adds	r3, r3, r2
 2027 0058 9B00     		lsls	r3, r3, #2
 2028 005a 5B58     		ldr	r3, [r3, r1]
 2029 005c 8022     		movs	r2, #128
 2030 005e 1206     		lsls	r2, r2, #24
 2031 0060 1A43     		orrs	r2, r3
 2032 0062 1100     		movs	r1, r2
 2033 0064 7A68     		ldr	r2, [r7, #4]
 2034 0066 1300     		movs	r3, r2
 2035 0068 5B00     		lsls	r3, r3, #1
 2036 006a 9B18     		adds	r3, r3, r2
 2037 006c 9B00     		lsls	r3, r3, #2
 2038 006e 1950     		str	r1, [r3, r0]
1556:Generated_Source\PSoC4/CyLib.c **** 
1557:Generated_Source\PSoC4/CyLib.c ****             CyExitCriticalSection(interruptState);
 2039              		.loc 1 1557 0
 2040 0070 0F23     		movs	r3, #15
 2041 0072 FB18     		adds	r3, r7, r3
 2042 0074 1B78     		ldrb	r3, [r3]
 2043 0076 1800     		movs	r0, r3
 2044 0078 FFF7FEFF 		bl	CyExitCriticalSection
1558:Generated_Source\PSoC4/CyLib.c **** 
1559:Generated_Source\PSoC4/CyLib.c ****             /* De-isolate >= CY_SYS_CLK_PLL_MIN_STARTUP_US after PLL enabled */
1560:Generated_Source\PSoC4/CyLib.c ****             CyDelayUs(CY_SYS_CLK_PLL_MIN_STARTUP_US);
 2045              		.loc 1 1560 0
 2046 007c 0520     		movs	r0, #5
 2047 007e FFF7FEFF 		bl	CyDelayUs
1561:Generated_Source\PSoC4/CyLib.c ****             interruptState = CyEnterCriticalSection();
 2048              		.loc 1 1561 0
 2049 0082 0F23     		movs	r3, #15
 2050 0084 FC18     		adds	r4, r7, r3
 2051 0086 FFF7FEFF 		bl	CyEnterCriticalSection
 2052 008a 0300     		movs	r3, r0
 2053 008c 2370     		strb	r3, [r4]
1562:Generated_Source\PSoC4/CyLib.c ****             CY_SYS_CLK_PLL_BASE.pll[pll].config |= CY_SYS_CLK_PLL_CONFIG_ISOLATE;
 2054              		.loc 1 1562 0
 2055 008e 1E48     		ldr	r0, .L137
 2056 0090 1D49     		ldr	r1, .L137
 2057 0092 7A68     		ldr	r2, [r7, #4]
 2058 0094 1300     		movs	r3, r2
 2059 0096 5B00     		lsls	r3, r3, #1
 2060 0098 9B18     		adds	r3, r3, r2
 2061 009a 9B00     		lsls	r3, r3, #2
 2062 009c 5B58     		ldr	r3, [r3, r1]
 2063 009e 8022     		movs	r2, #128
 2064 00a0 D205     		lsls	r2, r2, #23
 2065 00a2 1A43     		orrs	r2, r3
 2066 00a4 1100     		movs	r1, r2
 2067 00a6 7A68     		ldr	r2, [r7, #4]
 2068 00a8 1300     		movs	r3, r2
 2069 00aa 5B00     		lsls	r3, r3, #1
ARM GAS  C:\Users\HPz420\AppData\Local\Temp\ccAdodLg.s 			page 65


 2070 00ac 9B18     		adds	r3, r3, r2
 2071 00ae 9B00     		lsls	r3, r3, #2
 2072 00b0 1950     		str	r1, [r3, r0]
1563:Generated_Source\PSoC4/CyLib.c ****             CyExitCriticalSection(interruptState);
 2073              		.loc 1 1563 0
 2074 00b2 0F23     		movs	r3, #15
 2075 00b4 FB18     		adds	r3, r7, r3
 2076 00b6 1B78     		ldrb	r3, [r3]
 2077 00b8 1800     		movs	r0, r3
 2078 00ba FFF7FEFF 		bl	CyExitCriticalSection
1564:Generated_Source\PSoC4/CyLib.c **** 
1565:Generated_Source\PSoC4/CyLib.c ****             if(wait != 0u)
 2079              		.loc 1 1565 0
 2080 00be 3B68     		ldr	r3, [r7]
 2081 00c0 002B     		cmp	r3, #0
 2082 00c2 1CD0     		beq	.L135
1566:Generated_Source\PSoC4/CyLib.c ****             {
1567:Generated_Source\PSoC4/CyLib.c ****                 returnStatus = CYRET_TIMEOUT;
 2083              		.loc 1 1567 0
 2084 00c4 1023     		movs	r3, #16
 2085 00c6 3B61     		str	r3, [r7, #16]
1568:Generated_Source\PSoC4/CyLib.c **** 
1569:Generated_Source\PSoC4/CyLib.c ****                 while(0u != counts)
 2086              		.loc 1 1569 0
 2087 00c8 13E0     		b	.L132
 2088              	.L134:
1570:Generated_Source\PSoC4/CyLib.c ****                 {
1571:Generated_Source\PSoC4/CyLib.c **** 
1572:Generated_Source\PSoC4/CyLib.c ****                     if(0u != CySysClkPllGetLockStatus(pll))
 2089              		.loc 1 1572 0
 2090 00ca 7B68     		ldr	r3, [r7, #4]
 2091 00cc 1800     		movs	r0, r3
 2092 00ce FFF7FEFF 		bl	CySysClkPllGetLockStatus
 2093 00d2 031E     		subs	r3, r0, #0
 2094 00d4 07D0     		beq	.L133
1573:Generated_Source\PSoC4/CyLib.c ****                     {
1574:Generated_Source\PSoC4/CyLib.c ****                         returnStatus = CYRET_SUCCESS;
 2095              		.loc 1 1574 0
 2096 00d6 0023     		movs	r3, #0
 2097 00d8 3B61     		str	r3, [r7, #16]
1575:Generated_Source\PSoC4/CyLib.c ****                         (void) CySysClkPllGetUnlockStatus(pll);
 2098              		.loc 1 1575 0
 2099 00da 7B68     		ldr	r3, [r7, #4]
 2100 00dc 1800     		movs	r0, r3
 2101 00de FFF7FEFF 		bl	CySysClkPllGetUnlockStatus
1576:Generated_Source\PSoC4/CyLib.c ****                         break;
 2102              		.loc 1 1576 0
 2103 00e2 C046     		nop
1565:Generated_Source\PSoC4/CyLib.c ****             {
 2104              		.loc 1 1565 0
 2105 00e4 0BE0     		b	.L135
 2106              	.L133:
1577:Generated_Source\PSoC4/CyLib.c ****                     }
1578:Generated_Source\PSoC4/CyLib.c **** 
1579:Generated_Source\PSoC4/CyLib.c ****                     CyDelayUs(1u);
 2107              		.loc 1 1579 0
 2108 00e6 0120     		movs	r0, #1
ARM GAS  C:\Users\HPz420\AppData\Local\Temp\ccAdodLg.s 			page 66


 2109 00e8 FFF7FEFF 		bl	CyDelayUs
1580:Generated_Source\PSoC4/CyLib.c ****                     counts--;
 2110              		.loc 1 1580 0
 2111 00ec 7B69     		ldr	r3, [r7, #20]
 2112 00ee 013B     		subs	r3, r3, #1
 2113 00f0 7B61     		str	r3, [r7, #20]
 2114              	.L132:
1569:Generated_Source\PSoC4/CyLib.c ****                 {
 2115              		.loc 1 1569 0
 2116 00f2 7B69     		ldr	r3, [r7, #20]
 2117 00f4 002B     		cmp	r3, #0
 2118 00f6 E8D1     		bne	.L134
1565:Generated_Source\PSoC4/CyLib.c ****             {
 2119              		.loc 1 1565 0
 2120 00f8 01E0     		b	.L135
 2121              	.L130:
1581:Generated_Source\PSoC4/CyLib.c ****                 }
1582:Generated_Source\PSoC4/CyLib.c ****             }
1583:Generated_Source\PSoC4/CyLib.c ****         }
1584:Generated_Source\PSoC4/CyLib.c ****         else
1585:Generated_Source\PSoC4/CyLib.c ****         {
1586:Generated_Source\PSoC4/CyLib.c ****             returnStatus = CYRET_BAD_PARAM;
 2122              		.loc 1 1586 0
 2123 00fa 0123     		movs	r3, #1
 2124 00fc 3B61     		str	r3, [r7, #16]
 2125              	.L135:
1587:Generated_Source\PSoC4/CyLib.c ****         }
1588:Generated_Source\PSoC4/CyLib.c **** 
1589:Generated_Source\PSoC4/CyLib.c ****         return (returnStatus);
 2126              		.loc 1 1589 0
 2127 00fe 3B69     		ldr	r3, [r7, #16]
1590:Generated_Source\PSoC4/CyLib.c ****     }
 2128              		.loc 1 1590 0
 2129 0100 1800     		movs	r0, r3
 2130 0102 BD46     		mov	sp, r7
 2131 0104 07B0     		add	sp, sp, #28
 2132              		@ sp needed
 2133 0106 90BD     		pop	{r4, r7, pc}
 2134              	.L138:
 2135              		.align	2
 2136              	.L137:
 2137 0108 14000C40 		.word	1074528276
 2138 010c FFFFFFBF 		.word	-1073741825
 2139              		.cfi_endproc
 2140              	.LFE19:
 2141              		.size	CySysClkPllStart, .-CySysClkPllStart
 2142              		.section	.text.CySysClkPllGetLockStatus,"ax",%progbits
 2143              		.align	2
 2144              		.global	CySysClkPllGetLockStatus
 2145              		.code	16
 2146              		.thumb_func
 2147              		.type	CySysClkPllGetLockStatus, %function
 2148              	CySysClkPllGetLockStatus:
 2149              	.LFB20:
1591:Generated_Source\PSoC4/CyLib.c **** 
1592:Generated_Source\PSoC4/CyLib.c **** 
1593:Generated_Source\PSoC4/CyLib.c ****     /*******************************************************************************
ARM GAS  C:\Users\HPz420\AppData\Local\Temp\ccAdodLg.s 			page 67


1594:Generated_Source\PSoC4/CyLib.c ****     * Function Name: CySysClkPllGetLockStatus
1595:Generated_Source\PSoC4/CyLib.c ****     ****************************************************************************//**
1596:Generated_Source\PSoC4/CyLib.c ****     *
1597:Generated_Source\PSoC4/CyLib.c ****     * Returns non-zero if the output of the specified PLL output is locked.
1598:Generated_Source\PSoC4/CyLib.c ****     *
1599:Generated_Source\PSoC4/CyLib.c ****     * This API is available only for PSoC 4200L devices.
1600:Generated_Source\PSoC4/CyLib.c ****     *
1601:Generated_Source\PSoC4/CyLib.c ****     * PLL:
1602:Generated_Source\PSoC4/CyLib.c ****     *  0   PLL#0
1603:Generated_Source\PSoC4/CyLib.c ****     *  1   PLL#1
1604:Generated_Source\PSoC4/CyLib.c ****     *
1605:Generated_Source\PSoC4/CyLib.c ****     * \return A non-zero value when the specified PLL is locked.
1606:Generated_Source\PSoC4/CyLib.c ****     *
1607:Generated_Source\PSoC4/CyLib.c ****     *******************************************************************************/
1608:Generated_Source\PSoC4/CyLib.c ****     uint32 CySysClkPllGetLockStatus(uint32 pll)
1609:Generated_Source\PSoC4/CyLib.c ****     {
 2150              		.loc 1 1609 0
 2151              		.cfi_startproc
 2152              		@ args = 0, pretend = 0, frame = 16
 2153              		@ frame_needed = 1, uses_anonymous_args = 0
 2154 0000 90B5     		push	{r4, r7, lr}
 2155              		.cfi_def_cfa_offset 12
 2156              		.cfi_offset 4, -12
 2157              		.cfi_offset 7, -8
 2158              		.cfi_offset 14, -4
 2159 0002 85B0     		sub	sp, sp, #20
 2160              		.cfi_def_cfa_offset 32
 2161 0004 00AF     		add	r7, sp, #0
 2162              		.cfi_def_cfa_register 7
 2163 0006 7860     		str	r0, [r7, #4]
1610:Generated_Source\PSoC4/CyLib.c ****         uint8  interruptState;
1611:Generated_Source\PSoC4/CyLib.c ****         uint32 returnStatus;
1612:Generated_Source\PSoC4/CyLib.c **** 
1613:Generated_Source\PSoC4/CyLib.c ****         CYASSERT(pll < CY_IP_PLL_NR);
 2164              		.loc 1 1613 0
 2165 0008 7B68     		ldr	r3, [r7, #4]
 2166 000a 012B     		cmp	r3, #1
 2167 000c 02D9     		bls	.L140
 2168              		.loc 1 1613 0 is_stmt 0 discriminator 1
 2169 000e 0020     		movs	r0, #0
 2170 0010 FFF7FEFF 		bl	CyHalt
 2171              	.L140:
1614:Generated_Source\PSoC4/CyLib.c **** 
1615:Generated_Source\PSoC4/CyLib.c ****         interruptState = CyEnterCriticalSection();
 2172              		.loc 1 1615 0 is_stmt 1
 2173 0014 0B23     		movs	r3, #11
 2174 0016 FC18     		adds	r4, r7, r3
 2175 0018 FFF7FEFF 		bl	CyEnterCriticalSection
 2176 001c 0300     		movs	r3, r0
 2177 001e 2370     		strb	r3, [r4]
1616:Generated_Source\PSoC4/CyLib.c **** 
1617:Generated_Source\PSoC4/CyLib.c ****         /* PLL is locked if reported so for two consecutive read. */
1618:Generated_Source\PSoC4/CyLib.c ****         returnStatus = CY_SYS_CLK_PLL_BASE.pll[pll].status & CY_SYS_CLK_PLL_STATUS_LOCKED;
 2178              		.loc 1 1618 0
 2179 0020 1249     		ldr	r1, .L143
 2180 0022 7A68     		ldr	r2, [r7, #4]
 2181 0024 1300     		movs	r3, r2
ARM GAS  C:\Users\HPz420\AppData\Local\Temp\ccAdodLg.s 			page 68


 2182 0026 5B00     		lsls	r3, r3, #1
 2183 0028 9B18     		adds	r3, r3, r2
 2184 002a 9B00     		lsls	r3, r3, #2
 2185 002c CB18     		adds	r3, r1, r3
 2186 002e 0433     		adds	r3, r3, #4
 2187 0030 1B68     		ldr	r3, [r3]
 2188 0032 0122     		movs	r2, #1
 2189 0034 1340     		ands	r3, r2
 2190 0036 FB60     		str	r3, [r7, #12]
1619:Generated_Source\PSoC4/CyLib.c ****         if(0u != returnStatus)
 2191              		.loc 1 1619 0
 2192 0038 FB68     		ldr	r3, [r7, #12]
 2193 003a 002B     		cmp	r3, #0
 2194 003c 0BD0     		beq	.L141
1620:Generated_Source\PSoC4/CyLib.c ****         {
1621:Generated_Source\PSoC4/CyLib.c ****             returnStatus = CY_SYS_CLK_PLL_BASE.pll[pll].status & CY_SYS_CLK_PLL_STATUS_LOCKED;
 2195              		.loc 1 1621 0
 2196 003e 0B49     		ldr	r1, .L143
 2197 0040 7A68     		ldr	r2, [r7, #4]
 2198 0042 1300     		movs	r3, r2
 2199 0044 5B00     		lsls	r3, r3, #1
 2200 0046 9B18     		adds	r3, r3, r2
 2201 0048 9B00     		lsls	r3, r3, #2
 2202 004a CB18     		adds	r3, r1, r3
 2203 004c 0433     		adds	r3, r3, #4
 2204 004e 1B68     		ldr	r3, [r3]
 2205 0050 0122     		movs	r2, #1
 2206 0052 1340     		ands	r3, r2
 2207 0054 FB60     		str	r3, [r7, #12]
 2208              	.L141:
1622:Generated_Source\PSoC4/CyLib.c ****         }
1623:Generated_Source\PSoC4/CyLib.c **** 
1624:Generated_Source\PSoC4/CyLib.c ****         CyExitCriticalSection(interruptState);
 2209              		.loc 1 1624 0
 2210 0056 0B23     		movs	r3, #11
 2211 0058 FB18     		adds	r3, r7, r3
 2212 005a 1B78     		ldrb	r3, [r3]
 2213 005c 1800     		movs	r0, r3
 2214 005e FFF7FEFF 		bl	CyExitCriticalSection
1625:Generated_Source\PSoC4/CyLib.c **** 
1626:Generated_Source\PSoC4/CyLib.c ****         return (returnStatus);
 2215              		.loc 1 1626 0
 2216 0062 FB68     		ldr	r3, [r7, #12]
1627:Generated_Source\PSoC4/CyLib.c ****     }
 2217              		.loc 1 1627 0
 2218 0064 1800     		movs	r0, r3
 2219 0066 BD46     		mov	sp, r7
 2220 0068 05B0     		add	sp, sp, #20
 2221              		@ sp needed
 2222 006a 90BD     		pop	{r4, r7, pc}
 2223              	.L144:
 2224              		.align	2
 2225              	.L143:
 2226 006c 14000C40 		.word	1074528276
 2227              		.cfi_endproc
 2228              	.LFE20:
 2229              		.size	CySysClkPllGetLockStatus, .-CySysClkPllGetLockStatus
ARM GAS  C:\Users\HPz420\AppData\Local\Temp\ccAdodLg.s 			page 69


 2230              		.section	.text.CySysClkPllStop,"ax",%progbits
 2231              		.align	2
 2232              		.global	CySysClkPllStop
 2233              		.code	16
 2234              		.thumb_func
 2235              		.type	CySysClkPllStop, %function
 2236              	CySysClkPllStop:
 2237              	.LFB21:
1628:Generated_Source\PSoC4/CyLib.c **** 
1629:Generated_Source\PSoC4/CyLib.c ****     /*******************************************************************************
1630:Generated_Source\PSoC4/CyLib.c ****     * Function Name: CySysClkPllStop
1631:Generated_Source\PSoC4/CyLib.c ****     ****************************************************************************//**
1632:Generated_Source\PSoC4/CyLib.c ****     *
1633:Generated_Source\PSoC4/CyLib.c ****     * Disables the PLL.
1634:Generated_Source\PSoC4/CyLib.c ****     *
1635:Generated_Source\PSoC4/CyLib.c ****     * Ensures that either PLL is not the source of HFCLK before it is disabled,
1636:Generated_Source\PSoC4/CyLib.c ****     * otherwise, the CPU will halt.
1637:Generated_Source\PSoC4/CyLib.c ****     *
1638:Generated_Source\PSoC4/CyLib.c ****     * This API is available only for PSoC 4200L devices.
1639:Generated_Source\PSoC4/CyLib.c ****     *
1640:Generated_Source\PSoC4/CyLib.c ****     * PLL:
1641:Generated_Source\PSoC4/CyLib.c ****     *  0   PLL#0
1642:Generated_Source\PSoC4/CyLib.c ****     *  1   PLL#1
1643:Generated_Source\PSoC4/CyLib.c ****     *
1644:Generated_Source\PSoC4/CyLib.c ****     *******************************************************************************/
1645:Generated_Source\PSoC4/CyLib.c ****     void CySysClkPllStop(uint32 pll)
1646:Generated_Source\PSoC4/CyLib.c ****     {
 2238              		.loc 1 1646 0
 2239              		.cfi_startproc
 2240              		@ args = 0, pretend = 0, frame = 16
 2241              		@ frame_needed = 1, uses_anonymous_args = 0
 2242 0000 90B5     		push	{r4, r7, lr}
 2243              		.cfi_def_cfa_offset 12
 2244              		.cfi_offset 4, -12
 2245              		.cfi_offset 7, -8
 2246              		.cfi_offset 14, -4
 2247 0002 85B0     		sub	sp, sp, #20
 2248              		.cfi_def_cfa_offset 32
 2249 0004 00AF     		add	r7, sp, #0
 2250              		.cfi_def_cfa_register 7
 2251 0006 7860     		str	r0, [r7, #4]
1647:Generated_Source\PSoC4/CyLib.c ****         uint8  interruptState;
1648:Generated_Source\PSoC4/CyLib.c **** 
1649:Generated_Source\PSoC4/CyLib.c ****         if (pll < CY_IP_PLL_NR)
 2252              		.loc 1 1649 0
 2253 0008 7B68     		ldr	r3, [r7, #4]
 2254 000a 012B     		cmp	r3, #1
 2255 000c 1BD8     		bhi	.L147
1650:Generated_Source\PSoC4/CyLib.c ****         {
1651:Generated_Source\PSoC4/CyLib.c ****             interruptState = CyEnterCriticalSection();
 2256              		.loc 1 1651 0
 2257 000e 0F23     		movs	r3, #15
 2258 0010 FC18     		adds	r4, r7, r3
 2259 0012 FFF7FEFF 		bl	CyEnterCriticalSection
 2260 0016 0300     		movs	r3, r0
 2261 0018 2370     		strb	r3, [r4]
1652:Generated_Source\PSoC4/CyLib.c ****             CY_SYS_CLK_PLL_BASE.pll[pll].config &= (uint32) ~(CY_SYS_CLK_PLL_CONFIG_ISOLATE | CY_SY
ARM GAS  C:\Users\HPz420\AppData\Local\Temp\ccAdodLg.s 			page 70


 2262              		.loc 1 1652 0
 2263 001a 0D48     		ldr	r0, .L148
 2264 001c 0C49     		ldr	r1, .L148
 2265 001e 7A68     		ldr	r2, [r7, #4]
 2266 0020 1300     		movs	r3, r2
 2267 0022 5B00     		lsls	r3, r3, #1
 2268 0024 9B18     		adds	r3, r3, r2
 2269 0026 9B00     		lsls	r3, r3, #2
 2270 0028 5B58     		ldr	r3, [r3, r1]
 2271 002a 9B00     		lsls	r3, r3, #2
 2272 002c 9908     		lsrs	r1, r3, #2
 2273 002e 7A68     		ldr	r2, [r7, #4]
 2274 0030 1300     		movs	r3, r2
 2275 0032 5B00     		lsls	r3, r3, #1
 2276 0034 9B18     		adds	r3, r3, r2
 2277 0036 9B00     		lsls	r3, r3, #2
 2278 0038 1950     		str	r1, [r3, r0]
1653:Generated_Source\PSoC4/CyLib.c ****             CyExitCriticalSection(interruptState);
 2279              		.loc 1 1653 0
 2280 003a 0F23     		movs	r3, #15
 2281 003c FB18     		adds	r3, r7, r3
 2282 003e 1B78     		ldrb	r3, [r3]
 2283 0040 1800     		movs	r0, r3
 2284 0042 FFF7FEFF 		bl	CyExitCriticalSection
 2285              	.L147:
1654:Generated_Source\PSoC4/CyLib.c ****         }
1655:Generated_Source\PSoC4/CyLib.c ****     }
 2286              		.loc 1 1655 0
 2287 0046 C046     		nop
 2288 0048 BD46     		mov	sp, r7
 2289 004a 05B0     		add	sp, sp, #20
 2290              		@ sp needed
 2291 004c 90BD     		pop	{r4, r7, pc}
 2292              	.L149:
 2293 004e C046     		.align	2
 2294              	.L148:
 2295 0050 14000C40 		.word	1074528276
 2296              		.cfi_endproc
 2297              	.LFE21:
 2298              		.size	CySysClkPllStop, .-CySysClkPllStop
 2299              		.section	.text.CySysClkPllSetPQ,"ax",%progbits
 2300              		.align	2
 2301              		.global	CySysClkPllSetPQ
 2302              		.code	16
 2303              		.thumb_func
 2304              		.type	CySysClkPllSetPQ, %function
 2305              	CySysClkPllSetPQ:
 2306              	.LFB22:
1656:Generated_Source\PSoC4/CyLib.c **** 
1657:Generated_Source\PSoC4/CyLib.c **** 
1658:Generated_Source\PSoC4/CyLib.c ****     /*******************************************************************************
1659:Generated_Source\PSoC4/CyLib.c ****     * Function Name: CySysClkPllSetPQ
1660:Generated_Source\PSoC4/CyLib.c ****     ****************************************************************************//**
1661:Generated_Source\PSoC4/CyLib.c ****     *
1662:Generated_Source\PSoC4/CyLib.c ****     * Sets feedback (P) and reference the (Q) divider value. This API also sets the
1663:Generated_Source\PSoC4/CyLib.c ****     * programmable charge pump current value. Note that the PLL has to be disabled
1664:Generated_Source\PSoC4/CyLib.c ****     * before calling this API. If this function is called while any PLL is sourcing,
ARM GAS  C:\Users\HPz420\AppData\Local\Temp\ccAdodLg.s 			page 71


1665:Generated_Source\PSoC4/CyLib.c ****     * the SYSCLK will return an error.
1666:Generated_Source\PSoC4/CyLib.c ****     *
1667:Generated_Source\PSoC4/CyLib.c ****     * The PLL must not be the system clock source when calling this function. The
1668:Generated_Source\PSoC4/CyLib.c ****     * PLL output will glitch during this function call.
1669:Generated_Source\PSoC4/CyLib.c ****     *
1670:Generated_Source\PSoC4/CyLib.c ****     * This API is available only for PSoC 4200L devices.
1671:Generated_Source\PSoC4/CyLib.c ****     *
1672:Generated_Source\PSoC4/CyLib.c ****     * \param PLL:
1673:Generated_Source\PSoC4/CyLib.c ****     *  0   PLL#0
1674:Generated_Source\PSoC4/CyLib.c ****     *  1   PLL#1
1675:Generated_Source\PSoC4/CyLib.c ****     *
1676:Generated_Source\PSoC4/CyLib.c ****     * \param feedback The P divider. Range 4 - 259. Control bits for the feedback
1677:Generated_Source\PSoC4/CyLib.c ****     * divider.
1678:Generated_Source\PSoC4/CyLib.c ****     *
1679:Generated_Source\PSoC4/CyLib.c ****     * \param reference The Q divider. Range 1 - 64. Divide by the reference.
1680:Generated_Source\PSoC4/CyLib.c ****     *
1681:Generated_Source\PSoC4/CyLib.c ****     * \param current Charge the pump current in uA. The 2 uA for output frequencies
1682:Generated_Source\PSoC4/CyLib.c ****     * of 67 MHz or less, and 3 uA for higher output frequencies. The default
1683:Generated_Source\PSoC4/CyLib.c ****     * value is 2 uA.
1684:Generated_Source\PSoC4/CyLib.c ****     *
1685:Generated_Source\PSoC4/CyLib.c ****     * \return CYRET_SUCCESS Completed successfully.
1686:Generated_Source\PSoC4/CyLib.c ****     * \return CYRET_BAD_PARAM The parameters are out of range or the specified PLL
1687:Generated_Source\PSoC4/CyLib.c ****     * sources the system clock.
1688:Generated_Source\PSoC4/CyLib.c ****     *
1689:Generated_Source\PSoC4/CyLib.c ****     *******************************************************************************/
1690:Generated_Source\PSoC4/CyLib.c ****     cystatus CySysClkPllSetPQ(uint32 pll, uint32 feedback, uint32 reference, uint32 current)
1691:Generated_Source\PSoC4/CyLib.c ****     {
 2307              		.loc 1 1691 0
 2308              		.cfi_startproc
 2309              		@ args = 0, pretend = 0, frame = 32
 2310              		@ frame_needed = 1, uses_anonymous_args = 0
 2311 0000 90B5     		push	{r4, r7, lr}
 2312              		.cfi_def_cfa_offset 12
 2313              		.cfi_offset 4, -12
 2314              		.cfi_offset 7, -8
 2315              		.cfi_offset 14, -4
 2316 0002 89B0     		sub	sp, sp, #36
 2317              		.cfi_def_cfa_offset 48
 2318 0004 00AF     		add	r7, sp, #0
 2319              		.cfi_def_cfa_register 7
 2320 0006 F860     		str	r0, [r7, #12]
 2321 0008 B960     		str	r1, [r7, #8]
 2322 000a 7A60     		str	r2, [r7, #4]
 2323 000c 3B60     		str	r3, [r7]
1692:Generated_Source\PSoC4/CyLib.c ****         uint32   regTmp;
1693:Generated_Source\PSoC4/CyLib.c ****         cystatus tmp;
1694:Generated_Source\PSoC4/CyLib.c ****         uint8    interruptState;
1695:Generated_Source\PSoC4/CyLib.c ****         cystatus returnStatus = CYRET_BAD_PARAM;
 2324              		.loc 1 1695 0
 2325 000e 0123     		movs	r3, #1
 2326 0010 FB61     		str	r3, [r7, #28]
1696:Generated_Source\PSoC4/CyLib.c **** 
1697:Generated_Source\PSoC4/CyLib.c ****         interruptState = CyEnterCriticalSection();
 2327              		.loc 1 1697 0
 2328 0012 1B23     		movs	r3, #27
 2329 0014 FC18     		adds	r4, r7, r3
 2330 0016 FFF7FEFF 		bl	CyEnterCriticalSection
ARM GAS  C:\Users\HPz420\AppData\Local\Temp\ccAdodLg.s 			page 72


 2331 001a 0300     		movs	r3, r0
 2332 001c 2370     		strb	r3, [r4]
1698:Generated_Source\PSoC4/CyLib.c **** 
1699:Generated_Source\PSoC4/CyLib.c ****         tmp = CySysClkPllConfigChangeAllowed(pll);
 2333              		.loc 1 1699 0
 2334 001e FB68     		ldr	r3, [r7, #12]
 2335 0020 1800     		movs	r0, r3
 2336 0022 FFF7FEFF 		bl	CySysClkPllConfigChangeAllowed
 2337 0026 0300     		movs	r3, r0
 2338 0028 7B61     		str	r3, [r7, #20]
1700:Generated_Source\PSoC4/CyLib.c **** 
1701:Generated_Source\PSoC4/CyLib.c ****         if ((pll < CY_IP_PLL_NR) &&
 2339              		.loc 1 1701 0
 2340 002a FB68     		ldr	r3, [r7, #12]
 2341 002c 012B     		cmp	r3, #1
 2342 002e 41D8     		bhi	.L151
 2343              		.loc 1 1701 0 is_stmt 0 discriminator 1
 2344 0030 BB68     		ldr	r3, [r7, #8]
 2345 0032 032B     		cmp	r3, #3
 2346 0034 3ED9     		bls	.L151
1702:Generated_Source\PSoC4/CyLib.c ****             (feedback  >= CY_SYS_CLK_PLL_CONFIG_FEEDBACK_DIV_MIN)  && (feedback  <= CY_SYS_CLK_PLL_
 2347              		.loc 1 1702 0 is_stmt 1
 2348 0036 BA68     		ldr	r2, [r7, #8]
 2349 0038 0423     		movs	r3, #4
 2350 003a FF33     		adds	r3, r3, #255
 2351 003c 9A42     		cmp	r2, r3
 2352 003e 39D8     		bhi	.L151
 2353              		.loc 1 1702 0 is_stmt 0 discriminator 1
 2354 0040 7B68     		ldr	r3, [r7, #4]
 2355 0042 002B     		cmp	r3, #0
 2356 0044 36D0     		beq	.L151
1703:Generated_Source\PSoC4/CyLib.c ****             (reference >= CY_SYS_CLK_PLL_CONFIG_REFERENCE_DIV_MIN) && (reference <= CY_SYS_CLK_PLL_
 2357              		.loc 1 1703 0 is_stmt 1
 2358 0046 7B68     		ldr	r3, [r7, #4]
 2359 0048 402B     		cmp	r3, #64
 2360 004a 33D8     		bhi	.L151
 2361              		.loc 1 1703 0 is_stmt 0 discriminator 1
 2362 004c 3B68     		ldr	r3, [r7]
 2363 004e 012B     		cmp	r3, #1
 2364 0050 30D9     		bls	.L151
1704:Generated_Source\PSoC4/CyLib.c ****             (current   >= CY_SYS_CLK_PLL_CONFIG_ICP_SEL_MIN )      && (current   <= CY_SYS_CLK_PLL_
 2365              		.loc 1 1704 0 is_stmt 1
 2366 0052 3B68     		ldr	r3, [r7]
 2367 0054 032B     		cmp	r3, #3
 2368 0056 2DD8     		bhi	.L151
 2369              		.loc 1 1704 0 is_stmt 0 discriminator 1
 2370 0058 7B69     		ldr	r3, [r7, #20]
 2371 005a 002B     		cmp	r3, #0
 2372 005c 2AD1     		bne	.L151
1705:Generated_Source\PSoC4/CyLib.c ****             (CYRET_SUCCESS == tmp))
1706:Generated_Source\PSoC4/CyLib.c ****         {
1707:Generated_Source\PSoC4/CyLib.c ****             /* Set new feedback, reference and current values */
1708:Generated_Source\PSoC4/CyLib.c ****             regTmp  = CY_SYS_CLK_PLL_BASE.pll[pll].config & (uint32) ~(CY_SYS_CLK_PLL_CONFIG_FEEDBA
 2373              		.loc 1 1708 0 is_stmt 1
 2374 005e 1B49     		ldr	r1, .L153
 2375 0060 FA68     		ldr	r2, [r7, #12]
 2376 0062 1300     		movs	r3, r2
ARM GAS  C:\Users\HPz420\AppData\Local\Temp\ccAdodLg.s 			page 73


 2377 0064 5B00     		lsls	r3, r3, #1
 2378 0066 9B18     		adds	r3, r3, r2
 2379 0068 9B00     		lsls	r3, r3, #2
 2380 006a 5B58     		ldr	r3, [r3, r1]
 2381 006c 184A     		ldr	r2, .L153+4
 2382 006e 1340     		ands	r3, r2
 2383 0070 3B61     		str	r3, [r7, #16]
1709:Generated_Source\PSoC4/CyLib.c ****                                                                        CY_SYS_CLK_PLL_CONFIG_REFERE
1710:Generated_Source\PSoC4/CyLib.c ****                                                                        CY_SYS_CLK_PLL_CONFIG_ICP_SE
1711:Generated_Source\PSoC4/CyLib.c **** 
1712:Generated_Source\PSoC4/CyLib.c ****             regTmp |= ((feedback << CY_SYS_CLK_PLL_CONFIG_FEEDBACK_DIV_SHIFT) & CY_SYS_CLK_PLL_CONF
 2384              		.loc 1 1712 0
 2385 0072 BB68     		ldr	r3, [r7, #8]
 2386 0074 FF22     		movs	r2, #255
 2387 0076 1340     		ands	r3, r2
 2388 0078 3A69     		ldr	r2, [r7, #16]
 2389 007a 1343     		orrs	r3, r2
 2390 007c 3B61     		str	r3, [r7, #16]
1713:Generated_Source\PSoC4/CyLib.c ****             regTmp |= (((reference - 1u) << CY_SYS_CLK_PLL_CONFIG_REFERENCE_DIV_SHIFT) & CY_SYS_CLK
 2391              		.loc 1 1713 0
 2392 007e 7B68     		ldr	r3, [r7, #4]
 2393 0080 013B     		subs	r3, r3, #1
 2394 0082 1A02     		lsls	r2, r3, #8
 2395 0084 FC23     		movs	r3, #252
 2396 0086 9B01     		lsls	r3, r3, #6
 2397 0088 1340     		ands	r3, r2
 2398 008a 3A69     		ldr	r2, [r7, #16]
 2399 008c 1343     		orrs	r3, r2
 2400 008e 3B61     		str	r3, [r7, #16]
1714:Generated_Source\PSoC4/CyLib.c ****             regTmp |= ((current << CY_SYS_CLK_PLL_CONFIG_ICP_SEL_SHIFT) & CY_SYS_CLK_PLL_CONFIG_ICP
 2401              		.loc 1 1714 0
 2402 0090 3B68     		ldr	r3, [r7]
 2403 0092 1A04     		lsls	r2, r3, #16
 2404 0094 E023     		movs	r3, #224
 2405 0096 DB02     		lsls	r3, r3, #11
 2406 0098 1340     		ands	r3, r2
 2407 009a 3A69     		ldr	r2, [r7, #16]
 2408 009c 1343     		orrs	r3, r2
 2409 009e 3B61     		str	r3, [r7, #16]
1715:Generated_Source\PSoC4/CyLib.c **** 
1716:Generated_Source\PSoC4/CyLib.c ****             CY_SYS_CLK_PLL_BASE.pll[pll].config = regTmp;
 2410              		.loc 1 1716 0
 2411 00a0 0A49     		ldr	r1, .L153
 2412 00a2 FA68     		ldr	r2, [r7, #12]
 2413 00a4 1300     		movs	r3, r2
 2414 00a6 5B00     		lsls	r3, r3, #1
 2415 00a8 9B18     		adds	r3, r3, r2
 2416 00aa 9B00     		lsls	r3, r3, #2
 2417 00ac 3A69     		ldr	r2, [r7, #16]
 2418 00ae 5A50     		str	r2, [r3, r1]
1717:Generated_Source\PSoC4/CyLib.c **** 
1718:Generated_Source\PSoC4/CyLib.c ****             returnStatus = CYRET_SUCCESS;
 2419              		.loc 1 1718 0
 2420 00b0 0023     		movs	r3, #0
 2421 00b2 FB61     		str	r3, [r7, #28]
 2422              	.L151:
1719:Generated_Source\PSoC4/CyLib.c ****         }
ARM GAS  C:\Users\HPz420\AppData\Local\Temp\ccAdodLg.s 			page 74


1720:Generated_Source\PSoC4/CyLib.c **** 
1721:Generated_Source\PSoC4/CyLib.c ****         CyExitCriticalSection(interruptState);
 2423              		.loc 1 1721 0
 2424 00b4 1B23     		movs	r3, #27
 2425 00b6 FB18     		adds	r3, r7, r3
 2426 00b8 1B78     		ldrb	r3, [r3]
 2427 00ba 1800     		movs	r0, r3
 2428 00bc FFF7FEFF 		bl	CyExitCriticalSection
1722:Generated_Source\PSoC4/CyLib.c **** 
1723:Generated_Source\PSoC4/CyLib.c ****         return (returnStatus);
 2429              		.loc 1 1723 0
 2430 00c0 FB69     		ldr	r3, [r7, #28]
1724:Generated_Source\PSoC4/CyLib.c ****     }
 2431              		.loc 1 1724 0
 2432 00c2 1800     		movs	r0, r3
 2433 00c4 BD46     		mov	sp, r7
 2434 00c6 09B0     		add	sp, sp, #36
 2435              		@ sp needed
 2436 00c8 90BD     		pop	{r4, r7, pc}
 2437              	.L154:
 2438 00ca C046     		.align	2
 2439              	.L153:
 2440 00cc 14000C40 		.word	1074528276
 2441 00d0 00C0F8FF 		.word	-475136
 2442              		.cfi_endproc
 2443              	.LFE22:
 2444              		.size	CySysClkPllSetPQ, .-CySysClkPllSetPQ
 2445              		.section	.text.CySysClkPllSetBypassMode,"ax",%progbits
 2446              		.align	2
 2447              		.global	CySysClkPllSetBypassMode
 2448              		.code	16
 2449              		.thumb_func
 2450              		.type	CySysClkPllSetBypassMode, %function
 2451              	CySysClkPllSetBypassMode:
 2452              	.LFB23:
1725:Generated_Source\PSoC4/CyLib.c **** 
1726:Generated_Source\PSoC4/CyLib.c **** 
1727:Generated_Source\PSoC4/CyLib.c ****     /*******************************************************************************
1728:Generated_Source\PSoC4/CyLib.c ****     * Function Name: CySysClkPllSetBypassMode
1729:Generated_Source\PSoC4/CyLib.c ****     ****************************************************************************//**
1730:Generated_Source\PSoC4/CyLib.c ****     *
1731:Generated_Source\PSoC4/CyLib.c ****     * Sets the bypass mode for the specified PLL.
1732:Generated_Source\PSoC4/CyLib.c ****     *
1733:Generated_Source\PSoC4/CyLib.c ****     * The PLL must not be the system clock source when calling this function.
1734:Generated_Source\PSoC4/CyLib.c ****     * The PLL output will glitch during this function call.
1735:Generated_Source\PSoC4/CyLib.c ****     *
1736:Generated_Source\PSoC4/CyLib.c ****     * When the PLL's reference input is higher than HFCLK frequency the device may 
1737:Generated_Source\PSoC4/CyLib.c ****     * lock due to incorrect flash wait cycle configuration and bypass switches from 
1738:Generated_Source\PSoC4/CyLib.c ****     * PLL output to the reference input. See description of 
1739:Generated_Source\PSoC4/CyLib.c ****     * CySysFlashSetWaitCycles() for more information.
1740:Generated_Source\PSoC4/CyLib.c ****     *
1741:Generated_Source\PSoC4/CyLib.c ****     * This API is available only for PSoC 4200L devices.
1742:Generated_Source\PSoC4/CyLib.c ****     *
1743:Generated_Source\PSoC4/CyLib.c ****     * \param PLL:
1744:Generated_Source\PSoC4/CyLib.c ****     *  0   PLL#0
1745:Generated_Source\PSoC4/CyLib.c ****     *  1   PLL#1
1746:Generated_Source\PSoC4/CyLib.c ****     *
ARM GAS  C:\Users\HPz420\AppData\Local\Temp\ccAdodLg.s 			page 75


1747:Generated_Source\PSoC4/CyLib.c ****     * \param bypass: The bypass mode.
1748:Generated_Source\PSoC4/CyLib.c ****     * CY_SYS_PLL_BYPASS_AUTO - Automatic usage of the lock indicator. When unlocked,
1749:Generated_Source\PSoC4/CyLib.c ****     * automatically selects PLL the reference input (bypass mode). When locked,
1750:Generated_Source\PSoC4/CyLib.c ****     * automatically selects the PLL output.
1751:Generated_Source\PSoC4/CyLib.c ****     *
1752:Generated_Source\PSoC4/CyLib.c ****     * CY_SYS_PLL_BYPASS_PLL_REF - Selects the PLL reference input (bypass mode).
1753:Generated_Source\PSoC4/CyLib.c ****     * Ignores the lock indicator.
1754:Generated_Source\PSoC4/CyLib.c ****     *
1755:Generated_Source\PSoC4/CyLib.c ****     * CY_SYS_PLL_BYPASS_PLL_OUT - Selects the PLL output.  Ignores the lock indicator.
1756:Generated_Source\PSoC4/CyLib.c ****     *
1757:Generated_Source\PSoC4/CyLib.c ****     *******************************************************************************/
1758:Generated_Source\PSoC4/CyLib.c ****     void CySysClkPllSetBypassMode(uint32 pll, uint32 bypass)
1759:Generated_Source\PSoC4/CyLib.c ****     {
 2453              		.loc 1 1759 0
 2454              		.cfi_startproc
 2455              		@ args = 0, pretend = 0, frame = 16
 2456              		@ frame_needed = 1, uses_anonymous_args = 0
 2457 0000 90B5     		push	{r4, r7, lr}
 2458              		.cfi_def_cfa_offset 12
 2459              		.cfi_offset 4, -12
 2460              		.cfi_offset 7, -8
 2461              		.cfi_offset 14, -4
 2462 0002 85B0     		sub	sp, sp, #20
 2463              		.cfi_def_cfa_offset 32
 2464 0004 00AF     		add	r7, sp, #0
 2465              		.cfi_def_cfa_register 7
 2466 0006 7860     		str	r0, [r7, #4]
 2467 0008 3960     		str	r1, [r7]
1760:Generated_Source\PSoC4/CyLib.c ****         uint32 regTmp;
1761:Generated_Source\PSoC4/CyLib.c ****         uint8  interruptState;
1762:Generated_Source\PSoC4/CyLib.c **** 
1763:Generated_Source\PSoC4/CyLib.c ****         interruptState = CyEnterCriticalSection();
 2468              		.loc 1 1763 0
 2469 000a 0F23     		movs	r3, #15
 2470 000c FC18     		adds	r4, r7, r3
 2471 000e FFF7FEFF 		bl	CyEnterCriticalSection
 2472 0012 0300     		movs	r3, r0
 2473 0014 2370     		strb	r3, [r4]
1764:Generated_Source\PSoC4/CyLib.c **** 
1765:Generated_Source\PSoC4/CyLib.c ****         if ((pll < CY_IP_PLL_NR) && (bypass <= CY_SYS_PLL_BYPASS_PLL_OUT))
 2474              		.loc 1 1765 0
 2475 0016 7B68     		ldr	r3, [r7, #4]
 2476 0018 012B     		cmp	r3, #1
 2477 001a 19D8     		bhi	.L156
 2478              		.loc 1 1765 0 is_stmt 0 discriminator 1
 2479 001c 3B68     		ldr	r3, [r7]
 2480 001e 032B     		cmp	r3, #3
 2481 0020 16D8     		bhi	.L156
1766:Generated_Source\PSoC4/CyLib.c ****         {
1767:Generated_Source\PSoC4/CyLib.c ****             regTmp  = CY_SYS_CLK_PLL_BASE.pll[pll].config & (uint32) ~CY_SYS_CLK_PLL_CONFIG_BYPASS_
 2482              		.loc 1 1767 0 is_stmt 1
 2483 0022 1049     		ldr	r1, .L157
 2484 0024 7A68     		ldr	r2, [r7, #4]
 2485 0026 1300     		movs	r3, r2
 2486 0028 5B00     		lsls	r3, r3, #1
 2487 002a 9B18     		adds	r3, r3, r2
 2488 002c 9B00     		lsls	r3, r3, #2
ARM GAS  C:\Users\HPz420\AppData\Local\Temp\ccAdodLg.s 			page 76


 2489 002e 5B58     		ldr	r3, [r3, r1]
 2490 0030 0D4A     		ldr	r2, .L157+4
 2491 0032 1340     		ands	r3, r2
 2492 0034 BB60     		str	r3, [r7, #8]
1768:Generated_Source\PSoC4/CyLib.c ****             regTmp |=  (uint32)(bypass << CY_SYS_CLK_PLL_CONFIG_BYPASS_SEL_SHIFT);
 2493              		.loc 1 1768 0
 2494 0036 3B68     		ldr	r3, [r7]
 2495 0038 1B05     		lsls	r3, r3, #20
 2496 003a BA68     		ldr	r2, [r7, #8]
 2497 003c 1343     		orrs	r3, r2
 2498 003e BB60     		str	r3, [r7, #8]
1769:Generated_Source\PSoC4/CyLib.c ****             CY_SYS_CLK_PLL_BASE.pll[pll].config = regTmp;
 2499              		.loc 1 1769 0
 2500 0040 0849     		ldr	r1, .L157
 2501 0042 7A68     		ldr	r2, [r7, #4]
 2502 0044 1300     		movs	r3, r2
 2503 0046 5B00     		lsls	r3, r3, #1
 2504 0048 9B18     		adds	r3, r3, r2
 2505 004a 9B00     		lsls	r3, r3, #2
 2506 004c BA68     		ldr	r2, [r7, #8]
 2507 004e 5A50     		str	r2, [r3, r1]
 2508              	.L156:
1770:Generated_Source\PSoC4/CyLib.c ****         }
1771:Generated_Source\PSoC4/CyLib.c **** 
1772:Generated_Source\PSoC4/CyLib.c ****         CyExitCriticalSection(interruptState);
 2509              		.loc 1 1772 0
 2510 0050 0F23     		movs	r3, #15
 2511 0052 FB18     		adds	r3, r7, r3
 2512 0054 1B78     		ldrb	r3, [r3]
 2513 0056 1800     		movs	r0, r3
 2514 0058 FFF7FEFF 		bl	CyExitCriticalSection
1773:Generated_Source\PSoC4/CyLib.c ****     }
 2515              		.loc 1 1773 0
 2516 005c C046     		nop
 2517 005e BD46     		mov	sp, r7
 2518 0060 05B0     		add	sp, sp, #20
 2519              		@ sp needed
 2520 0062 90BD     		pop	{r4, r7, pc}
 2521              	.L158:
 2522              		.align	2
 2523              	.L157:
 2524 0064 14000C40 		.word	1074528276
 2525 0068 FFFFCFFF 		.word	-3145729
 2526              		.cfi_endproc
 2527              	.LFE23:
 2528              		.size	CySysClkPllSetBypassMode, .-CySysClkPllSetBypassMode
 2529              		.section	.text.CySysClkPllGetBypassMode,"ax",%progbits
 2530              		.align	2
 2531              		.code	16
 2532              		.thumb_func
 2533              		.type	CySysClkPllGetBypassMode, %function
 2534              	CySysClkPllGetBypassMode:
 2535              	.LFB24:
1774:Generated_Source\PSoC4/CyLib.c **** 
1775:Generated_Source\PSoC4/CyLib.c **** 
1776:Generated_Source\PSoC4/CyLib.c ****     /*******************************************************************************
1777:Generated_Source\PSoC4/CyLib.c ****     * Function Name: CySysClkPllGetBypassMode
ARM GAS  C:\Users\HPz420\AppData\Local\Temp\ccAdodLg.s 			page 77


1778:Generated_Source\PSoC4/CyLib.c ****     ****************************************************************************//**
1779:Generated_Source\PSoC4/CyLib.c ****     *
1780:Generated_Source\PSoC4/CyLib.c ****     *  Gets the bypass mode for the specified PLL.
1781:Generated_Source\PSoC4/CyLib.c ****     *  This API is available only for PSoC 4200L devices.
1782:Generated_Source\PSoC4/CyLib.c ****     *
1783:Generated_Source\PSoC4/CyLib.c ****     *  \param PLL:
1784:Generated_Source\PSoC4/CyLib.c ****     *   0   PLL#0
1785:Generated_Source\PSoC4/CyLib.c ****     *   1   PLL#1
1786:Generated_Source\PSoC4/CyLib.c ****     *
1787:Generated_Source\PSoC4/CyLib.c ****     *  \param bypass: Bypass mode.
1788:Generated_Source\PSoC4/CyLib.c ****     *   The same as the parameter of the CySysClkPllSetBypassMode().
1789:Generated_Source\PSoC4/CyLib.c ****     *
1790:Generated_Source\PSoC4/CyLib.c ****     *******************************************************************************/
1791:Generated_Source\PSoC4/CyLib.c ****     static uint32 CySysClkPllGetBypassMode(uint32 pll)
1792:Generated_Source\PSoC4/CyLib.c ****     {
 2536              		.loc 1 1792 0
 2537              		.cfi_startproc
 2538              		@ args = 0, pretend = 0, frame = 16
 2539              		@ frame_needed = 1, uses_anonymous_args = 0
 2540 0000 90B5     		push	{r4, r7, lr}
 2541              		.cfi_def_cfa_offset 12
 2542              		.cfi_offset 4, -12
 2543              		.cfi_offset 7, -8
 2544              		.cfi_offset 14, -4
 2545 0002 85B0     		sub	sp, sp, #20
 2546              		.cfi_def_cfa_offset 32
 2547 0004 00AF     		add	r7, sp, #0
 2548              		.cfi_def_cfa_register 7
 2549 0006 7860     		str	r0, [r7, #4]
1793:Generated_Source\PSoC4/CyLib.c ****         uint32 returnValue;
1794:Generated_Source\PSoC4/CyLib.c ****         uint8  interruptState;
1795:Generated_Source\PSoC4/CyLib.c **** 
1796:Generated_Source\PSoC4/CyLib.c ****         CYASSERT(pll < CY_IP_PLL_NR);
 2550              		.loc 1 1796 0
 2551 0008 7B68     		ldr	r3, [r7, #4]
 2552 000a 012B     		cmp	r3, #1
 2553 000c 02D9     		bls	.L160
 2554              		.loc 1 1796 0 is_stmt 0 discriminator 1
 2555 000e 0020     		movs	r0, #0
 2556 0010 FFF7FEFF 		bl	CyHalt
 2557              	.L160:
1797:Generated_Source\PSoC4/CyLib.c **** 
1798:Generated_Source\PSoC4/CyLib.c ****         interruptState = CyEnterCriticalSection();
 2558              		.loc 1 1798 0 is_stmt 1
 2559 0014 0F23     		movs	r3, #15
 2560 0016 FC18     		adds	r4, r7, r3
 2561 0018 FFF7FEFF 		bl	CyEnterCriticalSection
 2562 001c 0300     		movs	r3, r0
 2563 001e 2370     		strb	r3, [r4]
1799:Generated_Source\PSoC4/CyLib.c **** 
1800:Generated_Source\PSoC4/CyLib.c ****         returnValue = CY_SYS_CLK_PLL_BASE.pll[pll].config & CY_SYS_CLK_PLL_CONFIG_BYPASS_SEL_MASK;
 2564              		.loc 1 1800 0
 2565 0020 0C49     		ldr	r1, .L162
 2566 0022 7A68     		ldr	r2, [r7, #4]
 2567 0024 1300     		movs	r3, r2
 2568 0026 5B00     		lsls	r3, r3, #1
 2569 0028 9B18     		adds	r3, r3, r2
ARM GAS  C:\Users\HPz420\AppData\Local\Temp\ccAdodLg.s 			page 78


 2570 002a 9B00     		lsls	r3, r3, #2
 2571 002c 5A58     		ldr	r2, [r3, r1]
 2572 002e C023     		movs	r3, #192
