ARM GAS  C:\Users\HPz420\AppData\Local\Temp\ccLsOs1V.s 			page 1


   1              		.syntax unified
   2              		.cpu cortex-m0
   3              		.fpu softvfp
   4              		.eabi_attribute 20, 1
   5              		.eabi_attribute 21, 1
   6              		.eabi_attribute 23, 3
   7              		.eabi_attribute 24, 1
   8              		.eabi_attribute 25, 1
   9              		.eabi_attribute 26, 1
  10              		.eabi_attribute 30, 6
  11              		.eabi_attribute 34, 0
  12              		.eabi_attribute 18, 4
  13              		.thumb
  14              		.syntax unified
  15              		.file	"USBUART_hid.c"
  16              		.text
  17              	.Ltext0:
  18              		.cfi_sections	.debug_frame
  19              		.comm	USBUART_hidProtocol,2,4
  20              		.comm	USBUART_hidIdleRate,2,4
  21              		.comm	USBUART_hidIdleTimer,2,4
  22              		.section	.text.USBUART_UpdateHIDTimer,"ax",%progbits
  23              		.align	2
  24              		.global	USBUART_UpdateHIDTimer
  25              		.code	16
  26              		.thumb_func
  27              		.type	USBUART_UpdateHIDTimer, %function
  28              	USBUART_UpdateHIDTimer:
  29              	.LFB1:
  30              		.file 1 "Generated_Source\\PSoC4\\USBUART_hid.c"
   1:Generated_Source\PSoC4/USBUART_hid.c **** /***************************************************************************//**
   2:Generated_Source\PSoC4/USBUART_hid.c **** * \file USBUART_hid.c
   3:Generated_Source\PSoC4/USBUART_hid.c **** * \version 3.10
   4:Generated_Source\PSoC4/USBUART_hid.c **** *
   5:Generated_Source\PSoC4/USBUART_hid.c **** * \brief
   6:Generated_Source\PSoC4/USBUART_hid.c **** *  This file contains the USB HID Class request handler. 
   7:Generated_Source\PSoC4/USBUART_hid.c **** *
   8:Generated_Source\PSoC4/USBUART_hid.c **** * Related Document:
   9:Generated_Source\PSoC4/USBUART_hid.c **** *  Device Class Definition for Human Interface Devices (HID) Version 1.11
  10:Generated_Source\PSoC4/USBUART_hid.c **** *
  11:Generated_Source\PSoC4/USBUART_hid.c **** ********************************************************************************
  12:Generated_Source\PSoC4/USBUART_hid.c **** * \copyright
  13:Generated_Source\PSoC4/USBUART_hid.c **** * Copyright 2008-2016, Cypress Semiconductor Corporation.  All rights reserved.
  14:Generated_Source\PSoC4/USBUART_hid.c **** * You may use this file only in accordance with the license, terms, conditions,
  15:Generated_Source\PSoC4/USBUART_hid.c **** * disclaimers, and limitations in the end user license agreement accompanying
  16:Generated_Source\PSoC4/USBUART_hid.c **** * the software package with which this file was provided.
  17:Generated_Source\PSoC4/USBUART_hid.c **** *******************************************************************************/
  18:Generated_Source\PSoC4/USBUART_hid.c **** 
  19:Generated_Source\PSoC4/USBUART_hid.c **** #include "USBUART_hid.h"
  20:Generated_Source\PSoC4/USBUART_hid.c **** #include "USBUART_pvt.h"
  21:Generated_Source\PSoC4/USBUART_hid.c **** #include "cyapicallbacks.h"
  22:Generated_Source\PSoC4/USBUART_hid.c **** 
  23:Generated_Source\PSoC4/USBUART_hid.c **** 
  24:Generated_Source\PSoC4/USBUART_hid.c **** #if defined(USBUART_ENABLE_HID_CLASS)
  25:Generated_Source\PSoC4/USBUART_hid.c **** 
  26:Generated_Source\PSoC4/USBUART_hid.c **** /***************************************
  27:Generated_Source\PSoC4/USBUART_hid.c **** *    HID Variables
ARM GAS  C:\Users\HPz420\AppData\Local\Temp\ccLsOs1V.s 			page 2


  28:Generated_Source\PSoC4/USBUART_hid.c **** ***************************************/
  29:Generated_Source\PSoC4/USBUART_hid.c **** /** This variable is initialized in the USBFS_InitComponent() API to the 
  30:Generated_Source\PSoC4/USBUART_hid.c ****  * PROTOCOL_REPORT value. It is controlled by the host using the 
  31:Generated_Source\PSoC4/USBUART_hid.c ****  * HID_SET_PROTOCOL request. The value is returned to the user code by the 
  32:Generated_Source\PSoC4/USBUART_hid.c ****  * USBFS_GetProtocol() API.*/
  33:Generated_Source\PSoC4/USBUART_hid.c **** volatile uint8 USBUART_hidProtocol[USBUART_MAX_INTERFACES_NUMBER];
  34:Generated_Source\PSoC4/USBUART_hid.c **** 
  35:Generated_Source\PSoC4/USBUART_hid.c **** /** This variable controls the HID report rate. It is controlled by the host 
  36:Generated_Source\PSoC4/USBUART_hid.c ****  * using the HID_SET_IDLE request and used by the USBFS_UpdateHIDTimer() API to 
  37:Generated_Source\PSoC4/USBUART_hid.c ****  * reload timer.*/
  38:Generated_Source\PSoC4/USBUART_hid.c **** volatile uint8 USBUART_hidIdleRate[USBUART_MAX_INTERFACES_NUMBER];
  39:Generated_Source\PSoC4/USBUART_hid.c **** 
  40:Generated_Source\PSoC4/USBUART_hid.c **** /** This variable contains the timer counter, which is decremented and reloaded 
  41:Generated_Source\PSoC4/USBUART_hid.c ****  * by the USBFS_UpdateHIDTimer() API.*/
  42:Generated_Source\PSoC4/USBUART_hid.c **** volatile uint8 USBUART_hidIdleTimer[USBUART_MAX_INTERFACES_NUMBER]; /* HID device idle rate value *
  43:Generated_Source\PSoC4/USBUART_hid.c **** 
  44:Generated_Source\PSoC4/USBUART_hid.c **** 
  45:Generated_Source\PSoC4/USBUART_hid.c **** /***************************************
  46:Generated_Source\PSoC4/USBUART_hid.c **** * Custom Declarations
  47:Generated_Source\PSoC4/USBUART_hid.c **** ***************************************/
  48:Generated_Source\PSoC4/USBUART_hid.c **** 
  49:Generated_Source\PSoC4/USBUART_hid.c **** /* `#START HID_CUSTOM_DECLARATIONS` Place your declaration here */
  50:Generated_Source\PSoC4/USBUART_hid.c **** 
  51:Generated_Source\PSoC4/USBUART_hid.c **** /* `#END` */
  52:Generated_Source\PSoC4/USBUART_hid.c **** 
  53:Generated_Source\PSoC4/USBUART_hid.c **** 
  54:Generated_Source\PSoC4/USBUART_hid.c **** /*******************************************************************************
  55:Generated_Source\PSoC4/USBUART_hid.c **** * Function Name: USBUART_UpdateHIDTimer
  56:Generated_Source\PSoC4/USBUART_hid.c **** ****************************************************************************//**
  57:Generated_Source\PSoC4/USBUART_hid.c **** *
  58:Generated_Source\PSoC4/USBUART_hid.c **** *  This function updates the HID Report idle timer and returns the status and 
  59:Generated_Source\PSoC4/USBUART_hid.c **** *  reloads the timer if it expires.
  60:Generated_Source\PSoC4/USBUART_hid.c **** *
  61:Generated_Source\PSoC4/USBUART_hid.c **** *  \param interface Contains the interface number.
  62:Generated_Source\PSoC4/USBUART_hid.c **** *
  63:Generated_Source\PSoC4/USBUART_hid.c **** * \return
  64:Generated_Source\PSoC4/USBUART_hid.c **** *  Returns the state of the HID timer. Symbolic names and their associated values are given here:
  65:Generated_Source\PSoC4/USBUART_hid.c **** *  Return Value               |Notes
  66:Generated_Source\PSoC4/USBUART_hid.c **** *  ---------------------------|------------------------------------------------
  67:Generated_Source\PSoC4/USBUART_hid.c **** *  USBFS_IDLE_TIMER_EXPIRED   | The timer expired.
  68:Generated_Source\PSoC4/USBUART_hid.c **** *  USBFS_IDLE_TIMER_RUNNING   | The timer is running.
  69:Generated_Source\PSoC4/USBUART_hid.c **** *  USBFS_IDLE_TIMER_IDEFINITE | The report is sent when data or state changes.
  70:Generated_Source\PSoC4/USBUART_hid.c **** *
  71:Generated_Source\PSoC4/USBUART_hid.c **** *
  72:Generated_Source\PSoC4/USBUART_hid.c **** * \reentrant
  73:Generated_Source\PSoC4/USBUART_hid.c **** *  No.
  74:Generated_Source\PSoC4/USBUART_hid.c **** *
  75:Generated_Source\PSoC4/USBUART_hid.c **** *******************************************************************************/
  76:Generated_Source\PSoC4/USBUART_hid.c **** uint8 USBUART_UpdateHIDTimer(uint8 interface) 
  77:Generated_Source\PSoC4/USBUART_hid.c **** {
  31              		.loc 1 77 0
  32              		.cfi_startproc
  33              		@ args = 0, pretend = 0, frame = 16
  34              		@ frame_needed = 1, uses_anonymous_args = 0
  35 0000 80B5     		push	{r7, lr}
  36              		.cfi_def_cfa_offset 8
  37              		.cfi_offset 7, -8
ARM GAS  C:\Users\HPz420\AppData\Local\Temp\ccLsOs1V.s 			page 3


  38              		.cfi_offset 14, -4
  39 0002 84B0     		sub	sp, sp, #16
  40              		.cfi_def_cfa_offset 24
  41 0004 00AF     		add	r7, sp, #0
  42              		.cfi_def_cfa_register 7
  43 0006 0200     		movs	r2, r0
  44 0008 FB1D     		adds	r3, r7, #7
  45 000a 1A70     		strb	r2, [r3]
  78:Generated_Source\PSoC4/USBUART_hid.c ****     uint8 stat = USBUART_IDLE_TIMER_INDEFINITE;
  46              		.loc 1 78 0
  47 000c 0F23     		movs	r3, #15
  48 000e FB18     		adds	r3, r7, r3
  49 0010 0022     		movs	r2, #0
  50 0012 1A70     		strb	r2, [r3]
  79:Generated_Source\PSoC4/USBUART_hid.c **** 
  80:Generated_Source\PSoC4/USBUART_hid.c ****     if(USBUART_hidIdleRate[interface] != 0u)
  51              		.loc 1 80 0
  52 0014 FB1D     		adds	r3, r7, #7
  53 0016 1B78     		ldrb	r3, [r3]
  54 0018 164A     		ldr	r2, .L5
  55 001a D35C     		ldrb	r3, [r2, r3]
  56 001c DBB2     		uxtb	r3, r3
  57 001e 002B     		cmp	r3, #0
  58 0020 21D0     		beq	.L2
  81:Generated_Source\PSoC4/USBUART_hid.c ****     {
  82:Generated_Source\PSoC4/USBUART_hid.c ****         if(USBUART_hidIdleTimer[interface] > 0u)
  59              		.loc 1 82 0
  60 0022 FB1D     		adds	r3, r7, #7
  61 0024 1B78     		ldrb	r3, [r3]
  62 0026 144A     		ldr	r2, .L5+4
  63 0028 D35C     		ldrb	r3, [r2, r3]
  64 002a DBB2     		uxtb	r3, r3
  65 002c 002B     		cmp	r3, #0
  66 002e 0DD0     		beq	.L3
  83:Generated_Source\PSoC4/USBUART_hid.c ****         {
  84:Generated_Source\PSoC4/USBUART_hid.c ****             USBUART_hidIdleTimer[interface]--;
  67              		.loc 1 84 0
  68 0030 FB1D     		adds	r3, r7, #7
  69 0032 1B78     		ldrb	r3, [r3]
  70 0034 104A     		ldr	r2, .L5+4
  71 0036 D25C     		ldrb	r2, [r2, r3]
  72 0038 D2B2     		uxtb	r2, r2
  73 003a 013A     		subs	r2, r2, #1
  74 003c D1B2     		uxtb	r1, r2
  75 003e 0E4A     		ldr	r2, .L5+4
  76 0040 D154     		strb	r1, [r2, r3]
  85:Generated_Source\PSoC4/USBUART_hid.c ****             stat = USBUART_IDLE_TIMER_RUNNING;
  77              		.loc 1 85 0
  78 0042 0F23     		movs	r3, #15
  79 0044 FB18     		adds	r3, r7, r3
  80 0046 0222     		movs	r2, #2
  81 0048 1A70     		strb	r2, [r3]
  82 004a 0CE0     		b	.L2
  83              	.L3:
  86:Generated_Source\PSoC4/USBUART_hid.c ****         }
  87:Generated_Source\PSoC4/USBUART_hid.c ****         else
  88:Generated_Source\PSoC4/USBUART_hid.c ****         {
ARM GAS  C:\Users\HPz420\AppData\Local\Temp\ccLsOs1V.s 			page 4


  89:Generated_Source\PSoC4/USBUART_hid.c ****             USBUART_hidIdleTimer[interface] = USBUART_hidIdleRate[interface];
  84              		.loc 1 89 0
  85 004c FB1D     		adds	r3, r7, #7
  86 004e 1B78     		ldrb	r3, [r3]
  87 0050 FA1D     		adds	r2, r7, #7
  88 0052 1278     		ldrb	r2, [r2]
  89 0054 0749     		ldr	r1, .L5
  90 0056 8A5C     		ldrb	r2, [r1, r2]
  91 0058 D1B2     		uxtb	r1, r2
  92 005a 074A     		ldr	r2, .L5+4
  93 005c D154     		strb	r1, [r2, r3]
  90:Generated_Source\PSoC4/USBUART_hid.c ****             stat = USBUART_IDLE_TIMER_EXPIRED;
  94              		.loc 1 90 0
  95 005e 0F23     		movs	r3, #15
  96 0060 FB18     		adds	r3, r7, r3
  97 0062 0122     		movs	r2, #1
  98 0064 1A70     		strb	r2, [r3]
  99              	.L2:
  91:Generated_Source\PSoC4/USBUART_hid.c ****         }
  92:Generated_Source\PSoC4/USBUART_hid.c ****     }
  93:Generated_Source\PSoC4/USBUART_hid.c **** 
  94:Generated_Source\PSoC4/USBUART_hid.c ****     return((uint8)stat);
 100              		.loc 1 94 0
 101 0066 0F23     		movs	r3, #15
 102 0068 FB18     		adds	r3, r7, r3
 103 006a 1B78     		ldrb	r3, [r3]
  95:Generated_Source\PSoC4/USBUART_hid.c **** }
 104              		.loc 1 95 0
 105 006c 1800     		movs	r0, r3
 106 006e BD46     		mov	sp, r7
 107 0070 04B0     		add	sp, sp, #16
 108              		@ sp needed
 109 0072 80BD     		pop	{r7, pc}
 110              	.L6:
 111              		.align	2
 112              	.L5:
 113 0074 00000000 		.word	USBUART_hidIdleRate
 114 0078 00000000 		.word	USBUART_hidIdleTimer
 115              		.cfi_endproc
 116              	.LFE1:
 117              		.size	USBUART_UpdateHIDTimer, .-USBUART_UpdateHIDTimer
 118              		.section	.text.USBUART_GetProtocol,"ax",%progbits
 119              		.align	2
 120              		.global	USBUART_GetProtocol
 121              		.code	16
 122              		.thumb_func
 123              		.type	USBUART_GetProtocol, %function
 124              	USBUART_GetProtocol:
 125              	.LFB2:
  96:Generated_Source\PSoC4/USBUART_hid.c **** 
  97:Generated_Source\PSoC4/USBUART_hid.c **** 
  98:Generated_Source\PSoC4/USBUART_hid.c **** /*******************************************************************************
  99:Generated_Source\PSoC4/USBUART_hid.c **** * Function Name: USBUART_GetProtocol
 100:Generated_Source\PSoC4/USBUART_hid.c **** ****************************************************************************//**
 101:Generated_Source\PSoC4/USBUART_hid.c **** *
 102:Generated_Source\PSoC4/USBUART_hid.c **** *  This function returns the HID protocol value for the selected interface.
 103:Generated_Source\PSoC4/USBUART_hid.c **** *
ARM GAS  C:\Users\HPz420\AppData\Local\Temp\ccLsOs1V.s 			page 5


 104:Generated_Source\PSoC4/USBUART_hid.c **** *  \param interface:  Contains the interface number.
 105:Generated_Source\PSoC4/USBUART_hid.c **** *
 106:Generated_Source\PSoC4/USBUART_hid.c **** *  \return
 107:Generated_Source\PSoC4/USBUART_hid.c **** *  Returns the protocol value. 
 108:Generated_Source\PSoC4/USBUART_hid.c **** *
 109:Generated_Source\PSoC4/USBUART_hid.c **** *******************************************************************************/
 110:Generated_Source\PSoC4/USBUART_hid.c **** uint8 USBUART_GetProtocol(uint8 interface) 
 111:Generated_Source\PSoC4/USBUART_hid.c **** {
 126              		.loc 1 111 0
 127              		.cfi_startproc
 128              		@ args = 0, pretend = 0, frame = 8
 129              		@ frame_needed = 1, uses_anonymous_args = 0
 130 0000 80B5     		push	{r7, lr}
 131              		.cfi_def_cfa_offset 8
 132              		.cfi_offset 7, -8
 133              		.cfi_offset 14, -4
 134 0002 82B0     		sub	sp, sp, #8
 135              		.cfi_def_cfa_offset 16
 136 0004 00AF     		add	r7, sp, #0
 137              		.cfi_def_cfa_register 7
 138 0006 0200     		movs	r2, r0
 139 0008 FB1D     		adds	r3, r7, #7
 140 000a 1A70     		strb	r2, [r3]
 112:Generated_Source\PSoC4/USBUART_hid.c ****     return(USBUART_hidProtocol[interface]);
 141              		.loc 1 112 0
 142 000c FB1D     		adds	r3, r7, #7
 143 000e 1B78     		ldrb	r3, [r3]
 144 0010 034A     		ldr	r2, .L9
 145 0012 D35C     		ldrb	r3, [r2, r3]
 146 0014 DBB2     		uxtb	r3, r3
 113:Generated_Source\PSoC4/USBUART_hid.c **** }
 147              		.loc 1 113 0
 148 0016 1800     		movs	r0, r3
 149 0018 BD46     		mov	sp, r7
 150 001a 02B0     		add	sp, sp, #8
 151              		@ sp needed
 152 001c 80BD     		pop	{r7, pc}
 153              	.L10:
 154 001e C046     		.align	2
 155              	.L9:
 156 0020 00000000 		.word	USBUART_hidProtocol
 157              		.cfi_endproc
 158              	.LFE2:
 159              		.size	USBUART_GetProtocol, .-USBUART_GetProtocol
 160              		.section	.text.USBUART_DispatchHIDClassRqst,"ax",%progbits
 161              		.align	2
 162              		.global	USBUART_DispatchHIDClassRqst
 163              		.code	16
 164              		.thumb_func
 165              		.type	USBUART_DispatchHIDClassRqst, %function
 166              	USBUART_DispatchHIDClassRqst:
 167              	.LFB3:
 114:Generated_Source\PSoC4/USBUART_hid.c **** 
 115:Generated_Source\PSoC4/USBUART_hid.c **** 
 116:Generated_Source\PSoC4/USBUART_hid.c **** /*******************************************************************************
 117:Generated_Source\PSoC4/USBUART_hid.c **** * Function Name: USBUART_DispatchHIDClassRqst
 118:Generated_Source\PSoC4/USBUART_hid.c **** ****************************************************************************//**
ARM GAS  C:\Users\HPz420\AppData\Local\Temp\ccLsOs1V.s 			page 6


 119:Generated_Source\PSoC4/USBUART_hid.c **** *
 120:Generated_Source\PSoC4/USBUART_hid.c **** *  This routine dispatches class requests
 121:Generated_Source\PSoC4/USBUART_hid.c **** *
 122:Generated_Source\PSoC4/USBUART_hid.c **** * \return
 123:Generated_Source\PSoC4/USBUART_hid.c **** *  Results of HID Class request handling: 
 124:Generated_Source\PSoC4/USBUART_hid.c **** *  - USBUART_TRUE  - request was handled without errors
 125:Generated_Source\PSoC4/USBUART_hid.c **** *  - USBUART_FALSE - error occurs during handling of request  
 126:Generated_Source\PSoC4/USBUART_hid.c **** *
 127:Generated_Source\PSoC4/USBUART_hid.c **** * \reentrant
 128:Generated_Source\PSoC4/USBUART_hid.c **** *  No.
 129:Generated_Source\PSoC4/USBUART_hid.c **** *
 130:Generated_Source\PSoC4/USBUART_hid.c **** *******************************************************************************/
 131:Generated_Source\PSoC4/USBUART_hid.c **** uint8 USBUART_DispatchHIDClassRqst(void) 
 132:Generated_Source\PSoC4/USBUART_hid.c **** {
 168              		.loc 1 132 0
 169              		.cfi_startproc
 170              		@ args = 0, pretend = 0, frame = 8
 171              		@ frame_needed = 1, uses_anonymous_args = 0
 172 0000 90B5     		push	{r4, r7, lr}
 173              		.cfi_def_cfa_offset 12
 174              		.cfi_offset 4, -12
 175              		.cfi_offset 7, -8
 176              		.cfi_offset 14, -4
 177 0002 83B0     		sub	sp, sp, #12
 178              		.cfi_def_cfa_offset 24
 179 0004 00AF     		add	r7, sp, #0
 180              		.cfi_def_cfa_register 7
 133:Generated_Source\PSoC4/USBUART_hid.c ****     uint8 requestHandled = USBUART_FALSE;
 181              		.loc 1 133 0
 182 0006 FB1D     		adds	r3, r7, #7
 183 0008 0022     		movs	r2, #0
 184 000a 1A70     		strb	r2, [r3]
 134:Generated_Source\PSoC4/USBUART_hid.c **** 
 135:Generated_Source\PSoC4/USBUART_hid.c ****     uint8 interfaceNumber = (uint8) USBUART_wIndexLoReg;
 185              		.loc 1 135 0
 186 000c 754B     		ldr	r3, .L45
 187 000e 1A69     		ldr	r2, [r3, #16]
 188 0010 BB1D     		adds	r3, r7, #6
 189 0012 1A70     		strb	r2, [r3]
 136:Generated_Source\PSoC4/USBUART_hid.c ****     
 137:Generated_Source\PSoC4/USBUART_hid.c ****     /* Check request direction: D2H or H2D. */
 138:Generated_Source\PSoC4/USBUART_hid.c ****     if (0u != (USBUART_bmRequestTypeReg & USBUART_RQST_DIR_D2H))
 190              		.loc 1 138 0
 191 0014 734B     		ldr	r3, .L45
 192 0016 1B68     		ldr	r3, [r3]
 193 0018 8022     		movs	r2, #128
 194 001a 1340     		ands	r3, r2
 195 001c 00D1     		bne	.LCB150
 196 001e 6CE0     		b	.L12	@long jump
 197              	.LCB150:
 139:Generated_Source\PSoC4/USBUART_hid.c ****     {
 140:Generated_Source\PSoC4/USBUART_hid.c ****         /* Handle direction from device to host. */
 141:Generated_Source\PSoC4/USBUART_hid.c ****         
 142:Generated_Source\PSoC4/USBUART_hid.c ****         switch (USBUART_bRequestReg)
 198              		.loc 1 142 0
 199 0020 704B     		ldr	r3, .L45
 200 0022 5B68     		ldr	r3, [r3, #4]
ARM GAS  C:\Users\HPz420\AppData\Local\Temp\ccLsOs1V.s 			page 7


 201 0024 022B     		cmp	r3, #2
 202 0026 3BD0     		beq	.L14
 203 0028 02D8     		bhi	.L15
 204 002a 012B     		cmp	r3, #1
 205 002c 2AD0     		beq	.L16
 143:Generated_Source\PSoC4/USBUART_hid.c ****         {
 144:Generated_Source\PSoC4/USBUART_hid.c ****             case USBUART_GET_DESCRIPTOR:
 145:Generated_Source\PSoC4/USBUART_hid.c ****                 if (USBUART_wValueHiReg == USBUART_DESCR_HID_CLASS)
 146:Generated_Source\PSoC4/USBUART_hid.c ****                 {
 147:Generated_Source\PSoC4/USBUART_hid.c ****                     USBUART_FindHidClassDecriptor();
 148:Generated_Source\PSoC4/USBUART_hid.c ****                     if (USBUART_currentTD.count != 0u)
 149:Generated_Source\PSoC4/USBUART_hid.c ****                     {
 150:Generated_Source\PSoC4/USBUART_hid.c ****                         requestHandled = USBUART_InitControlRead();
 151:Generated_Source\PSoC4/USBUART_hid.c ****                     }
 152:Generated_Source\PSoC4/USBUART_hid.c ****                 }
 153:Generated_Source\PSoC4/USBUART_hid.c ****                 else if (USBUART_wValueHiReg == USBUART_DESCR_HID_REPORT)
 154:Generated_Source\PSoC4/USBUART_hid.c ****                 {
 155:Generated_Source\PSoC4/USBUART_hid.c ****                     USBUART_FindReportDescriptor();
 156:Generated_Source\PSoC4/USBUART_hid.c ****                     if (USBUART_currentTD.count != 0u)
 157:Generated_Source\PSoC4/USBUART_hid.c ****                     {
 158:Generated_Source\PSoC4/USBUART_hid.c ****                         requestHandled = USBUART_InitControlRead();
 159:Generated_Source\PSoC4/USBUART_hid.c ****                     }
 160:Generated_Source\PSoC4/USBUART_hid.c ****                 }
 161:Generated_Source\PSoC4/USBUART_hid.c ****                 else
 162:Generated_Source\PSoC4/USBUART_hid.c ****                 {   
 163:Generated_Source\PSoC4/USBUART_hid.c ****                     /* Do not handle this request. */
 164:Generated_Source\PSoC4/USBUART_hid.c ****                 }
 165:Generated_Source\PSoC4/USBUART_hid.c ****                 break;
 166:Generated_Source\PSoC4/USBUART_hid.c ****                 
 167:Generated_Source\PSoC4/USBUART_hid.c ****             case USBUART_HID_GET_REPORT:
 168:Generated_Source\PSoC4/USBUART_hid.c ****                 USBUART_FindReport();
 169:Generated_Source\PSoC4/USBUART_hid.c ****                 if (USBUART_currentTD.count != 0u)
 170:Generated_Source\PSoC4/USBUART_hid.c ****                 {
 171:Generated_Source\PSoC4/USBUART_hid.c ****                     requestHandled = USBUART_InitControlRead();
 172:Generated_Source\PSoC4/USBUART_hid.c ****                 }
 173:Generated_Source\PSoC4/USBUART_hid.c ****                 break;
 174:Generated_Source\PSoC4/USBUART_hid.c **** 
 175:Generated_Source\PSoC4/USBUART_hid.c ****             case USBUART_HID_GET_IDLE:
 176:Generated_Source\PSoC4/USBUART_hid.c ****                 /* This function does not support multiple reports per interface*/
 177:Generated_Source\PSoC4/USBUART_hid.c ****                 /* Validate interfaceNumber and Report ID (should be 0): Do not support Idle per Re
 178:Generated_Source\PSoC4/USBUART_hid.c ****                 if ((interfaceNumber < USBUART_MAX_INTERFACES_NUMBER) && (USBUART_wValueLoReg == 0u
 179:Generated_Source\PSoC4/USBUART_hid.c ****                 {
 180:Generated_Source\PSoC4/USBUART_hid.c ****                     USBUART_currentTD.count = 1u;
 181:Generated_Source\PSoC4/USBUART_hid.c ****                     USBUART_currentTD.pData = &USBUART_hidIdleRate[interfaceNumber];
 182:Generated_Source\PSoC4/USBUART_hid.c ****                     requestHandled  = USBUART_InitControlRead();
 183:Generated_Source\PSoC4/USBUART_hid.c ****                 }
 184:Generated_Source\PSoC4/USBUART_hid.c ****                 break;
 185:Generated_Source\PSoC4/USBUART_hid.c ****                 
 186:Generated_Source\PSoC4/USBUART_hid.c ****             case USBUART_HID_GET_PROTOCOL:
 187:Generated_Source\PSoC4/USBUART_hid.c ****                 /* Validate interfaceNumber */
 188:Generated_Source\PSoC4/USBUART_hid.c ****                 if( interfaceNumber < USBUART_MAX_INTERFACES_NUMBER)
 189:Generated_Source\PSoC4/USBUART_hid.c ****                 {
 190:Generated_Source\PSoC4/USBUART_hid.c ****                     USBUART_currentTD.count = 1u;
 191:Generated_Source\PSoC4/USBUART_hid.c ****                     USBUART_currentTD.pData = &USBUART_hidProtocol[interfaceNumber];
 192:Generated_Source\PSoC4/USBUART_hid.c ****                     requestHandled  = USBUART_InitControlRead();
 193:Generated_Source\PSoC4/USBUART_hid.c ****                 }
 194:Generated_Source\PSoC4/USBUART_hid.c ****                 break;
ARM GAS  C:\Users\HPz420\AppData\Local\Temp\ccLsOs1V.s 			page 8


 195:Generated_Source\PSoC4/USBUART_hid.c ****                 
 196:Generated_Source\PSoC4/USBUART_hid.c ****             default:    /* requestHandled is initialized as FALSE by default */
 197:Generated_Source\PSoC4/USBUART_hid.c ****                 break;
 206              		.loc 1 197 0
 207 002e D3E0     		b	.L27
 208              	.L15:
 142:Generated_Source\PSoC4/USBUART_hid.c ****         {
 209              		.loc 1 142 0
 210 0030 032B     		cmp	r3, #3
 211 0032 4ED0     		beq	.L17
 212 0034 062B     		cmp	r3, #6
 213 0036 00D0     		beq	.L18
 214              		.loc 1 197 0
 215 0038 CEE0     		b	.L27
 216              	.L18:
 145:Generated_Source\PSoC4/USBUART_hid.c ****                 {
 217              		.loc 1 145 0
 218 003a 6A4B     		ldr	r3, .L45
 219 003c DB68     		ldr	r3, [r3, #12]
 220 003e 212B     		cmp	r3, #33
 221 0040 0DD1     		bne	.L19
 147:Generated_Source\PSoC4/USBUART_hid.c ****                     if (USBUART_currentTD.count != 0u)
 222              		.loc 1 147 0
 223 0042 FFF7FEFF 		bl	USBUART_FindHidClassDecriptor
 148:Generated_Source\PSoC4/USBUART_hid.c ****                     {
 224              		.loc 1 148 0
 225 0046 684B     		ldr	r3, .L45+4
 226 0048 1B88     		ldrh	r3, [r3]
 227 004a 9BB2     		uxth	r3, r3
 228 004c 002B     		cmp	r3, #0
 229 004e 00D1     		bne	.LCB180
 230 0050 B5E0     		b	.L38	@long jump
 231              	.LCB180:
 150:Generated_Source\PSoC4/USBUART_hid.c ****                     }
 232              		.loc 1 150 0
 233 0052 FC1D     		adds	r4, r7, #7
 234 0054 FFF7FEFF 		bl	USBUART_InitControlRead
 235 0058 0300     		movs	r3, r0
 236 005a 2370     		strb	r3, [r4]
 165:Generated_Source\PSoC4/USBUART_hid.c ****                 
 237              		.loc 1 165 0
 238 005c AFE0     		b	.L38
 239              	.L19:
 153:Generated_Source\PSoC4/USBUART_hid.c ****                 {
 240              		.loc 1 153 0
 241 005e 614B     		ldr	r3, .L45
 242 0060 DB68     		ldr	r3, [r3, #12]
 243 0062 222B     		cmp	r3, #34
 244 0064 00D0     		beq	.LCB192
 245 0066 AAE0     		b	.L38	@long jump
 246              	.LCB192:
 155:Generated_Source\PSoC4/USBUART_hid.c ****                     if (USBUART_currentTD.count != 0u)
 247              		.loc 1 155 0
 248 0068 FFF7FEFF 		bl	USBUART_FindReportDescriptor
 156:Generated_Source\PSoC4/USBUART_hid.c ****                     {
 249              		.loc 1 156 0
 250 006c 5E4B     		ldr	r3, .L45+4
ARM GAS  C:\Users\HPz420\AppData\Local\Temp\ccLsOs1V.s 			page 9


 251 006e 1B88     		ldrh	r3, [r3]
 252 0070 9BB2     		uxth	r3, r3
 253 0072 002B     		cmp	r3, #0
 254 0074 00D1     		bne	.LCB198
 255 0076 A2E0     		b	.L38	@long jump
 256              	.LCB198:
 158:Generated_Source\PSoC4/USBUART_hid.c ****                     }
 257              		.loc 1 158 0
 258 0078 FC1D     		adds	r4, r7, #7
 259 007a FFF7FEFF 		bl	USBUART_InitControlRead
 260 007e 0300     		movs	r3, r0
 261 0080 2370     		strb	r3, [r4]
 165:Generated_Source\PSoC4/USBUART_hid.c ****                 
 262              		.loc 1 165 0
 263 0082 9CE0     		b	.L38
 264              	.L16:
 168:Generated_Source\PSoC4/USBUART_hid.c ****                 if (USBUART_currentTD.count != 0u)
 265              		.loc 1 168 0
 266 0084 FFF7FEFF 		bl	USBUART_FindReport
 169:Generated_Source\PSoC4/USBUART_hid.c ****                 {
 267              		.loc 1 169 0
 268 0088 574B     		ldr	r3, .L45+4
 269 008a 1B88     		ldrh	r3, [r3]
 270 008c 9BB2     		uxth	r3, r3
 271 008e 002B     		cmp	r3, #0
 272 0090 00D1     		bne	.LCB212
 273 0092 96E0     		b	.L39	@long jump
 274              	.LCB212:
 171:Generated_Source\PSoC4/USBUART_hid.c ****                 }
 275              		.loc 1 171 0
 276 0094 FC1D     		adds	r4, r7, #7
 277 0096 FFF7FEFF 		bl	USBUART_InitControlRead
 278 009a 0300     		movs	r3, r0
 279 009c 2370     		strb	r3, [r4]
 173:Generated_Source\PSoC4/USBUART_hid.c **** 
 280              		.loc 1 173 0
 281 009e 90E0     		b	.L39
 282              	.L14:
 178:Generated_Source\PSoC4/USBUART_hid.c ****                 {
 283              		.loc 1 178 0
 284 00a0 BB1D     		adds	r3, r7, #6
 285 00a2 1B78     		ldrb	r3, [r3]
 286 00a4 012B     		cmp	r3, #1
 287 00a6 00D9     		bls	.LCB224
 288 00a8 8DE0     		b	.L40	@long jump
 289              	.LCB224:
 178:Generated_Source\PSoC4/USBUART_hid.c ****                 {
 290              		.loc 1 178 0 is_stmt 0 discriminator 1
 291 00aa 4E4B     		ldr	r3, .L45
 292 00ac 9B68     		ldr	r3, [r3, #8]
 293 00ae 002B     		cmp	r3, #0
 294 00b0 00D0     		beq	.LCB228
 295 00b2 88E0     		b	.L40	@long jump
 296              	.LCB228:
 180:Generated_Source\PSoC4/USBUART_hid.c ****                     USBUART_currentTD.pData = &USBUART_hidIdleRate[interfaceNumber];
 297              		.loc 1 180 0 is_stmt 1
 298 00b4 4C4B     		ldr	r3, .L45+4
ARM GAS  C:\Users\HPz420\AppData\Local\Temp\ccLsOs1V.s 			page 10


 299 00b6 0122     		movs	r2, #1
 300 00b8 1A80     		strh	r2, [r3]
 181:Generated_Source\PSoC4/USBUART_hid.c ****                     requestHandled  = USBUART_InitControlRead();
 301              		.loc 1 181 0
 302 00ba BB1D     		adds	r3, r7, #6
 303 00bc 1A78     		ldrb	r2, [r3]
 304 00be 4B4B     		ldr	r3, .L45+8
 305 00c0 D218     		adds	r2, r2, r3
 306 00c2 494B     		ldr	r3, .L45+4
 307 00c4 5A60     		str	r2, [r3, #4]
 182:Generated_Source\PSoC4/USBUART_hid.c ****                 }
 308              		.loc 1 182 0
 309 00c6 FC1D     		adds	r4, r7, #7
 310 00c8 FFF7FEFF 		bl	USBUART_InitControlRead
 311 00cc 0300     		movs	r3, r0
 312 00ce 2370     		strb	r3, [r4]
 184:Generated_Source\PSoC4/USBUART_hid.c ****                 
 313              		.loc 1 184 0
 314 00d0 79E0     		b	.L40
 315              	.L17:
 188:Generated_Source\PSoC4/USBUART_hid.c ****                 {
 316              		.loc 1 188 0
 317 00d2 BB1D     		adds	r3, r7, #6
 318 00d4 1B78     		ldrb	r3, [r3]
 319 00d6 012B     		cmp	r3, #1
 320 00d8 00D9     		bls	.LCB249
 321 00da 76E0     		b	.L41	@long jump
 322              	.LCB249:
 190:Generated_Source\PSoC4/USBUART_hid.c ****                     USBUART_currentTD.pData = &USBUART_hidProtocol[interfaceNumber];
 323              		.loc 1 190 0
 324 00dc 424B     		ldr	r3, .L45+4
 325 00de 0122     		movs	r2, #1
 326 00e0 1A80     		strh	r2, [r3]
 191:Generated_Source\PSoC4/USBUART_hid.c ****                     requestHandled  = USBUART_InitControlRead();
 327              		.loc 1 191 0
 328 00e2 BB1D     		adds	r3, r7, #6
 329 00e4 1A78     		ldrb	r2, [r3]
 330 00e6 424B     		ldr	r3, .L45+12
 331 00e8 D218     		adds	r2, r2, r3
 332 00ea 3F4B     		ldr	r3, .L45+4
 333 00ec 5A60     		str	r2, [r3, #4]
 192:Generated_Source\PSoC4/USBUART_hid.c ****                 }
 334              		.loc 1 192 0
 335 00ee FC1D     		adds	r4, r7, #7
 336 00f0 FFF7FEFF 		bl	USBUART_InitControlRead
 337 00f4 0300     		movs	r3, r0
 338 00f6 2370     		strb	r3, [r4]
 194:Generated_Source\PSoC4/USBUART_hid.c ****                 
 339              		.loc 1 194 0
 340 00f8 67E0     		b	.L41
 341              	.L12:
 198:Generated_Source\PSoC4/USBUART_hid.c ****         }
 199:Generated_Source\PSoC4/USBUART_hid.c ****     }
 200:Generated_Source\PSoC4/USBUART_hid.c ****     else
 201:Generated_Source\PSoC4/USBUART_hid.c ****     {   
 202:Generated_Source\PSoC4/USBUART_hid.c ****         /* Handle direction from host to device. */
 203:Generated_Source\PSoC4/USBUART_hid.c ****         
ARM GAS  C:\Users\HPz420\AppData\Local\Temp\ccLsOs1V.s 			page 11


 204:Generated_Source\PSoC4/USBUART_hid.c ****         switch (USBUART_bRequestReg)
 342              		.loc 1 204 0
 343 00fa 3A4B     		ldr	r3, .L45
 344 00fc 5B68     		ldr	r3, [r3, #4]
 345 00fe 0A2B     		cmp	r3, #10
 346 0100 11D0     		beq	.L29
 347 0102 0B2B     		cmp	r3, #11
 348 0104 46D0     		beq	.L30
 349 0106 092B     		cmp	r3, #9
 350 0108 00D0     		beq	.L31
 205:Generated_Source\PSoC4/USBUART_hid.c ****         {
 206:Generated_Source\PSoC4/USBUART_hid.c ****             case USBUART_HID_SET_REPORT:
 207:Generated_Source\PSoC4/USBUART_hid.c ****                 USBUART_FindReport();
 208:Generated_Source\PSoC4/USBUART_hid.c ****                 if (USBUART_currentTD.count != 0u)
 209:Generated_Source\PSoC4/USBUART_hid.c ****                 {
 210:Generated_Source\PSoC4/USBUART_hid.c ****                     requestHandled = USBUART_InitControlWrite();
 211:Generated_Source\PSoC4/USBUART_hid.c ****                 }
 212:Generated_Source\PSoC4/USBUART_hid.c ****                 break;
 213:Generated_Source\PSoC4/USBUART_hid.c ****                 
 214:Generated_Source\PSoC4/USBUART_hid.c ****             case USBUART_HID_SET_IDLE:
 215:Generated_Source\PSoC4/USBUART_hid.c ****                 /* This function does not support multiple reports per interface */
 216:Generated_Source\PSoC4/USBUART_hid.c ****                 /* Validate interfaceNumber and Report ID (should be 0): Do not support Idle per Re
 217:Generated_Source\PSoC4/USBUART_hid.c ****                 if ((interfaceNumber < USBUART_MAX_INTERFACES_NUMBER) && (USBUART_wValueLoReg == 0u
 218:Generated_Source\PSoC4/USBUART_hid.c ****                 {
 219:Generated_Source\PSoC4/USBUART_hid.c ****                     USBUART_hidIdleRate[interfaceNumber] = (uint8)USBUART_wValueHiReg;
 220:Generated_Source\PSoC4/USBUART_hid.c ****                     /* With regards to HID spec: "7.2.4 Set_Idle Request"
 221:Generated_Source\PSoC4/USBUART_hid.c ****                     *  Latency. If the current period has gone past the
 222:Generated_Source\PSoC4/USBUART_hid.c ****                     *  newly proscribed time duration, then a report
 223:Generated_Source\PSoC4/USBUART_hid.c ****                     *  will be generated immediately.
 224:Generated_Source\PSoC4/USBUART_hid.c ****                     */
 225:Generated_Source\PSoC4/USBUART_hid.c ****                     if(USBUART_hidIdleRate[interfaceNumber] <
 226:Generated_Source\PSoC4/USBUART_hid.c ****                        USBUART_hidIdleTimer[interfaceNumber])
 227:Generated_Source\PSoC4/USBUART_hid.c ****                     {
 228:Generated_Source\PSoC4/USBUART_hid.c ****                         /* Set the timer to zero and let the UpdateHIDTimer() API return IDLE_TIMER
 229:Generated_Source\PSoC4/USBUART_hid.c ****                         USBUART_hidIdleTimer[interfaceNumber] = 0u;
 230:Generated_Source\PSoC4/USBUART_hid.c ****                     }
 231:Generated_Source\PSoC4/USBUART_hid.c ****                     /* If the new request is received within 4 milliseconds
 232:Generated_Source\PSoC4/USBUART_hid.c ****                     *  (1 count) of the end of the current period, then the
 233:Generated_Source\PSoC4/USBUART_hid.c ****                     *  new request will have no effect until after the report.
 234:Generated_Source\PSoC4/USBUART_hid.c ****                     */
 235:Generated_Source\PSoC4/USBUART_hid.c ****                     else if(USBUART_hidIdleTimer[interfaceNumber] <= 1u)
 236:Generated_Source\PSoC4/USBUART_hid.c ****                     {
 237:Generated_Source\PSoC4/USBUART_hid.c ****                         /* Do nothing.
 238:Generated_Source\PSoC4/USBUART_hid.c ****                         *  Let the UpdateHIDTimer() API continue to work and
 239:Generated_Source\PSoC4/USBUART_hid.c ****                         *  return IDLE_TIMER_EXPIRED status
 240:Generated_Source\PSoC4/USBUART_hid.c ****                         */
 241:Generated_Source\PSoC4/USBUART_hid.c ****                     }
 242:Generated_Source\PSoC4/USBUART_hid.c ****                     else
 243:Generated_Source\PSoC4/USBUART_hid.c ****                     {   /* Reload the timer*/
 244:Generated_Source\PSoC4/USBUART_hid.c ****                         USBUART_hidIdleTimer[interfaceNumber] =
 245:Generated_Source\PSoC4/USBUART_hid.c ****                         USBUART_hidIdleRate[interfaceNumber];
 246:Generated_Source\PSoC4/USBUART_hid.c ****                     }
 247:Generated_Source\PSoC4/USBUART_hid.c ****                     requestHandled = USBUART_InitNoDataControlTransfer();
 248:Generated_Source\PSoC4/USBUART_hid.c ****                 }
 249:Generated_Source\PSoC4/USBUART_hid.c ****                 break;
 250:Generated_Source\PSoC4/USBUART_hid.c **** 
 251:Generated_Source\PSoC4/USBUART_hid.c ****             case USBUART_HID_SET_PROTOCOL:
ARM GAS  C:\Users\HPz420\AppData\Local\Temp\ccLsOs1V.s 			page 12


 252:Generated_Source\PSoC4/USBUART_hid.c ****                 /* Validate interfaceNumber and protocol (must be 0 or 1) */
 253:Generated_Source\PSoC4/USBUART_hid.c ****                 if ((interfaceNumber < USBUART_MAX_INTERFACES_NUMBER) && (USBUART_wValueLoReg <= 1u
 254:Generated_Source\PSoC4/USBUART_hid.c ****                 {
 255:Generated_Source\PSoC4/USBUART_hid.c ****                     USBUART_hidProtocol[interfaceNumber] = (uint8)USBUART_wValueLoReg;
 256:Generated_Source\PSoC4/USBUART_hid.c ****                     requestHandled = USBUART_InitNoDataControlTransfer();
 257:Generated_Source\PSoC4/USBUART_hid.c ****                 }
 258:Generated_Source\PSoC4/USBUART_hid.c ****                 break;
 259:Generated_Source\PSoC4/USBUART_hid.c ****             
 260:Generated_Source\PSoC4/USBUART_hid.c ****             default:    
 261:Generated_Source\PSoC4/USBUART_hid.c ****                 /* Unknown class request is not handled. */
 262:Generated_Source\PSoC4/USBUART_hid.c ****                 break;
 351              		.loc 1 262 0
 352 010a 65E0     		b	.L27
 353              	.L31:
 207:Generated_Source\PSoC4/USBUART_hid.c ****                 if (USBUART_currentTD.count != 0u)
 354              		.loc 1 207 0
 355 010c FFF7FEFF 		bl	USBUART_FindReport
 208:Generated_Source\PSoC4/USBUART_hid.c ****                 {
 356              		.loc 1 208 0
 357 0110 354B     		ldr	r3, .L45+4
 358 0112 1B88     		ldrh	r3, [r3]
 359 0114 9BB2     		uxth	r3, r3
 360 0116 002B     		cmp	r3, #0
 361 0118 59D0     		beq	.L42
 210:Generated_Source\PSoC4/USBUART_hid.c ****                 }
 362              		.loc 1 210 0
 363 011a FC1D     		adds	r4, r7, #7
 364 011c FFF7FEFF 		bl	USBUART_InitControlWrite
 365 0120 0300     		movs	r3, r0
 366 0122 2370     		strb	r3, [r4]
 212:Generated_Source\PSoC4/USBUART_hid.c ****                 
 367              		.loc 1 212 0
 368 0124 53E0     		b	.L42
 369              	.L29:
 217:Generated_Source\PSoC4/USBUART_hid.c ****                 {
 370              		.loc 1 217 0
 371 0126 BB1D     		adds	r3, r7, #6
 372 0128 1B78     		ldrb	r3, [r3]
 373 012a 012B     		cmp	r3, #1
 374 012c 51D8     		bhi	.L43
 217:Generated_Source\PSoC4/USBUART_hid.c ****                 {
 375              		.loc 1 217 0 is_stmt 0 discriminator 1
 376 012e 2D4B     		ldr	r3, .L45
 377 0130 9B68     		ldr	r3, [r3, #8]
 378 0132 002B     		cmp	r3, #0
 379 0134 4DD1     		bne	.L43
 219:Generated_Source\PSoC4/USBUART_hid.c ****                     /* With regards to HID spec: "7.2.4 Set_Idle Request"
 380              		.loc 1 219 0 is_stmt 1
 381 0136 BB1D     		adds	r3, r7, #6
 382 0138 1A78     		ldrb	r2, [r3]
 383 013a 2A4B     		ldr	r3, .L45
 384 013c DB68     		ldr	r3, [r3, #12]
 385 013e D9B2     		uxtb	r1, r3
 386 0140 2A4B     		ldr	r3, .L45+8
 387 0142 9954     		strb	r1, [r3, r2]
 225:Generated_Source\PSoC4/USBUART_hid.c ****                        USBUART_hidIdleTimer[interfaceNumber])
 388              		.loc 1 225 0
ARM GAS  C:\Users\HPz420\AppData\Local\Temp\ccLsOs1V.s 			page 13


 389 0144 BB1D     		adds	r3, r7, #6
 390 0146 1B78     		ldrb	r3, [r3]
 391 0148 284A     		ldr	r2, .L45+8
 392 014a D35C     		ldrb	r3, [r2, r3]
 393 014c DAB2     		uxtb	r2, r3
 226:Generated_Source\PSoC4/USBUART_hid.c ****                     {
 394              		.loc 1 226 0
 395 014e BB1D     		adds	r3, r7, #6
 396 0150 1B78     		ldrb	r3, [r3]
 397 0152 2849     		ldr	r1, .L45+16
 398 0154 CB5C     		ldrb	r3, [r1, r3]
 399 0156 DBB2     		uxtb	r3, r3
 225:Generated_Source\PSoC4/USBUART_hid.c ****                        USBUART_hidIdleTimer[interfaceNumber])
 400              		.loc 1 225 0
 401 0158 9A42     		cmp	r2, r3
 402 015a 05D2     		bcs	.L34
 229:Generated_Source\PSoC4/USBUART_hid.c ****                     }
 403              		.loc 1 229 0
 404 015c BB1D     		adds	r3, r7, #6
 405 015e 1B78     		ldrb	r3, [r3]
 406 0160 244A     		ldr	r2, .L45+16
 407 0162 0021     		movs	r1, #0
 408 0164 D154     		strb	r1, [r2, r3]
 409 0166 0FE0     		b	.L35
 410              	.L34:
 235:Generated_Source\PSoC4/USBUART_hid.c ****                     {
 411              		.loc 1 235 0
 412 0168 BB1D     		adds	r3, r7, #6
 413 016a 1B78     		ldrb	r3, [r3]
 414 016c 214A     		ldr	r2, .L45+16
 415 016e D35C     		ldrb	r3, [r2, r3]
 416 0170 DBB2     		uxtb	r3, r3
 417 0172 012B     		cmp	r3, #1
 418 0174 08D9     		bls	.L35
 244:Generated_Source\PSoC4/USBUART_hid.c ****                         USBUART_hidIdleRate[interfaceNumber];
 419              		.loc 1 244 0
 420 0176 BB1D     		adds	r3, r7, #6
 421 0178 1B78     		ldrb	r3, [r3]
 245:Generated_Source\PSoC4/USBUART_hid.c ****                     }
 422              		.loc 1 245 0
 423 017a BA1D     		adds	r2, r7, #6
 424 017c 1278     		ldrb	r2, [r2]
 425 017e 1B49     		ldr	r1, .L45+8
 426 0180 8A5C     		ldrb	r2, [r1, r2]
 427 0182 D1B2     		uxtb	r1, r2
 244:Generated_Source\PSoC4/USBUART_hid.c ****                         USBUART_hidIdleRate[interfaceNumber];
 428              		.loc 1 244 0
 429 0184 1B4A     		ldr	r2, .L45+16
 430 0186 D154     		strb	r1, [r2, r3]
 431              	.L35:
 247:Generated_Source\PSoC4/USBUART_hid.c ****                 }
 432              		.loc 1 247 0
 433 0188 FC1D     		adds	r4, r7, #7
 434 018a FFF7FEFF 		bl	USBUART_InitNoDataControlTransfer
 435 018e 0300     		movs	r3, r0
 436 0190 2370     		strb	r3, [r4]
 249:Generated_Source\PSoC4/USBUART_hid.c **** 
ARM GAS  C:\Users\HPz420\AppData\Local\Temp\ccLsOs1V.s 			page 14


 437              		.loc 1 249 0
 438 0192 1EE0     		b	.L43
 439              	.L30:
 253:Generated_Source\PSoC4/USBUART_hid.c ****                 {
 440              		.loc 1 253 0
 441 0194 BB1D     		adds	r3, r7, #6
 442 0196 1B78     		ldrb	r3, [r3]
 443 0198 012B     		cmp	r3, #1
 444 019a 1CD8     		bhi	.L44
 253:Generated_Source\PSoC4/USBUART_hid.c ****                 {
 445              		.loc 1 253 0 is_stmt 0 discriminator 1
 446 019c 114B     		ldr	r3, .L45
 447 019e 9B68     		ldr	r3, [r3, #8]
 448 01a0 012B     		cmp	r3, #1
 449 01a2 18D8     		bhi	.L44
 255:Generated_Source\PSoC4/USBUART_hid.c ****                     requestHandled = USBUART_InitNoDataControlTransfer();
 450              		.loc 1 255 0 is_stmt 1
 451 01a4 BB1D     		adds	r3, r7, #6
 452 01a6 1A78     		ldrb	r2, [r3]
 453 01a8 0E4B     		ldr	r3, .L45
 454 01aa 9B68     		ldr	r3, [r3, #8]
 455 01ac D9B2     		uxtb	r1, r3
 456 01ae 104B     		ldr	r3, .L45+12
 457 01b0 9954     		strb	r1, [r3, r2]
 256:Generated_Source\PSoC4/USBUART_hid.c ****                 }
 458              		.loc 1 256 0
 459 01b2 FC1D     		adds	r4, r7, #7
 460 01b4 FFF7FEFF 		bl	USBUART_InitNoDataControlTransfer
 461 01b8 0300     		movs	r3, r0
 462 01ba 2370     		strb	r3, [r4]
 258:Generated_Source\PSoC4/USBUART_hid.c ****             
 463              		.loc 1 258 0
 464 01bc 0BE0     		b	.L44
 465              	.L38:
 165:Generated_Source\PSoC4/USBUART_hid.c ****                 
 466              		.loc 1 165 0
 467 01be C046     		nop
 468 01c0 0AE0     		b	.L27
 469              	.L39:
 173:Generated_Source\PSoC4/USBUART_hid.c **** 
 470              		.loc 1 173 0
 471 01c2 C046     		nop
 472 01c4 08E0     		b	.L27
 473              	.L40:
 184:Generated_Source\PSoC4/USBUART_hid.c ****                 
 474              		.loc 1 184 0
 475 01c6 C046     		nop
 476 01c8 06E0     		b	.L27
 477              	.L41:
 194:Generated_Source\PSoC4/USBUART_hid.c ****                 
 478              		.loc 1 194 0
 479 01ca C046     		nop
 480 01cc 04E0     		b	.L27
 481              	.L42:
 212:Generated_Source\PSoC4/USBUART_hid.c ****                 
 482              		.loc 1 212 0
 483 01ce C046     		nop
ARM GAS  C:\Users\HPz420\AppData\Local\Temp\ccLsOs1V.s 			page 15


 484 01d0 02E0     		b	.L27
 485              	.L43:
 249:Generated_Source\PSoC4/USBUART_hid.c **** 
 486              		.loc 1 249 0
 487 01d2 C046     		nop
 488 01d4 00E0     		b	.L27
 489              	.L44:
 258:Generated_Source\PSoC4/USBUART_hid.c ****             
 490              		.loc 1 258 0
 491 01d6 C046     		nop
 492              	.L27:
 263:Generated_Source\PSoC4/USBUART_hid.c ****         }
 264:Generated_Source\PSoC4/USBUART_hid.c ****     }
 265:Generated_Source\PSoC4/USBUART_hid.c **** 
 266:Generated_Source\PSoC4/USBUART_hid.c ****     return (requestHandled);
 493              		.loc 1 266 0
 494 01d8 FB1D     		adds	r3, r7, #7
 495 01da 1B78     		ldrb	r3, [r3]
 267:Generated_Source\PSoC4/USBUART_hid.c **** }
 496              		.loc 1 267 0
 497 01dc 1800     		movs	r0, r3
 498 01de BD46     		mov	sp, r7
 499 01e0 03B0     		add	sp, sp, #12
 500              		@ sp needed
 501 01e2 90BD     		pop	{r4, r7, pc}
 502              	.L46:
 503              		.align	2
 504              	.L45:
 505 01e4 00002C40 		.word	1076625408
 506 01e8 00000000 		.word	USBUART_currentTD
 507 01ec 00000000 		.word	USBUART_hidIdleRate
 508 01f0 00000000 		.word	USBUART_hidProtocol
 509 01f4 00000000 		.word	USBUART_hidIdleTimer
 510              		.cfi_endproc
 511              	.LFE3:
 512              		.size	USBUART_DispatchHIDClassRqst, .-USBUART_DispatchHIDClassRqst
 513              		.section	.text.USBUART_FindHidClassDecriptor,"ax",%progbits
 514              		.align	2
 515              		.global	USBUART_FindHidClassDecriptor
 516              		.code	16
 517              		.thumb_func
 518              		.type	USBUART_FindHidClassDecriptor, %function
 519              	USBUART_FindHidClassDecriptor:
 520              	.LFB4:
 268:Generated_Source\PSoC4/USBUART_hid.c **** 
 269:Generated_Source\PSoC4/USBUART_hid.c **** 
 270:Generated_Source\PSoC4/USBUART_hid.c **** /*******************************************************************************
 271:Generated_Source\PSoC4/USBUART_hid.c **** * Function Name: USB_FindHidClassDescriptor
 272:Generated_Source\PSoC4/USBUART_hid.c **** ****************************************************************************//**
 273:Generated_Source\PSoC4/USBUART_hid.c **** *
 274:Generated_Source\PSoC4/USBUART_hid.c **** *  This routine find Hid Class Descriptor pointer based on the Interface number
 275:Generated_Source\PSoC4/USBUART_hid.c **** *  and Alternate setting then loads the currentTD structure with the address of
 276:Generated_Source\PSoC4/USBUART_hid.c **** *  the buffer and the size.
 277:Generated_Source\PSoC4/USBUART_hid.c **** *  The HID Class Descriptor resides inside the config descriptor.
 278:Generated_Source\PSoC4/USBUART_hid.c **** *
 279:Generated_Source\PSoC4/USBUART_hid.c **** * \return
 280:Generated_Source\PSoC4/USBUART_hid.c **** *  currentTD
ARM GAS  C:\Users\HPz420\AppData\Local\Temp\ccLsOs1V.s 			page 16


 281:Generated_Source\PSoC4/USBUART_hid.c **** *
 282:Generated_Source\PSoC4/USBUART_hid.c **** * \reentrant
 283:Generated_Source\PSoC4/USBUART_hid.c **** *  No.
 284:Generated_Source\PSoC4/USBUART_hid.c **** *
 285:Generated_Source\PSoC4/USBUART_hid.c **** *******************************************************************************/
 286:Generated_Source\PSoC4/USBUART_hid.c **** void USBUART_FindHidClassDecriptor(void) 
 287:Generated_Source\PSoC4/USBUART_hid.c **** {
 521              		.loc 1 287 0
 522              		.cfi_startproc
 523              		@ args = 0, pretend = 0, frame = 16
 524              		@ frame_needed = 1, uses_anonymous_args = 0
 525 0000 80B5     		push	{r7, lr}
 526              		.cfi_def_cfa_offset 8
 527              		.cfi_offset 7, -8
 528              		.cfi_offset 14, -4
 529 0002 84B0     		sub	sp, sp, #16
 530              		.cfi_def_cfa_offset 24
 531 0004 00AF     		add	r7, sp, #0
 532              		.cfi_def_cfa_register 7
 288:Generated_Source\PSoC4/USBUART_hid.c ****     const T_USBUART_LUT CYCODE *pTmp;
 289:Generated_Source\PSoC4/USBUART_hid.c ****     volatile uint8 *pDescr;
 290:Generated_Source\PSoC4/USBUART_hid.c ****     uint8 interfaceN;
 291:Generated_Source\PSoC4/USBUART_hid.c **** 
 292:Generated_Source\PSoC4/USBUART_hid.c ****     pTmp = USBUART_GetConfigTablePtr(USBUART_configuration - 1u);
 533              		.loc 1 292 0
 534 0006 1D4B     		ldr	r3, .L48
 535 0008 1B78     		ldrb	r3, [r3]
 536 000a DBB2     		uxtb	r3, r3
 537 000c 013B     		subs	r3, r3, #1
 538 000e DBB2     		uxtb	r3, r3
 539 0010 1800     		movs	r0, r3
 540 0012 FFF7FEFF 		bl	USBUART_GetConfigTablePtr
 541 0016 0300     		movs	r3, r0
 542 0018 FB60     		str	r3, [r7, #12]
 293:Generated_Source\PSoC4/USBUART_hid.c ****     
 294:Generated_Source\PSoC4/USBUART_hid.c ****     interfaceN = (uint8) USBUART_wIndexLoReg;
 543              		.loc 1 294 0
 544 001a 194B     		ldr	r3, .L48+4
 545 001c 1A69     		ldr	r2, [r3, #16]
 546 001e 0B23     		movs	r3, #11
 547 0020 FB18     		adds	r3, r7, r3
 548 0022 1A70     		strb	r2, [r3]
 295:Generated_Source\PSoC4/USBUART_hid.c ****     /* Third entry in the LUT starts the Interface Table pointers */
 296:Generated_Source\PSoC4/USBUART_hid.c ****     /* Now use the request interface number*/
 297:Generated_Source\PSoC4/USBUART_hid.c ****     pTmp = &pTmp[interfaceN + 2u];
 549              		.loc 1 297 0
 550 0024 0B23     		movs	r3, #11
 551 0026 FB18     		adds	r3, r7, r3
 552 0028 1B78     		ldrb	r3, [r3]
 553 002a 0233     		adds	r3, r3, #2
 554 002c DB00     		lsls	r3, r3, #3
 555 002e FA68     		ldr	r2, [r7, #12]
 556 0030 D318     		adds	r3, r2, r3
 557 0032 FB60     		str	r3, [r7, #12]
 298:Generated_Source\PSoC4/USBUART_hid.c ****     
 299:Generated_Source\PSoC4/USBUART_hid.c ****     /* USB_DEVICEx_CONFIGURATIONy_INTERFACEz_TABLE */
 300:Generated_Source\PSoC4/USBUART_hid.c ****     pTmp = (const T_USBUART_LUT CYCODE *) pTmp->p_list;
ARM GAS  C:\Users\HPz420\AppData\Local\Temp\ccLsOs1V.s 			page 17


 558              		.loc 1 300 0
 559 0034 FB68     		ldr	r3, [r7, #12]
 560 0036 5B68     		ldr	r3, [r3, #4]
 561 0038 FB60     		str	r3, [r7, #12]
 301:Generated_Source\PSoC4/USBUART_hid.c ****     
 302:Generated_Source\PSoC4/USBUART_hid.c ****     /* Now use Alternate setting number */
 303:Generated_Source\PSoC4/USBUART_hid.c ****     pTmp = &pTmp[USBUART_interfaceSetting[interfaceN]];
 562              		.loc 1 303 0
 563 003a 0B23     		movs	r3, #11
 564 003c FB18     		adds	r3, r7, r3
 565 003e 1B78     		ldrb	r3, [r3]
 566 0040 104A     		ldr	r2, .L48+8
 567 0042 D35C     		ldrb	r3, [r2, r3]
 568 0044 DBB2     		uxtb	r3, r3
 569 0046 DB00     		lsls	r3, r3, #3
 570 0048 FA68     		ldr	r2, [r7, #12]
 571 004a D318     		adds	r3, r2, r3
 572 004c FB60     		str	r3, [r7, #12]
 304:Generated_Source\PSoC4/USBUART_hid.c ****     
 305:Generated_Source\PSoC4/USBUART_hid.c ****     /* USB_DEVICEx_CONFIGURATIONy_INTERFACEz_ALTERNATEi_HID_TABLE */
 306:Generated_Source\PSoC4/USBUART_hid.c ****     pTmp = (const T_USBUART_LUT CYCODE *) pTmp->p_list;
 573              		.loc 1 306 0
 574 004e FB68     		ldr	r3, [r7, #12]
 575 0050 5B68     		ldr	r3, [r3, #4]
 576 0052 FB60     		str	r3, [r7, #12]
 307:Generated_Source\PSoC4/USBUART_hid.c ****     
 308:Generated_Source\PSoC4/USBUART_hid.c ****     /* Fifth entry in the LUT points to Hid Class Descriptor in Configuration Descriptor */
 309:Generated_Source\PSoC4/USBUART_hid.c ****     pTmp = &pTmp[4u];
 577              		.loc 1 309 0
 578 0054 FB68     		ldr	r3, [r7, #12]
 579 0056 2033     		adds	r3, r3, #32
 580 0058 FB60     		str	r3, [r7, #12]
 310:Generated_Source\PSoC4/USBUART_hid.c ****     pDescr = (volatile uint8 *)pTmp->p_list;
 581              		.loc 1 310 0
 582 005a FB68     		ldr	r3, [r7, #12]
 583 005c 5B68     		ldr	r3, [r3, #4]
 584 005e 7B60     		str	r3, [r7, #4]
 311:Generated_Source\PSoC4/USBUART_hid.c ****     
 312:Generated_Source\PSoC4/USBUART_hid.c ****     /* The first byte contains the descriptor length */
 313:Generated_Source\PSoC4/USBUART_hid.c ****     USBUART_currentTD.count = *pDescr;
 585              		.loc 1 313 0
 586 0060 7B68     		ldr	r3, [r7, #4]
 587 0062 1B78     		ldrb	r3, [r3]
 588 0064 DBB2     		uxtb	r3, r3
 589 0066 9AB2     		uxth	r2, r3
 590 0068 074B     		ldr	r3, .L48+12
 591 006a 1A80     		strh	r2, [r3]
 314:Generated_Source\PSoC4/USBUART_hid.c ****     USBUART_currentTD.pData = pDescr;
 592              		.loc 1 314 0
 593 006c 064B     		ldr	r3, .L48+12
 594 006e 7A68     		ldr	r2, [r7, #4]
 595 0070 5A60     		str	r2, [r3, #4]
 315:Generated_Source\PSoC4/USBUART_hid.c **** }
 596              		.loc 1 315 0
 597 0072 C046     		nop
 598 0074 BD46     		mov	sp, r7
 599 0076 04B0     		add	sp, sp, #16
ARM GAS  C:\Users\HPz420\AppData\Local\Temp\ccLsOs1V.s 			page 18


 600              		@ sp needed
 601 0078 80BD     		pop	{r7, pc}
 602              	.L49:
 603 007a C046     		.align	2
 604              	.L48:
 605 007c 00000000 		.word	USBUART_configuration
 606 0080 00002C40 		.word	1076625408
 607 0084 00000000 		.word	USBUART_interfaceSetting
 608 0088 00000000 		.word	USBUART_currentTD
 609              		.cfi_endproc
 610              	.LFE4:
 611              		.size	USBUART_FindHidClassDecriptor, .-USBUART_FindHidClassDecriptor
 612              		.section	.text.USBUART_FindReportDescriptor,"ax",%progbits
 613              		.align	2
 614              		.global	USBUART_FindReportDescriptor
 615              		.code	16
 616              		.thumb_func
 617              		.type	USBUART_FindReportDescriptor, %function
 618              	USBUART_FindReportDescriptor:
 619              	.LFB5:
 316:Generated_Source\PSoC4/USBUART_hid.c **** 
 317:Generated_Source\PSoC4/USBUART_hid.c **** 
 318:Generated_Source\PSoC4/USBUART_hid.c **** /*******************************************************************************
 319:Generated_Source\PSoC4/USBUART_hid.c **** * Function Name: USB_FindReportDescriptor
 320:Generated_Source\PSoC4/USBUART_hid.c **** ****************************************************************************//**
 321:Generated_Source\PSoC4/USBUART_hid.c **** *
 322:Generated_Source\PSoC4/USBUART_hid.c **** *  This routine find Hid Report Descriptor pointer based on the Interface
 323:Generated_Source\PSoC4/USBUART_hid.c **** *  number, then loads the currentTD structure with the address of the buffer
 324:Generated_Source\PSoC4/USBUART_hid.c **** *  and the size.
 325:Generated_Source\PSoC4/USBUART_hid.c **** *  Hid Report Descriptor is located after IN/OUT/FEATURE reports.
 326:Generated_Source\PSoC4/USBUART_hid.c **** *
 327:Generated_Source\PSoC4/USBUART_hid.c **** * \return
 328:Generated_Source\PSoC4/USBUART_hid.c **** *  currentTD
 329:Generated_Source\PSoC4/USBUART_hid.c **** *
 330:Generated_Source\PSoC4/USBUART_hid.c **** * \reentrant
 331:Generated_Source\PSoC4/USBUART_hid.c **** *  No.
 332:Generated_Source\PSoC4/USBUART_hid.c **** *
 333:Generated_Source\PSoC4/USBUART_hid.c **** *******************************************************************************/
 334:Generated_Source\PSoC4/USBUART_hid.c **** void USBUART_FindReportDescriptor(void) 
 335:Generated_Source\PSoC4/USBUART_hid.c **** {
 620              		.loc 1 335 0
 621              		.cfi_startproc
 622              		@ args = 0, pretend = 0, frame = 16
 623              		@ frame_needed = 1, uses_anonymous_args = 0
 624 0000 80B5     		push	{r7, lr}
 625              		.cfi_def_cfa_offset 8
 626              		.cfi_offset 7, -8
 627              		.cfi_offset 14, -4
 628 0002 84B0     		sub	sp, sp, #16
 629              		.cfi_def_cfa_offset 24
 630 0004 00AF     		add	r7, sp, #0
 631              		.cfi_def_cfa_register 7
 336:Generated_Source\PSoC4/USBUART_hid.c ****     const T_USBUART_LUT CYCODE *pTmp;
 337:Generated_Source\PSoC4/USBUART_hid.c ****     volatile uint8 *pDescr;
 338:Generated_Source\PSoC4/USBUART_hid.c ****     uint8 interfaceN;
 339:Generated_Source\PSoC4/USBUART_hid.c **** 
 340:Generated_Source\PSoC4/USBUART_hid.c ****     pTmp = USBUART_GetConfigTablePtr(USBUART_configuration - 1u);
ARM GAS  C:\Users\HPz420\AppData\Local\Temp\ccLsOs1V.s 			page 19


 632              		.loc 1 340 0
 633 0006 224B     		ldr	r3, .L51
 634 0008 1B78     		ldrb	r3, [r3]
 635 000a DBB2     		uxtb	r3, r3
 636 000c 013B     		subs	r3, r3, #1
 637 000e DBB2     		uxtb	r3, r3
 638 0010 1800     		movs	r0, r3
 639 0012 FFF7FEFF 		bl	USBUART_GetConfigTablePtr
 640 0016 0300     		movs	r3, r0
 641 0018 FB60     		str	r3, [r7, #12]
 341:Generated_Source\PSoC4/USBUART_hid.c ****     interfaceN = (uint8) USBUART_wIndexLoReg;
 642              		.loc 1 341 0
 643 001a 1E4B     		ldr	r3, .L51+4
 644 001c 1A69     		ldr	r2, [r3, #16]
 645 001e 0B23     		movs	r3, #11
 646 0020 FB18     		adds	r3, r7, r3
 647 0022 1A70     		strb	r2, [r3]
 342:Generated_Source\PSoC4/USBUART_hid.c ****     
 343:Generated_Source\PSoC4/USBUART_hid.c ****     /* Third entry in the LUT starts the Interface Table pointers */
 344:Generated_Source\PSoC4/USBUART_hid.c ****     /* Now use the request interface number */
 345:Generated_Source\PSoC4/USBUART_hid.c ****     pTmp = &pTmp[interfaceN + 2u];
 648              		.loc 1 345 0
 649 0024 0B23     		movs	r3, #11
 650 0026 FB18     		adds	r3, r7, r3
 651 0028 1B78     		ldrb	r3, [r3]
 652 002a 0233     		adds	r3, r3, #2
 653 002c DB00     		lsls	r3, r3, #3
 654 002e FA68     		ldr	r2, [r7, #12]
 655 0030 D318     		adds	r3, r2, r3
 656 0032 FB60     		str	r3, [r7, #12]
 346:Generated_Source\PSoC4/USBUART_hid.c ****     
 347:Generated_Source\PSoC4/USBUART_hid.c ****     /* USB_DEVICEx_CONFIGURATIONy_INTERFACEz_TABLE */
 348:Generated_Source\PSoC4/USBUART_hid.c ****     pTmp = (const T_USBUART_LUT CYCODE *) pTmp->p_list;
 657              		.loc 1 348 0
 658 0034 FB68     		ldr	r3, [r7, #12]
 659 0036 5B68     		ldr	r3, [r3, #4]
 660 0038 FB60     		str	r3, [r7, #12]
 349:Generated_Source\PSoC4/USBUART_hid.c ****     
 350:Generated_Source\PSoC4/USBUART_hid.c ****     /* Now use Alternate setting number */
 351:Generated_Source\PSoC4/USBUART_hid.c ****     pTmp = &pTmp[USBUART_interfaceSetting[interfaceN]];
 661              		.loc 1 351 0
 662 003a 0B23     		movs	r3, #11
 663 003c FB18     		adds	r3, r7, r3
 664 003e 1B78     		ldrb	r3, [r3]
 665 0040 154A     		ldr	r2, .L51+8
 666 0042 D35C     		ldrb	r3, [r2, r3]
 667 0044 DBB2     		uxtb	r3, r3
 668 0046 DB00     		lsls	r3, r3, #3
 669 0048 FA68     		ldr	r2, [r7, #12]
 670 004a D318     		adds	r3, r2, r3
 671 004c FB60     		str	r3, [r7, #12]
 352:Generated_Source\PSoC4/USBUART_hid.c ****     
 353:Generated_Source\PSoC4/USBUART_hid.c ****     /* USB_DEVICEx_CONFIGURATIONy_INTERFACEz_ALTERNATEi_HID_TABLE */
 354:Generated_Source\PSoC4/USBUART_hid.c ****     pTmp = (const T_USBUART_LUT CYCODE *) pTmp->p_list;
 672              		.loc 1 354 0
 673 004e FB68     		ldr	r3, [r7, #12]
 674 0050 5B68     		ldr	r3, [r3, #4]
ARM GAS  C:\Users\HPz420\AppData\Local\Temp\ccLsOs1V.s 			page 20


 675 0052 FB60     		str	r3, [r7, #12]
 355:Generated_Source\PSoC4/USBUART_hid.c ****     
 356:Generated_Source\PSoC4/USBUART_hid.c ****     /* Fourth entry in the LUT starts the Hid Report Descriptor */
 357:Generated_Source\PSoC4/USBUART_hid.c ****     pTmp = &pTmp[3u];
 676              		.loc 1 357 0
 677 0054 FB68     		ldr	r3, [r7, #12]
 678 0056 1833     		adds	r3, r3, #24
 679 0058 FB60     		str	r3, [r7, #12]
 358:Generated_Source\PSoC4/USBUART_hid.c ****     pDescr = (volatile uint8 *)pTmp->p_list;
 680              		.loc 1 358 0
 681 005a FB68     		ldr	r3, [r7, #12]
 682 005c 5B68     		ldr	r3, [r3, #4]
 683 005e 7B60     		str	r3, [r7, #4]
 359:Generated_Source\PSoC4/USBUART_hid.c ****     
 360:Generated_Source\PSoC4/USBUART_hid.c ****     /* The 1st and 2nd bytes of descriptor contain its length. LSB is 1st. */
 361:Generated_Source\PSoC4/USBUART_hid.c ****     USBUART_currentTD.count =  ((uint16)((uint16) pDescr[1u] << 8u) | pDescr[0u]);
 684              		.loc 1 361 0
 685 0060 7B68     		ldr	r3, [r7, #4]
 686 0062 0133     		adds	r3, r3, #1
 687 0064 1B78     		ldrb	r3, [r3]
 688 0066 DBB2     		uxtb	r3, r3
 689 0068 9BB2     		uxth	r3, r3
 690 006a 1B02     		lsls	r3, r3, #8
 691 006c 9AB2     		uxth	r2, r3
 692 006e 7B68     		ldr	r3, [r7, #4]
 693 0070 1B78     		ldrb	r3, [r3]
 694 0072 DBB2     		uxtb	r3, r3
 695 0074 9BB2     		uxth	r3, r3
 696 0076 1343     		orrs	r3, r2
 697 0078 9AB2     		uxth	r2, r3
 698 007a 084B     		ldr	r3, .L51+12
 699 007c 1A80     		strh	r2, [r3]
 362:Generated_Source\PSoC4/USBUART_hid.c ****     USBUART_currentTD.pData = &pDescr[2u];
 700              		.loc 1 362 0
 701 007e 7B68     		ldr	r3, [r7, #4]
 702 0080 9A1C     		adds	r2, r3, #2
 703 0082 064B     		ldr	r3, .L51+12
 704 0084 5A60     		str	r2, [r3, #4]
 363:Generated_Source\PSoC4/USBUART_hid.c **** }
 705              		.loc 1 363 0
 706 0086 C046     		nop
 707 0088 BD46     		mov	sp, r7
 708 008a 04B0     		add	sp, sp, #16
 709              		@ sp needed
 710 008c 80BD     		pop	{r7, pc}
 711              	.L52:
 712 008e C046     		.align	2
 713              	.L51:
 714 0090 00000000 		.word	USBUART_configuration
 715 0094 00002C40 		.word	1076625408
 716 0098 00000000 		.word	USBUART_interfaceSetting
 717 009c 00000000 		.word	USBUART_currentTD
 718              		.cfi_endproc
 719              	.LFE5:
 720              		.size	USBUART_FindReportDescriptor, .-USBUART_FindReportDescriptor
 721              		.section	.text.USBUART_FindReport,"ax",%progbits
 722              		.align	2
ARM GAS  C:\Users\HPz420\AppData\Local\Temp\ccLsOs1V.s 			page 21


 723              		.global	USBUART_FindReport
 724              		.code	16
 725              		.thumb_func
 726              		.type	USBUART_FindReport, %function
 727              	USBUART_FindReport:
 728              	.LFB6:
 364:Generated_Source\PSoC4/USBUART_hid.c **** 
 365:Generated_Source\PSoC4/USBUART_hid.c **** 
 366:Generated_Source\PSoC4/USBUART_hid.c **** /*******************************************************************************
 367:Generated_Source\PSoC4/USBUART_hid.c **** * Function Name: USBUART_FindReport
 368:Generated_Source\PSoC4/USBUART_hid.c **** ****************************************************************************//**
 369:Generated_Source\PSoC4/USBUART_hid.c **** *
 370:Generated_Source\PSoC4/USBUART_hid.c **** *  This routine sets up a transfer based on the Interface number, Report Type
 371:Generated_Source\PSoC4/USBUART_hid.c **** *  and Report ID, then loads the currentTD structure with the address of the
 372:Generated_Source\PSoC4/USBUART_hid.c **** *  buffer and the size.  The caller has to decide if it is a control read or
 373:Generated_Source\PSoC4/USBUART_hid.c **** *  control write.
 374:Generated_Source\PSoC4/USBUART_hid.c **** *
 375:Generated_Source\PSoC4/USBUART_hid.c **** * \return
 376:Generated_Source\PSoC4/USBUART_hid.c **** *  currentTD
 377:Generated_Source\PSoC4/USBUART_hid.c **** *
 378:Generated_Source\PSoC4/USBUART_hid.c **** * \reentrant
 379:Generated_Source\PSoC4/USBUART_hid.c **** *  No.
 380:Generated_Source\PSoC4/USBUART_hid.c **** *
 381:Generated_Source\PSoC4/USBUART_hid.c **** *******************************************************************************/
 382:Generated_Source\PSoC4/USBUART_hid.c **** void USBUART_FindReport(void) 
 383:Generated_Source\PSoC4/USBUART_hid.c **** {
 729              		.loc 1 383 0
 730              		.cfi_startproc
 731              		@ args = 0, pretend = 0, frame = 16
 732              		@ frame_needed = 1, uses_anonymous_args = 0
 733 0000 80B5     		push	{r7, lr}
 734              		.cfi_def_cfa_offset 8
 735              		.cfi_offset 7, -8
 736              		.cfi_offset 14, -4
 737 0002 84B0     		sub	sp, sp, #16
 738              		.cfi_def_cfa_offset 24
 739 0004 00AF     		add	r7, sp, #0
 740              		.cfi_def_cfa_register 7
 384:Generated_Source\PSoC4/USBUART_hid.c ****     const T_USBUART_LUT CYCODE *pTmp;
 385:Generated_Source\PSoC4/USBUART_hid.c ****     T_USBUART_TD *pTD;
 386:Generated_Source\PSoC4/USBUART_hid.c ****     uint8 reportType;
 387:Generated_Source\PSoC4/USBUART_hid.c ****     uint8 interfaceN;
 388:Generated_Source\PSoC4/USBUART_hid.c ****  
 389:Generated_Source\PSoC4/USBUART_hid.c ****     /* `#START HID_FINDREPORT` Place custom handling here */
 390:Generated_Source\PSoC4/USBUART_hid.c **** 
 391:Generated_Source\PSoC4/USBUART_hid.c ****     /* `#END` */
 392:Generated_Source\PSoC4/USBUART_hid.c ****     
 393:Generated_Source\PSoC4/USBUART_hid.c **** #ifdef USBUART_FIND_REPORT_CALLBACK
 394:Generated_Source\PSoC4/USBUART_hid.c ****     USBUART_FindReport_Callback();
 395:Generated_Source\PSoC4/USBUART_hid.c **** #endif /* (USBUART_FIND_REPORT_CALLBACK) */
 396:Generated_Source\PSoC4/USBUART_hid.c ****     
 397:Generated_Source\PSoC4/USBUART_hid.c ****     USBUART_currentTD.count = 0u;   /* Init not supported condition */
 741              		.loc 1 397 0
 742 0006 394B     		ldr	r3, .L56
 743 0008 0022     		movs	r2, #0
 744 000a 1A80     		strh	r2, [r3]
 398:Generated_Source\PSoC4/USBUART_hid.c ****     pTmp = USBUART_GetConfigTablePtr(USBUART_configuration - 1u);
ARM GAS  C:\Users\HPz420\AppData\Local\Temp\ccLsOs1V.s 			page 22


 745              		.loc 1 398 0
 746 000c 384B     		ldr	r3, .L56+4
 747 000e 1B78     		ldrb	r3, [r3]
 748 0010 DBB2     		uxtb	r3, r3
 749 0012 013B     		subs	r3, r3, #1
 750 0014 DBB2     		uxtb	r3, r3
 751 0016 1800     		movs	r0, r3
 752 0018 FFF7FEFF 		bl	USBUART_GetConfigTablePtr
 753 001c 0300     		movs	r3, r0
 754 001e FB60     		str	r3, [r7, #12]
 399:Generated_Source\PSoC4/USBUART_hid.c ****     reportType = (uint8) USBUART_wValueHiReg;
 755              		.loc 1 399 0
 756 0020 344B     		ldr	r3, .L56+8
 757 0022 DA68     		ldr	r2, [r3, #12]
 758 0024 0B23     		movs	r3, #11
 759 0026 FB18     		adds	r3, r7, r3
 760 0028 1A70     		strb	r2, [r3]
 400:Generated_Source\PSoC4/USBUART_hid.c ****     interfaceN = (uint8) USBUART_wIndexLoReg;
 761              		.loc 1 400 0
 762 002a 324B     		ldr	r3, .L56+8
 763 002c 1A69     		ldr	r2, [r3, #16]
 764 002e 0A23     		movs	r3, #10
 765 0030 FB18     		adds	r3, r7, r3
 766 0032 1A70     		strb	r2, [r3]
 401:Generated_Source\PSoC4/USBUART_hid.c ****     
 402:Generated_Source\PSoC4/USBUART_hid.c ****     /* Third entry in the LUT Configuration Table starts the Interface Table pointers */
 403:Generated_Source\PSoC4/USBUART_hid.c ****     /* Now use the request interface number */
 404:Generated_Source\PSoC4/USBUART_hid.c ****     pTmp = &pTmp[interfaceN + 2u];
 767              		.loc 1 404 0
 768 0034 0A23     		movs	r3, #10
 769 0036 FB18     		adds	r3, r7, r3
 770 0038 1B78     		ldrb	r3, [r3]
 771 003a 0233     		adds	r3, r3, #2
 772 003c DB00     		lsls	r3, r3, #3
 773 003e FA68     		ldr	r2, [r7, #12]
 774 0040 D318     		adds	r3, r2, r3
 775 0042 FB60     		str	r3, [r7, #12]
 405:Generated_Source\PSoC4/USBUART_hid.c ****     
 406:Generated_Source\PSoC4/USBUART_hid.c ****     /* USB_DEVICEx_CONFIGURATIONy_INTERFACEz_TABLE */
 407:Generated_Source\PSoC4/USBUART_hid.c ****     pTmp = (const T_USBUART_LUT CYCODE *) pTmp->p_list;
 776              		.loc 1 407 0
 777 0044 FB68     		ldr	r3, [r7, #12]
 778 0046 5B68     		ldr	r3, [r3, #4]
 779 0048 FB60     		str	r3, [r7, #12]
 408:Generated_Source\PSoC4/USBUART_hid.c ****     if (interfaceN < USBUART_MAX_INTERFACES_NUMBER)
 780              		.loc 1 408 0
 781 004a 0A23     		movs	r3, #10
 782 004c FB18     		adds	r3, r7, r3
 783 004e 1B78     		ldrb	r3, [r3]
 784 0050 012B     		cmp	r3, #1
 785 0052 46D8     		bhi	.L55
 409:Generated_Source\PSoC4/USBUART_hid.c ****     {
 410:Generated_Source\PSoC4/USBUART_hid.c ****         /* Now use Alternate setting number */
 411:Generated_Source\PSoC4/USBUART_hid.c ****         pTmp = &pTmp[USBUART_interfaceSetting[interfaceN]];
 786              		.loc 1 411 0
 787 0054 0A23     		movs	r3, #10
 788 0056 FB18     		adds	r3, r7, r3
ARM GAS  C:\Users\HPz420\AppData\Local\Temp\ccLsOs1V.s 			page 23


 789 0058 1B78     		ldrb	r3, [r3]
 790 005a 274A     		ldr	r2, .L56+12
 791 005c D35C     		ldrb	r3, [r2, r3]
 792 005e DBB2     		uxtb	r3, r3
 793 0060 DB00     		lsls	r3, r3, #3
 794 0062 FA68     		ldr	r2, [r7, #12]
 795 0064 D318     		adds	r3, r2, r3
 796 0066 FB60     		str	r3, [r7, #12]
 412:Generated_Source\PSoC4/USBUART_hid.c ****         
 413:Generated_Source\PSoC4/USBUART_hid.c ****         /* USB_DEVICEx_CONFIGURATIONy_INTERFACEz_ALTERNATEi_HID_TABLE */
 414:Generated_Source\PSoC4/USBUART_hid.c ****         pTmp = (const T_USBUART_LUT CYCODE *) pTmp->p_list;
 797              		.loc 1 414 0
 798 0068 FB68     		ldr	r3, [r7, #12]
 799 006a 5B68     		ldr	r3, [r3, #4]
 800 006c FB60     		str	r3, [r7, #12]
 415:Generated_Source\PSoC4/USBUART_hid.c ****         
 416:Generated_Source\PSoC4/USBUART_hid.c ****         /* Validate reportType to comply with "7.2.1 Get_Report Request" */
 417:Generated_Source\PSoC4/USBUART_hid.c ****         if ((reportType >= USBUART_HID_GET_REPORT_INPUT) &&
 801              		.loc 1 417 0
 802 006e 0B23     		movs	r3, #11
 803 0070 FB18     		adds	r3, r7, r3
 804 0072 1B78     		ldrb	r3, [r3]
 805 0074 002B     		cmp	r3, #0
 806 0076 34D0     		beq	.L55
 807              		.loc 1 417 0 is_stmt 0 discriminator 1
 808 0078 0B23     		movs	r3, #11
 809 007a FB18     		adds	r3, r7, r3
 810 007c 1B78     		ldrb	r3, [r3]
 811 007e 032B     		cmp	r3, #3
 812 0080 2FD8     		bhi	.L55
 418:Generated_Source\PSoC4/USBUART_hid.c ****             (reportType <= USBUART_HID_GET_REPORT_FEATURE))
 419:Generated_Source\PSoC4/USBUART_hid.c ****         {
 420:Generated_Source\PSoC4/USBUART_hid.c ****             /* Get the entry proper TD (IN, OUT or Feature Report Table)*/
 421:Generated_Source\PSoC4/USBUART_hid.c ****             pTmp = &pTmp[reportType - 1u];
 813              		.loc 1 421 0 is_stmt 1
 814 0082 0B23     		movs	r3, #11
 815 0084 FB18     		adds	r3, r7, r3
 816 0086 1B78     		ldrb	r3, [r3]
 817 0088 1C4A     		ldr	r2, .L56+16
 818 008a 9446     		mov	ip, r2
 819 008c 6344     		add	r3, r3, ip
 820 008e DB00     		lsls	r3, r3, #3
 821 0090 FA68     		ldr	r2, [r7, #12]
 822 0092 D318     		adds	r3, r2, r3
 823 0094 FB60     		str	r3, [r7, #12]
 422:Generated_Source\PSoC4/USBUART_hid.c ****             
 423:Generated_Source\PSoC4/USBUART_hid.c ****             /* Get reportID */
 424:Generated_Source\PSoC4/USBUART_hid.c ****             reportType = (uint8) USBUART_wValueLoReg;
 824              		.loc 1 424 0
 825 0096 174B     		ldr	r3, .L56+8
 826 0098 9A68     		ldr	r2, [r3, #8]
 827 009a 0B23     		movs	r3, #11
 828 009c FB18     		adds	r3, r7, r3
 829 009e 1A70     		strb	r2, [r3]
 425:Generated_Source\PSoC4/USBUART_hid.c ****             
 426:Generated_Source\PSoC4/USBUART_hid.c ****             /* Validate table support by the HID descriptor, compare table count with reportID */
 427:Generated_Source\PSoC4/USBUART_hid.c ****             if (pTmp->c >= reportType)
ARM GAS  C:\Users\HPz420\AppData\Local\Temp\ccLsOs1V.s 			page 24


 830              		.loc 1 427 0
 831 00a0 FB68     		ldr	r3, [r7, #12]
 832 00a2 1B78     		ldrb	r3, [r3]
 833 00a4 0B22     		movs	r2, #11
 834 00a6 BA18     		adds	r2, r7, r2
 835 00a8 1278     		ldrb	r2, [r2]
 836 00aa 9A42     		cmp	r2, r3
 837 00ac 19D8     		bhi	.L55
 428:Generated_Source\PSoC4/USBUART_hid.c ****             {
 429:Generated_Source\PSoC4/USBUART_hid.c ****                 pTD = (T_USBUART_TD *) pTmp->p_list;
 838              		.loc 1 429 0
 839 00ae FB68     		ldr	r3, [r7, #12]
 840 00b0 5B68     		ldr	r3, [r3, #4]
 841 00b2 7B60     		str	r3, [r7, #4]
 430:Generated_Source\PSoC4/USBUART_hid.c ****                 pTD = &pTD[reportType];                          /* select entry depend on report I
 842              		.loc 1 430 0
 843 00b4 0B23     		movs	r3, #11
 844 00b6 FB18     		adds	r3, r7, r3
 845 00b8 1A78     		ldrb	r2, [r3]
 846 00ba 1300     		movs	r3, r2
 847 00bc 5B00     		lsls	r3, r3, #1
 848 00be 9B18     		adds	r3, r3, r2
 849 00c0 9B00     		lsls	r3, r3, #2
 850 00c2 1A00     		movs	r2, r3
 851 00c4 7B68     		ldr	r3, [r7, #4]
 852 00c6 9B18     		adds	r3, r3, r2
 853 00c8 7B60     		str	r3, [r7, #4]
 431:Generated_Source\PSoC4/USBUART_hid.c ****                 USBUART_currentTD.pData = pTD->pData;   /* Buffer pointer */
 854              		.loc 1 431 0
 855 00ca 7B68     		ldr	r3, [r7, #4]
 856 00cc 5A68     		ldr	r2, [r3, #4]
 857 00ce 074B     		ldr	r3, .L56
 858 00d0 5A60     		str	r2, [r3, #4]
 432:Generated_Source\PSoC4/USBUART_hid.c ****                 USBUART_currentTD.count = pTD->count;   /* Buffer Size */
 859              		.loc 1 432 0
 860 00d2 7B68     		ldr	r3, [r7, #4]
 861 00d4 1A88     		ldrh	r2, [r3]
 862 00d6 054B     		ldr	r3, .L56
 863 00d8 1A80     		strh	r2, [r3]
 433:Generated_Source\PSoC4/USBUART_hid.c ****                 USBUART_currentTD.pStatusBlock = pTD->pStatusBlock;
 864              		.loc 1 433 0
 865 00da 7B68     		ldr	r3, [r7, #4]
 866 00dc 9A68     		ldr	r2, [r3, #8]
 867 00de 034B     		ldr	r3, .L56
 868 00e0 9A60     		str	r2, [r3, #8]
 869              	.L55:
 434:Generated_Source\PSoC4/USBUART_hid.c ****             }
 435:Generated_Source\PSoC4/USBUART_hid.c ****         }
 436:Generated_Source\PSoC4/USBUART_hid.c ****     }
 437:Generated_Source\PSoC4/USBUART_hid.c **** }
 870              		.loc 1 437 0
 871 00e2 C046     		nop
 872 00e4 BD46     		mov	sp, r7
 873 00e6 04B0     		add	sp, sp, #16
 874              		@ sp needed
 875 00e8 80BD     		pop	{r7, pc}
 876              	.L57:
ARM GAS  C:\Users\HPz420\AppData\Local\Temp\ccLsOs1V.s 			page 25


 877 00ea C046     		.align	2
 878              	.L56:
 879 00ec 00000000 		.word	USBUART_currentTD
 880 00f0 00000000 		.word	USBUART_configuration
 881 00f4 00002C40 		.word	1076625408
 882 00f8 00000000 		.word	USBUART_interfaceSetting
 883 00fc FFFFFF1F 		.word	536870911
 884              		.cfi_endproc
 885              	.LFE6:
 886              		.size	USBUART_FindReport, .-USBUART_FindReport
 887              		.text
 888              	.Letext0:
 889              		.file 2 "Generated_Source\\PSoC4\\cytypes.h"
 890              		.file 3 "Generated_Source\\PSoC4\\USBUART.h"
 891              		.file 4 "Generated_Source\\PSoC4\\USBUART_pvt.h"