ARM GAS  C:\Users\HPz420\AppData\Local\Temp\cczc1snk.s 			page 1


   1              		.syntax unified
   2              		.cpu cortex-m0
   3              		.fpu softvfp
   4              		.eabi_attribute 20, 1
   5              		.eabi_attribute 21, 1
   6              		.eabi_attribute 23, 3
   7              		.eabi_attribute 24, 1
   8              		.eabi_attribute 25, 1
   9              		.eabi_attribute 26, 1
  10              		.eabi_attribute 30, 6
  11              		.eabi_attribute 34, 0
  12              		.eabi_attribute 18, 4
  13              		.thumb
  14              		.syntax unified
  15              		.file	"USBUART_std.c"
  16              		.text
  17              	.Ltext0:
  18              		.cfi_sections	.debug_frame
  19              		.section	.text.USBUART_HandleStandardRqst,"ax",%progbits
  20              		.align	2
  21              		.global	USBUART_HandleStandardRqst
  22              		.code	16
  23              		.thumb_func
  24              		.type	USBUART_HandleStandardRqst, %function
  25              	USBUART_HandleStandardRqst:
  26              	.LFB1:
  27              		.file 1 "Generated_Source\\PSoC4\\USBUART_std.c"
   1:Generated_Source\PSoC4/USBUART_std.c **** /***************************************************************************//**
   2:Generated_Source\PSoC4/USBUART_std.c **** * \file USBUART_std.c
   3:Generated_Source\PSoC4/USBUART_std.c **** * \version 3.10
   4:Generated_Source\PSoC4/USBUART_std.c **** *
   5:Generated_Source\PSoC4/USBUART_std.c **** * \brief
   6:Generated_Source\PSoC4/USBUART_std.c **** *  This file contains the USB Standard request handler.
   7:Generated_Source\PSoC4/USBUART_std.c **** *
   8:Generated_Source\PSoC4/USBUART_std.c **** ********************************************************************************
   9:Generated_Source\PSoC4/USBUART_std.c **** * \copyright
  10:Generated_Source\PSoC4/USBUART_std.c **** * Copyright 2008-2016, Cypress Semiconductor Corporation.  All rights reserved.
  11:Generated_Source\PSoC4/USBUART_std.c **** * You may use this file only in accordance with the license, terms, conditions,
  12:Generated_Source\PSoC4/USBUART_std.c **** * disclaimers, and limitations in the end user license agreement accompanying
  13:Generated_Source\PSoC4/USBUART_std.c **** * the software package with which this file was provided.
  14:Generated_Source\PSoC4/USBUART_std.c **** *******************************************************************************/
  15:Generated_Source\PSoC4/USBUART_std.c **** 
  16:Generated_Source\PSoC4/USBUART_std.c **** #include "USBUART_pvt.h"
  17:Generated_Source\PSoC4/USBUART_std.c **** 
  18:Generated_Source\PSoC4/USBUART_std.c **** /***************************************
  19:Generated_Source\PSoC4/USBUART_std.c **** *   Static data allocation
  20:Generated_Source\PSoC4/USBUART_std.c **** ***************************************/
  21:Generated_Source\PSoC4/USBUART_std.c **** 
  22:Generated_Source\PSoC4/USBUART_std.c **** #if defined(USBUART_ENABLE_FWSN_STRING)
  23:Generated_Source\PSoC4/USBUART_std.c ****     static volatile uint8* USBUART_fwSerialNumberStringDescriptor;
  24:Generated_Source\PSoC4/USBUART_std.c ****     static volatile uint8  USBUART_snStringConfirm = USBUART_FALSE;
  25:Generated_Source\PSoC4/USBUART_std.c **** #endif  /* (USBUART_ENABLE_FWSN_STRING) */
  26:Generated_Source\PSoC4/USBUART_std.c **** 
  27:Generated_Source\PSoC4/USBUART_std.c **** #if defined(USBUART_ENABLE_FWSN_STRING)
  28:Generated_Source\PSoC4/USBUART_std.c ****     /***************************************************************************
  29:Generated_Source\PSoC4/USBUART_std.c ****     * Function Name: USBUART_SerialNumString
  30:Generated_Source\PSoC4/USBUART_std.c ****     ************************************************************************//**
ARM GAS  C:\Users\HPz420\AppData\Local\Temp\cczc1snk.s 			page 2


  31:Generated_Source\PSoC4/USBUART_std.c ****     *
  32:Generated_Source\PSoC4/USBUART_std.c ****     *  This function is available only when the User Call Back option in the 
  33:Generated_Source\PSoC4/USBUART_std.c ****     *  Serial Number String descriptor properties is selected. Application 
  34:Generated_Source\PSoC4/USBUART_std.c ****     *  firmware can provide the source of the USB device serial number string 
  35:Generated_Source\PSoC4/USBUART_std.c ****     *  descriptor during run time. The default string is used if the application 
  36:Generated_Source\PSoC4/USBUART_std.c ****     *  firmware does not use this function or sets the wrong string descriptor.
  37:Generated_Source\PSoC4/USBUART_std.c ****     *
  38:Generated_Source\PSoC4/USBUART_std.c ****     *  \param snString:  Pointer to the user-defined string descriptor. The 
  39:Generated_Source\PSoC4/USBUART_std.c ****     *  string descriptor should meet the Universal Serial Bus Specification 
  40:Generated_Source\PSoC4/USBUART_std.c ****     *  revision 2.0 chapter 9.6.7
  41:Generated_Source\PSoC4/USBUART_std.c ****     *  Offset|Size|Value|Description
  42:Generated_Source\PSoC4/USBUART_std.c ****     *  ------|----|------|---------------------------------
  43:Generated_Source\PSoC4/USBUART_std.c ****     *  0     |1   |N     |Size of this descriptor in bytes
  44:Generated_Source\PSoC4/USBUART_std.c ****     *  1     |1   |0x03  |STRING Descriptor Type
  45:Generated_Source\PSoC4/USBUART_std.c ****     *  2     |N-2 |Number|UNICODE encoded string
  46:Generated_Source\PSoC4/USBUART_std.c ****     *  
  47:Generated_Source\PSoC4/USBUART_std.c ****     * *For example:* uint8 snString[16]={0x0E,0x03,'F',0,'W',0,'S',0,'N',0,'0',0,'1',0};
  48:Generated_Source\PSoC4/USBUART_std.c ****     *
  49:Generated_Source\PSoC4/USBUART_std.c ****     * \reentrant
  50:Generated_Source\PSoC4/USBUART_std.c ****     *  No.
  51:Generated_Source\PSoC4/USBUART_std.c ****     *
  52:Generated_Source\PSoC4/USBUART_std.c ****     ***************************************************************************/
  53:Generated_Source\PSoC4/USBUART_std.c ****     void  USBUART_SerialNumString(uint8 snString[]) 
  54:Generated_Source\PSoC4/USBUART_std.c ****     {
  55:Generated_Source\PSoC4/USBUART_std.c ****         USBUART_snStringConfirm = USBUART_FALSE;
  56:Generated_Source\PSoC4/USBUART_std.c ****         
  57:Generated_Source\PSoC4/USBUART_std.c ****         if (snString != NULL)
  58:Generated_Source\PSoC4/USBUART_std.c ****         {
  59:Generated_Source\PSoC4/USBUART_std.c ****             /* Check descriptor validation */
  60:Generated_Source\PSoC4/USBUART_std.c ****             if ((snString[0u] > 1u) && (snString[1u] == USBUART_DESCR_STRING))
  61:Generated_Source\PSoC4/USBUART_std.c ****             {
  62:Generated_Source\PSoC4/USBUART_std.c ****                 USBUART_fwSerialNumberStringDescriptor = snString;
  63:Generated_Source\PSoC4/USBUART_std.c ****                 USBUART_snStringConfirm = USBUART_TRUE;
  64:Generated_Source\PSoC4/USBUART_std.c ****             }
  65:Generated_Source\PSoC4/USBUART_std.c ****         }
  66:Generated_Source\PSoC4/USBUART_std.c ****     }
  67:Generated_Source\PSoC4/USBUART_std.c **** #endif  /* USBUART_ENABLE_FWSN_STRING */
  68:Generated_Source\PSoC4/USBUART_std.c **** 
  69:Generated_Source\PSoC4/USBUART_std.c **** 
  70:Generated_Source\PSoC4/USBUART_std.c **** /*******************************************************************************
  71:Generated_Source\PSoC4/USBUART_std.c **** * Function Name: USBUART_HandleStandardRqst
  72:Generated_Source\PSoC4/USBUART_std.c **** ****************************************************************************//**
  73:Generated_Source\PSoC4/USBUART_std.c **** *
  74:Generated_Source\PSoC4/USBUART_std.c **** *  This Routine dispatches standard requests
  75:Generated_Source\PSoC4/USBUART_std.c **** *
  76:Generated_Source\PSoC4/USBUART_std.c **** *
  77:Generated_Source\PSoC4/USBUART_std.c **** * \return
  78:Generated_Source\PSoC4/USBUART_std.c **** *  TRUE if request handled.
  79:Generated_Source\PSoC4/USBUART_std.c **** *
  80:Generated_Source\PSoC4/USBUART_std.c **** * \reentrant
  81:Generated_Source\PSoC4/USBUART_std.c **** *  No.
  82:Generated_Source\PSoC4/USBUART_std.c **** *
  83:Generated_Source\PSoC4/USBUART_std.c **** *******************************************************************************/
  84:Generated_Source\PSoC4/USBUART_std.c **** uint8 USBUART_HandleStandardRqst(void) 
  85:Generated_Source\PSoC4/USBUART_std.c **** {
  28              		.loc 1 85 0
  29              		.cfi_startproc
ARM GAS  C:\Users\HPz420\AppData\Local\Temp\cczc1snk.s 			page 3


  30              		@ args = 0, pretend = 0, frame = 32
  31              		@ frame_needed = 1, uses_anonymous_args = 0
  32 0000 90B5     		push	{r4, r7, lr}
  33              		.cfi_def_cfa_offset 12
  34              		.cfi_offset 4, -12
  35              		.cfi_offset 7, -8
  36              		.cfi_offset 14, -4
  37 0002 89B0     		sub	sp, sp, #36
  38              		.cfi_def_cfa_offset 48
  39 0004 00AF     		add	r7, sp, #0
  40              		.cfi_def_cfa_register 7
  86:Generated_Source\PSoC4/USBUART_std.c ****     uint8 requestHandled = USBUART_FALSE;
  41              		.loc 1 86 0
  42 0006 1F23     		movs	r3, #31
  43 0008 FB18     		adds	r3, r7, r3
  44 000a 0022     		movs	r2, #0
  45 000c 1A70     		strb	r2, [r3]
  87:Generated_Source\PSoC4/USBUART_std.c ****     uint32 interfaceNumber;
  88:Generated_Source\PSoC4/USBUART_std.c ****     uint32 configurationN;
  89:Generated_Source\PSoC4/USBUART_std.c ****     uint32 bmRequestType = USBUART_bmRequestTypeReg;
  46              		.loc 1 89 0
  47 000e D44B     		ldr	r3, .L67
  48 0010 1B68     		ldr	r3, [r3]
  49 0012 FB60     		str	r3, [r7, #12]
  90:Generated_Source\PSoC4/USBUART_std.c **** 
  91:Generated_Source\PSoC4/USBUART_std.c **** #if defined(USBUART_ENABLE_STRINGS)
  92:Generated_Source\PSoC4/USBUART_std.c ****     volatile uint8 *pStr = 0u;
  50              		.loc 1 92 0
  51 0014 0023     		movs	r3, #0
  52 0016 BB61     		str	r3, [r7, #24]
  93:Generated_Source\PSoC4/USBUART_std.c ****     #if defined(USBUART_ENABLE_DESCRIPTOR_STRINGS)
  94:Generated_Source\PSoC4/USBUART_std.c ****         uint8 nStr;
  95:Generated_Source\PSoC4/USBUART_std.c ****         uint8 descrLength;
  96:Generated_Source\PSoC4/USBUART_std.c ****     #endif /* (USBUART_ENABLE_DESCRIPTOR_STRINGS) */
  97:Generated_Source\PSoC4/USBUART_std.c **** #endif /* (USBUART_ENABLE_STRINGS) */
  98:Generated_Source\PSoC4/USBUART_std.c ****     
  99:Generated_Source\PSoC4/USBUART_std.c ****     static volatile uint8 USBUART_tBuffer[USBUART_STATUS_LENGTH_MAX];
 100:Generated_Source\PSoC4/USBUART_std.c ****     const T_USBUART_LUT CYCODE *pTmp;
 101:Generated_Source\PSoC4/USBUART_std.c **** 
 102:Generated_Source\PSoC4/USBUART_std.c ****     USBUART_currentTD.count = 0u;
  53              		.loc 1 102 0
  54 0018 D24B     		ldr	r3, .L67+4
  55 001a 0022     		movs	r2, #0
  56 001c 1A80     		strh	r2, [r3]
 103:Generated_Source\PSoC4/USBUART_std.c **** 
 104:Generated_Source\PSoC4/USBUART_std.c ****     if (USBUART_RQST_DIR_D2H == (bmRequestType & USBUART_RQST_DIR_MASK))
  57              		.loc 1 104 0
  58 001e FB68     		ldr	r3, [r7, #12]
  59 0020 8022     		movs	r2, #128
  60 0022 1340     		ands	r3, r2
  61 0024 00D1     		bne	.LCB29
  62 0026 07E1     		b	.L2	@long jump
  63              	.LCB29:
 105:Generated_Source\PSoC4/USBUART_std.c ****     {
 106:Generated_Source\PSoC4/USBUART_std.c ****         /* Control Read */
 107:Generated_Source\PSoC4/USBUART_std.c ****         switch (USBUART_bRequestReg)
  64              		.loc 1 107 0
ARM GAS  C:\Users\HPz420\AppData\Local\Temp\cczc1snk.s 			page 4


  65 0028 CD4B     		ldr	r3, .L67
  66 002a 5B68     		ldr	r3, [r3, #4]
  67 002c 062B     		cmp	r3, #6
  68 002e 0BD0     		beq	.L4
  69 0030 03D8     		bhi	.L5
  70 0032 002B     		cmp	r3, #0
  71 0034 00D1     		bne	.LCB37
  72 0036 A6E0     		b	.L6	@long jump
  73              	.LCB37:
 108:Generated_Source\PSoC4/USBUART_std.c ****         {
 109:Generated_Source\PSoC4/USBUART_std.c ****             case USBUART_GET_DESCRIPTOR:
 110:Generated_Source\PSoC4/USBUART_std.c ****                 if (USBUART_DESCR_DEVICE ==USBUART_wValueHiReg)
 111:Generated_Source\PSoC4/USBUART_std.c ****                 {
 112:Generated_Source\PSoC4/USBUART_std.c ****                     pTmp = USBUART_GetDeviceTablePtr();
 113:Generated_Source\PSoC4/USBUART_std.c ****                     USBUART_currentTD.pData = (volatile uint8 *)pTmp->p_list;
 114:Generated_Source\PSoC4/USBUART_std.c ****                     USBUART_currentTD.count = USBUART_DEVICE_DESCR_LENGTH;
 115:Generated_Source\PSoC4/USBUART_std.c ****                     
 116:Generated_Source\PSoC4/USBUART_std.c ****                     requestHandled  = USBUART_InitControlRead();
 117:Generated_Source\PSoC4/USBUART_std.c ****                 }
 118:Generated_Source\PSoC4/USBUART_std.c ****                 else if (USBUART_DESCR_CONFIG == USBUART_wValueHiReg)
 119:Generated_Source\PSoC4/USBUART_std.c ****                 {
 120:Generated_Source\PSoC4/USBUART_std.c ****                     pTmp = USBUART_GetConfigTablePtr((uint8) USBUART_wValueLoReg);
 121:Generated_Source\PSoC4/USBUART_std.c ****                     
 122:Generated_Source\PSoC4/USBUART_std.c ****                     /* Verify that requested descriptor exists */
 123:Generated_Source\PSoC4/USBUART_std.c ****                     if (pTmp != NULL)
 124:Generated_Source\PSoC4/USBUART_std.c ****                     {
 125:Generated_Source\PSoC4/USBUART_std.c ****                         USBUART_currentTD.pData = (volatile uint8 *)pTmp->p_list;
 126:Generated_Source\PSoC4/USBUART_std.c ****                         USBUART_currentTD.count = (uint16)((uint16)(USBUART_currentTD.pData)[USBUAR
 127:Generated_Source\PSoC4/USBUART_std.c ****                                                                             (USBUART_currentTD.pDat
 128:Generated_Source\PSoC4/USBUART_std.c ****                         requestHandled  = USBUART_InitControlRead();
 129:Generated_Source\PSoC4/USBUART_std.c ****                     }
 130:Generated_Source\PSoC4/USBUART_std.c ****                 }
 131:Generated_Source\PSoC4/USBUART_std.c ****                 
 132:Generated_Source\PSoC4/USBUART_std.c ****             #if(USBUART_BOS_ENABLE)
 133:Generated_Source\PSoC4/USBUART_std.c ****                 else if (USBUART_DESCR_BOS == USBUART_wValueHiReg)
 134:Generated_Source\PSoC4/USBUART_std.c ****                 {
 135:Generated_Source\PSoC4/USBUART_std.c ****                     pTmp = USBUART_GetBOSPtr();
 136:Generated_Source\PSoC4/USBUART_std.c ****                     
 137:Generated_Source\PSoC4/USBUART_std.c ****                     /* Verify that requested descriptor exists */
 138:Generated_Source\PSoC4/USBUART_std.c ****                     if (pTmp != NULL)
 139:Generated_Source\PSoC4/USBUART_std.c ****                     {
 140:Generated_Source\PSoC4/USBUART_std.c ****                         USBUART_currentTD.pData = (volatile uint8 *)pTmp;
 141:Generated_Source\PSoC4/USBUART_std.c ****                         USBUART_currentTD.count = ((uint16)((uint16)(USBUART_currentTD.pData)[USBUA
 142:Generated_Source\PSoC4/USBUART_std.c ****                                                                              (USBUART_currentTD.pDa
 143:Generated_Source\PSoC4/USBUART_std.c ****                         requestHandled  = USBUART_InitControlRead();
 144:Generated_Source\PSoC4/USBUART_std.c ****                     }
 145:Generated_Source\PSoC4/USBUART_std.c ****                 }
 146:Generated_Source\PSoC4/USBUART_std.c ****             #endif /*(USBUART_BOS_ENABLE)*/
 147:Generated_Source\PSoC4/USBUART_std.c ****             
 148:Generated_Source\PSoC4/USBUART_std.c ****             #if defined(USBUART_ENABLE_STRINGS)
 149:Generated_Source\PSoC4/USBUART_std.c ****                 else if (USBUART_DESCR_STRING == USBUART_wValueHiReg)
 150:Generated_Source\PSoC4/USBUART_std.c ****                 {
 151:Generated_Source\PSoC4/USBUART_std.c ****                 /* Descriptor Strings */
 152:Generated_Source\PSoC4/USBUART_std.c ****                 #if defined(USBUART_ENABLE_DESCRIPTOR_STRINGS)
 153:Generated_Source\PSoC4/USBUART_std.c ****                     nStr = 0u;
 154:Generated_Source\PSoC4/USBUART_std.c ****                     pStr = (volatile uint8 *) &USBUART_STRING_DESCRIPTORS[0u];
 155:Generated_Source\PSoC4/USBUART_std.c ****                     
ARM GAS  C:\Users\HPz420\AppData\Local\Temp\cczc1snk.s 			page 5


 156:Generated_Source\PSoC4/USBUART_std.c ****                     while ((USBUART_wValueLoReg > nStr) && (*pStr != 0u))
 157:Generated_Source\PSoC4/USBUART_std.c ****                     {
 158:Generated_Source\PSoC4/USBUART_std.c ****                         /* Read descriptor length from 1st byte */
 159:Generated_Source\PSoC4/USBUART_std.c ****                         descrLength = *pStr;
 160:Generated_Source\PSoC4/USBUART_std.c ****                         /* Move to next string descriptor */
 161:Generated_Source\PSoC4/USBUART_std.c ****                         pStr = &pStr[descrLength];
 162:Generated_Source\PSoC4/USBUART_std.c ****                         nStr++;
 163:Generated_Source\PSoC4/USBUART_std.c ****                     }
 164:Generated_Source\PSoC4/USBUART_std.c ****                 #endif /* (USBUART_ENABLE_DESCRIPTOR_STRINGS) */
 165:Generated_Source\PSoC4/USBUART_std.c ****                 
 166:Generated_Source\PSoC4/USBUART_std.c ****                 /* Microsoft OS String */
 167:Generated_Source\PSoC4/USBUART_std.c ****                 #if defined(USBUART_ENABLE_MSOS_STRING)
 168:Generated_Source\PSoC4/USBUART_std.c ****                     if (USBUART_STRING_MSOS == USBUART_wValueLoReg)
 169:Generated_Source\PSoC4/USBUART_std.c ****                     {
 170:Generated_Source\PSoC4/USBUART_std.c ****                         pStr = (volatile uint8 *)& USBUART_MSOS_DESCRIPTOR[0u];
 171:Generated_Source\PSoC4/USBUART_std.c ****                     }
 172:Generated_Source\PSoC4/USBUART_std.c ****                 #endif /* (USBUART_ENABLE_MSOS_STRING) */
 173:Generated_Source\PSoC4/USBUART_std.c ****                 
 174:Generated_Source\PSoC4/USBUART_std.c ****                 /* SN string */
 175:Generated_Source\PSoC4/USBUART_std.c ****                 #if defined(USBUART_ENABLE_SN_STRING)
 176:Generated_Source\PSoC4/USBUART_std.c ****                     if ((USBUART_wValueLoReg != 0u) && 
 177:Generated_Source\PSoC4/USBUART_std.c ****                         (USBUART_wValueLoReg == USBUART_DEVICE0_DESCR[USBUART_DEVICE_DESCR_SN_SHIFT
 178:Generated_Source\PSoC4/USBUART_std.c ****                     {
 179:Generated_Source\PSoC4/USBUART_std.c ****                     #if defined(USBUART_ENABLE_IDSN_STRING)
 180:Generated_Source\PSoC4/USBUART_std.c ****                         /* Read DIE ID and generate string descriptor in RAM */
 181:Generated_Source\PSoC4/USBUART_std.c ****                         USBUART_ReadDieID(USBUART_idSerialNumberStringDescriptor);
 182:Generated_Source\PSoC4/USBUART_std.c ****                         pStr = USBUART_idSerialNumberStringDescriptor;
 183:Generated_Source\PSoC4/USBUART_std.c ****                     #elif defined(USBUART_ENABLE_FWSN_STRING)
 184:Generated_Source\PSoC4/USBUART_std.c ****                         
 185:Generated_Source\PSoC4/USBUART_std.c ****                         if(USBUART_snStringConfirm != USBUART_FALSE)
 186:Generated_Source\PSoC4/USBUART_std.c ****                         {
 187:Generated_Source\PSoC4/USBUART_std.c ****                             pStr = USBUART_fwSerialNumberStringDescriptor;
 188:Generated_Source\PSoC4/USBUART_std.c ****                         }
 189:Generated_Source\PSoC4/USBUART_std.c ****                         else
 190:Generated_Source\PSoC4/USBUART_std.c ****                         {
 191:Generated_Source\PSoC4/USBUART_std.c ****                             pStr = (volatile uint8 *)&USBUART_SN_STRING_DESCRIPTOR[0u];
 192:Generated_Source\PSoC4/USBUART_std.c ****                         }
 193:Generated_Source\PSoC4/USBUART_std.c ****                     #else
 194:Generated_Source\PSoC4/USBUART_std.c ****                         pStr = (volatile uint8 *)&USBUART_SN_STRING_DESCRIPTOR[0u];
 195:Generated_Source\PSoC4/USBUART_std.c ****                     #endif  /* (USBUART_ENABLE_IDSN_STRING) */
 196:Generated_Source\PSoC4/USBUART_std.c ****                     }
 197:Generated_Source\PSoC4/USBUART_std.c ****                 #endif /* (USBUART_ENABLE_SN_STRING) */
 198:Generated_Source\PSoC4/USBUART_std.c ****                 
 199:Generated_Source\PSoC4/USBUART_std.c ****                     if (*pStr != 0u)
 200:Generated_Source\PSoC4/USBUART_std.c ****                     {
 201:Generated_Source\PSoC4/USBUART_std.c ****                         USBUART_currentTD.count = *pStr;
 202:Generated_Source\PSoC4/USBUART_std.c ****                         USBUART_currentTD.pData = pStr;
 203:Generated_Source\PSoC4/USBUART_std.c ****                         requestHandled  = USBUART_InitControlRead();
 204:Generated_Source\PSoC4/USBUART_std.c ****                     }
 205:Generated_Source\PSoC4/USBUART_std.c ****                 }
 206:Generated_Source\PSoC4/USBUART_std.c ****             #endif /*  USBUART_ENABLE_STRINGS */
 207:Generated_Source\PSoC4/USBUART_std.c ****                 else
 208:Generated_Source\PSoC4/USBUART_std.c ****                 {
 209:Generated_Source\PSoC4/USBUART_std.c ****                     requestHandled = USBUART_DispatchClassRqst();
 210:Generated_Source\PSoC4/USBUART_std.c ****                 }
 211:Generated_Source\PSoC4/USBUART_std.c ****                 break;
 212:Generated_Source\PSoC4/USBUART_std.c ****                 
ARM GAS  C:\Users\HPz420\AppData\Local\Temp\cczc1snk.s 			page 6


 213:Generated_Source\PSoC4/USBUART_std.c ****             case USBUART_GET_STATUS:
 214:Generated_Source\PSoC4/USBUART_std.c ****                 switch (bmRequestType & USBUART_RQST_RCPT_MASK)
 215:Generated_Source\PSoC4/USBUART_std.c ****                 {
 216:Generated_Source\PSoC4/USBUART_std.c ****                     case USBUART_RQST_RCPT_EP:
 217:Generated_Source\PSoC4/USBUART_std.c ****                         USBUART_currentTD.count = USBUART_EP_STATUS_LENGTH;
 218:Generated_Source\PSoC4/USBUART_std.c ****                         USBUART_tBuffer[0u]     = USBUART_EP[USBUART_wIndexLoReg & USBUART_DIR_UNUS
 219:Generated_Source\PSoC4/USBUART_std.c ****                         USBUART_tBuffer[1u]     = 0u;
 220:Generated_Source\PSoC4/USBUART_std.c ****                         USBUART_currentTD.pData = &USBUART_tBuffer[0u];
 221:Generated_Source\PSoC4/USBUART_std.c ****                         
 222:Generated_Source\PSoC4/USBUART_std.c ****                         requestHandled  = USBUART_InitControlRead();
 223:Generated_Source\PSoC4/USBUART_std.c ****                         break;
 224:Generated_Source\PSoC4/USBUART_std.c ****                     case USBUART_RQST_RCPT_DEV:
 225:Generated_Source\PSoC4/USBUART_std.c ****                         USBUART_currentTD.count = USBUART_DEVICE_STATUS_LENGTH;
 226:Generated_Source\PSoC4/USBUART_std.c ****                         USBUART_tBuffer[0u]     = USBUART_deviceStatus;
 227:Generated_Source\PSoC4/USBUART_std.c ****                         USBUART_tBuffer[1u]     = 0u;
 228:Generated_Source\PSoC4/USBUART_std.c ****                         USBUART_currentTD.pData = &USBUART_tBuffer[0u];
 229:Generated_Source\PSoC4/USBUART_std.c ****                         
 230:Generated_Source\PSoC4/USBUART_std.c ****                         requestHandled  = USBUART_InitControlRead();
 231:Generated_Source\PSoC4/USBUART_std.c ****                         break;
 232:Generated_Source\PSoC4/USBUART_std.c ****                     default:    /* requestHandled is initialized as FALSE by default */
 233:Generated_Source\PSoC4/USBUART_std.c ****                         break;
 234:Generated_Source\PSoC4/USBUART_std.c ****                 }
 235:Generated_Source\PSoC4/USBUART_std.c ****                 break;
 236:Generated_Source\PSoC4/USBUART_std.c ****                 
 237:Generated_Source\PSoC4/USBUART_std.c ****             case USBUART_GET_CONFIGURATION:
 238:Generated_Source\PSoC4/USBUART_std.c ****                 USBUART_currentTD.count = 1u;
 239:Generated_Source\PSoC4/USBUART_std.c ****                 USBUART_currentTD.pData = (volatile uint8 *) &USBUART_configuration;
 240:Generated_Source\PSoC4/USBUART_std.c ****                 requestHandled  = USBUART_InitControlRead();
 241:Generated_Source\PSoC4/USBUART_std.c ****                 break;
 242:Generated_Source\PSoC4/USBUART_std.c ****                 
 243:Generated_Source\PSoC4/USBUART_std.c ****             case USBUART_GET_INTERFACE:
 244:Generated_Source\PSoC4/USBUART_std.c ****                 USBUART_currentTD.count = 1u;
 245:Generated_Source\PSoC4/USBUART_std.c ****                 USBUART_currentTD.pData = (volatile uint8 *) &USBUART_interfaceSetting[USBUART_wInd
 246:Generated_Source\PSoC4/USBUART_std.c ****                 requestHandled  = USBUART_InitControlRead();
 247:Generated_Source\PSoC4/USBUART_std.c ****                 break;
 248:Generated_Source\PSoC4/USBUART_std.c ****                 
 249:Generated_Source\PSoC4/USBUART_std.c ****             default: /* requestHandled is initialized as FALSE by default */
 250:Generated_Source\PSoC4/USBUART_std.c ****                 break;
  74              		.loc 1 250 0
  75 0038 1EE2     		b	.L25
  76              	.L5:
 107:Generated_Source\PSoC4/USBUART_std.c ****         {
  77              		.loc 1 107 0
  78 003a 082B     		cmp	r3, #8
  79 003c 00D1     		bne	.LCB43
  80 003e DEE0     		b	.L7	@long jump
  81              	.LCB43:
  82 0040 0A2B     		cmp	r3, #10
  83 0042 00D1     		bne	.LCB45
  84 0044 E8E0     		b	.L8	@long jump
  85              	.LCB45:
  86              		.loc 1 250 0
  87 0046 17E2     		b	.L25
  88              	.L4:
 110:Generated_Source\PSoC4/USBUART_std.c ****                 {
  89              		.loc 1 110 0
  90 0048 C54B     		ldr	r3, .L67
ARM GAS  C:\Users\HPz420\AppData\Local\Temp\cczc1snk.s 			page 7


  91 004a DB68     		ldr	r3, [r3, #12]
  92 004c 012B     		cmp	r3, #1
  93 004e 11D1     		bne	.L9
 112:Generated_Source\PSoC4/USBUART_std.c ****                     USBUART_currentTD.pData = (volatile uint8 *)pTmp->p_list;
  94              		.loc 1 112 0
  95 0050 FFF7FEFF 		bl	USBUART_GetDeviceTablePtr
  96 0054 0300     		movs	r3, r0
  97 0056 3B61     		str	r3, [r7, #16]
 113:Generated_Source\PSoC4/USBUART_std.c ****                     USBUART_currentTD.count = USBUART_DEVICE_DESCR_LENGTH;
  98              		.loc 1 113 0
  99 0058 3B69     		ldr	r3, [r7, #16]
 100 005a 5A68     		ldr	r2, [r3, #4]
 101 005c C14B     		ldr	r3, .L67+4
 102 005e 5A60     		str	r2, [r3, #4]
 114:Generated_Source\PSoC4/USBUART_std.c ****                     
 103              		.loc 1 114 0
 104 0060 C04B     		ldr	r3, .L67+4
 105 0062 1222     		movs	r2, #18
 106 0064 1A80     		strh	r2, [r3]
 116:Generated_Source\PSoC4/USBUART_std.c ****                 }
 107              		.loc 1 116 0
 108 0066 1F23     		movs	r3, #31
 109 0068 FC18     		adds	r4, r7, r3
 110 006a FFF7FEFF 		bl	USBUART_InitControlRead
 111 006e 0300     		movs	r3, r0
 112 0070 2370     		strb	r3, [r4]
 211:Generated_Source\PSoC4/USBUART_std.c ****                 
 113              		.loc 1 211 0
 114 0072 FAE1     		b	.L57
 115              	.L9:
 118:Generated_Source\PSoC4/USBUART_std.c ****                 {
 116              		.loc 1 118 0
 117 0074 BA4B     		ldr	r3, .L67
 118 0076 DB68     		ldr	r3, [r3, #12]
 119 0078 022B     		cmp	r3, #2
 120 007a 28D1     		bne	.L11
 120:Generated_Source\PSoC4/USBUART_std.c ****                     
 121              		.loc 1 120 0
 122 007c B84B     		ldr	r3, .L67
 123 007e 9B68     		ldr	r3, [r3, #8]
 124 0080 DBB2     		uxtb	r3, r3
 125 0082 1800     		movs	r0, r3
 126 0084 FFF7FEFF 		bl	USBUART_GetConfigTablePtr
 127 0088 0300     		movs	r3, r0
 128 008a 3B61     		str	r3, [r7, #16]
 123:Generated_Source\PSoC4/USBUART_std.c ****                     {
 129              		.loc 1 123 0
 130 008c 3B69     		ldr	r3, [r7, #16]
 131 008e 002B     		cmp	r3, #0
 132 0090 00D1     		bne	.LCB86
 133 0092 EAE1     		b	.L57	@long jump
 134              	.LCB86:
 125:Generated_Source\PSoC4/USBUART_std.c ****                         USBUART_currentTD.count = (uint16)((uint16)(USBUART_currentTD.pData)[USBUAR
 135              		.loc 1 125 0
 136 0094 3B69     		ldr	r3, [r7, #16]
 137 0096 5A68     		ldr	r2, [r3, #4]
 138 0098 B24B     		ldr	r3, .L67+4
ARM GAS  C:\Users\HPz420\AppData\Local\Temp\cczc1snk.s 			page 8


 139 009a 5A60     		str	r2, [r3, #4]
 126:Generated_Source\PSoC4/USBUART_std.c ****                                                                             (USBUART_currentTD.pDat
 140              		.loc 1 126 0
 141 009c B14B     		ldr	r3, .L67+4
 142 009e 5B68     		ldr	r3, [r3, #4]
 143 00a0 0333     		adds	r3, r3, #3
 144 00a2 1B78     		ldrb	r3, [r3]
 145 00a4 DBB2     		uxtb	r3, r3
 146 00a6 9BB2     		uxth	r3, r3
 147 00a8 1B02     		lsls	r3, r3, #8
 148 00aa 9AB2     		uxth	r2, r3
 127:Generated_Source\PSoC4/USBUART_std.c ****                         requestHandled  = USBUART_InitControlRead();
 149              		.loc 1 127 0
 150 00ac AD4B     		ldr	r3, .L67+4
 151 00ae 5B68     		ldr	r3, [r3, #4]
 152 00b0 0233     		adds	r3, r3, #2
 153 00b2 1B78     		ldrb	r3, [r3]
 154 00b4 DBB2     		uxtb	r3, r3
 126:Generated_Source\PSoC4/USBUART_std.c ****                                                                             (USBUART_currentTD.pDat
 155              		.loc 1 126 0
 156 00b6 9BB2     		uxth	r3, r3
 157 00b8 1343     		orrs	r3, r2
 158 00ba 9AB2     		uxth	r2, r3
 159 00bc A94B     		ldr	r3, .L67+4
 160 00be 1A80     		strh	r2, [r3]
 128:Generated_Source\PSoC4/USBUART_std.c ****                     }
 161              		.loc 1 128 0
 162 00c0 1F23     		movs	r3, #31
 163 00c2 FC18     		adds	r4, r7, r3
 164 00c4 FFF7FEFF 		bl	USBUART_InitControlRead
 165 00c8 0300     		movs	r3, r0
 166 00ca 2370     		strb	r3, [r4]
 211:Generated_Source\PSoC4/USBUART_std.c ****                 
 167              		.loc 1 211 0
 168 00cc CDE1     		b	.L57
 169              	.L11:
 149:Generated_Source\PSoC4/USBUART_std.c ****                 {
 170              		.loc 1 149 0
 171 00ce A44B     		ldr	r3, .L67
 172 00d0 DB68     		ldr	r3, [r3, #12]
 173 00d2 032B     		cmp	r3, #3
 174 00d4 50D1     		bne	.L13
 153:Generated_Source\PSoC4/USBUART_std.c ****                     pStr = (volatile uint8 *) &USBUART_STRING_DESCRIPTORS[0u];
 175              		.loc 1 153 0
 176 00d6 1723     		movs	r3, #23
 177 00d8 FB18     		adds	r3, r7, r3
 178 00da 0022     		movs	r2, #0
 179 00dc 1A70     		strb	r2, [r3]
 154:Generated_Source\PSoC4/USBUART_std.c ****                     
 180              		.loc 1 154 0
 181 00de A24B     		ldr	r3, .L67+8
 182 00e0 BB61     		str	r3, [r7, #24]
 156:Generated_Source\PSoC4/USBUART_std.c ****                     {
 183              		.loc 1 156 0
 184 00e2 11E0     		b	.L14
 185              	.L16:
 159:Generated_Source\PSoC4/USBUART_std.c ****                         /* Move to next string descriptor */
ARM GAS  C:\Users\HPz420\AppData\Local\Temp\cczc1snk.s 			page 9


 186              		.loc 1 159 0
 187 00e4 0B23     		movs	r3, #11
 188 00e6 FB18     		adds	r3, r7, r3
 189 00e8 BA69     		ldr	r2, [r7, #24]
 190 00ea 1278     		ldrb	r2, [r2]
 191 00ec 1A70     		strb	r2, [r3]
 161:Generated_Source\PSoC4/USBUART_std.c ****                         nStr++;
 192              		.loc 1 161 0
 193 00ee 0B23     		movs	r3, #11
 194 00f0 FB18     		adds	r3, r7, r3
 195 00f2 1B78     		ldrb	r3, [r3]
 196 00f4 BA69     		ldr	r2, [r7, #24]
 197 00f6 D318     		adds	r3, r2, r3
 198 00f8 BB61     		str	r3, [r7, #24]
 162:Generated_Source\PSoC4/USBUART_std.c ****                     }
 199              		.loc 1 162 0
 200 00fa 1723     		movs	r3, #23
 201 00fc FB18     		adds	r3, r7, r3
 202 00fe 1A78     		ldrb	r2, [r3]
 203 0100 1723     		movs	r3, #23
 204 0102 FB18     		adds	r3, r7, r3
 205 0104 0132     		adds	r2, r2, #1
 206 0106 1A70     		strb	r2, [r3]
 207              	.L14:
 156:Generated_Source\PSoC4/USBUART_std.c ****                     {
 208              		.loc 1 156 0
 209 0108 954B     		ldr	r3, .L67
 210 010a 9A68     		ldr	r2, [r3, #8]
 211 010c 1723     		movs	r3, #23
 212 010e FB18     		adds	r3, r7, r3
 213 0110 1B78     		ldrb	r3, [r3]
 214 0112 9A42     		cmp	r2, r3
 215 0114 04D9     		bls	.L15
 156:Generated_Source\PSoC4/USBUART_std.c ****                     {
 216              		.loc 1 156 0 is_stmt 0 discriminator 1
 217 0116 BB69     		ldr	r3, [r7, #24]
 218 0118 1B78     		ldrb	r3, [r3]
 219 011a DBB2     		uxtb	r3, r3
 220 011c 002B     		cmp	r3, #0
 221 011e E1D1     		bne	.L16
 222              	.L15:
 168:Generated_Source\PSoC4/USBUART_std.c ****                     {
 223              		.loc 1 168 0 is_stmt 1
 224 0120 8F4B     		ldr	r3, .L67
 225 0122 9B68     		ldr	r3, [r3, #8]
 226 0124 EE2B     		cmp	r3, #238
 227 0126 01D1     		bne	.L17
 170:Generated_Source\PSoC4/USBUART_std.c ****                     }
 228              		.loc 1 170 0
 229 0128 904B     		ldr	r3, .L67+12
 230 012a BB61     		str	r3, [r7, #24]
 231              	.L17:
 176:Generated_Source\PSoC4/USBUART_std.c ****                         (USBUART_wValueLoReg == USBUART_DEVICE0_DESCR[USBUART_DEVICE_DESCR_SN_SHIFT
 232              		.loc 1 176 0
 233 012c 8C4B     		ldr	r3, .L67
 234 012e 9B68     		ldr	r3, [r3, #8]
 235 0130 002B     		cmp	r3, #0
ARM GAS  C:\Users\HPz420\AppData\Local\Temp\cczc1snk.s 			page 10


 236 0132 0BD0     		beq	.L18
 177:Generated_Source\PSoC4/USBUART_std.c ****                     {
 237              		.loc 1 177 0 discriminator 1
 238 0134 8A4B     		ldr	r3, .L67
 239 0136 9B68     		ldr	r3, [r3, #8]
 240 0138 8D4A     		ldr	r2, .L67+16
 241 013a 127C     		ldrb	r2, [r2, #16]
 176:Generated_Source\PSoC4/USBUART_std.c ****                         (USBUART_wValueLoReg == USBUART_DEVICE0_DESCR[USBUART_DEVICE_DESCR_SN_SHIFT
 242              		.loc 1 176 0 discriminator 1
 243 013c 9342     		cmp	r3, r2
 244 013e 05D1     		bne	.L18
 181:Generated_Source\PSoC4/USBUART_std.c ****                         pStr = USBUART_idSerialNumberStringDescriptor;
 245              		.loc 1 181 0
 246 0140 8C4B     		ldr	r3, .L67+20
 247 0142 1800     		movs	r0, r3
 248 0144 FFF7FEFF 		bl	USBUART_ReadDieID
 182:Generated_Source\PSoC4/USBUART_std.c ****                     #elif defined(USBUART_ENABLE_FWSN_STRING)
 249              		.loc 1 182 0
 250 0148 8A4B     		ldr	r3, .L67+20
 251 014a BB61     		str	r3, [r7, #24]
 252              	.L18:
 199:Generated_Source\PSoC4/USBUART_std.c ****                     {
 253              		.loc 1 199 0
 254 014c BB69     		ldr	r3, [r7, #24]
 255 014e 1B78     		ldrb	r3, [r3]
 256 0150 DBB2     		uxtb	r3, r3
 257 0152 002B     		cmp	r3, #0
 258 0154 00D1     		bne	.LCB194
 259 0156 88E1     		b	.L57	@long jump
 260              	.LCB194:
 201:Generated_Source\PSoC4/USBUART_std.c ****                         USBUART_currentTD.pData = pStr;
 261              		.loc 1 201 0
 262 0158 BB69     		ldr	r3, [r7, #24]
 263 015a 1B78     		ldrb	r3, [r3]
 264 015c DBB2     		uxtb	r3, r3
 265 015e 9AB2     		uxth	r2, r3
 266 0160 804B     		ldr	r3, .L67+4
 267 0162 1A80     		strh	r2, [r3]
 202:Generated_Source\PSoC4/USBUART_std.c ****                         requestHandled  = USBUART_InitControlRead();
 268              		.loc 1 202 0
 269 0164 7F4B     		ldr	r3, .L67+4
 270 0166 BA69     		ldr	r2, [r7, #24]
 271 0168 5A60     		str	r2, [r3, #4]
 203:Generated_Source\PSoC4/USBUART_std.c ****                     }
 272              		.loc 1 203 0
 273 016a 1F23     		movs	r3, #31
 274 016c FC18     		adds	r4, r7, r3
 275 016e FFF7FEFF 		bl	USBUART_InitControlRead
 276 0172 0300     		movs	r3, r0
 277 0174 2370     		strb	r3, [r4]
 211:Generated_Source\PSoC4/USBUART_std.c ****                 
 278              		.loc 1 211 0
 279 0176 78E1     		b	.L57
 280              	.L13:
 209:Generated_Source\PSoC4/USBUART_std.c ****                 }
 281              		.loc 1 209 0
 282 0178 1F23     		movs	r3, #31
ARM GAS  C:\Users\HPz420\AppData\Local\Temp\cczc1snk.s 			page 11


 283 017a FC18     		adds	r4, r7, r3
 284 017c FFF7FEFF 		bl	USBUART_DispatchClassRqst
 285 0180 0300     		movs	r3, r0
 286 0182 2370     		strb	r3, [r4]
 211:Generated_Source\PSoC4/USBUART_std.c ****                 
 287              		.loc 1 211 0
 288 0184 71E1     		b	.L57
 289              	.L6:
 214:Generated_Source\PSoC4/USBUART_std.c ****                 {
 290              		.loc 1 214 0
 291 0186 FB68     		ldr	r3, [r7, #12]
 292 0188 0322     		movs	r2, #3
 293 018a 1340     		ands	r3, r2
 294 018c 21D0     		beq	.L22
 295 018e 022B     		cmp	r3, #2
 296 0190 00D0     		beq	.L23
 233:Generated_Source\PSoC4/USBUART_std.c ****                 }
 297              		.loc 1 233 0
 298 0192 33E0     		b	.L24
 299              	.L23:
 217:Generated_Source\PSoC4/USBUART_std.c ****                         USBUART_tBuffer[0u]     = USBUART_EP[USBUART_wIndexLoReg & USBUART_DIR_UNUS
 300              		.loc 1 217 0
 301 0194 734B     		ldr	r3, .L67+4
 302 0196 0222     		movs	r2, #2
 303 0198 1A80     		strh	r2, [r3]
 218:Generated_Source\PSoC4/USBUART_std.c ****                         USBUART_tBuffer[1u]     = 0u;
 304              		.loc 1 218 0
 305 019a 714B     		ldr	r3, .L67
 306 019c 1B69     		ldr	r3, [r3, #16]
 307 019e 7F22     		movs	r2, #127
 308 01a0 1A40     		ands	r2, r3
 309 01a2 7549     		ldr	r1, .L67+24
 310 01a4 1300     		movs	r3, r2
 311 01a6 5B00     		lsls	r3, r3, #1
 312 01a8 9B18     		adds	r3, r3, r2
 313 01aa 9B00     		lsls	r3, r3, #2
 314 01ac CB18     		adds	r3, r1, r3
 315 01ae 0233     		adds	r3, r3, #2
 316 01b0 1B78     		ldrb	r3, [r3]
 317 01b2 DAB2     		uxtb	r2, r3
 318 01b4 714B     		ldr	r3, .L67+28
 319 01b6 1A70     		strb	r2, [r3]
 219:Generated_Source\PSoC4/USBUART_std.c ****                         USBUART_currentTD.pData = &USBUART_tBuffer[0u];
 320              		.loc 1 219 0
 321 01b8 704B     		ldr	r3, .L67+28
 322 01ba 0022     		movs	r2, #0
 323 01bc 5A70     		strb	r2, [r3, #1]
 220:Generated_Source\PSoC4/USBUART_std.c ****                         
 324              		.loc 1 220 0
 325 01be 694B     		ldr	r3, .L67+4
 326 01c0 6E4A     		ldr	r2, .L67+28
 327 01c2 5A60     		str	r2, [r3, #4]
 222:Generated_Source\PSoC4/USBUART_std.c ****                         break;
 328              		.loc 1 222 0
 329 01c4 1F23     		movs	r3, #31
 330 01c6 FC18     		adds	r4, r7, r3
 331 01c8 FFF7FEFF 		bl	USBUART_InitControlRead
ARM GAS  C:\Users\HPz420\AppData\Local\Temp\cczc1snk.s 			page 12


 332 01cc 0300     		movs	r3, r0
 333 01ce 2370     		strb	r3, [r4]
 223:Generated_Source\PSoC4/USBUART_std.c ****                     case USBUART_RQST_RCPT_DEV:
 334              		.loc 1 223 0
 335 01d0 14E0     		b	.L24
 336              	.L22:
 225:Generated_Source\PSoC4/USBUART_std.c ****                         USBUART_tBuffer[0u]     = USBUART_deviceStatus;
 337              		.loc 1 225 0
 338 01d2 644B     		ldr	r3, .L67+4
 339 01d4 0222     		movs	r2, #2
 340 01d6 1A80     		strh	r2, [r3]
 226:Generated_Source\PSoC4/USBUART_std.c ****                         USBUART_tBuffer[1u]     = 0u;
 341              		.loc 1 226 0
 342 01d8 694B     		ldr	r3, .L67+32
 343 01da 1B78     		ldrb	r3, [r3]
 344 01dc DAB2     		uxtb	r2, r3
 345 01de 674B     		ldr	r3, .L67+28
 346 01e0 1A70     		strb	r2, [r3]
 227:Generated_Source\PSoC4/USBUART_std.c ****                         USBUART_currentTD.pData = &USBUART_tBuffer[0u];
 347              		.loc 1 227 0
 348 01e2 664B     		ldr	r3, .L67+28
 349 01e4 0022     		movs	r2, #0
 350 01e6 5A70     		strb	r2, [r3, #1]
 228:Generated_Source\PSoC4/USBUART_std.c ****                         
 351              		.loc 1 228 0
 352 01e8 5E4B     		ldr	r3, .L67+4
 353 01ea 644A     		ldr	r2, .L67+28
 354 01ec 5A60     		str	r2, [r3, #4]
 230:Generated_Source\PSoC4/USBUART_std.c ****                         break;
 355              		.loc 1 230 0
 356 01ee 1F23     		movs	r3, #31
 357 01f0 FC18     		adds	r4, r7, r3
 358 01f2 FFF7FEFF 		bl	USBUART_InitControlRead
 359 01f6 0300     		movs	r3, r0
 360 01f8 2370     		strb	r3, [r4]
 231:Generated_Source\PSoC4/USBUART_std.c ****                     default:    /* requestHandled is initialized as FALSE by default */
 361              		.loc 1 231 0
 362 01fa C046     		nop
 363              	.L24:
 235:Generated_Source\PSoC4/USBUART_std.c ****                 
 364              		.loc 1 235 0 discriminator 4
 365 01fc 3CE1     		b	.L25
 366              	.L7:
 238:Generated_Source\PSoC4/USBUART_std.c ****                 USBUART_currentTD.pData = (volatile uint8 *) &USBUART_configuration;
 367              		.loc 1 238 0
 368 01fe 594B     		ldr	r3, .L67+4
 369 0200 0122     		movs	r2, #1
 370 0202 1A80     		strh	r2, [r3]
 239:Generated_Source\PSoC4/USBUART_std.c ****                 requestHandled  = USBUART_InitControlRead();
 371              		.loc 1 239 0
 372 0204 574B     		ldr	r3, .L67+4
 373 0206 5F4A     		ldr	r2, .L67+36
 374 0208 5A60     		str	r2, [r3, #4]
 240:Generated_Source\PSoC4/USBUART_std.c ****                 break;
 375              		.loc 1 240 0
 376 020a 1F23     		movs	r3, #31
 377 020c FC18     		adds	r4, r7, r3
ARM GAS  C:\Users\HPz420\AppData\Local\Temp\cczc1snk.s 			page 13


 378 020e FFF7FEFF 		bl	USBUART_InitControlRead
 379 0212 0300     		movs	r3, r0
 380 0214 2370     		strb	r3, [r4]
 241:Generated_Source\PSoC4/USBUART_std.c ****                 
 381              		.loc 1 241 0
 382 0216 2FE1     		b	.L25
 383              	.L8:
 244:Generated_Source\PSoC4/USBUART_std.c ****                 USBUART_currentTD.pData = (volatile uint8 *) &USBUART_interfaceSetting[USBUART_wInd
 384              		.loc 1 244 0
 385 0218 524B     		ldr	r3, .L67+4
 386 021a 0122     		movs	r2, #1
 387 021c 1A80     		strh	r2, [r3]
 245:Generated_Source\PSoC4/USBUART_std.c ****                 requestHandled  = USBUART_InitControlRead();
 388              		.loc 1 245 0
 389 021e 504B     		ldr	r3, .L67
 390 0220 1A69     		ldr	r2, [r3, #16]
 391 0222 594B     		ldr	r3, .L67+40
 392 0224 D218     		adds	r2, r2, r3
 393 0226 4F4B     		ldr	r3, .L67+4
 394 0228 5A60     		str	r2, [r3, #4]
 246:Generated_Source\PSoC4/USBUART_std.c ****                 break;
 395              		.loc 1 246 0
 396 022a 1F23     		movs	r3, #31
 397 022c FC18     		adds	r4, r7, r3
 398 022e FFF7FEFF 		bl	USBUART_InitControlRead
 399 0232 0300     		movs	r3, r0
 400 0234 2370     		strb	r3, [r4]
 247:Generated_Source\PSoC4/USBUART_std.c ****                 
 401              		.loc 1 247 0
 402 0236 1FE1     		b	.L25
 403              	.L2:
 251:Generated_Source\PSoC4/USBUART_std.c ****         }
 252:Generated_Source\PSoC4/USBUART_std.c ****     }
 253:Generated_Source\PSoC4/USBUART_std.c ****     else
 254:Generated_Source\PSoC4/USBUART_std.c ****     {
 255:Generated_Source\PSoC4/USBUART_std.c ****         /* Control Write */
 256:Generated_Source\PSoC4/USBUART_std.c ****         switch (USBUART_bRequestReg)
 404              		.loc 1 256 0
 405 0238 494B     		ldr	r3, .L67
 406 023a 5B68     		ldr	r3, [r3, #4]
 407 023c 0B2B     		cmp	r3, #11
 408 023e 00D9     		bls	.LCB328
 409 0240 15E1     		b	.L58	@long jump
 410              	.LCB328:
 411 0242 9A00     		lsls	r2, r3, #2
 412 0244 514B     		ldr	r3, .L67+44
 413 0246 D318     		adds	r3, r2, r3
 414 0248 1B68     		ldr	r3, [r3]
 415 024a 9F46     		mov	pc, r3
 416              		.section	.rodata
 417              		.align	2
 418              	.L28:
 419 0000 6E040000 		.word	.L58
 420 0004 10030000 		.word	.L27
 421 0008 6E040000 		.word	.L58
 422 000c DE030000 		.word	.L29
 423 0010 6E040000 		.word	.L58
ARM GAS  C:\Users\HPz420\AppData\Local\Temp\cczc1snk.s 			page 14


 424 0014 4C020000 		.word	.L30
 425 0018 6E040000 		.word	.L58
 426 001c 6E040000 		.word	.L58
 427 0020 6E040000 		.word	.L58
 428 0024 64020000 		.word	.L31
 429 0028 6E040000 		.word	.L58
 430 002c C6020000 		.word	.L32
 431              		.section	.text.USBUART_HandleStandardRqst
 432              	.L30:
 257:Generated_Source\PSoC4/USBUART_std.c ****         {
 258:Generated_Source\PSoC4/USBUART_std.c ****             case USBUART_SET_ADDRESS:
 259:Generated_Source\PSoC4/USBUART_std.c ****                 /* Store address to be set in USBUART_NoDataControlStatusStage(). */
 260:Generated_Source\PSoC4/USBUART_std.c ****                 USBUART_deviceAddress = (uint8) USBUART_wValueLoReg;
 433              		.loc 1 260 0
 434 024c 444B     		ldr	r3, .L67
 435 024e 9B68     		ldr	r3, [r3, #8]
 436 0250 DAB2     		uxtb	r2, r3
 437 0252 4F4B     		ldr	r3, .L67+48
 438 0254 1A70     		strb	r2, [r3]
 261:Generated_Source\PSoC4/USBUART_std.c ****                 requestHandled = USBUART_InitNoDataControlTransfer();
 439              		.loc 1 261 0
 440 0256 1F23     		movs	r3, #31
 441 0258 FC18     		adds	r4, r7, r3
 442 025a FFF7FEFF 		bl	USBUART_InitNoDataControlTransfer
 443 025e 0300     		movs	r3, r0
 444 0260 2370     		strb	r3, [r4]
 262:Generated_Source\PSoC4/USBUART_std.c ****                 break;
 445              		.loc 1 262 0
 446 0262 09E1     		b	.L25
 447              	.L31:
 263:Generated_Source\PSoC4/USBUART_std.c ****                 
 264:Generated_Source\PSoC4/USBUART_std.c ****             case USBUART_SET_CONFIGURATION:
 265:Generated_Source\PSoC4/USBUART_std.c ****                 configurationN = USBUART_wValueLoReg;
 448              		.loc 1 265 0
 449 0264 3E4B     		ldr	r3, .L67
 450 0266 9B68     		ldr	r3, [r3, #8]
 451 0268 7B60     		str	r3, [r7, #4]
 266:Generated_Source\PSoC4/USBUART_std.c ****                 
 267:Generated_Source\PSoC4/USBUART_std.c ****                 /* Verify that configuration descriptor exists */
 268:Generated_Source\PSoC4/USBUART_std.c ****                 if(configurationN > 0u)
 452              		.loc 1 268 0
 453 026a 7B68     		ldr	r3, [r7, #4]
 454 026c 002B     		cmp	r3, #0
 455 026e 08D0     		beq	.L33
 269:Generated_Source\PSoC4/USBUART_std.c ****                 {
 270:Generated_Source\PSoC4/USBUART_std.c ****                     pTmp = USBUART_GetConfigTablePtr((uint8) configurationN - 1u);
 456              		.loc 1 270 0
 457 0270 7B68     		ldr	r3, [r7, #4]
 458 0272 DBB2     		uxtb	r3, r3
 459 0274 013B     		subs	r3, r3, #1
 460 0276 DBB2     		uxtb	r3, r3
 461 0278 1800     		movs	r0, r3
 462 027a FFF7FEFF 		bl	USBUART_GetConfigTablePtr
 463 027e 0300     		movs	r3, r0
 464 0280 3B61     		str	r3, [r7, #16]
 465              	.L33:
 271:Generated_Source\PSoC4/USBUART_std.c ****                 }
ARM GAS  C:\Users\HPz420\AppData\Local\Temp\cczc1snk.s 			page 15


 272:Generated_Source\PSoC4/USBUART_std.c ****                 
 273:Generated_Source\PSoC4/USBUART_std.c ****                 /* Responds with a Request Error when configuration number is invalid */
 274:Generated_Source\PSoC4/USBUART_std.c ****                 if (((configurationN > 0u) && (pTmp != NULL)) || (configurationN == 0u))
 466              		.loc 1 274 0
 467 0282 7B68     		ldr	r3, [r7, #4]
 468 0284 002B     		cmp	r3, #0
 469 0286 02D0     		beq	.L34
 470              		.loc 1 274 0 is_stmt 0 discriminator 1
 471 0288 3B69     		ldr	r3, [r7, #16]
 472 028a 002B     		cmp	r3, #0
 473 028c 03D1     		bne	.L35
 474              	.L34:
 475              		.loc 1 274 0 discriminator 3
 476 028e 7B68     		ldr	r3, [r7, #4]
 477 0290 002B     		cmp	r3, #0
 478 0292 00D0     		beq	.LCB379
 479 0294 EDE0     		b	.L59	@long jump
 480              	.LCB379:
 481              	.L35:
 275:Generated_Source\PSoC4/USBUART_std.c ****                 {
 276:Generated_Source\PSoC4/USBUART_std.c ****                     /* Set new configuration if it has been changed */
 277:Generated_Source\PSoC4/USBUART_std.c ****                     if(configurationN != USBUART_configuration)
 482              		.loc 1 277 0 is_stmt 1
 483 0296 3B4B     		ldr	r3, .L67+36
 484 0298 1B78     		ldrb	r3, [r3]
 485 029a DBB2     		uxtb	r3, r3
 486 029c 1A00     		movs	r2, r3
 487 029e 7B68     		ldr	r3, [r7, #4]
 488 02a0 9A42     		cmp	r2, r3
 489 02a2 09D0     		beq	.L37
 278:Generated_Source\PSoC4/USBUART_std.c ****                     {
 279:Generated_Source\PSoC4/USBUART_std.c ****                         USBUART_configuration = (uint8) configurationN;
 490              		.loc 1 279 0
 491 02a4 7B68     		ldr	r3, [r7, #4]
 492 02a6 DAB2     		uxtb	r2, r3
 493 02a8 364B     		ldr	r3, .L67+36
 494 02aa 1A70     		strb	r2, [r3]
 280:Generated_Source\PSoC4/USBUART_std.c ****                         USBUART_configurationChanged = USBUART_TRUE;
 495              		.loc 1 280 0
 496 02ac 394B     		ldr	r3, .L67+52
 497 02ae 0122     		movs	r2, #1
 498 02b0 1A70     		strb	r2, [r3]
 281:Generated_Source\PSoC4/USBUART_std.c ****                         USBUART_Config(USBUART_TRUE);
 499              		.loc 1 281 0
 500 02b2 0120     		movs	r0, #1
 501 02b4 FFF7FEFF 		bl	USBUART_Config
 502              	.L37:
 282:Generated_Source\PSoC4/USBUART_std.c ****                     }
 283:Generated_Source\PSoC4/USBUART_std.c ****                     requestHandled = USBUART_InitNoDataControlTransfer();
 503              		.loc 1 283 0
 504 02b8 1F23     		movs	r3, #31
 505 02ba FC18     		adds	r4, r7, r3
 506 02bc FFF7FEFF 		bl	USBUART_InitNoDataControlTransfer
 507 02c0 0300     		movs	r3, r0
 508 02c2 2370     		strb	r3, [r4]
 284:Generated_Source\PSoC4/USBUART_std.c ****                 }
 285:Generated_Source\PSoC4/USBUART_std.c ****                 break;
ARM GAS  C:\Users\HPz420\AppData\Local\Temp\cczc1snk.s 			page 16


 509              		.loc 1 285 0
 510 02c4 D5E0     		b	.L59
 511              	.L32:
 286:Generated_Source\PSoC4/USBUART_std.c ****                 
 287:Generated_Source\PSoC4/USBUART_std.c ****             case USBUART_SET_INTERFACE:
 288:Generated_Source\PSoC4/USBUART_std.c ****                 if (0u != USBUART_ValidateAlternateSetting())
 512              		.loc 1 288 0
 513 02c6 FFF7FEFF 		bl	USBUART_ValidateAlternateSetting
 514 02ca 031E     		subs	r3, r0, #0
 515 02cc 00D1     		bne	.LCB411
 516 02ce D2E0     		b	.L60	@long jump
 517              	.LCB411:
 289:Generated_Source\PSoC4/USBUART_std.c ****                 {
 290:Generated_Source\PSoC4/USBUART_std.c ****                     /* Get interface number from the request. */
 291:Generated_Source\PSoC4/USBUART_std.c ****                     interfaceNumber = USBUART_wIndexLoReg;
 518              		.loc 1 291 0
 519 02d0 234B     		ldr	r3, .L67
 520 02d2 1B69     		ldr	r3, [r3, #16]
 521 02d4 3B60     		str	r3, [r7]
 292:Generated_Source\PSoC4/USBUART_std.c ****                     USBUART_interfaceNumber = (uint8) USBUART_wIndexLoReg;
 522              		.loc 1 292 0
 523 02d6 224B     		ldr	r3, .L67
 524 02d8 1B69     		ldr	r3, [r3, #16]
 525 02da DAB2     		uxtb	r2, r3
 526 02dc 2E4B     		ldr	r3, .L67+56
 527 02de 1A70     		strb	r2, [r3]
 293:Generated_Source\PSoC4/USBUART_std.c ****                      
 294:Generated_Source\PSoC4/USBUART_std.c ****                     /* Check if alternate settings is changed for interface. */
 295:Generated_Source\PSoC4/USBUART_std.c ****                     if (USBUART_interfaceSettingLast[interfaceNumber] != USBUART_interfaceSetting[i
 528              		.loc 1 295 0
 529 02e0 2E4A     		ldr	r2, .L67+60
 530 02e2 3B68     		ldr	r3, [r7]
 531 02e4 D318     		adds	r3, r2, r3
 532 02e6 1B78     		ldrb	r3, [r3]
 533 02e8 DAB2     		uxtb	r2, r3
 534 02ea 2749     		ldr	r1, .L67+40
 535 02ec 3B68     		ldr	r3, [r7]
 536 02ee CB18     		adds	r3, r1, r3
 537 02f0 1B78     		ldrb	r3, [r3]
 538 02f2 DBB2     		uxtb	r3, r3
 539 02f4 9A42     		cmp	r2, r3
 540 02f6 04D0     		beq	.L39
 296:Generated_Source\PSoC4/USBUART_std.c ****                     {
 297:Generated_Source\PSoC4/USBUART_std.c ****                         USBUART_configurationChanged = USBUART_TRUE;
 541              		.loc 1 297 0
 542 02f8 264B     		ldr	r3, .L67+52
 543 02fa 0122     		movs	r2, #1
 544 02fc 1A70     		strb	r2, [r3]
 298:Generated_Source\PSoC4/USBUART_std.c ****                     
 299:Generated_Source\PSoC4/USBUART_std.c ****                         /* Change alternate setting for the endpoints. */
 300:Generated_Source\PSoC4/USBUART_std.c ****                     #if (USBUART_EP_MANAGEMENT_MANUAL && USBUART_EP_ALLOC_DYNAMIC)
 301:Generated_Source\PSoC4/USBUART_std.c ****                         USBUART_Config(USBUART_FALSE);
 302:Generated_Source\PSoC4/USBUART_std.c ****                     #else
 303:Generated_Source\PSoC4/USBUART_std.c ****                         USBUART_ConfigAltChanged();
 545              		.loc 1 303 0
 546 02fe FFF7FEFF 		bl	USBUART_ConfigAltChanged
 547              	.L39:
ARM GAS  C:\Users\HPz420\AppData\Local\Temp\cczc1snk.s 			page 17


 304:Generated_Source\PSoC4/USBUART_std.c ****                     #endif /* (USBUART_EP_MANAGEMENT_MANUAL && USBUART_EP_ALLOC_DYNAMIC) */
 305:Generated_Source\PSoC4/USBUART_std.c ****                     }
 306:Generated_Source\PSoC4/USBUART_std.c ****                     
 307:Generated_Source\PSoC4/USBUART_std.c ****                     requestHandled = USBUART_InitNoDataControlTransfer();
 548              		.loc 1 307 0
 549 0302 1F23     		movs	r3, #31
 550 0304 FC18     		adds	r4, r7, r3
 551 0306 FFF7FEFF 		bl	USBUART_InitNoDataControlTransfer
 552 030a 0300     		movs	r3, r0
 553 030c 2370     		strb	r3, [r4]
 308:Generated_Source\PSoC4/USBUART_std.c ****                 }
 309:Generated_Source\PSoC4/USBUART_std.c ****                 break;
 554              		.loc 1 309 0
 555 030e B2E0     		b	.L60
 556              	.L27:
 310:Generated_Source\PSoC4/USBUART_std.c ****                 
 311:Generated_Source\PSoC4/USBUART_std.c ****             case USBUART_CLEAR_FEATURE:
 312:Generated_Source\PSoC4/USBUART_std.c ****                 switch (bmRequestType & USBUART_RQST_RCPT_MASK)
 557              		.loc 1 312 0
 558 0310 FB68     		ldr	r3, [r7, #12]
 559 0312 0322     		movs	r2, #3
 560 0314 1340     		ands	r3, r2
 561 0316 012B     		cmp	r3, #1
 562 0318 42D0     		beq	.L41
 563 031a 0DD3     		bcc	.L42
 564 031c 022B     		cmp	r3, #2
 565 031e 00D0     		beq	.L43
 313:Generated_Source\PSoC4/USBUART_std.c ****                 {
 314:Generated_Source\PSoC4/USBUART_std.c ****                     case USBUART_RQST_RCPT_EP:
 315:Generated_Source\PSoC4/USBUART_std.c ****                         if (USBUART_wValueLoReg == USBUART_ENDPOINT_HALT)
 316:Generated_Source\PSoC4/USBUART_std.c ****                         {
 317:Generated_Source\PSoC4/USBUART_std.c ****                             requestHandled = USBUART_ClearEndpointHalt();
 318:Generated_Source\PSoC4/USBUART_std.c ****                         }
 319:Generated_Source\PSoC4/USBUART_std.c ****                         break;
 320:Generated_Source\PSoC4/USBUART_std.c ****                     case USBUART_RQST_RCPT_DEV:
 321:Generated_Source\PSoC4/USBUART_std.c ****                         /* Clear device REMOTE_WAKEUP */
 322:Generated_Source\PSoC4/USBUART_std.c ****                         if (USBUART_wValueLoReg == USBUART_DEVICE_REMOTE_WAKEUP)
 323:Generated_Source\PSoC4/USBUART_std.c ****                         {
 324:Generated_Source\PSoC4/USBUART_std.c ****                             USBUART_deviceStatus &= (uint8)~USBUART_DEVICE_STATUS_REMOTE_WAKEUP;
 325:Generated_Source\PSoC4/USBUART_std.c ****                             requestHandled = USBUART_InitNoDataControlTransfer();
 326:Generated_Source\PSoC4/USBUART_std.c ****                         }
 327:Generated_Source\PSoC4/USBUART_std.c ****                         break;
 328:Generated_Source\PSoC4/USBUART_std.c ****                     case USBUART_RQST_RCPT_IFC:
 329:Generated_Source\PSoC4/USBUART_std.c ****                         /* Validate interfaceNumber */
 330:Generated_Source\PSoC4/USBUART_std.c ****                         if (USBUART_wIndexLoReg < USBUART_MAX_INTERFACES_NUMBER)
 331:Generated_Source\PSoC4/USBUART_std.c ****                         {
 332:Generated_Source\PSoC4/USBUART_std.c ****                             USBUART_interfaceStatus[USBUART_wIndexLoReg] &= (uint8) ~USBUART_wValue
 333:Generated_Source\PSoC4/USBUART_std.c ****                             requestHandled = USBUART_InitNoDataControlTransfer();
 334:Generated_Source\PSoC4/USBUART_std.c ****                         }
 335:Generated_Source\PSoC4/USBUART_std.c ****                         break;
 336:Generated_Source\PSoC4/USBUART_std.c ****                     default:    /* requestHandled is initialized as FALSE by default */
 337:Generated_Source\PSoC4/USBUART_std.c ****                         break;
 566              		.loc 1 337 0
 567 0320 5CE0     		b	.L45
 568              	.L43:
 315:Generated_Source\PSoC4/USBUART_std.c ****                         {
 569              		.loc 1 315 0
ARM GAS  C:\Users\HPz420\AppData\Local\Temp\cczc1snk.s 			page 18


 570 0322 0F4B     		ldr	r3, .L67
 571 0324 9B68     		ldr	r3, [r3, #8]
 572 0326 002B     		cmp	r3, #0
 573 0328 53D1     		bne	.L61
 317:Generated_Source\PSoC4/USBUART_std.c ****                         }
 574              		.loc 1 317 0
 575 032a 1F23     		movs	r3, #31
 576 032c FC18     		adds	r4, r7, r3
 577 032e FFF7FEFF 		bl	USBUART_ClearEndpointHalt
 578 0332 0300     		movs	r3, r0
 579 0334 2370     		strb	r3, [r4]
 319:Generated_Source\PSoC4/USBUART_std.c ****                     case USBUART_RQST_RCPT_DEV:
 580              		.loc 1 319 0
 581 0336 4CE0     		b	.L61
 582              	.L42:
 322:Generated_Source\PSoC4/USBUART_std.c ****                         {
 583              		.loc 1 322 0
 584 0338 094B     		ldr	r3, .L67
 585 033a 9B68     		ldr	r3, [r3, #8]
 586 033c 012B     		cmp	r3, #1
 587 033e 4AD1     		bne	.L62
 324:Generated_Source\PSoC4/USBUART_std.c ****                             requestHandled = USBUART_InitNoDataControlTransfer();
 588              		.loc 1 324 0
 589 0340 0F4B     		ldr	r3, .L67+32
 590 0342 1B78     		ldrb	r3, [r3]
 591 0344 DBB2     		uxtb	r3, r3
 592 0346 0222     		movs	r2, #2
 593 0348 9343     		bics	r3, r2
 594 034a DAB2     		uxtb	r2, r3
 595 034c 0C4B     		ldr	r3, .L67+32
 596 034e 1A70     		strb	r2, [r3]
 325:Generated_Source\PSoC4/USBUART_std.c ****                         }
 597              		.loc 1 325 0
 598 0350 1F23     		movs	r3, #31
 599 0352 FC18     		adds	r4, r7, r3
 600 0354 FFF7FEFF 		bl	USBUART_InitNoDataControlTransfer
 601 0358 0300     		movs	r3, r0
 602 035a 2370     		strb	r3, [r4]
 327:Generated_Source\PSoC4/USBUART_std.c ****                     case USBUART_RQST_RCPT_IFC:
 603              		.loc 1 327 0
 604 035c 3BE0     		b	.L62
 605              	.L68:
 606 035e C046     		.align	2
 607              	.L67:
 608 0360 00002C40 		.word	1076625408
 609 0364 00000000 		.word	USBUART_currentTD
 610 0368 00000000 		.word	USBUART_STRING_DESCRIPTORS
 611 036c 00000000 		.word	USBUART_MSOS_DESCRIPTOR
 612 0370 00000000 		.word	USBUART_DEVICE0_DESCR
 613 0374 00000000 		.word	USBUART_idSerialNumberStringDescriptor
 614 0378 00000000 		.word	USBUART_EP
 615 037c 00000000 		.word	USBUART_tBuffer.5254
 616 0380 00000000 		.word	USBUART_deviceStatus
 617 0384 00000000 		.word	USBUART_configuration
 618 0388 00000000 		.word	USBUART_interfaceSetting
 619 038c 00000000 		.word	.L28
 620 0390 00000000 		.word	USBUART_deviceAddress
ARM GAS  C:\Users\HPz420\AppData\Local\Temp\cczc1snk.s 			page 19


 621 0394 00000000 		.word	USBUART_configurationChanged
 622 0398 00000000 		.word	USBUART_interfaceNumber
 623 039c 00000000 		.word	USBUART_interfaceSettingLast
 624              	.L41:
 330:Generated_Source\PSoC4/USBUART_std.c ****                         {
 625              		.loc 1 330 0
 626 03a0 394B     		ldr	r3, .L69
 627 03a2 1B69     		ldr	r3, [r3, #16]
 628 03a4 012B     		cmp	r3, #1
 629 03a6 18D8     		bhi	.L63
 332:Generated_Source\PSoC4/USBUART_std.c ****                             requestHandled = USBUART_InitNoDataControlTransfer();
 630              		.loc 1 332 0
 631 03a8 374B     		ldr	r3, .L69
 632 03aa 9B68     		ldr	r3, [r3, #8]
 633 03ac DBB2     		uxtb	r3, r3
 634 03ae DB43     		mvns	r3, r3
 635 03b0 D9B2     		uxtb	r1, r3
 636 03b2 354B     		ldr	r3, .L69
 637 03b4 1B69     		ldr	r3, [r3, #16]
 638 03b6 354A     		ldr	r2, .L69+4
 639 03b8 D25C     		ldrb	r2, [r2, r3]
 640 03ba D2B2     		uxtb	r2, r2
 641 03bc 0A40     		ands	r2, r1
 642 03be D1B2     		uxtb	r1, r2
 643 03c0 324A     		ldr	r2, .L69+4
 644 03c2 D154     		strb	r1, [r2, r3]
 333:Generated_Source\PSoC4/USBUART_std.c ****                         }
 645              		.loc 1 333 0
 646 03c4 1F23     		movs	r3, #31
 647 03c6 FC18     		adds	r4, r7, r3
 648 03c8 FFF7FEFF 		bl	USBUART_InitNoDataControlTransfer
 649 03cc 0300     		movs	r3, r0
 650 03ce 2370     		strb	r3, [r4]
 335:Generated_Source\PSoC4/USBUART_std.c ****                     default:    /* requestHandled is initialized as FALSE by default */
 651              		.loc 1 335 0
 652 03d0 03E0     		b	.L63
 653              	.L61:
 319:Generated_Source\PSoC4/USBUART_std.c ****                     case USBUART_RQST_RCPT_DEV:
 654              		.loc 1 319 0
 655 03d2 C046     		nop
 656 03d4 50E0     		b	.L25
 657              	.L62:
 327:Generated_Source\PSoC4/USBUART_std.c ****                     case USBUART_RQST_RCPT_IFC:
 658              		.loc 1 327 0
 659 03d6 C046     		nop
 660 03d8 4EE0     		b	.L25
 661              	.L63:
 335:Generated_Source\PSoC4/USBUART_std.c ****                     default:    /* requestHandled is initialized as FALSE by default */
 662              		.loc 1 335 0
 663 03da C046     		nop
 664              	.L45:
 338:Generated_Source\PSoC4/USBUART_std.c ****                 }
 339:Generated_Source\PSoC4/USBUART_std.c ****                 break;
 665              		.loc 1 339 0 discriminator 7
 666 03dc 4CE0     		b	.L25
 667              	.L29:
 340:Generated_Source\PSoC4/USBUART_std.c ****                 
ARM GAS  C:\Users\HPz420\AppData\Local\Temp\cczc1snk.s 			page 20


 341:Generated_Source\PSoC4/USBUART_std.c ****             case USBUART_SET_FEATURE:
 342:Generated_Source\PSoC4/USBUART_std.c ****                 switch (bmRequestType & USBUART_RQST_RCPT_MASK)
 668              		.loc 1 342 0
 669 03de FB68     		ldr	r3, [r7, #12]
 670 03e0 0322     		movs	r2, #3
 671 03e2 1340     		ands	r3, r2
 672 03e4 012B     		cmp	r3, #1
 673 03e6 21D0     		beq	.L49
 674 03e8 0DD3     		bcc	.L50
 675 03ea 022B     		cmp	r3, #2
 676 03ec 00D0     		beq	.L51
 343:Generated_Source\PSoC4/USBUART_std.c ****                 {
 344:Generated_Source\PSoC4/USBUART_std.c ****                     case USBUART_RQST_RCPT_EP:
 345:Generated_Source\PSoC4/USBUART_std.c ****                         if (USBUART_wValueLoReg == USBUART_ENDPOINT_HALT)
 346:Generated_Source\PSoC4/USBUART_std.c ****                         {
 347:Generated_Source\PSoC4/USBUART_std.c ****                             requestHandled = USBUART_SetEndpointHalt();
 348:Generated_Source\PSoC4/USBUART_std.c ****                         }
 349:Generated_Source\PSoC4/USBUART_std.c ****                         break;
 350:Generated_Source\PSoC4/USBUART_std.c ****                         
 351:Generated_Source\PSoC4/USBUART_std.c ****                     case USBUART_RQST_RCPT_DEV:
 352:Generated_Source\PSoC4/USBUART_std.c ****                         /* Set device REMOTE_WAKEUP */
 353:Generated_Source\PSoC4/USBUART_std.c ****                         if (USBUART_wValueLoReg == USBUART_DEVICE_REMOTE_WAKEUP)
 354:Generated_Source\PSoC4/USBUART_std.c ****                         {
 355:Generated_Source\PSoC4/USBUART_std.c ****                             USBUART_deviceStatus |= USBUART_DEVICE_STATUS_REMOTE_WAKEUP;
 356:Generated_Source\PSoC4/USBUART_std.c ****                             requestHandled = USBUART_InitNoDataControlTransfer();
 357:Generated_Source\PSoC4/USBUART_std.c ****                         }
 358:Generated_Source\PSoC4/USBUART_std.c ****                         break;
 359:Generated_Source\PSoC4/USBUART_std.c ****                         
 360:Generated_Source\PSoC4/USBUART_std.c ****                     case USBUART_RQST_RCPT_IFC:
 361:Generated_Source\PSoC4/USBUART_std.c ****                         /* Validate interfaceNumber */
 362:Generated_Source\PSoC4/USBUART_std.c ****                         if (USBUART_wIndexLoReg < USBUART_MAX_INTERFACES_NUMBER)
 363:Generated_Source\PSoC4/USBUART_std.c ****                         {
 364:Generated_Source\PSoC4/USBUART_std.c ****                             USBUART_interfaceStatus[USBUART_wIndexLoReg] &= (uint8) ~USBUART_wValue
 365:Generated_Source\PSoC4/USBUART_std.c ****                             requestHandled = USBUART_InitNoDataControlTransfer();
 366:Generated_Source\PSoC4/USBUART_std.c ****                         }
 367:Generated_Source\PSoC4/USBUART_std.c ****                         break;
 368:Generated_Source\PSoC4/USBUART_std.c ****                     
 369:Generated_Source\PSoC4/USBUART_std.c ****                     default:    /* requestHandled is initialized as FALSE by default */
 370:Generated_Source\PSoC4/USBUART_std.c ****                         break;
 677              		.loc 1 370 0
 678 03ee 3BE0     		b	.L53
 679              	.L51:
 345:Generated_Source\PSoC4/USBUART_std.c ****                         {
 680              		.loc 1 345 0
 681 03f0 254B     		ldr	r3, .L69
 682 03f2 9B68     		ldr	r3, [r3, #8]
 683 03f4 002B     		cmp	r3, #0
 684 03f6 32D1     		bne	.L64
 347:Generated_Source\PSoC4/USBUART_std.c ****                         }
 685              		.loc 1 347 0
 686 03f8 1F23     		movs	r3, #31
 687 03fa FC18     		adds	r4, r7, r3
 688 03fc FFF7FEFF 		bl	USBUART_SetEndpointHalt
 689 0400 0300     		movs	r3, r0
 690 0402 2370     		strb	r3, [r4]
 349:Generated_Source\PSoC4/USBUART_std.c ****                         
 691              		.loc 1 349 0
ARM GAS  C:\Users\HPz420\AppData\Local\Temp\cczc1snk.s 			page 21


 692 0404 2BE0     		b	.L64
 693              	.L50:
 353:Generated_Source\PSoC4/USBUART_std.c ****                         {
 694              		.loc 1 353 0
 695 0406 204B     		ldr	r3, .L69
 696 0408 9B68     		ldr	r3, [r3, #8]
 697 040a 012B     		cmp	r3, #1
 698 040c 29D1     		bne	.L65
 355:Generated_Source\PSoC4/USBUART_std.c ****                             requestHandled = USBUART_InitNoDataControlTransfer();
 699              		.loc 1 355 0
 700 040e 204B     		ldr	r3, .L69+8
 701 0410 1B78     		ldrb	r3, [r3]
 702 0412 DBB2     		uxtb	r3, r3
 703 0414 0222     		movs	r2, #2
 704 0416 1343     		orrs	r3, r2
 705 0418 DAB2     		uxtb	r2, r3
 706 041a 1D4B     		ldr	r3, .L69+8
 707 041c 1A70     		strb	r2, [r3]
 356:Generated_Source\PSoC4/USBUART_std.c ****                         }
 708              		.loc 1 356 0
 709 041e 1F23     		movs	r3, #31
 710 0420 FC18     		adds	r4, r7, r3
 711 0422 FFF7FEFF 		bl	USBUART_InitNoDataControlTransfer
 712 0426 0300     		movs	r3, r0
 713 0428 2370     		strb	r3, [r4]
 358:Generated_Source\PSoC4/USBUART_std.c ****                         
 714              		.loc 1 358 0
 715 042a 1AE0     		b	.L65
 716              	.L49:
 362:Generated_Source\PSoC4/USBUART_std.c ****                         {
 717              		.loc 1 362 0
 718 042c 164B     		ldr	r3, .L69
 719 042e 1B69     		ldr	r3, [r3, #16]
 720 0430 012B     		cmp	r3, #1
 721 0432 18D8     		bhi	.L66
 364:Generated_Source\PSoC4/USBUART_std.c ****                             requestHandled = USBUART_InitNoDataControlTransfer();
 722              		.loc 1 364 0
 723 0434 144B     		ldr	r3, .L69
 724 0436 9B68     		ldr	r3, [r3, #8]
 725 0438 DBB2     		uxtb	r3, r3
 726 043a DB43     		mvns	r3, r3
 727 043c D9B2     		uxtb	r1, r3
 728 043e 124B     		ldr	r3, .L69
 729 0440 1B69     		ldr	r3, [r3, #16]
 730 0442 124A     		ldr	r2, .L69+4
 731 0444 D25C     		ldrb	r2, [r2, r3]
 732 0446 D2B2     		uxtb	r2, r2
 733 0448 0A40     		ands	r2, r1
 734 044a D1B2     		uxtb	r1, r2
 735 044c 0F4A     		ldr	r2, .L69+4
 736 044e D154     		strb	r1, [r2, r3]
 365:Generated_Source\PSoC4/USBUART_std.c ****                         }
 737              		.loc 1 365 0
 738 0450 1F23     		movs	r3, #31
 739 0452 FC18     		adds	r4, r7, r3
 740 0454 FFF7FEFF 		bl	USBUART_InitNoDataControlTransfer
 741 0458 0300     		movs	r3, r0
ARM GAS  C:\Users\HPz420\AppData\Local\Temp\cczc1snk.s 			page 22


 742 045a 2370     		strb	r3, [r4]
 367:Generated_Source\PSoC4/USBUART_std.c ****                     
 743              		.loc 1 367 0
 744 045c 03E0     		b	.L66
 745              	.L64:
 349:Generated_Source\PSoC4/USBUART_std.c ****                         
 746              		.loc 1 349 0
 747 045e C046     		nop
 748 0460 0AE0     		b	.L25
 749              	.L65:
 358:Generated_Source\PSoC4/USBUART_std.c ****                         
 750              		.loc 1 358 0
 751 0462 C046     		nop
 752 0464 08E0     		b	.L25
 753              	.L66:
 367:Generated_Source\PSoC4/USBUART_std.c ****                     
 754              		.loc 1 367 0
 755 0466 C046     		nop
 756              	.L53:
 371:Generated_Source\PSoC4/USBUART_std.c ****                 }
 372:Generated_Source\PSoC4/USBUART_std.c ****                 break;
 757              		.loc 1 372 0 discriminator 11
 758 0468 06E0     		b	.L25
 759              	.L57:
 211:Generated_Source\PSoC4/USBUART_std.c ****                 
 760              		.loc 1 211 0
 761 046a C046     		nop
 762 046c 04E0     		b	.L25
 763              	.L58:
 373:Generated_Source\PSoC4/USBUART_std.c ****                 
 374:Generated_Source\PSoC4/USBUART_std.c ****             default:    /* requestHandled is initialized as FALSE by default */
 375:Generated_Source\PSoC4/USBUART_std.c ****                 break;
 764              		.loc 1 375 0
 765 046e C046     		nop
 766 0470 02E0     		b	.L25
 767              	.L59:
 285:Generated_Source\PSoC4/USBUART_std.c ****                 
 768              		.loc 1 285 0
 769 0472 C046     		nop
 770 0474 00E0     		b	.L25
 771              	.L60:
 309:Generated_Source\PSoC4/USBUART_std.c ****                 
 772              		.loc 1 309 0
 773 0476 C046     		nop
 774              	.L25:
 376:Generated_Source\PSoC4/USBUART_std.c ****         }
 377:Generated_Source\PSoC4/USBUART_std.c ****     }
 378:Generated_Source\PSoC4/USBUART_std.c ****     
 379:Generated_Source\PSoC4/USBUART_std.c ****     return (requestHandled);
 775              		.loc 1 379 0
 776 0478 1F23     		movs	r3, #31
 777 047a FB18     		adds	r3, r7, r3
 778 047c 1B78     		ldrb	r3, [r3]
 380:Generated_Source\PSoC4/USBUART_std.c **** }
 779              		.loc 1 380 0
 780 047e 1800     		movs	r0, r3
 781 0480 BD46     		mov	sp, r7
ARM GAS  C:\Users\HPz420\AppData\Local\Temp\cczc1snk.s 			page 23


 782 0482 09B0     		add	sp, sp, #36
 783              		@ sp needed
 784 0484 90BD     		pop	{r4, r7, pc}
 785              	.L70:
 786 0486 C046     		.align	2
 787              	.L69:
 788 0488 00002C40 		.word	1076625408
 789 048c 00000000 		.word	USBUART_interfaceStatus
 790 0490 00000000 		.word	USBUART_deviceStatus
 791              		.cfi_endproc
 792              	.LFE1:
 793              		.size	USBUART_HandleStandardRqst, .-USBUART_HandleStandardRqst
 794              		.section	.rodata
 795              		.align	2
 796              	.LC16:
 797 0030 30313233 		.ascii	"0123456789ABCDEF\000"
 797      34353637 
 797      38394142 
 797      43444546 
 797      00
 798              		.section	.text.USBUART_ReadDieID,"ax",%progbits
 799              		.align	2
 800              		.global	USBUART_ReadDieID
 801              		.code	16
 802              		.thumb_func
 803              		.type	USBUART_ReadDieID, %function
 804              	USBUART_ReadDieID:
 805              	.LFB2:
 381:Generated_Source\PSoC4/USBUART_std.c **** 
 382:Generated_Source\PSoC4/USBUART_std.c **** 
 383:Generated_Source\PSoC4/USBUART_std.c **** #if defined(USBUART_ENABLE_IDSN_STRING)
 384:Generated_Source\PSoC4/USBUART_std.c ****     /***************************************************************************
 385:Generated_Source\PSoC4/USBUART_std.c ****     * Function Name: USBUART_ReadDieID
 386:Generated_Source\PSoC4/USBUART_std.c ****     ************************************************************************//**
 387:Generated_Source\PSoC4/USBUART_std.c ****     *
 388:Generated_Source\PSoC4/USBUART_std.c ****     *  This routine read Die ID and generate Serial Number string descriptor.
 389:Generated_Source\PSoC4/USBUART_std.c ****     *
 390:Generated_Source\PSoC4/USBUART_std.c ****     *  \param descr:  pointer on string descriptor. This string size has to be equal or
 391:Generated_Source\PSoC4/USBUART_std.c ****     *          greater than USBUART_IDSN_DESCR_LENGTH.
 392:Generated_Source\PSoC4/USBUART_std.c ****     *
 393:Generated_Source\PSoC4/USBUART_std.c ****     *
 394:Generated_Source\PSoC4/USBUART_std.c ****     * \reentrant
 395:Generated_Source\PSoC4/USBUART_std.c ****     *  No.
 396:Generated_Source\PSoC4/USBUART_std.c ****     *
 397:Generated_Source\PSoC4/USBUART_std.c ****     ***************************************************************************/
 398:Generated_Source\PSoC4/USBUART_std.c ****     void USBUART_ReadDieID(uint8 descr[]) 
 399:Generated_Source\PSoC4/USBUART_std.c ****     {
 806              		.loc 1 399 0
 807              		.cfi_startproc
 808              		@ args = 0, pretend = 0, frame = 48
 809              		@ frame_needed = 1, uses_anonymous_args = 0
 810 0000 90B5     		push	{r4, r7, lr}
 811              		.cfi_def_cfa_offset 12
 812              		.cfi_offset 4, -12
 813              		.cfi_offset 7, -8
 814              		.cfi_offset 14, -4
 815 0002 8DB0     		sub	sp, sp, #52
ARM GAS  C:\Users\HPz420\AppData\Local\Temp\cczc1snk.s 			page 24


 816              		.cfi_def_cfa_offset 64
 817 0004 00AF     		add	r7, sp, #0
 818              		.cfi_def_cfa_register 7
 819 0006 7860     		str	r0, [r7, #4]
 400:Generated_Source\PSoC4/USBUART_std.c ****         const char8 CYCODE hex[] = "0123456789ABCDEF";
 820              		.loc 1 400 0
 821 0008 1423     		movs	r3, #20
 822 000a FB18     		adds	r3, r7, r3
 823 000c 294A     		ldr	r2, .L76
 824 000e 13CA     		ldmia	r2!, {r0, r1, r4}
 825 0010 13C3     		stmia	r3!, {r0, r1, r4}
 826 0012 1168     		ldr	r1, [r2]
 827 0014 1960     		str	r1, [r3]
 828 0016 1279     		ldrb	r2, [r2, #4]
 829 0018 1A71     		strb	r2, [r3, #4]
 401:Generated_Source\PSoC4/USBUART_std.c ****         uint32 i;
 402:Generated_Source\PSoC4/USBUART_std.c ****         uint32 j = 0u;
 830              		.loc 1 402 0
 831 001a 0023     		movs	r3, #0
 832 001c BB62     		str	r3, [r7, #40]
 403:Generated_Source\PSoC4/USBUART_std.c ****         uint8 uniqueId[8u];
 404:Generated_Source\PSoC4/USBUART_std.c **** 
 405:Generated_Source\PSoC4/USBUART_std.c ****         if (NULL != descr)
 833              		.loc 1 405 0
 834 001e 7B68     		ldr	r3, [r7, #4]
 835 0020 002B     		cmp	r3, #0
 836 0022 42D0     		beq	.L75
 406:Generated_Source\PSoC4/USBUART_std.c ****         {
 407:Generated_Source\PSoC4/USBUART_std.c ****             /* Initialize descriptor header. */
 408:Generated_Source\PSoC4/USBUART_std.c ****             descr[0u] = USBUART_IDSN_DESCR_LENGTH;
 837              		.loc 1 408 0
 838 0024 7B68     		ldr	r3, [r7, #4]
 839 0026 2222     		movs	r2, #34
 840 0028 1A70     		strb	r2, [r3]
 409:Generated_Source\PSoC4/USBUART_std.c ****             descr[1u] = USBUART_DESCR_STRING;
 841              		.loc 1 409 0
 842 002a 7B68     		ldr	r3, [r7, #4]
 843 002c 0133     		adds	r3, r3, #1
 844 002e 0322     		movs	r2, #3
 845 0030 1A70     		strb	r2, [r3]
 410:Generated_Source\PSoC4/USBUART_std.c ****             
 411:Generated_Source\PSoC4/USBUART_std.c ****             /* Unique ID size is 8 bytes. */
 412:Generated_Source\PSoC4/USBUART_std.c ****             CyGetUniqueId((uint32 *) uniqueId);
 846              		.loc 1 412 0
 847 0032 0C23     		movs	r3, #12
 848 0034 FB18     		adds	r3, r7, r3
 849 0036 1800     		movs	r0, r3
 850 0038 FFF7FEFF 		bl	CyGetUniqueId
 413:Generated_Source\PSoC4/USBUART_std.c **** 
 414:Generated_Source\PSoC4/USBUART_std.c ****             /* Fill descriptor with unique device ID. */
 415:Generated_Source\PSoC4/USBUART_std.c ****             for (i = 2u; i < USBUART_IDSN_DESCR_LENGTH; i += 4u)
 851              		.loc 1 415 0
 852 003c 0223     		movs	r3, #2
 853 003e FB62     		str	r3, [r7, #44]
 854 0040 30E0     		b	.L73
 855              	.L74:
 416:Generated_Source\PSoC4/USBUART_std.c ****             {
ARM GAS  C:\Users\HPz420\AppData\Local\Temp\cczc1snk.s 			page 25


 417:Generated_Source\PSoC4/USBUART_std.c ****                 descr[i]      = (uint8) hex[(uniqueId[j] >> 4u)];
 856              		.loc 1 417 0 discriminator 3
 857 0042 7A68     		ldr	r2, [r7, #4]
 858 0044 FB6A     		ldr	r3, [r7, #44]
 859 0046 D318     		adds	r3, r2, r3
 860 0048 0C22     		movs	r2, #12
 861 004a B918     		adds	r1, r7, r2
 862 004c BA6A     		ldr	r2, [r7, #40]
 863 004e 8A18     		adds	r2, r1, r2
 864 0050 1278     		ldrb	r2, [r2]
 865 0052 1209     		lsrs	r2, r2, #4
 866 0054 D2B2     		uxtb	r2, r2
 867 0056 1100     		movs	r1, r2
 868 0058 1422     		movs	r2, #20
 869 005a BA18     		adds	r2, r7, r2
 870 005c 525C     		ldrb	r2, [r2, r1]
 871 005e 1A70     		strb	r2, [r3]
 418:Generated_Source\PSoC4/USBUART_std.c ****                 descr[i + 1u] = 0u;
 872              		.loc 1 418 0 discriminator 3
 873 0060 FB6A     		ldr	r3, [r7, #44]
 874 0062 0133     		adds	r3, r3, #1
 875 0064 7A68     		ldr	r2, [r7, #4]
 876 0066 D318     		adds	r3, r2, r3
 877 0068 0022     		movs	r2, #0
 878 006a 1A70     		strb	r2, [r3]
 419:Generated_Source\PSoC4/USBUART_std.c ****                 descr[i + 2u] = (uint8) hex[(uniqueId[j] & 0x0Fu)];
 879              		.loc 1 419 0 discriminator 3
 880 006c FB6A     		ldr	r3, [r7, #44]
 881 006e 0233     		adds	r3, r3, #2
 882 0070 7A68     		ldr	r2, [r7, #4]
 883 0072 D318     		adds	r3, r2, r3
 884 0074 0C22     		movs	r2, #12
 885 0076 B918     		adds	r1, r7, r2
 886 0078 BA6A     		ldr	r2, [r7, #40]
 887 007a 8A18     		adds	r2, r1, r2
 888 007c 1278     		ldrb	r2, [r2]
 889 007e 1100     		movs	r1, r2
 890 0080 0F22     		movs	r2, #15
 891 0082 0A40     		ands	r2, r1
 892 0084 1421     		movs	r1, #20
 893 0086 7918     		adds	r1, r7, r1
 894 0088 8A5C     		ldrb	r2, [r1, r2]
 895 008a 1A70     		strb	r2, [r3]
 420:Generated_Source\PSoC4/USBUART_std.c ****                 descr[i + 3u] = 0u;
 896              		.loc 1 420 0 discriminator 3
 897 008c FB6A     		ldr	r3, [r7, #44]
 898 008e 0333     		adds	r3, r3, #3
 899 0090 7A68     		ldr	r2, [r7, #4]
 900 0092 D318     		adds	r3, r2, r3
 901 0094 0022     		movs	r2, #0
 902 0096 1A70     		strb	r2, [r3]
 421:Generated_Source\PSoC4/USBUART_std.c ****                 ++j;
 903              		.loc 1 421 0 discriminator 3
 904 0098 BB6A     		ldr	r3, [r7, #40]
 905 009a 0133     		adds	r3, r3, #1
 906 009c BB62     		str	r3, [r7, #40]
 415:Generated_Source\PSoC4/USBUART_std.c ****             {
ARM GAS  C:\Users\HPz420\AppData\Local\Temp\cczc1snk.s 			page 26


 907              		.loc 1 415 0 discriminator 3
 908 009e FB6A     		ldr	r3, [r7, #44]
 909 00a0 0433     		adds	r3, r3, #4
 910 00a2 FB62     		str	r3, [r7, #44]
 911              	.L73:
 415:Generated_Source\PSoC4/USBUART_std.c ****             {
 912              		.loc 1 415 0 is_stmt 0 discriminator 1
 913 00a4 FB6A     		ldr	r3, [r7, #44]
 914 00a6 212B     		cmp	r3, #33
 915 00a8 CBD9     		bls	.L74
 916              	.L75:
 422:Generated_Source\PSoC4/USBUART_std.c ****             }
 423:Generated_Source\PSoC4/USBUART_std.c ****         }
 424:Generated_Source\PSoC4/USBUART_std.c ****     }
 917              		.loc 1 424 0 is_stmt 1
 918 00aa C046     		nop
 919 00ac BD46     		mov	sp, r7
 920 00ae 0DB0     		add	sp, sp, #52
 921              		@ sp needed
 922 00b0 90BD     		pop	{r4, r7, pc}
 923              	.L77:
 924 00b2 C046     		.align	2
 925              	.L76:
 926 00b4 30000000 		.word	.LC16
 927              		.cfi_endproc
 928              	.LFE2:
 929              		.size	USBUART_ReadDieID, .-USBUART_ReadDieID
 930              		.section	.text.USBUART_ConfigReg,"ax",%progbits
 931              		.align	2
 932              		.global	USBUART_ConfigReg
 933              		.code	16
 934              		.thumb_func
 935              		.type	USBUART_ConfigReg, %function
 936              	USBUART_ConfigReg:
 937              	.LFB3:
 425:Generated_Source\PSoC4/USBUART_std.c **** #endif /* (USBUART_ENABLE_IDSN_STRING) */
 426:Generated_Source\PSoC4/USBUART_std.c **** 
 427:Generated_Source\PSoC4/USBUART_std.c **** 
 428:Generated_Source\PSoC4/USBUART_std.c **** /*******************************************************************************
 429:Generated_Source\PSoC4/USBUART_std.c **** * Function Name: USBUART_ConfigReg
 430:Generated_Source\PSoC4/USBUART_std.c **** ****************************************************************************//**
 431:Generated_Source\PSoC4/USBUART_std.c **** *
 432:Generated_Source\PSoC4/USBUART_std.c **** *  This routine configures hardware registers from the variables.
 433:Generated_Source\PSoC4/USBUART_std.c **** *  It is called from USBUART_Config() function and from RestoreConfig
 434:Generated_Source\PSoC4/USBUART_std.c **** *  after Wakeup.
 435:Generated_Source\PSoC4/USBUART_std.c **** *
 436:Generated_Source\PSoC4/USBUART_std.c **** *******************************************************************************/
 437:Generated_Source\PSoC4/USBUART_std.c **** void USBUART_ConfigReg(void) 
 438:Generated_Source\PSoC4/USBUART_std.c **** {
 938              		.loc 1 438 0
 939              		.cfi_startproc
 940              		@ args = 0, pretend = 0, frame = 8
 941              		@ frame_needed = 1, uses_anonymous_args = 0
 942 0000 80B5     		push	{r7, lr}
 943              		.cfi_def_cfa_offset 8
 944              		.cfi_offset 7, -8
 945              		.cfi_offset 14, -4
ARM GAS  C:\Users\HPz420\AppData\Local\Temp\cczc1snk.s 			page 27


 946 0002 82B0     		sub	sp, sp, #8
 947              		.cfi_def_cfa_offset 16
 948 0004 00AF     		add	r7, sp, #0
 949              		.cfi_def_cfa_register 7
 439:Generated_Source\PSoC4/USBUART_std.c ****     uint32 ep;
 440:Generated_Source\PSoC4/USBUART_std.c **** 
 441:Generated_Source\PSoC4/USBUART_std.c **** #if (USBUART_EP_MANAGEMENT_DMA_AUTO)
 442:Generated_Source\PSoC4/USBUART_std.c ****     uint8 epType = 0u;
 443:Generated_Source\PSoC4/USBUART_std.c **** #endif /* (USBUART_EP_MANAGEMENT_DMA_AUTO) */
 444:Generated_Source\PSoC4/USBUART_std.c **** 
 445:Generated_Source\PSoC4/USBUART_std.c ****     /* Go thought all endpoints and set hardware configuration */
 446:Generated_Source\PSoC4/USBUART_std.c ****     for (ep = USBUART_EP1; ep < USBUART_MAX_EP; ++ep)
 950              		.loc 1 446 0
 951 0006 0123     		movs	r3, #1
 952 0008 7B60     		str	r3, [r7, #4]
 953 000a 57E0     		b	.L79
 954              	.L84:
 447:Generated_Source\PSoC4/USBUART_std.c ****     {
 448:Generated_Source\PSoC4/USBUART_std.c ****         USBUART_ARB_EP_BASE.arbEp[ep].epCfg = USBUART_ARB_EPX_CFG_DEFAULT;
 955              		.loc 1 448 0
 956 000c 304A     		ldr	r2, .L85
 957 000e 7B68     		ldr	r3, [r7, #4]
 958 0010 9B01     		lsls	r3, r3, #6
 959 0012 0C21     		movs	r1, #12
 960 0014 9950     		str	r1, [r3, r2]
 449:Generated_Source\PSoC4/USBUART_std.c ****         
 450:Generated_Source\PSoC4/USBUART_std.c ****     #if (USBUART_EP_MANAGEMENT_DMA)
 451:Generated_Source\PSoC4/USBUART_std.c ****         /* Enable arbiter endpoint interrupt sources */
 452:Generated_Source\PSoC4/USBUART_std.c ****         USBUART_ARB_EP_BASE.arbEp[ep].epIntEn = USBUART_ARB_EPX_INT_MASK;
 453:Generated_Source\PSoC4/USBUART_std.c ****     #endif /* (USBUART_EP_MANAGEMENT_DMA) */
 454:Generated_Source\PSoC4/USBUART_std.c ****     
 455:Generated_Source\PSoC4/USBUART_std.c ****         if (USBUART_EP[ep].epMode != USBUART_MODE_DISABLE)
 961              		.loc 1 455 0
 962 0016 2F49     		ldr	r1, .L85+4
 963 0018 7A68     		ldr	r2, [r7, #4]
 964 001a 1300     		movs	r3, r2
 965 001c 5B00     		lsls	r3, r3, #1
 966 001e 9B18     		adds	r3, r3, r2
 967 0020 9B00     		lsls	r3, r3, #2
 968 0022 CB18     		adds	r3, r1, r3
 969 0024 0533     		adds	r3, r3, #5
 970 0026 1B78     		ldrb	r3, [r3]
 971 0028 DBB2     		uxtb	r3, r3
 972 002a 002B     		cmp	r3, #0
 973 002c 1CD0     		beq	.L80
 456:Generated_Source\PSoC4/USBUART_std.c ****         {
 457:Generated_Source\PSoC4/USBUART_std.c ****             if (0u != (USBUART_EP[ep].addr & USBUART_DIR_IN))
 974              		.loc 1 457 0
 975 002e 2949     		ldr	r1, .L85+4
 976 0030 7A68     		ldr	r2, [r7, #4]
 977 0032 1300     		movs	r3, r2
 978 0034 5B00     		lsls	r3, r3, #1
 979 0036 9B18     		adds	r3, r3, r2
 980 0038 9B00     		lsls	r3, r3, #2
 981 003a CB18     		adds	r3, r1, r3
 982 003c 0433     		adds	r3, r3, #4
 983 003e 1B78     		ldrb	r3, [r3]
ARM GAS  C:\Users\HPz420\AppData\Local\Temp\cczc1snk.s 			page 28


 984 0040 DBB2     		uxtb	r3, r3
 985 0042 5BB2     		sxtb	r3, r3
 986 0044 002B     		cmp	r3, #0
 987 0046 07DA     		bge	.L81
 458:Generated_Source\PSoC4/USBUART_std.c ****             {
 459:Generated_Source\PSoC4/USBUART_std.c ****                 USBUART_SIE_EP_BASE.sieEp[ep].epCr0 = USBUART_MODE_NAK_IN;
 988              		.loc 1 459 0
 989 0048 234A     		ldr	r2, .L85+8
 990 004a 7B68     		ldr	r3, [r7, #4]
 991 004c 9B01     		lsls	r3, r3, #6
 992 004e D318     		adds	r3, r2, r3
 993 0050 0833     		adds	r3, r3, #8
 994 0052 0C22     		movs	r2, #12
 995 0054 1A60     		str	r2, [r3]
 996 0056 0EE0     		b	.L83
 997              	.L81:
 460:Generated_Source\PSoC4/USBUART_std.c ****                 
 461:Generated_Source\PSoC4/USBUART_std.c ****             #if (USBUART_EP_MANAGEMENT_DMA_AUTO && CY_PSOC4)
 462:Generated_Source\PSoC4/USBUART_std.c ****                 /* Clear DMA_TERMIN for IN endpoint. */
 463:Generated_Source\PSoC4/USBUART_std.c ****                 USBUART_ARB_EP_BASE.arbEp[ep].epIntEn &= (uint32) ~USBUART_ARB_EPX_INT_DMA_TERMIN;
 464:Generated_Source\PSoC4/USBUART_std.c ****             #endif /* (USBUART_EP_MANAGEMENT_DMA_AUTO && CY_PSOC4) */
 465:Generated_Source\PSoC4/USBUART_std.c ****             }
 466:Generated_Source\PSoC4/USBUART_std.c ****             else
 467:Generated_Source\PSoC4/USBUART_std.c ****             {
 468:Generated_Source\PSoC4/USBUART_std.c ****                 USBUART_SIE_EP_BASE.sieEp[ep].epCr0 = USBUART_MODE_NAK_OUT;
 998              		.loc 1 468 0
 999 0058 1F4A     		ldr	r2, .L85+8
 1000 005a 7B68     		ldr	r3, [r7, #4]
 1001 005c 9B01     		lsls	r3, r3, #6
 1002 005e D318     		adds	r3, r2, r3
 1003 0060 0833     		adds	r3, r3, #8
 1004 0062 0822     		movs	r2, #8
 1005 0064 1A60     		str	r2, [r3]
 1006 0066 06E0     		b	.L83
 1007              	.L80:
 469:Generated_Source\PSoC4/USBUART_std.c **** 
 470:Generated_Source\PSoC4/USBUART_std.c ****             #if (USBUART_EP_MANAGEMENT_DMA_AUTO)
 471:Generated_Source\PSoC4/USBUART_std.c ****                 /* (CY_PSOC4): DMA_TERMIN for OUT endpoint is set above. */
 472:Generated_Source\PSoC4/USBUART_std.c ****                 
 473:Generated_Source\PSoC4/USBUART_std.c ****                 /* Prepare endpoint type mask. */
 474:Generated_Source\PSoC4/USBUART_std.c ****                 epType |= (uint8) (0x01u << (ep - USBUART_EP1));
 475:Generated_Source\PSoC4/USBUART_std.c ****             #endif /* (USBUART_EP_MANAGEMENT_DMA_AUTO) */
 476:Generated_Source\PSoC4/USBUART_std.c ****             }
 477:Generated_Source\PSoC4/USBUART_std.c ****         }
 478:Generated_Source\PSoC4/USBUART_std.c ****         else
 479:Generated_Source\PSoC4/USBUART_std.c ****         {
 480:Generated_Source\PSoC4/USBUART_std.c ****             USBUART_SIE_EP_BASE.sieEp[ep].epCr0 = USBUART_MODE_STALL_DATA_EP;
 1008              		.loc 1 480 0
 1009 0068 1B4A     		ldr	r2, .L85+8
 1010 006a 7B68     		ldr	r3, [r7, #4]
 1011 006c 9B01     		lsls	r3, r3, #6
 1012 006e D318     		adds	r3, r2, r3
 1013 0070 0833     		adds	r3, r3, #8
 1014 0072 8022     		movs	r2, #128
 1015 0074 1A60     		str	r2, [r3]
 1016              	.L83:
 481:Generated_Source\PSoC4/USBUART_std.c ****         }
ARM GAS  C:\Users\HPz420\AppData\Local\Temp\cczc1snk.s 			page 29


 482:Generated_Source\PSoC4/USBUART_std.c ****         
 483:Generated_Source\PSoC4/USBUART_std.c ****     #if (!USBUART_EP_MANAGEMENT_DMA_AUTO)
 484:Generated_Source\PSoC4/USBUART_std.c ****         #if (CY_PSOC4)
 485:Generated_Source\PSoC4/USBUART_std.c ****             USBUART_ARB_EP16_BASE.arbEp[ep].rwRa16  = (uint32) USBUART_EP[ep].buffOffset;
 1017              		.loc 1 485 0 discriminator 2
 1018 0076 1948     		ldr	r0, .L85+12
 1019 0078 1649     		ldr	r1, .L85+4
 1020 007a 7A68     		ldr	r2, [r7, #4]
 1021 007c 1300     		movs	r3, r2
 1022 007e 5B00     		lsls	r3, r3, #1
 1023 0080 9B18     		adds	r3, r3, r2
 1024 0082 9B00     		lsls	r3, r3, #2
 1025 0084 CB18     		adds	r3, r1, r3
 1026 0086 0633     		adds	r3, r3, #6
 1027 0088 1B88     		ldrh	r3, [r3]
 1028 008a 9BB2     		uxth	r3, r3
 1029 008c 1A00     		movs	r2, r3
 1030 008e 7B68     		ldr	r3, [r7, #4]
 1031 0090 9B01     		lsls	r3, r3, #6
 1032 0092 C318     		adds	r3, r0, r3
 1033 0094 0833     		adds	r3, r3, #8
 1034 0096 1A60     		str	r2, [r3]
 486:Generated_Source\PSoC4/USBUART_std.c ****             USBUART_ARB_EP16_BASE.arbEp[ep].rwWa16  = (uint32) USBUART_EP[ep].buffOffset;
 1035              		.loc 1 486 0 discriminator 2
 1036 0098 1048     		ldr	r0, .L85+12
 1037 009a 0E49     		ldr	r1, .L85+4
 1038 009c 7A68     		ldr	r2, [r7, #4]
 1039 009e 1300     		movs	r3, r2
 1040 00a0 5B00     		lsls	r3, r3, #1
 1041 00a2 9B18     		adds	r3, r3, r2
 1042 00a4 9B00     		lsls	r3, r3, #2
 1043 00a6 CB18     		adds	r3, r1, r3
 1044 00a8 0633     		adds	r3, r3, #6
 1045 00aa 1B88     		ldrh	r3, [r3]
 1046 00ac 9BB2     		uxth	r3, r3
 1047 00ae 1A00     		movs	r2, r3
 1048 00b0 7B68     		ldr	r3, [r7, #4]
 1049 00b2 9B01     		lsls	r3, r3, #6
 1050 00b4 1A50     		str	r2, [r3, r0]
 446:Generated_Source\PSoC4/USBUART_std.c ****     {
 1051              		.loc 1 446 0 discriminator 2
 1052 00b6 7B68     		ldr	r3, [r7, #4]
 1053 00b8 0133     		adds	r3, r3, #1
 1054 00ba 7B60     		str	r3, [r7, #4]
 1055              	.L79:
 446:Generated_Source\PSoC4/USBUART_std.c ****     {
 1056              		.loc 1 446 0 is_stmt 0 discriminator 1
 1057 00bc 7B68     		ldr	r3, [r7, #4]
 1058 00be 082B     		cmp	r3, #8
 1059 00c0 A4D9     		bls	.L84
 487:Generated_Source\PSoC4/USBUART_std.c ****         #else
 488:Generated_Source\PSoC4/USBUART_std.c ****             USBUART_ARB_EP_BASE.arbEp[ep].rwRa    = LO8(USBUART_EP[ep].buffOffset);
 489:Generated_Source\PSoC4/USBUART_std.c ****             USBUART_ARB_EP_BASE.arbEp[ep].rwRaMsb = HI8(USBUART_EP[ep].buffOffset);
 490:Generated_Source\PSoC4/USBUART_std.c ****             USBUART_ARB_EP_BASE.arbEp[ep].rwWa    = LO8(USBUART_EP[ep].buffOffset);
 491:Generated_Source\PSoC4/USBUART_std.c ****             USBUART_ARB_EP_BASE.arbEp[ep].rwWaMsb = HI8(USBUART_EP[ep].buffOffset);
 492:Generated_Source\PSoC4/USBUART_std.c ****         #endif /* (CY_PSOC4) */
 493:Generated_Source\PSoC4/USBUART_std.c ****     #endif /* (!USBUART_EP_MANAGEMENT_DMA_AUTO) */
ARM GAS  C:\Users\HPz420\AppData\Local\Temp\cczc1snk.s 			page 30


 494:Generated_Source\PSoC4/USBUART_std.c ****     }
 495:Generated_Source\PSoC4/USBUART_std.c **** 
 496:Generated_Source\PSoC4/USBUART_std.c **** #if (USBUART_EP_MANAGEMENT_DMA_AUTO)
 497:Generated_Source\PSoC4/USBUART_std.c ****      /* BUF_SIZE depend on DMA_THRESS value:0x55-32 bytes  0x44-16 bytes 0x33-8 bytes 0x22-4 bytes 
 498:Generated_Source\PSoC4/USBUART_std.c ****     USBUART_BUF_SIZE_REG = USBUART_DMA_BUF_SIZE;
 499:Generated_Source\PSoC4/USBUART_std.c **** 
 500:Generated_Source\PSoC4/USBUART_std.c ****     /* Configure DMA burst threshold */
 501:Generated_Source\PSoC4/USBUART_std.c **** #if (CY_PSOC4)
 502:Generated_Source\PSoC4/USBUART_std.c ****     USBUART_DMA_THRES16_REG   = USBUART_DMA_BYTES_PER_BURST;
 503:Generated_Source\PSoC4/USBUART_std.c **** #else
 504:Generated_Source\PSoC4/USBUART_std.c ****     USBUART_DMA_THRES_REG     = USBUART_DMA_BYTES_PER_BURST;
 505:Generated_Source\PSoC4/USBUART_std.c ****     USBUART_DMA_THRES_MSB_REG = 0u;
 506:Generated_Source\PSoC4/USBUART_std.c **** #endif /* (CY_PSOC4) */
 507:Generated_Source\PSoC4/USBUART_std.c ****     USBUART_EP_ACTIVE_REG = USBUART_DEFAULT_ARB_INT_EN;
 508:Generated_Source\PSoC4/USBUART_std.c ****     USBUART_EP_TYPE_REG   = epType;
 509:Generated_Source\PSoC4/USBUART_std.c ****     
 510:Generated_Source\PSoC4/USBUART_std.c ****     /* Cfg_cmp bit set to 1 once configuration is complete. */
 511:Generated_Source\PSoC4/USBUART_std.c ****     /* Lock arbiter configtuation */
 512:Generated_Source\PSoC4/USBUART_std.c ****     USBUART_ARB_CFG_REG |= (uint32)  USBUART_ARB_CFG_CFG_CMP;
 513:Generated_Source\PSoC4/USBUART_std.c ****     /* Cfg_cmp bit set to 0 during configuration of PFSUSB Registers. */
 514:Generated_Source\PSoC4/USBUART_std.c ****     USBUART_ARB_CFG_REG &= (uint32) ~USBUART_ARB_CFG_CFG_CMP;
 515:Generated_Source\PSoC4/USBUART_std.c **** 
 516:Generated_Source\PSoC4/USBUART_std.c **** #endif /* (USBUART_EP_MANAGEMENT_DMA_AUTO) */
 517:Generated_Source\PSoC4/USBUART_std.c **** 
 518:Generated_Source\PSoC4/USBUART_std.c ****     /* Enable interrupt SIE interurpt source from EP0-EP1 */
 519:Generated_Source\PSoC4/USBUART_std.c ****     USBUART_SIE_EP_INT_EN_REG = (uint32) USBUART_DEFAULT_SIE_EP_INT_EN;
 1060              		.loc 1 519 0 is_stmt 1
 1061 00c2 074B     		ldr	r3, .L85+16
 1062 00c4 FF22     		movs	r2, #255
 1063 00c6 1A60     		str	r2, [r3]
 520:Generated_Source\PSoC4/USBUART_std.c **** }
 1064              		.loc 1 520 0
 1065 00c8 C046     		nop
 1066 00ca BD46     		mov	sp, r7
 1067 00cc 02B0     		add	sp, sp, #8
 1068              		@ sp needed
 1069 00ce 80BD     		pop	{r7, pc}
 1070              	.L86:
 1071              		.align	2
 1072              	.L85:
 1073 00d0 C0012C40 		.word	1076625856
 1074 00d4 00000000 		.word	USBUART_EP
 1075 00d8 F0FF2B40 		.word	1076625392
 1076 00dc D0112C40 		.word	1076629968
 1077 00e0 28002C40 		.word	1076625448
 1078              		.cfi_endproc
 1079              	.LFE3:
 1080              		.size	USBUART_ConfigReg, .-USBUART_ConfigReg
 1081              		.section	.text.USBUART_EpStateInit,"ax",%progbits
 1082              		.align	2
 1083              		.global	USBUART_EpStateInit
 1084              		.code	16
 1085              		.thumb_func
 1086              		.type	USBUART_EpStateInit, %function
 1087              	USBUART_EpStateInit:
 1088              	.LFB4:
 521:Generated_Source\PSoC4/USBUART_std.c **** 
ARM GAS  C:\Users\HPz420\AppData\Local\Temp\cczc1snk.s 			page 31


 522:Generated_Source\PSoC4/USBUART_std.c **** 
 523:Generated_Source\PSoC4/USBUART_std.c **** /*******************************************************************************
 524:Generated_Source\PSoC4/USBUART_std.c **** * Function Name: USBUART_EpStateInit
 525:Generated_Source\PSoC4/USBUART_std.c **** ****************************************************************************//**
 526:Generated_Source\PSoC4/USBUART_std.c **** *
 527:Generated_Source\PSoC4/USBUART_std.c **** *  This routine initialize state of Data end points based of its type: 
 528:Generated_Source\PSoC4/USBUART_std.c **** *   IN  - USBUART_IN_BUFFER_EMPTY (USBUART_EVENT_PENDING)
 529:Generated_Source\PSoC4/USBUART_std.c **** *   OUT - USBUART_OUT_BUFFER_EMPTY (USBUART_NO_EVENT_PENDING)
 530:Generated_Source\PSoC4/USBUART_std.c **** *
 531:Generated_Source\PSoC4/USBUART_std.c **** *******************************************************************************/
 532:Generated_Source\PSoC4/USBUART_std.c **** void USBUART_EpStateInit(void) 
 533:Generated_Source\PSoC4/USBUART_std.c **** {
 1089              		.loc 1 533 0
 1090              		.cfi_startproc
 1091              		@ args = 0, pretend = 0, frame = 8
 1092              		@ frame_needed = 1, uses_anonymous_args = 0
 1093 0000 80B5     		push	{r7, lr}
 1094              		.cfi_def_cfa_offset 8
 1095              		.cfi_offset 7, -8
 1096              		.cfi_offset 14, -4
 1097 0002 82B0     		sub	sp, sp, #8
 1098              		.cfi_def_cfa_offset 16
 1099 0004 00AF     		add	r7, sp, #0
 1100              		.cfi_def_cfa_register 7
 534:Generated_Source\PSoC4/USBUART_std.c ****     uint8 i;
 535:Generated_Source\PSoC4/USBUART_std.c **** 
 536:Generated_Source\PSoC4/USBUART_std.c ****     for (i = USBUART_EP1; i < USBUART_MAX_EP; i++)
 1101              		.loc 1 536 0
 1102 0006 FB1D     		adds	r3, r7, #7
 1103 0008 0122     		movs	r2, #1
 1104 000a 1A70     		strb	r2, [r3]
 1105 000c 29E0     		b	.L88
 1106              	.L91:
 537:Generated_Source\PSoC4/USBUART_std.c ****     { 
 538:Generated_Source\PSoC4/USBUART_std.c ****         if (0u != (USBUART_EP[i].addr & USBUART_DIR_IN))
 1107              		.loc 1 538 0
 1108 000e FB1D     		adds	r3, r7, #7
 1109 0010 1A78     		ldrb	r2, [r3]
 1110 0012 1849     		ldr	r1, .L92
 1111 0014 1300     		movs	r3, r2
 1112 0016 5B00     		lsls	r3, r3, #1
 1113 0018 9B18     		adds	r3, r3, r2
 1114 001a 9B00     		lsls	r3, r3, #2
 1115 001c CB18     		adds	r3, r1, r3
 1116 001e 0433     		adds	r3, r3, #4
 1117 0020 1B78     		ldrb	r3, [r3]
 1118 0022 DBB2     		uxtb	r3, r3
 1119 0024 5BB2     		sxtb	r3, r3
 1120 0026 002B     		cmp	r3, #0
 1121 0028 0BDA     		bge	.L89
 539:Generated_Source\PSoC4/USBUART_std.c ****         {
 540:Generated_Source\PSoC4/USBUART_std.c ****             /* IN Endpoint */
 541:Generated_Source\PSoC4/USBUART_std.c ****             USBUART_EP[i].apiEpState = USBUART_EVENT_PENDING;
 1122              		.loc 1 541 0
 1123 002a FB1D     		adds	r3, r7, #7
 1124 002c 1A78     		ldrb	r2, [r3]
 1125 002e 1149     		ldr	r1, .L92
ARM GAS  C:\Users\HPz420\AppData\Local\Temp\cczc1snk.s 			page 32


 1126 0030 1300     		movs	r3, r2
 1127 0032 5B00     		lsls	r3, r3, #1
 1128 0034 9B18     		adds	r3, r3, r2
 1129 0036 9B00     		lsls	r3, r3, #2
 1130 0038 CB18     		adds	r3, r1, r3
 1131 003a 0133     		adds	r3, r3, #1
 1132 003c 0122     		movs	r2, #1
 1133 003e 1A70     		strb	r2, [r3]
 1134 0040 0AE0     		b	.L90
 1135              	.L89:
 542:Generated_Source\PSoC4/USBUART_std.c ****         }
 543:Generated_Source\PSoC4/USBUART_std.c ****         else
 544:Generated_Source\PSoC4/USBUART_std.c ****         {
 545:Generated_Source\PSoC4/USBUART_std.c ****             /* OUT Endpoint */
 546:Generated_Source\PSoC4/USBUART_std.c ****             USBUART_EP[i].apiEpState = USBUART_NO_EVENT_PENDING;
 1136              		.loc 1 546 0
 1137 0042 FB1D     		adds	r3, r7, #7
 1138 0044 1A78     		ldrb	r2, [r3]
 1139 0046 0B49     		ldr	r1, .L92
 1140 0048 1300     		movs	r3, r2
 1141 004a 5B00     		lsls	r3, r3, #1
 1142 004c 9B18     		adds	r3, r3, r2
 1143 004e 9B00     		lsls	r3, r3, #2
 1144 0050 CB18     		adds	r3, r1, r3
 1145 0052 0133     		adds	r3, r3, #1
 1146 0054 0022     		movs	r2, #0
 1147 0056 1A70     		strb	r2, [r3]
 1148              	.L90:
 536:Generated_Source\PSoC4/USBUART_std.c ****     { 
 1149              		.loc 1 536 0 discriminator 2
 1150 0058 FB1D     		adds	r3, r7, #7
 1151 005a 1A78     		ldrb	r2, [r3]
 1152 005c FB1D     		adds	r3, r7, #7
 1153 005e 0132     		adds	r2, r2, #1
 1154 0060 1A70     		strb	r2, [r3]
 1155              	.L88:
 536:Generated_Source\PSoC4/USBUART_std.c ****     { 
 1156              		.loc 1 536 0 is_stmt 0 discriminator 1
 1157 0062 FB1D     		adds	r3, r7, #7
 1158 0064 1B78     		ldrb	r3, [r3]
 1159 0066 082B     		cmp	r3, #8
 1160 0068 D1D9     		bls	.L91
 547:Generated_Source\PSoC4/USBUART_std.c ****         }
 548:Generated_Source\PSoC4/USBUART_std.c ****     }
 549:Generated_Source\PSoC4/USBUART_std.c ****                     
 550:Generated_Source\PSoC4/USBUART_std.c **** }
 1161              		.loc 1 550 0 is_stmt 1
 1162 006a C046     		nop
 1163 006c BD46     		mov	sp, r7
 1164 006e 02B0     		add	sp, sp, #8
 1165              		@ sp needed
 1166 0070 80BD     		pop	{r7, pc}
 1167              	.L93:
 1168 0072 C046     		.align	2
 1169              	.L92:
 1170 0074 00000000 		.word	USBUART_EP
 1171              		.cfi_endproc
ARM GAS  C:\Users\HPz420\AppData\Local\Temp\cczc1snk.s 			page 33


 1172              	.LFE4:
 1173              		.size	USBUART_EpStateInit, .-USBUART_EpStateInit
 1174              		.section	.text.USBUART_Config,"ax",%progbits
 1175              		.align	2
 1176              		.global	USBUART_Config
 1177              		.code	16
 1178              		.thumb_func
 1179              		.type	USBUART_Config, %function
 1180              	USBUART_Config:
 1181              	.LFB5:
 551:Generated_Source\PSoC4/USBUART_std.c **** 
 552:Generated_Source\PSoC4/USBUART_std.c **** 
 553:Generated_Source\PSoC4/USBUART_std.c **** /*******************************************************************************
 554:Generated_Source\PSoC4/USBUART_std.c **** * Function Name: USBUART_Config
 555:Generated_Source\PSoC4/USBUART_std.c **** ****************************************************************************//**
 556:Generated_Source\PSoC4/USBUART_std.c **** *
 557:Generated_Source\PSoC4/USBUART_std.c **** *  This routine configures endpoints for the entire configuration by scanning
 558:Generated_Source\PSoC4/USBUART_std.c **** *  the configuration descriptor.
 559:Generated_Source\PSoC4/USBUART_std.c **** *
 560:Generated_Source\PSoC4/USBUART_std.c **** *  \param clearAltSetting: It configures the bAlternateSetting 0 for each interface.
 561:Generated_Source\PSoC4/USBUART_std.c **** *
 562:Generated_Source\PSoC4/USBUART_std.c **** * USBUART_interfaceClass - Initialized class array for each interface.
 563:Generated_Source\PSoC4/USBUART_std.c **** *   It is used for handling Class specific requests depend on interface class.
 564:Generated_Source\PSoC4/USBUART_std.c **** *   Different classes in multiple Alternate settings does not supported.
 565:Generated_Source\PSoC4/USBUART_std.c **** *
 566:Generated_Source\PSoC4/USBUART_std.c **** * \reentrant
 567:Generated_Source\PSoC4/USBUART_std.c **** *  No.
 568:Generated_Source\PSoC4/USBUART_std.c **** *
 569:Generated_Source\PSoC4/USBUART_std.c **** *******************************************************************************/
 570:Generated_Source\PSoC4/USBUART_std.c **** void USBUART_Config(uint8 clearAltSetting) 
 571:Generated_Source\PSoC4/USBUART_std.c **** {
 1182              		.loc 1 571 0
 1183              		.cfi_startproc
 1184              		@ args = 0, pretend = 0, frame = 40
 1185              		@ frame_needed = 1, uses_anonymous_args = 0
 1186 0000 90B5     		push	{r4, r7, lr}
 1187              		.cfi_def_cfa_offset 12
 1188              		.cfi_offset 4, -12
 1189              		.cfi_offset 7, -8
 1190              		.cfi_offset 14, -4
 1191 0002 8BB0     		sub	sp, sp, #44
 1192              		.cfi_def_cfa_offset 56
 1193 0004 00AF     		add	r7, sp, #0
 1194              		.cfi_def_cfa_register 7
 1195 0006 0200     		movs	r2, r0
 1196 0008 FB1D     		adds	r3, r7, #7
 1197 000a 1A70     		strb	r2, [r3]
 572:Generated_Source\PSoC4/USBUART_std.c ****     uint8 ep;
 573:Generated_Source\PSoC4/USBUART_std.c ****     uint8 curEp;
 574:Generated_Source\PSoC4/USBUART_std.c ****     uint8 i;
 575:Generated_Source\PSoC4/USBUART_std.c ****     uint8 epType;
 576:Generated_Source\PSoC4/USBUART_std.c ****     const uint8 *pDescr;
 577:Generated_Source\PSoC4/USBUART_std.c ****     
 578:Generated_Source\PSoC4/USBUART_std.c ****     #if (!USBUART_EP_MANAGEMENT_DMA_AUTO)
 579:Generated_Source\PSoC4/USBUART_std.c ****         uint16 buffCount = 0u;
 1198              		.loc 1 579 0
 1199 000c 2223     		movs	r3, #34
ARM GAS  C:\Users\HPz420\AppData\Local\Temp\cczc1snk.s 			page 34


 1200 000e FB18     		adds	r3, r7, r3
 1201 0010 0022     		movs	r2, #0
 1202 0012 1A80     		strh	r2, [r3]
 580:Generated_Source\PSoC4/USBUART_std.c ****     #endif /* (!USBUART_EP_MANAGEMENT_DMA_AUTO) */
 581:Generated_Source\PSoC4/USBUART_std.c **** 
 582:Generated_Source\PSoC4/USBUART_std.c ****     const T_USBUART_LUT CYCODE *pTmp;
 583:Generated_Source\PSoC4/USBUART_std.c ****     const T_USBUART_EP_SETTINGS_BLOCK CYCODE *pEP;
 584:Generated_Source\PSoC4/USBUART_std.c **** 
 585:Generated_Source\PSoC4/USBUART_std.c ****     /* Clear endpoints settings */
 586:Generated_Source\PSoC4/USBUART_std.c ****     for (ep = 0u; ep < USBUART_MAX_EP; ++ep)
 1203              		.loc 1 586 0
 1204 0014 2723     		movs	r3, #39
 1205 0016 FB18     		adds	r3, r7, r3
 1206 0018 0022     		movs	r2, #0
 1207 001a 1A70     		strb	r2, [r3]
 1208 001c 58E0     		b	.L95
 1209              	.L96:
 587:Generated_Source\PSoC4/USBUART_std.c ****     {
 588:Generated_Source\PSoC4/USBUART_std.c ****         USBUART_EP[ep].attrib     = 0u;
 1210              		.loc 1 588 0 discriminator 3
 1211 001e 2723     		movs	r3, #39
 1212 0020 FB18     		adds	r3, r7, r3
 1213 0022 1A78     		ldrb	r2, [r3]
 1214 0024 E449     		ldr	r1, .L121
 1215 0026 1300     		movs	r3, r2
 1216 0028 5B00     		lsls	r3, r3, #1
 1217 002a 9B18     		adds	r3, r3, r2
 1218 002c 9B00     		lsls	r3, r3, #2
 1219 002e 0022     		movs	r2, #0
 1220 0030 5A54     		strb	r2, [r3, r1]
 589:Generated_Source\PSoC4/USBUART_std.c ****         USBUART_EP[ep].hwEpState  = 0u;
 1221              		.loc 1 589 0 discriminator 3
 1222 0032 2723     		movs	r3, #39
 1223 0034 FB18     		adds	r3, r7, r3
 1224 0036 1A78     		ldrb	r2, [r3]
 1225 0038 DF49     		ldr	r1, .L121
 1226 003a 1300     		movs	r3, r2
 1227 003c 5B00     		lsls	r3, r3, #1
 1228 003e 9B18     		adds	r3, r3, r2
 1229 0040 9B00     		lsls	r3, r3, #2
 1230 0042 CB18     		adds	r3, r1, r3
 1231 0044 0233     		adds	r3, r3, #2
 1232 0046 0022     		movs	r2, #0
 1233 0048 1A70     		strb	r2, [r3]
 590:Generated_Source\PSoC4/USBUART_std.c ****         USBUART_EP[ep].epToggle   = 0u;
 1234              		.loc 1 590 0 discriminator 3
 1235 004a 2723     		movs	r3, #39
 1236 004c FB18     		adds	r3, r7, r3
 1237 004e 1A78     		ldrb	r2, [r3]
 1238 0050 D949     		ldr	r1, .L121
 1239 0052 1300     		movs	r3, r2
 1240 0054 5B00     		lsls	r3, r3, #1
 1241 0056 9B18     		adds	r3, r3, r2
 1242 0058 9B00     		lsls	r3, r3, #2
 1243 005a CB18     		adds	r3, r1, r3
 1244 005c 0333     		adds	r3, r3, #3
 1245 005e 0022     		movs	r2, #0
ARM GAS  C:\Users\HPz420\AppData\Local\Temp\cczc1snk.s 			page 35


 1246 0060 1A70     		strb	r2, [r3]
 591:Generated_Source\PSoC4/USBUART_std.c ****         USBUART_EP[ep].bufferSize = 0u;
 1247              		.loc 1 591 0 discriminator 3
 1248 0062 2723     		movs	r3, #39
 1249 0064 FB18     		adds	r3, r7, r3
 1250 0066 1A78     		ldrb	r2, [r3]
 1251 0068 D349     		ldr	r1, .L121
 1252 006a 1300     		movs	r3, r2
 1253 006c 5B00     		lsls	r3, r3, #1
 1254 006e 9B18     		adds	r3, r3, r2
 1255 0070 9B00     		lsls	r3, r3, #2
 1256 0072 CB18     		adds	r3, r1, r3
 1257 0074 0833     		adds	r3, r3, #8
 1258 0076 0022     		movs	r2, #0
 1259 0078 1A80     		strh	r2, [r3]
 592:Generated_Source\PSoC4/USBUART_std.c ****         USBUART_EP[ep].interface  = 0u;
 1260              		.loc 1 592 0 discriminator 3
 1261 007a 2723     		movs	r3, #39
 1262 007c FB18     		adds	r3, r7, r3
 1263 007e 1A78     		ldrb	r2, [r3]
 1264 0080 CD49     		ldr	r1, .L121
 1265 0082 1300     		movs	r3, r2
 1266 0084 5B00     		lsls	r3, r3, #1
 1267 0086 9B18     		adds	r3, r3, r2
 1268 0088 9B00     		lsls	r3, r3, #2
 1269 008a CB18     		adds	r3, r1, r3
 1270 008c 0A33     		adds	r3, r3, #10
 1271 008e 0022     		movs	r2, #0
 1272 0090 1A70     		strb	r2, [r3]
 593:Generated_Source\PSoC4/USBUART_std.c ****         USBUART_EP[ep].apiEpState = USBUART_NO_EVENT_PENDING;
 1273              		.loc 1 593 0 discriminator 3
 1274 0092 2723     		movs	r3, #39
 1275 0094 FB18     		adds	r3, r7, r3
 1276 0096 1A78     		ldrb	r2, [r3]
 1277 0098 C749     		ldr	r1, .L121
 1278 009a 1300     		movs	r3, r2
 1279 009c 5B00     		lsls	r3, r3, #1
 1280 009e 9B18     		adds	r3, r3, r2
 1281 00a0 9B00     		lsls	r3, r3, #2
 1282 00a2 CB18     		adds	r3, r1, r3
 1283 00a4 0133     		adds	r3, r3, #1
 1284 00a6 0022     		movs	r2, #0
 1285 00a8 1A70     		strb	r2, [r3]
 594:Generated_Source\PSoC4/USBUART_std.c ****         USBUART_EP[ep].epMode     = USBUART_MODE_DISABLE;   
 1286              		.loc 1 594 0 discriminator 3
 1287 00aa 2723     		movs	r3, #39
 1288 00ac FB18     		adds	r3, r7, r3
 1289 00ae 1A78     		ldrb	r2, [r3]
 1290 00b0 C149     		ldr	r1, .L121
 1291 00b2 1300     		movs	r3, r2
 1292 00b4 5B00     		lsls	r3, r3, #1
 1293 00b6 9B18     		adds	r3, r3, r2
 1294 00b8 9B00     		lsls	r3, r3, #2
 1295 00ba CB18     		adds	r3, r1, r3
 1296 00bc 0533     		adds	r3, r3, #5
 1297 00be 0022     		movs	r2, #0
 1298 00c0 1A70     		strb	r2, [r3]
ARM GAS  C:\Users\HPz420\AppData\Local\Temp\cczc1snk.s 			page 36


 586:Generated_Source\PSoC4/USBUART_std.c ****     {
 1299              		.loc 1 586 0 discriminator 3
 1300 00c2 2723     		movs	r3, #39
 1301 00c4 FB18     		adds	r3, r7, r3
 1302 00c6 2722     		movs	r2, #39
 1303 00c8 BA18     		adds	r2, r7, r2
 1304 00ca 1278     		ldrb	r2, [r2]
 1305 00cc 0132     		adds	r2, r2, #1
 1306 00ce 1A70     		strb	r2, [r3]
 1307              	.L95:
 586:Generated_Source\PSoC4/USBUART_std.c ****     {
 1308              		.loc 1 586 0 is_stmt 0 discriminator 1
 1309 00d0 2723     		movs	r3, #39
 1310 00d2 FB18     		adds	r3, r7, r3
 1311 00d4 1B78     		ldrb	r3, [r3]
 1312 00d6 082B     		cmp	r3, #8
 1313 00d8 A1D9     		bls	.L96
 595:Generated_Source\PSoC4/USBUART_std.c ****     }
 596:Generated_Source\PSoC4/USBUART_std.c **** 
 597:Generated_Source\PSoC4/USBUART_std.c ****     /* Clear Alternate settings for all interfaces. */
 598:Generated_Source\PSoC4/USBUART_std.c ****     if (0u != clearAltSetting)
 1314              		.loc 1 598 0 is_stmt 1
 1315 00da FB1D     		adds	r3, r7, #7
 1316 00dc 1B78     		ldrb	r3, [r3]
 1317 00de 002B     		cmp	r3, #0
 1318 00e0 1CD0     		beq	.L97
 599:Generated_Source\PSoC4/USBUART_std.c ****     {
 600:Generated_Source\PSoC4/USBUART_std.c ****         for (i = 0u; i < USBUART_MAX_INTERFACES_NUMBER; ++i)
 1319              		.loc 1 600 0
 1320 00e2 2523     		movs	r3, #37
 1321 00e4 FB18     		adds	r3, r7, r3
 1322 00e6 0022     		movs	r2, #0
 1323 00e8 1A70     		strb	r2, [r3]
 1324 00ea 12E0     		b	.L98
 1325              	.L99:
 601:Generated_Source\PSoC4/USBUART_std.c ****         {
 602:Generated_Source\PSoC4/USBUART_std.c ****             USBUART_interfaceSetting[i]     = 0u;
 1326              		.loc 1 602 0 discriminator 3
 1327 00ec 2523     		movs	r3, #37
 1328 00ee FB18     		adds	r3, r7, r3
 1329 00f0 1B78     		ldrb	r3, [r3]
 1330 00f2 B24A     		ldr	r2, .L121+4
 1331 00f4 0021     		movs	r1, #0
 1332 00f6 D154     		strb	r1, [r2, r3]
 603:Generated_Source\PSoC4/USBUART_std.c ****             USBUART_interfaceSettingLast[i] = 0u;
 1333              		.loc 1 603 0 discriminator 3
 1334 00f8 2523     		movs	r3, #37
 1335 00fa FB18     		adds	r3, r7, r3
 1336 00fc 1B78     		ldrb	r3, [r3]
 1337 00fe B04A     		ldr	r2, .L121+8
 1338 0100 0021     		movs	r1, #0
 1339 0102 D154     		strb	r1, [r2, r3]
 600:Generated_Source\PSoC4/USBUART_std.c ****         {
 1340              		.loc 1 600 0 discriminator 3
 1341 0104 2523     		movs	r3, #37
 1342 0106 FB18     		adds	r3, r7, r3
 1343 0108 2522     		movs	r2, #37
ARM GAS  C:\Users\HPz420\AppData\Local\Temp\cczc1snk.s 			page 37


 1344 010a BA18     		adds	r2, r7, r2
 1345 010c 1278     		ldrb	r2, [r2]
 1346 010e 0132     		adds	r2, r2, #1
 1347 0110 1A70     		strb	r2, [r3]
 1348              	.L98:
 600:Generated_Source\PSoC4/USBUART_std.c ****         {
 1349              		.loc 1 600 0 is_stmt 0 discriminator 1
 1350 0112 2523     		movs	r3, #37
 1351 0114 FB18     		adds	r3, r7, r3
 1352 0116 1B78     		ldrb	r3, [r3]
 1353 0118 012B     		cmp	r3, #1
 1354 011a E7D9     		bls	.L99
 1355              	.L97:
 604:Generated_Source\PSoC4/USBUART_std.c ****         }
 605:Generated_Source\PSoC4/USBUART_std.c ****     }
 606:Generated_Source\PSoC4/USBUART_std.c **** 
 607:Generated_Source\PSoC4/USBUART_std.c ****     /* Init Endpoints and Device Status if configured */
 608:Generated_Source\PSoC4/USBUART_std.c ****     if (USBUART_configuration > 0u)
 1356              		.loc 1 608 0 is_stmt 1
 1357 011c A94B     		ldr	r3, .L121+12
 1358 011e 1B78     		ldrb	r3, [r3]
 1359 0120 DBB2     		uxtb	r3, r3
 1360 0122 002B     		cmp	r3, #0
 1361 0124 00D1     		bne	.LCB1206
 1362 0126 82E1     		b	.L120	@long jump
 1363              	.LCB1206:
 1364              	.LBB2:
 609:Generated_Source\PSoC4/USBUART_std.c ****     {
 610:Generated_Source\PSoC4/USBUART_std.c ****         #if defined(USBUART_ENABLE_CDC_CLASS)
 611:Generated_Source\PSoC4/USBUART_std.c ****             uint8 cdcComNums = 0u;
 1365              		.loc 1 611 0
 1366 0128 1B23     		movs	r3, #27
 1367 012a FB18     		adds	r3, r7, r3
 1368 012c 0022     		movs	r2, #0
 1369 012e 1A70     		strb	r2, [r3]
 612:Generated_Source\PSoC4/USBUART_std.c ****         #endif  /* (USBUART_ENABLE_CDC_CLASS) */  
 613:Generated_Source\PSoC4/USBUART_std.c **** 
 614:Generated_Source\PSoC4/USBUART_std.c ****         pTmp = USBUART_GetConfigTablePtr(USBUART_configuration - 1u);
 1370              		.loc 1 614 0
 1371 0130 A44B     		ldr	r3, .L121+12
 1372 0132 1B78     		ldrb	r3, [r3]
 1373 0134 DBB2     		uxtb	r3, r3
 1374 0136 013B     		subs	r3, r3, #1
 1375 0138 DBB2     		uxtb	r3, r3
 1376 013a 1800     		movs	r0, r3
 1377 013c FFF7FEFF 		bl	USBUART_GetConfigTablePtr
 1378 0140 0300     		movs	r3, r0
 1379 0142 7B61     		str	r3, [r7, #20]
 615:Generated_Source\PSoC4/USBUART_std.c ****         
 616:Generated_Source\PSoC4/USBUART_std.c ****         /* Set Power status for current configuration */
 617:Generated_Source\PSoC4/USBUART_std.c ****         pDescr = (const uint8 *)pTmp->p_list;
 1380              		.loc 1 617 0
 1381 0144 7B69     		ldr	r3, [r7, #20]
 1382 0146 5B68     		ldr	r3, [r3, #4]
 1383 0148 3B61     		str	r3, [r7, #16]
 618:Generated_Source\PSoC4/USBUART_std.c ****         if ((pDescr[USBUART_CONFIG_DESCR_ATTRIB] & USBUART_CONFIG_DESCR_ATTRIB_SELF_POWERED) != 0u)
 1384              		.loc 1 618 0
ARM GAS  C:\Users\HPz420\AppData\Local\Temp\cczc1snk.s 			page 38


 1385 014a 3B69     		ldr	r3, [r7, #16]
 1386 014c 0733     		adds	r3, r3, #7
 1387 014e 1B78     		ldrb	r3, [r3]
 1388 0150 1A00     		movs	r2, r3
 1389 0152 4023     		movs	r3, #64
 1390 0154 1340     		ands	r3, r2
 1391 0156 08D0     		beq	.L101
 619:Generated_Source\PSoC4/USBUART_std.c ****         {
 620:Generated_Source\PSoC4/USBUART_std.c ****             USBUART_deviceStatus |= (uint8)  USBUART_DEVICE_STATUS_SELF_POWERED;
 1392              		.loc 1 620 0
 1393 0158 9B4B     		ldr	r3, .L121+16
 1394 015a 1B78     		ldrb	r3, [r3]
 1395 015c DBB2     		uxtb	r3, r3
 1396 015e 0122     		movs	r2, #1
 1397 0160 1343     		orrs	r3, r2
 1398 0162 DAB2     		uxtb	r2, r3
 1399 0164 984B     		ldr	r3, .L121+16
 1400 0166 1A70     		strb	r2, [r3]
 1401 0168 07E0     		b	.L102
 1402              	.L101:
 621:Generated_Source\PSoC4/USBUART_std.c ****         }
 622:Generated_Source\PSoC4/USBUART_std.c ****         else
 623:Generated_Source\PSoC4/USBUART_std.c ****         {
 624:Generated_Source\PSoC4/USBUART_std.c ****             USBUART_deviceStatus &= (uint8) ~USBUART_DEVICE_STATUS_SELF_POWERED;
 1403              		.loc 1 624 0
 1404 016a 974B     		ldr	r3, .L121+16
 1405 016c 1B78     		ldrb	r3, [r3]
 1406 016e DBB2     		uxtb	r3, r3
 1407 0170 0122     		movs	r2, #1
 1408 0172 9343     		bics	r3, r2
 1409 0174 DAB2     		uxtb	r2, r3
 1410 0176 944B     		ldr	r3, .L121+16
 1411 0178 1A70     		strb	r2, [r3]
 1412              	.L102:
 625:Generated_Source\PSoC4/USBUART_std.c ****         }
 626:Generated_Source\PSoC4/USBUART_std.c ****         
 627:Generated_Source\PSoC4/USBUART_std.c ****         /* Move to next element */
 628:Generated_Source\PSoC4/USBUART_std.c ****         pTmp = &pTmp[1u];
 1413              		.loc 1 628 0
 1414 017a 7B69     		ldr	r3, [r7, #20]
 1415 017c 0833     		adds	r3, r3, #8
 1416 017e 7B61     		str	r3, [r7, #20]
 629:Generated_Source\PSoC4/USBUART_std.c ****         ep = pTmp->c;  /* For this table, c is the number of endpoints configurations  */
 1417              		.loc 1 629 0
 1418 0180 2723     		movs	r3, #39
 1419 0182 FB18     		adds	r3, r7, r3
 1420 0184 7A69     		ldr	r2, [r7, #20]
 1421 0186 1278     		ldrb	r2, [r2]
 1422 0188 1A70     		strb	r2, [r3]
 630:Generated_Source\PSoC4/USBUART_std.c **** 
 631:Generated_Source\PSoC4/USBUART_std.c ****         #if (USBUART_EP_MANAGEMENT_MANUAL && USBUART_EP_ALLOC_DYNAMIC)
 632:Generated_Source\PSoC4/USBUART_std.c ****             /* Configure for dynamic EP memory allocation */
 633:Generated_Source\PSoC4/USBUART_std.c ****             /* p_list points the endpoint setting table. */
 634:Generated_Source\PSoC4/USBUART_std.c ****             pEP = (T_USBUART_EP_SETTINGS_BLOCK *) pTmp->p_list;
 635:Generated_Source\PSoC4/USBUART_std.c ****             
 636:Generated_Source\PSoC4/USBUART_std.c ****             for (i = 0u; i < ep; i++)
 637:Generated_Source\PSoC4/USBUART_std.c ****             {     
ARM GAS  C:\Users\HPz420\AppData\Local\Temp\cczc1snk.s 			page 39


 638:Generated_Source\PSoC4/USBUART_std.c ****                 /* Compare current Alternate setting with EP Alt */
 639:Generated_Source\PSoC4/USBUART_std.c ****                 if (USBUART_interfaceSetting[pEP->interface] == pEP->altSetting)
 640:Generated_Source\PSoC4/USBUART_std.c ****                 {                                                          
 641:Generated_Source\PSoC4/USBUART_std.c ****                     curEp  = pEP->addr & USBUART_DIR_UNUSED;
 642:Generated_Source\PSoC4/USBUART_std.c ****                     epType = pEP->attributes & USBUART_EP_TYPE_MASK;
 643:Generated_Source\PSoC4/USBUART_std.c ****                     
 644:Generated_Source\PSoC4/USBUART_std.c ****                     USBUART_EP[curEp].addr       = pEP->addr;
 645:Generated_Source\PSoC4/USBUART_std.c ****                     USBUART_EP[curEp].attrib     = pEP->attributes;
 646:Generated_Source\PSoC4/USBUART_std.c ****                     USBUART_EP[curEp].bufferSize = pEP->bufferSize;
 647:Generated_Source\PSoC4/USBUART_std.c **** 
 648:Generated_Source\PSoC4/USBUART_std.c ****                     if (0u != (pEP->addr & USBUART_DIR_IN))
 649:Generated_Source\PSoC4/USBUART_std.c ****                     {
 650:Generated_Source\PSoC4/USBUART_std.c ****                         /* IN Endpoint */
 651:Generated_Source\PSoC4/USBUART_std.c ****                         USBUART_EP[curEp].epMode     = USBUART_GET_ACTIVE_IN_EP_CR0_MODE(epType);
 652:Generated_Source\PSoC4/USBUART_std.c ****                         USBUART_EP[curEp].apiEpState = USBUART_EVENT_PENDING;
 653:Generated_Source\PSoC4/USBUART_std.c ****                     
 654:Generated_Source\PSoC4/USBUART_std.c ****                     #if (defined(USBUART_ENABLE_MIDI_STREAMING) && (USBUART_MIDI_IN_BUFF_SIZE > 0))
 655:Generated_Source\PSoC4/USBUART_std.c ****                         if ((pEP->bMisc == USBUART_CLASS_AUDIO) && (epType == USBUART_EP_TYPE_BULK)
 656:Generated_Source\PSoC4/USBUART_std.c ****                         {
 657:Generated_Source\PSoC4/USBUART_std.c ****                             USBUART_midi_in_ep = curEp;
 658:Generated_Source\PSoC4/USBUART_std.c ****                         }
 659:Generated_Source\PSoC4/USBUART_std.c ****                     #endif  /* (USBUART_ENABLE_MIDI_STREAMING) */
 660:Generated_Source\PSoC4/USBUART_std.c ****                     }
 661:Generated_Source\PSoC4/USBUART_std.c ****                     else
 662:Generated_Source\PSoC4/USBUART_std.c ****                     {
 663:Generated_Source\PSoC4/USBUART_std.c ****                         /* OUT Endpoint */
 664:Generated_Source\PSoC4/USBUART_std.c ****                         USBUART_EP[curEp].epMode     = USBUART_GET_ACTIVE_OUT_EP_CR0_MODE(epType);
 665:Generated_Source\PSoC4/USBUART_std.c ****                         USBUART_EP[curEp].apiEpState = USBUART_NO_EVENT_PENDING;
 666:Generated_Source\PSoC4/USBUART_std.c ****                         
 667:Generated_Source\PSoC4/USBUART_std.c ****                     #if (defined(USBUART_ENABLE_MIDI_STREAMING) && (USBUART_MIDI_OUT_BUFF_SIZE > 0)
 668:Generated_Source\PSoC4/USBUART_std.c ****                         if ((pEP->bMisc == USBUART_CLASS_AUDIO) && (epType == USBUART_EP_TYPE_BULK)
 669:Generated_Source\PSoC4/USBUART_std.c ****                         {
 670:Generated_Source\PSoC4/USBUART_std.c ****                             USBUART_midi_out_ep = curEp;
 671:Generated_Source\PSoC4/USBUART_std.c ****                         }
 672:Generated_Source\PSoC4/USBUART_std.c ****                     #endif  /* (USBUART_ENABLE_MIDI_STREAMING) */
 673:Generated_Source\PSoC4/USBUART_std.c ****                     }
 674:Generated_Source\PSoC4/USBUART_std.c **** 
 675:Generated_Source\PSoC4/USBUART_std.c ****                 #if(defined (USBUART_ENABLE_CDC_CLASS))
 676:Generated_Source\PSoC4/USBUART_std.c ****                     if((pEP->bMisc == USBUART_CLASS_CDC_DATA) ||(pEP->bMisc == USBUART_CLASS_CDC))
 677:Generated_Source\PSoC4/USBUART_std.c ****                     {
 678:Generated_Source\PSoC4/USBUART_std.c ****                         cdcComNums = USBUART_Cdc_EpInit(pEP, curEp, cdcComNums);
 679:Generated_Source\PSoC4/USBUART_std.c ****                     }
 680:Generated_Source\PSoC4/USBUART_std.c ****                 #endif  /* (USBUART_ENABLE_CDC_CLASS) */
 681:Generated_Source\PSoC4/USBUART_std.c ****                 }
 682:Generated_Source\PSoC4/USBUART_std.c ****                 
 683:Generated_Source\PSoC4/USBUART_std.c ****                 pEP = &pEP[1u];
 684:Generated_Source\PSoC4/USBUART_std.c ****             }
 685:Generated_Source\PSoC4/USBUART_std.c ****             
 686:Generated_Source\PSoC4/USBUART_std.c ****         #else
 687:Generated_Source\PSoC4/USBUART_std.c ****             for (i = USBUART_EP1; i < USBUART_MAX_EP; ++i)
 1423              		.loc 1 687 0
 1424 018a 2523     		movs	r3, #37
 1425 018c FB18     		adds	r3, r7, r3
 1426 018e 0122     		movs	r2, #1
 1427 0190 1A70     		strb	r2, [r3]
 1428 0192 D2E0     		b	.L103
 1429              	.L115:
ARM GAS  C:\Users\HPz420\AppData\Local\Temp\cczc1snk.s 			page 40


 688:Generated_Source\PSoC4/USBUART_std.c ****             {
 689:Generated_Source\PSoC4/USBUART_std.c ****                 /* p_list points the endpoint setting table. */
 690:Generated_Source\PSoC4/USBUART_std.c ****                 pEP = (const T_USBUART_EP_SETTINGS_BLOCK CYCODE *) pTmp->p_list;
 1430              		.loc 1 690 0
 1431 0194 7B69     		ldr	r3, [r7, #20]
 1432 0196 5B68     		ldr	r3, [r3, #4]
 1433 0198 FB61     		str	r3, [r7, #28]
 691:Generated_Source\PSoC4/USBUART_std.c ****                 /* Find max length for each EP and select it (length could be different in differen
 692:Generated_Source\PSoC4/USBUART_std.c ****                 /* but other settings should be correct with regards to Interface alt Setting */
 693:Generated_Source\PSoC4/USBUART_std.c ****                 
 694:Generated_Source\PSoC4/USBUART_std.c ****                 for (curEp = 0u; curEp < ep; ++curEp)
 1434              		.loc 1 694 0
 1435 019a 2623     		movs	r3, #38
 1436 019c FB18     		adds	r3, r7, r3
 1437 019e 0022     		movs	r2, #0
 1438 01a0 1A70     		strb	r2, [r3]
 1439 01a2 BAE0     		b	.L104
 1440              	.L114:
 695:Generated_Source\PSoC4/USBUART_std.c ****                 {
 696:Generated_Source\PSoC4/USBUART_std.c ****                     if (i == (pEP->addr & USBUART_DIR_UNUSED))
 1441              		.loc 1 696 0
 1442 01a4 2523     		movs	r3, #37
 1443 01a6 FB18     		adds	r3, r7, r3
 1444 01a8 1A78     		ldrb	r2, [r3]
 1445 01aa FB69     		ldr	r3, [r7, #28]
 1446 01ac 9B78     		ldrb	r3, [r3, #2]
 1447 01ae 1900     		movs	r1, r3
 1448 01b0 7F23     		movs	r3, #127
 1449 01b2 0B40     		ands	r3, r1
 1450 01b4 9A42     		cmp	r2, r3
 1451 01b6 00D0     		beq	.LCB1290
 1452 01b8 A5E0     		b	.L105	@long jump
 1453              	.LCB1290:
 697:Generated_Source\PSoC4/USBUART_std.c ****                     {
 698:Generated_Source\PSoC4/USBUART_std.c ****                         /* Compare endpoint buffers size with current size to find greater. */
 699:Generated_Source\PSoC4/USBUART_std.c ****                         if (USBUART_EP[i].bufferSize < pEP->bufferSize)
 1454              		.loc 1 699 0
 1455 01ba 2523     		movs	r3, #37
 1456 01bc FB18     		adds	r3, r7, r3
 1457 01be 1A78     		ldrb	r2, [r3]
 1458 01c0 7D49     		ldr	r1, .L121
 1459 01c2 1300     		movs	r3, r2
 1460 01c4 5B00     		lsls	r3, r3, #1
 1461 01c6 9B18     		adds	r3, r3, r2
 1462 01c8 9B00     		lsls	r3, r3, #2
 1463 01ca CB18     		adds	r3, r1, r3
 1464 01cc 0833     		adds	r3, r3, #8
 1465 01ce 1B88     		ldrh	r3, [r3]
 1466 01d0 9AB2     		uxth	r2, r3
 1467 01d2 FB69     		ldr	r3, [r7, #28]
 1468 01d4 9B88     		ldrh	r3, [r3, #4]
 1469 01d6 9A42     		cmp	r2, r3
 1470 01d8 0DD2     		bcs	.L106
 700:Generated_Source\PSoC4/USBUART_std.c ****                         {
 701:Generated_Source\PSoC4/USBUART_std.c ****                             USBUART_EP[i].bufferSize = pEP->bufferSize;
 1471              		.loc 1 701 0
 1472 01da 2523     		movs	r3, #37
ARM GAS  C:\Users\HPz420\AppData\Local\Temp\cczc1snk.s 			page 41


 1473 01dc FB18     		adds	r3, r7, r3
 1474 01de 1A78     		ldrb	r2, [r3]
 1475 01e0 FB69     		ldr	r3, [r7, #28]
 1476 01e2 9888     		ldrh	r0, [r3, #4]
 1477 01e4 7449     		ldr	r1, .L121
 1478 01e6 1300     		movs	r3, r2
 1479 01e8 5B00     		lsls	r3, r3, #1
 1480 01ea 9B18     		adds	r3, r3, r2
 1481 01ec 9B00     		lsls	r3, r3, #2
 1482 01ee CB18     		adds	r3, r1, r3
 1483 01f0 0833     		adds	r3, r3, #8
 1484 01f2 021C     		adds	r2, r0, #0
 1485 01f4 1A80     		strh	r2, [r3]
 1486              	.L106:
 702:Generated_Source\PSoC4/USBUART_std.c ****                         }
 703:Generated_Source\PSoC4/USBUART_std.c ****                         
 704:Generated_Source\PSoC4/USBUART_std.c ****                         /* Compare current Alternate setting with EP Alt */
 705:Generated_Source\PSoC4/USBUART_std.c ****                         if (USBUART_interfaceSetting[pEP->interface] == pEP->altSetting)
 1487              		.loc 1 705 0
 1488 01f6 FB69     		ldr	r3, [r7, #28]
 1489 01f8 1B78     		ldrb	r3, [r3]
 1490 01fa 1A00     		movs	r2, r3
 1491 01fc 6F4B     		ldr	r3, .L121+4
 1492 01fe 9B5C     		ldrb	r3, [r3, r2]
 1493 0200 DAB2     		uxtb	r2, r3
 1494 0202 FB69     		ldr	r3, [r7, #28]
 1495 0204 5B78     		ldrb	r3, [r3, #1]
 1496 0206 9A42     		cmp	r2, r3
 1497 0208 00D0     		beq	.LCB1332
 1498 020a 7CE0     		b	.L105	@long jump
 1499              	.LCB1332:
 706:Generated_Source\PSoC4/USBUART_std.c ****                         {                            
 707:Generated_Source\PSoC4/USBUART_std.c ****                             USBUART_EP[i].addr = pEP->addr;
 1500              		.loc 1 707 0
 1501 020c 2523     		movs	r3, #37
 1502 020e FB18     		adds	r3, r7, r3
 1503 0210 1A78     		ldrb	r2, [r3]
 1504 0212 FB69     		ldr	r3, [r7, #28]
 1505 0214 9878     		ldrb	r0, [r3, #2]
 1506 0216 6849     		ldr	r1, .L121
 1507 0218 1300     		movs	r3, r2
 1508 021a 5B00     		lsls	r3, r3, #1
 1509 021c 9B18     		adds	r3, r3, r2
 1510 021e 9B00     		lsls	r3, r3, #2
 1511 0220 CB18     		adds	r3, r1, r3
 1512 0222 0433     		adds	r3, r3, #4
 1513 0224 021C     		adds	r2, r0, #0
 1514 0226 1A70     		strb	r2, [r3]
 708:Generated_Source\PSoC4/USBUART_std.c ****                             USBUART_EP[i].attrib = pEP->attributes;
 1515              		.loc 1 708 0
 1516 0228 2523     		movs	r3, #37
 1517 022a FB18     		adds	r3, r7, r3
 1518 022c 1A78     		ldrb	r2, [r3]
 1519 022e FB69     		ldr	r3, [r7, #28]
 1520 0230 D878     		ldrb	r0, [r3, #3]
 1521 0232 6149     		ldr	r1, .L121
 1522 0234 1300     		movs	r3, r2
ARM GAS  C:\Users\HPz420\AppData\Local\Temp\cczc1snk.s 			page 42


 1523 0236 5B00     		lsls	r3, r3, #1
 1524 0238 9B18     		adds	r3, r3, r2
 1525 023a 9B00     		lsls	r3, r3, #2
 1526 023c 021C     		adds	r2, r0, #0
 1527 023e 5A54     		strb	r2, [r3, r1]
 709:Generated_Source\PSoC4/USBUART_std.c ****                             
 710:Generated_Source\PSoC4/USBUART_std.c ****                             epType = pEP->attributes & USBUART_EP_TYPE_MASK;
 1528              		.loc 1 710 0
 1529 0240 FB69     		ldr	r3, [r7, #28]
 1530 0242 DA78     		ldrb	r2, [r3, #3]
 1531 0244 0F23     		movs	r3, #15
 1532 0246 FB18     		adds	r3, r7, r3
 1533 0248 0321     		movs	r1, #3
 1534 024a 0A40     		ands	r2, r1
 1535 024c 1A70     		strb	r2, [r3]
 711:Generated_Source\PSoC4/USBUART_std.c ****                             
 712:Generated_Source\PSoC4/USBUART_std.c ****                             if (0u != (pEP->addr & USBUART_DIR_IN))
 1536              		.loc 1 712 0
 1537 024e FB69     		ldr	r3, [r7, #28]
 1538 0250 9B78     		ldrb	r3, [r3, #2]
 1539 0252 5BB2     		sxtb	r3, r3
 1540 0254 002B     		cmp	r3, #0
 1541 0256 20DA     		bge	.L107
 713:Generated_Source\PSoC4/USBUART_std.c ****                             {
 714:Generated_Source\PSoC4/USBUART_std.c ****                                 /* IN Endpoint */
 715:Generated_Source\PSoC4/USBUART_std.c ****                                 USBUART_EP[i].epMode     = USBUART_GET_ACTIVE_IN_EP_CR0_MODE(epType
 1542              		.loc 1 715 0
 1543 0258 2523     		movs	r3, #37
 1544 025a FB18     		adds	r3, r7, r3
 1545 025c 1A78     		ldrb	r2, [r3]
 1546 025e 0F23     		movs	r3, #15
 1547 0260 FB18     		adds	r3, r7, r3
 1548 0262 1B78     		ldrb	r3, [r3]
 1549 0264 012B     		cmp	r3, #1
 1550 0266 01D1     		bne	.L108
 1551              		.loc 1 715 0 is_stmt 0 discriminator 1
 1552 0268 0720     		movs	r0, #7
 1553 026a 00E0     		b	.L109
 1554              	.L108:
 1555              		.loc 1 715 0 discriminator 2
 1556 026c 0D20     		movs	r0, #13
 1557              	.L109:
 1558              		.loc 1 715 0 discriminator 4
 1559 026e 5249     		ldr	r1, .L121
 1560 0270 1300     		movs	r3, r2
 1561 0272 5B00     		lsls	r3, r3, #1
 1562 0274 9B18     		adds	r3, r3, r2
 1563 0276 9B00     		lsls	r3, r3, #2
 1564 0278 CB18     		adds	r3, r1, r3
 1565 027a 0533     		adds	r3, r3, #5
 1566 027c 021C     		adds	r2, r0, #0
 1567 027e 1A70     		strb	r2, [r3]
 716:Generated_Source\PSoC4/USBUART_std.c ****                                 USBUART_EP[i].apiEpState = USBUART_EVENT_PENDING;
 1568              		.loc 1 716 0 is_stmt 1 discriminator 4
 1569 0280 2523     		movs	r3, #37
 1570 0282 FB18     		adds	r3, r7, r3
 1571 0284 1A78     		ldrb	r2, [r3]
ARM GAS  C:\Users\HPz420\AppData\Local\Temp\cczc1snk.s 			page 43


 1572 0286 4C49     		ldr	r1, .L121
 1573 0288 1300     		movs	r3, r2
 1574 028a 5B00     		lsls	r3, r3, #1
 1575 028c 9B18     		adds	r3, r3, r2
 1576 028e 9B00     		lsls	r3, r3, #2
 1577 0290 CB18     		adds	r3, r1, r3
 1578 0292 0133     		adds	r3, r3, #1
 1579 0294 0122     		movs	r2, #1
 1580 0296 1A70     		strb	r2, [r3]
 1581 0298 1FE0     		b	.L110
 1582              	.L107:
 717:Generated_Source\PSoC4/USBUART_std.c ****                                 
 718:Generated_Source\PSoC4/USBUART_std.c ****                             #if (defined(USBUART_ENABLE_MIDI_STREAMING) && (USBUART_MIDI_IN_BUFF_SI
 719:Generated_Source\PSoC4/USBUART_std.c ****                                 if ((pEP->bMisc == USBUART_CLASS_AUDIO) && (epType == USBUART_EP_TY
 720:Generated_Source\PSoC4/USBUART_std.c ****                                 {
 721:Generated_Source\PSoC4/USBUART_std.c ****                                     USBUART_midi_in_ep = i;
 722:Generated_Source\PSoC4/USBUART_std.c ****                                 }
 723:Generated_Source\PSoC4/USBUART_std.c ****                             #endif  /* (USBUART_ENABLE_MIDI_STREAMING) */
 724:Generated_Source\PSoC4/USBUART_std.c ****                             }
 725:Generated_Source\PSoC4/USBUART_std.c ****                             else
 726:Generated_Source\PSoC4/USBUART_std.c ****                             {
 727:Generated_Source\PSoC4/USBUART_std.c ****                                 /* OUT Endpoint */
 728:Generated_Source\PSoC4/USBUART_std.c ****                                 USBUART_EP[i].epMode     = USBUART_GET_ACTIVE_OUT_EP_CR0_MODE(epTyp
 1583              		.loc 1 728 0
 1584 029a 2523     		movs	r3, #37
 1585 029c FB18     		adds	r3, r7, r3
 1586 029e 1A78     		ldrb	r2, [r3]
 1587 02a0 0F23     		movs	r3, #15
 1588 02a2 FB18     		adds	r3, r7, r3
 1589 02a4 1B78     		ldrb	r3, [r3]
 1590 02a6 012B     		cmp	r3, #1
 1591 02a8 01D1     		bne	.L111
 1592              		.loc 1 728 0 is_stmt 0 discriminator 1
 1593 02aa 0520     		movs	r0, #5
 1594 02ac 00E0     		b	.L112
 1595              	.L111:
 1596              		.loc 1 728 0 discriminator 2
 1597 02ae 0920     		movs	r0, #9
 1598              	.L112:
 1599              		.loc 1 728 0 discriminator 4
 1600 02b0 4149     		ldr	r1, .L121
 1601 02b2 1300     		movs	r3, r2
 1602 02b4 5B00     		lsls	r3, r3, #1
 1603 02b6 9B18     		adds	r3, r3, r2
 1604 02b8 9B00     		lsls	r3, r3, #2
 1605 02ba CB18     		adds	r3, r1, r3
 1606 02bc 0533     		adds	r3, r3, #5
 1607 02be 021C     		adds	r2, r0, #0
 1608 02c0 1A70     		strb	r2, [r3]
 729:Generated_Source\PSoC4/USBUART_std.c ****                                 USBUART_EP[i].apiEpState = USBUART_NO_EVENT_PENDING;
 1609              		.loc 1 729 0 is_stmt 1 discriminator 4
 1610 02c2 2523     		movs	r3, #37
 1611 02c4 FB18     		adds	r3, r7, r3
 1612 02c6 1A78     		ldrb	r2, [r3]
 1613 02c8 3B49     		ldr	r1, .L121
 1614 02ca 1300     		movs	r3, r2
 1615 02cc 5B00     		lsls	r3, r3, #1
ARM GAS  C:\Users\HPz420\AppData\Local\Temp\cczc1snk.s 			page 44


 1616 02ce 9B18     		adds	r3, r3, r2
 1617 02d0 9B00     		lsls	r3, r3, #2
 1618 02d2 CB18     		adds	r3, r1, r3
 1619 02d4 0133     		adds	r3, r3, #1
 1620 02d6 0022     		movs	r2, #0
 1621 02d8 1A70     		strb	r2, [r3]
 1622              	.L110:
 730:Generated_Source\PSoC4/USBUART_std.c ****                                 
 731:Generated_Source\PSoC4/USBUART_std.c ****                             #if (defined(USBUART_ENABLE_MIDI_STREAMING) && (USBUART_MIDI_OUT_BUFF_S
 732:Generated_Source\PSoC4/USBUART_std.c ****                                 if ((pEP->bMisc == USBUART_CLASS_AUDIO) && (epType == USBUART_EP_TY
 733:Generated_Source\PSoC4/USBUART_std.c ****                                 {
 734:Generated_Source\PSoC4/USBUART_std.c ****                                     USBUART_midi_out_ep = i;
 735:Generated_Source\PSoC4/USBUART_std.c ****                                 }
 736:Generated_Source\PSoC4/USBUART_std.c ****                             #endif  /* (USBUART_ENABLE_MIDI_STREAMING) */
 737:Generated_Source\PSoC4/USBUART_std.c ****                             }
 738:Generated_Source\PSoC4/USBUART_std.c **** 
 739:Generated_Source\PSoC4/USBUART_std.c ****                         #if (defined(USBUART_ENABLE_CDC_CLASS))
 740:Generated_Source\PSoC4/USBUART_std.c ****                             if((pEP->bMisc == USBUART_CLASS_CDC_DATA) ||(pEP->bMisc == USBUART_CLAS
 1623              		.loc 1 740 0
 1624 02da FB69     		ldr	r3, [r7, #28]
 1625 02dc 9B79     		ldrb	r3, [r3, #6]
 1626 02de 0A2B     		cmp	r3, #10
 1627 02e0 03D0     		beq	.L113
 1628              		.loc 1 740 0 is_stmt 0 discriminator 1
 1629 02e2 FB69     		ldr	r3, [r7, #28]
 1630 02e4 9B79     		ldrb	r3, [r3, #6]
 1631 02e6 022B     		cmp	r3, #2
 1632 02e8 0DD1     		bne	.L105
 1633              	.L113:
 741:Generated_Source\PSoC4/USBUART_std.c ****                             {
 742:Generated_Source\PSoC4/USBUART_std.c ****                                 cdcComNums = USBUART_Cdc_EpInit(pEP, i, cdcComNums);
 1634              		.loc 1 742 0 is_stmt 1
 1635 02ea 1B23     		movs	r3, #27
 1636 02ec FC18     		adds	r4, r7, r3
 1637 02ee 1B23     		movs	r3, #27
 1638 02f0 FB18     		adds	r3, r7, r3
 1639 02f2 1A78     		ldrb	r2, [r3]
 1640 02f4 2523     		movs	r3, #37
 1641 02f6 FB18     		adds	r3, r7, r3
 1642 02f8 1978     		ldrb	r1, [r3]
 1643 02fa FB69     		ldr	r3, [r7, #28]
 1644 02fc 1800     		movs	r0, r3
 1645 02fe FFF7FEFF 		bl	USBUART_Cdc_EpInit
 1646 0302 0300     		movs	r3, r0
 1647 0304 2370     		strb	r3, [r4]
 1648              	.L105:
 743:Generated_Source\PSoC4/USBUART_std.c ****                             }
 744:Generated_Source\PSoC4/USBUART_std.c ****                         #endif  /* (USBUART_ENABLE_CDC_CLASS) */
 745:Generated_Source\PSoC4/USBUART_std.c **** 
 746:Generated_Source\PSoC4/USBUART_std.c ****                             #if (USBUART_EP_MANAGEMENT_DMA_AUTO)
 747:Generated_Source\PSoC4/USBUART_std.c ****                                 break;  /* Use first EP setting in Auto memory management */
 748:Generated_Source\PSoC4/USBUART_std.c ****                             #endif /* (USBUART_EP_MANAGEMENT_DMA_AUTO) */
 749:Generated_Source\PSoC4/USBUART_std.c ****                         }
 750:Generated_Source\PSoC4/USBUART_std.c ****                     }
 751:Generated_Source\PSoC4/USBUART_std.c ****                     
 752:Generated_Source\PSoC4/USBUART_std.c ****                     pEP = &pEP[1u];
 1649              		.loc 1 752 0 discriminator 2
ARM GAS  C:\Users\HPz420\AppData\Local\Temp\cczc1snk.s 			page 45


 1650 0306 FB69     		ldr	r3, [r7, #28]
 1651 0308 0833     		adds	r3, r3, #8
 1652 030a FB61     		str	r3, [r7, #28]
 694:Generated_Source\PSoC4/USBUART_std.c ****                 {
 1653              		.loc 1 694 0 discriminator 2
 1654 030c 2623     		movs	r3, #38
 1655 030e FB18     		adds	r3, r7, r3
 1656 0310 2622     		movs	r2, #38
 1657 0312 BA18     		adds	r2, r7, r2
 1658 0314 1278     		ldrb	r2, [r2]
 1659 0316 0132     		adds	r2, r2, #1
 1660 0318 1A70     		strb	r2, [r3]
 1661              	.L104:
 694:Generated_Source\PSoC4/USBUART_std.c ****                 {
 1662              		.loc 1 694 0 is_stmt 0 discriminator 1
 1663 031a 2623     		movs	r3, #38
 1664 031c FA18     		adds	r2, r7, r3
 1665 031e 2723     		movs	r3, #39
 1666 0320 FB18     		adds	r3, r7, r3
 1667 0322 1278     		ldrb	r2, [r2]
 1668 0324 1B78     		ldrb	r3, [r3]
 1669 0326 9A42     		cmp	r2, r3
 1670 0328 00D2     		bcs	.LCB1494
 1671 032a 3BE7     		b	.L114	@long jump
 1672              	.LCB1494:
 687:Generated_Source\PSoC4/USBUART_std.c ****             {
 1673              		.loc 1 687 0 is_stmt 1 discriminator 2
 1674 032c 2523     		movs	r3, #37
 1675 032e FB18     		adds	r3, r7, r3
 1676 0330 2522     		movs	r2, #37
 1677 0332 BA18     		adds	r2, r7, r2
 1678 0334 1278     		ldrb	r2, [r2]
 1679 0336 0132     		adds	r2, r2, #1
 1680 0338 1A70     		strb	r2, [r3]
 1681              	.L103:
 687:Generated_Source\PSoC4/USBUART_std.c ****             {
 1682              		.loc 1 687 0 is_stmt 0 discriminator 1
 1683 033a 2523     		movs	r3, #37
 1684 033c FB18     		adds	r3, r7, r3
 1685 033e 1B78     		ldrb	r3, [r3]
 1686 0340 082B     		cmp	r3, #8
 1687 0342 00D8     		bhi	.LCB1508
 1688 0344 26E7     		b	.L115	@long jump
 1689              	.LCB1508:
 753:Generated_Source\PSoC4/USBUART_std.c ****                 }
 754:Generated_Source\PSoC4/USBUART_std.c ****             }
 755:Generated_Source\PSoC4/USBUART_std.c ****         #endif /*  (USBUART_EP_MANAGEMENT_MANUAL && USBUART_EP_ALLOC_DYNAMIC) */
 756:Generated_Source\PSoC4/USBUART_std.c **** 
 757:Generated_Source\PSoC4/USBUART_std.c ****         /* Init class array for each interface and interface number for each EP.
 758:Generated_Source\PSoC4/USBUART_std.c ****         *  It is used for handling Class specific requests directed to either an
 759:Generated_Source\PSoC4/USBUART_std.c ****         *  interface or the endpoint.
 760:Generated_Source\PSoC4/USBUART_std.c ****         */
 761:Generated_Source\PSoC4/USBUART_std.c ****         /* p_list points the endpoint setting table. */
 762:Generated_Source\PSoC4/USBUART_std.c ****         pEP = (const T_USBUART_EP_SETTINGS_BLOCK CYCODE *) pTmp->p_list;
 1690              		.loc 1 762 0 is_stmt 1
 1691 0346 7B69     		ldr	r3, [r7, #20]
 1692 0348 5B68     		ldr	r3, [r3, #4]
ARM GAS  C:\Users\HPz420\AppData\Local\Temp\cczc1snk.s 			page 46


 1693 034a FB61     		str	r3, [r7, #28]
 763:Generated_Source\PSoC4/USBUART_std.c ****         for (i = 0u; i < ep; i++)
 1694              		.loc 1 763 0
 1695 034c 2523     		movs	r3, #37
 1696 034e FB18     		adds	r3, r7, r3
 1697 0350 0022     		movs	r2, #0
 1698 0352 1A70     		strb	r2, [r3]
 1699 0354 19E0     		b	.L116
 1700              	.L117:
 764:Generated_Source\PSoC4/USBUART_std.c ****         {
 765:Generated_Source\PSoC4/USBUART_std.c ****             /* Configure interface number for each EP */
 766:Generated_Source\PSoC4/USBUART_std.c ****             USBUART_EP[pEP->addr & USBUART_DIR_UNUSED].interface = pEP->interface;
 1701              		.loc 1 766 0 discriminator 3
 1702 0356 FB69     		ldr	r3, [r7, #28]
 1703 0358 9B78     		ldrb	r3, [r3, #2]
 1704 035a 1A00     		movs	r2, r3
 1705 035c 7F23     		movs	r3, #127
 1706 035e 1A40     		ands	r2, r3
 1707 0360 FB69     		ldr	r3, [r7, #28]
 1708 0362 1878     		ldrb	r0, [r3]
 1709 0364 1449     		ldr	r1, .L121
 1710 0366 1300     		movs	r3, r2
 1711 0368 5B00     		lsls	r3, r3, #1
 1712 036a 9B18     		adds	r3, r3, r2
 1713 036c 9B00     		lsls	r3, r3, #2
 1714 036e CB18     		adds	r3, r1, r3
 1715 0370 0A33     		adds	r3, r3, #10
 1716 0372 021C     		adds	r2, r0, #0
 1717 0374 1A70     		strb	r2, [r3]
 767:Generated_Source\PSoC4/USBUART_std.c ****             pEP = &pEP[1u];
 1718              		.loc 1 767 0 discriminator 3
 1719 0376 FB69     		ldr	r3, [r7, #28]
 1720 0378 0833     		adds	r3, r3, #8
 1721 037a FB61     		str	r3, [r7, #28]
 763:Generated_Source\PSoC4/USBUART_std.c ****         for (i = 0u; i < ep; i++)
 1722              		.loc 1 763 0 discriminator 3
 1723 037c 2523     		movs	r3, #37
 1724 037e FB18     		adds	r3, r7, r3
 1725 0380 1A78     		ldrb	r2, [r3]
 1726 0382 2523     		movs	r3, #37
 1727 0384 FB18     		adds	r3, r7, r3
 1728 0386 0132     		adds	r2, r2, #1
 1729 0388 1A70     		strb	r2, [r3]
 1730              	.L116:
 763:Generated_Source\PSoC4/USBUART_std.c ****         for (i = 0u; i < ep; i++)
 1731              		.loc 1 763 0 is_stmt 0 discriminator 1
 1732 038a 2523     		movs	r3, #37
 1733 038c FA18     		adds	r2, r7, r3
 1734 038e 2723     		movs	r3, #39
 1735 0390 FB18     		adds	r3, r7, r3
 1736 0392 1278     		ldrb	r2, [r2]
 1737 0394 1B78     		ldrb	r3, [r3]
 1738 0396 9A42     		cmp	r2, r3
 1739 0398 DDD3     		bcc	.L117
 768:Generated_Source\PSoC4/USBUART_std.c ****         }
 769:Generated_Source\PSoC4/USBUART_std.c ****         
 770:Generated_Source\PSoC4/USBUART_std.c ****         /* Init pointer on interface class table */
ARM GAS  C:\Users\HPz420\AppData\Local\Temp\cczc1snk.s 			page 47


 771:Generated_Source\PSoC4/USBUART_std.c ****         USBUART_interfaceClass = USBUART_GetInterfaceClassTablePtr();
 1740              		.loc 1 771 0 is_stmt 1
 1741 039a FFF7FEFF 		bl	USBUART_GetInterfaceClassTablePtr
 1742 039e 0200     		movs	r2, r0
 1743 03a0 0A4B     		ldr	r3, .L121+20
 1744 03a2 1A60     		str	r2, [r3]
 772:Generated_Source\PSoC4/USBUART_std.c ****         
 773:Generated_Source\PSoC4/USBUART_std.c ****     /* Set the endpoint buffer addresses */
 774:Generated_Source\PSoC4/USBUART_std.c ****     #if (!USBUART_EP_MANAGEMENT_DMA_AUTO)
 775:Generated_Source\PSoC4/USBUART_std.c ****         buffCount = 0u;
 1745              		.loc 1 775 0
 1746 03a4 2223     		movs	r3, #34
 1747 03a6 FB18     		adds	r3, r7, r3
 1748 03a8 0022     		movs	r2, #0
 1749 03aa 1A80     		strh	r2, [r3]
 776:Generated_Source\PSoC4/USBUART_std.c ****         for (ep = USBUART_EP1; ep < USBUART_MAX_EP; ++ep)
 1750              		.loc 1 776 0
 1751 03ac 2723     		movs	r3, #39
 1752 03ae FB18     		adds	r3, r7, r3
 1753 03b0 0122     		movs	r2, #1
 1754 03b2 1A70     		strb	r2, [r3]
 1755 03b4 34E0     		b	.L118
 1756              	.L122:
 1757 03b6 C046     		.align	2
 1758              	.L121:
 1759 03b8 00000000 		.word	USBUART_EP
 1760 03bc 00000000 		.word	USBUART_interfaceSetting
 1761 03c0 00000000 		.word	USBUART_interfaceSettingLast
 1762 03c4 00000000 		.word	USBUART_configuration
 1763 03c8 00000000 		.word	USBUART_deviceStatus
 1764 03cc 00000000 		.word	USBUART_interfaceClass
 1765              	.L119:
 777:Generated_Source\PSoC4/USBUART_std.c ****         {
 778:Generated_Source\PSoC4/USBUART_std.c ****             USBUART_EP[ep].buffOffset = buffCount;        
 1766              		.loc 1 778 0 discriminator 3
 1767 03d0 2723     		movs	r3, #39
 1768 03d2 FB18     		adds	r3, r7, r3
 1769 03d4 1A78     		ldrb	r2, [r3]
 1770 03d6 1849     		ldr	r1, .L123
 1771 03d8 1300     		movs	r3, r2
 1772 03da 5B00     		lsls	r3, r3, #1
 1773 03dc 9B18     		adds	r3, r3, r2
 1774 03de 9B00     		lsls	r3, r3, #2
 1775 03e0 CB18     		adds	r3, r1, r3
 1776 03e2 0633     		adds	r3, r3, #6
 1777 03e4 2222     		movs	r2, #34
 1778 03e6 BA18     		adds	r2, r7, r2
 1779 03e8 1288     		ldrh	r2, [r2]
 1780 03ea 1A80     		strh	r2, [r3]
 779:Generated_Source\PSoC4/USBUART_std.c ****             buffCount += USBUART_EP[ep].bufferSize;
 1781              		.loc 1 779 0 discriminator 3
 1782 03ec 2723     		movs	r3, #39
 1783 03ee FB18     		adds	r3, r7, r3
 1784 03f0 1A78     		ldrb	r2, [r3]
 1785 03f2 1149     		ldr	r1, .L123
 1786 03f4 1300     		movs	r3, r2
 1787 03f6 5B00     		lsls	r3, r3, #1
ARM GAS  C:\Users\HPz420\AppData\Local\Temp\cczc1snk.s 			page 48


 1788 03f8 9B18     		adds	r3, r3, r2
 1789 03fa 9B00     		lsls	r3, r3, #2
 1790 03fc CB18     		adds	r3, r1, r3
 1791 03fe 0833     		adds	r3, r3, #8
 1792 0400 1B88     		ldrh	r3, [r3]
 1793 0402 99B2     		uxth	r1, r3
 1794 0404 2223     		movs	r3, #34
 1795 0406 FB18     		adds	r3, r7, r3
 1796 0408 2222     		movs	r2, #34
 1797 040a BA18     		adds	r2, r7, r2
 1798 040c 1288     		ldrh	r2, [r2]
 1799 040e 8A18     		adds	r2, r1, r2
 1800 0410 1A80     		strh	r2, [r3]
 776:Generated_Source\PSoC4/USBUART_std.c ****         for (ep = USBUART_EP1; ep < USBUART_MAX_EP; ++ep)
 1801              		.loc 1 776 0 discriminator 3
 1802 0412 2723     		movs	r3, #39
 1803 0414 FB18     		adds	r3, r7, r3
 1804 0416 2722     		movs	r2, #39
 1805 0418 BA18     		adds	r2, r7, r2
 1806 041a 1278     		ldrb	r2, [r2]
 1807 041c 0132     		adds	r2, r2, #1
 1808 041e 1A70     		strb	r2, [r3]
 1809              	.L118:
 776:Generated_Source\PSoC4/USBUART_std.c ****         for (ep = USBUART_EP1; ep < USBUART_MAX_EP; ++ep)
 1810              		.loc 1 776 0 is_stmt 0 discriminator 1
 1811 0420 2723     		movs	r3, #39
 1812 0422 FB18     		adds	r3, r7, r3
 1813 0424 1B78     		ldrb	r3, [r3]
 1814 0426 082B     		cmp	r3, #8
 1815 0428 D2D9     		bls	.L119
 780:Generated_Source\PSoC4/USBUART_std.c ****             
 781:Generated_Source\PSoC4/USBUART_std.c ****         #if (USBUART_GEN_16BITS_EP_ACCESS)
 782:Generated_Source\PSoC4/USBUART_std.c ****             /* Align EP buffers to be event size to access 16-bits DR register. */
 783:Generated_Source\PSoC4/USBUART_std.c ****             buffCount += (0u != (buffCount & 0x01u)) ? 1u : 0u;
 784:Generated_Source\PSoC4/USBUART_std.c ****         #endif /* (USBUART_GEN_16BITS_EP_ACCESS) */            
 785:Generated_Source\PSoC4/USBUART_std.c ****         }
 786:Generated_Source\PSoC4/USBUART_std.c ****     #endif /* (!USBUART_EP_MANAGEMENT_DMA_AUTO) */
 787:Generated_Source\PSoC4/USBUART_std.c **** 
 788:Generated_Source\PSoC4/USBUART_std.c ****         /* Configure hardware registers */
 789:Generated_Source\PSoC4/USBUART_std.c ****         USBUART_ConfigReg();
 1816              		.loc 1 789 0 is_stmt 1
 1817 042a FFF7FEFF 		bl	USBUART_ConfigReg
 1818              	.L120:
 1819              	.LBE2:
 790:Generated_Source\PSoC4/USBUART_std.c ****     }
 791:Generated_Source\PSoC4/USBUART_std.c **** }
 1820              		.loc 1 791 0
 1821 042e C046     		nop
 1822 0430 BD46     		mov	sp, r7
 1823 0432 0BB0     		add	sp, sp, #44
 1824              		@ sp needed
 1825 0434 90BD     		pop	{r4, r7, pc}
 1826              	.L124:
 1827 0436 C046     		.align	2
 1828              	.L123:
 1829 0438 00000000 		.word	USBUART_EP
 1830              		.cfi_endproc
ARM GAS  C:\Users\HPz420\AppData\Local\Temp\cczc1snk.s 			page 49


 1831              	.LFE5:
 1832              		.size	USBUART_Config, .-USBUART_Config
 1833              		.section	.text.USBUART_ConfigAltChanged,"ax",%progbits
 1834              		.align	2
 1835              		.global	USBUART_ConfigAltChanged
 1836              		.code	16
 1837              		.thumb_func
 1838              		.type	USBUART_ConfigAltChanged, %function
 1839              	USBUART_ConfigAltChanged:
 1840              	.LFB6:
 792:Generated_Source\PSoC4/USBUART_std.c **** 
 793:Generated_Source\PSoC4/USBUART_std.c **** 
 794:Generated_Source\PSoC4/USBUART_std.c **** /*******************************************************************************
 795:Generated_Source\PSoC4/USBUART_std.c **** * Function Name: USBUART_ConfigAltChanged
 796:Generated_Source\PSoC4/USBUART_std.c **** ****************************************************************************//**
 797:Generated_Source\PSoC4/USBUART_std.c **** *
 798:Generated_Source\PSoC4/USBUART_std.c **** *  This routine update configuration for the required endpoints only.
 799:Generated_Source\PSoC4/USBUART_std.c **** *  It is called after SET_INTERFACE request when Static memory allocation used.
 800:Generated_Source\PSoC4/USBUART_std.c **** *
 801:Generated_Source\PSoC4/USBUART_std.c **** * \reentrant
 802:Generated_Source\PSoC4/USBUART_std.c **** *  No.
 803:Generated_Source\PSoC4/USBUART_std.c **** *
 804:Generated_Source\PSoC4/USBUART_std.c **** *******************************************************************************/
 805:Generated_Source\PSoC4/USBUART_std.c **** void USBUART_ConfigAltChanged(void) 
 806:Generated_Source\PSoC4/USBUART_std.c **** {
 1841              		.loc 1 806 0
 1842              		.cfi_startproc
 1843              		@ args = 0, pretend = 0, frame = 32
 1844              		@ frame_needed = 1, uses_anonymous_args = 0
 1845 0000 80B5     		push	{r7, lr}
 1846              		.cfi_def_cfa_offset 8
 1847              		.cfi_offset 7, -8
 1848              		.cfi_offset 14, -4
 1849 0002 88B0     		sub	sp, sp, #32
 1850              		.cfi_def_cfa_offset 40
 1851 0004 00AF     		add	r7, sp, #0
 1852              		.cfi_def_cfa_register 7
 807:Generated_Source\PSoC4/USBUART_std.c ****     uint32 ep;
 808:Generated_Source\PSoC4/USBUART_std.c ****     uint32 curEp;
 809:Generated_Source\PSoC4/USBUART_std.c ****     uint32 epType;
 810:Generated_Source\PSoC4/USBUART_std.c ****     uint32 i;
 811:Generated_Source\PSoC4/USBUART_std.c ****     uint8 interfaceNum;
 812:Generated_Source\PSoC4/USBUART_std.c **** 
 813:Generated_Source\PSoC4/USBUART_std.c ****     const T_USBUART_LUT CYCODE *pTmp;
 814:Generated_Source\PSoC4/USBUART_std.c ****     const T_USBUART_EP_SETTINGS_BLOCK CYCODE *pEP;
 815:Generated_Source\PSoC4/USBUART_std.c **** 
 816:Generated_Source\PSoC4/USBUART_std.c ****     /* Init Endpoints and Device Status if configured */
 817:Generated_Source\PSoC4/USBUART_std.c ****     if (USBUART_configuration > 0u)
 1853              		.loc 1 817 0
 1854 0006 804B     		ldr	r3, .L137
 1855 0008 1B78     		ldrb	r3, [r3]
 1856 000a DBB2     		uxtb	r3, r3
 1857 000c 002B     		cmp	r3, #0
 1858 000e 00D1     		bne	.LCB1667
 1859 0010 F5E0     		b	.L136	@long jump
 1860              	.LCB1667:
 818:Generated_Source\PSoC4/USBUART_std.c ****     {
ARM GAS  C:\Users\HPz420\AppData\Local\Temp\cczc1snk.s 			page 50


 819:Generated_Source\PSoC4/USBUART_std.c ****         /* Get number of endpoints configurations (ep). */
 820:Generated_Source\PSoC4/USBUART_std.c ****         pTmp = USBUART_GetConfigTablePtr(USBUART_configuration - 1u);
 1861              		.loc 1 820 0
 1862 0012 7D4B     		ldr	r3, .L137
 1863 0014 1B78     		ldrb	r3, [r3]
 1864 0016 DBB2     		uxtb	r3, r3
 1865 0018 013B     		subs	r3, r3, #1
 1866 001a DBB2     		uxtb	r3, r3
 1867 001c 1800     		movs	r0, r3
 1868 001e FFF7FEFF 		bl	USBUART_GetConfigTablePtr
 1869 0022 0300     		movs	r3, r0
 1870 0024 7B61     		str	r3, [r7, #20]
 821:Generated_Source\PSoC4/USBUART_std.c ****         pTmp = &pTmp[1u];
 1871              		.loc 1 821 0
 1872 0026 7B69     		ldr	r3, [r7, #20]
 1873 0028 0833     		adds	r3, r3, #8
 1874 002a 7B61     		str	r3, [r7, #20]
 822:Generated_Source\PSoC4/USBUART_std.c ****         ep = pTmp->c;
 1875              		.loc 1 822 0
 1876 002c 7B69     		ldr	r3, [r7, #20]
 1877 002e 1B78     		ldrb	r3, [r3]
 1878 0030 3B61     		str	r3, [r7, #16]
 823:Generated_Source\PSoC4/USBUART_std.c **** 
 824:Generated_Source\PSoC4/USBUART_std.c ****         /* Get pointer to endpoints setting table (pEP). */
 825:Generated_Source\PSoC4/USBUART_std.c ****         pEP = (const T_USBUART_EP_SETTINGS_BLOCK CYCODE *) pTmp->p_list;
 1879              		.loc 1 825 0
 1880 0032 7B69     		ldr	r3, [r7, #20]
 1881 0034 5B68     		ldr	r3, [r3, #4]
 1882 0036 BB61     		str	r3, [r7, #24]
 826:Generated_Source\PSoC4/USBUART_std.c ****         
 827:Generated_Source\PSoC4/USBUART_std.c ****         /* Look through all possible endpoint configurations. Find endpoints 
 828:Generated_Source\PSoC4/USBUART_std.c ****         * which belong to current interface and alternate settings for 
 829:Generated_Source\PSoC4/USBUART_std.c ****         * re-configuration.
 830:Generated_Source\PSoC4/USBUART_std.c ****         */
 831:Generated_Source\PSoC4/USBUART_std.c ****         interfaceNum = USBUART_interfaceNumber;
 1883              		.loc 1 831 0
 1884 0038 0F23     		movs	r3, #15
 1885 003a FB18     		adds	r3, r7, r3
 1886 003c 734A     		ldr	r2, .L137+4
 1887 003e 1278     		ldrb	r2, [r2]
 1888 0040 1A70     		strb	r2, [r3]
 832:Generated_Source\PSoC4/USBUART_std.c ****         for (i = 0u; i < ep; i++)
 1889              		.loc 1 832 0
 1890 0042 0023     		movs	r3, #0
 1891 0044 FB61     		str	r3, [r7, #28]
 1892 0046 D5E0     		b	.L127
 1893              	.L135:
 833:Generated_Source\PSoC4/USBUART_std.c ****         {
 834:Generated_Source\PSoC4/USBUART_std.c ****             /* Find endpoints which belong to current interface and alternate settings. */
 835:Generated_Source\PSoC4/USBUART_std.c ****             if ((interfaceNum == pEP->interface) && 
 1894              		.loc 1 835 0
 1895 0048 BB69     		ldr	r3, [r7, #24]
 1896 004a 1B78     		ldrb	r3, [r3]
 1897 004c 0F22     		movs	r2, #15
 1898 004e BA18     		adds	r2, r7, r2
 1899 0050 1278     		ldrb	r2, [r2]
 1900 0052 9A42     		cmp	r2, r3
ARM GAS  C:\Users\HPz420\AppData\Local\Temp\cczc1snk.s 			page 51


 1901 0054 00D0     		beq	.LCB1703
 1902 0056 C7E0     		b	.L128	@long jump
 1903              	.LCB1703:
 836:Generated_Source\PSoC4/USBUART_std.c ****                 (USBUART_interfaceSetting[interfaceNum] == pEP->altSetting))
 1904              		.loc 1 836 0 discriminator 1
 1905 0058 0F23     		movs	r3, #15
 1906 005a FB18     		adds	r3, r7, r3
 1907 005c 1B78     		ldrb	r3, [r3]
 1908 005e 6C4A     		ldr	r2, .L137+8
 1909 0060 D35C     		ldrb	r3, [r2, r3]
 1910 0062 DAB2     		uxtb	r2, r3
 1911 0064 BB69     		ldr	r3, [r7, #24]
 1912 0066 5B78     		ldrb	r3, [r3, #1]
 835:Generated_Source\PSoC4/USBUART_std.c ****                 (USBUART_interfaceSetting[interfaceNum] == pEP->altSetting))
 1913              		.loc 1 835 0 discriminator 1
 1914 0068 9A42     		cmp	r2, r3
 1915 006a 00D0     		beq	.LCB1713
 1916 006c BCE0     		b	.L128	@long jump
 1917              	.LCB1713:
 837:Generated_Source\PSoC4/USBUART_std.c ****             {
 838:Generated_Source\PSoC4/USBUART_std.c ****                 curEp  = ((uint32) pEP->addr & USBUART_DIR_UNUSED);
 1918              		.loc 1 838 0
 1919 006e BB69     		ldr	r3, [r7, #24]
 1920 0070 9B78     		ldrb	r3, [r3, #2]
 1921 0072 1A00     		movs	r2, r3
 1922 0074 7F23     		movs	r3, #127
 1923 0076 1340     		ands	r3, r2
 1924 0078 BB60     		str	r3, [r7, #8]
 839:Generated_Source\PSoC4/USBUART_std.c ****                 epType = ((uint32) pEP->attributes & USBUART_EP_TYPE_MASK);
 1925              		.loc 1 839 0
 1926 007a BB69     		ldr	r3, [r7, #24]
 1927 007c DB78     		ldrb	r3, [r3, #3]
 1928 007e 1A00     		movs	r2, r3
 1929 0080 0323     		movs	r3, #3
 1930 0082 1340     		ands	r3, r2
 1931 0084 7B60     		str	r3, [r7, #4]
 840:Generated_Source\PSoC4/USBUART_std.c ****                 
 841:Generated_Source\PSoC4/USBUART_std.c ****                 /* Change the SIE mode for the selected EP to NAK ALL */
 842:Generated_Source\PSoC4/USBUART_std.c ****                 USBUART_EP[curEp].epToggle   = 0u;
 1932              		.loc 1 842 0
 1933 0086 6349     		ldr	r1, .L137+12
 1934 0088 BA68     		ldr	r2, [r7, #8]
 1935 008a 1300     		movs	r3, r2
 1936 008c 5B00     		lsls	r3, r3, #1
 1937 008e 9B18     		adds	r3, r3, r2
 1938 0090 9B00     		lsls	r3, r3, #2
 1939 0092 CB18     		adds	r3, r1, r3
 1940 0094 0333     		adds	r3, r3, #3
 1941 0096 0022     		movs	r2, #0
 1942 0098 1A70     		strb	r2, [r3]
 843:Generated_Source\PSoC4/USBUART_std.c ****                 USBUART_EP[curEp].addr       = pEP->addr;
 1943              		.loc 1 843 0
 1944 009a BB69     		ldr	r3, [r7, #24]
 1945 009c 9878     		ldrb	r0, [r3, #2]
 1946 009e 5D49     		ldr	r1, .L137+12
 1947 00a0 BA68     		ldr	r2, [r7, #8]
 1948 00a2 1300     		movs	r3, r2
ARM GAS  C:\Users\HPz420\AppData\Local\Temp\cczc1snk.s 			page 52


 1949 00a4 5B00     		lsls	r3, r3, #1
 1950 00a6 9B18     		adds	r3, r3, r2
 1951 00a8 9B00     		lsls	r3, r3, #2
 1952 00aa CB18     		adds	r3, r1, r3
 1953 00ac 0433     		adds	r3, r3, #4
 1954 00ae 021C     		adds	r2, r0, #0
 1955 00b0 1A70     		strb	r2, [r3]
 844:Generated_Source\PSoC4/USBUART_std.c ****                 USBUART_EP[curEp].attrib     = pEP->attributes;
 1956              		.loc 1 844 0
 1957 00b2 BB69     		ldr	r3, [r7, #24]
 1958 00b4 D878     		ldrb	r0, [r3, #3]
 1959 00b6 5749     		ldr	r1, .L137+12
 1960 00b8 BA68     		ldr	r2, [r7, #8]
 1961 00ba 1300     		movs	r3, r2
 1962 00bc 5B00     		lsls	r3, r3, #1
 1963 00be 9B18     		adds	r3, r3, r2
 1964 00c0 9B00     		lsls	r3, r3, #2
 1965 00c2 021C     		adds	r2, r0, #0
 1966 00c4 5A54     		strb	r2, [r3, r1]
 845:Generated_Source\PSoC4/USBUART_std.c ****                 USBUART_EP[curEp].bufferSize = pEP->bufferSize;
 1967              		.loc 1 845 0
 1968 00c6 BB69     		ldr	r3, [r7, #24]
 1969 00c8 9888     		ldrh	r0, [r3, #4]
 1970 00ca 5249     		ldr	r1, .L137+12
 1971 00cc BA68     		ldr	r2, [r7, #8]
 1972 00ce 1300     		movs	r3, r2
 1973 00d0 5B00     		lsls	r3, r3, #1
 1974 00d2 9B18     		adds	r3, r3, r2
 1975 00d4 9B00     		lsls	r3, r3, #2
 1976 00d6 CB18     		adds	r3, r1, r3
 1977 00d8 0833     		adds	r3, r3, #8
 1978 00da 021C     		adds	r2, r0, #0
 1979 00dc 1A80     		strh	r2, [r3]
 846:Generated_Source\PSoC4/USBUART_std.c **** 
 847:Generated_Source\PSoC4/USBUART_std.c ****                 if (0u != (pEP->addr & USBUART_DIR_IN))
 1980              		.loc 1 847 0
 1981 00de BB69     		ldr	r3, [r7, #24]
 1982 00e0 9B78     		ldrb	r3, [r3, #2]
 1983 00e2 5BB2     		sxtb	r3, r3
 1984 00e4 002B     		cmp	r3, #0
 1985 00e6 1ADA     		bge	.L129
 848:Generated_Source\PSoC4/USBUART_std.c ****                 {
 849:Generated_Source\PSoC4/USBUART_std.c ****                     /* IN Endpoint */
 850:Generated_Source\PSoC4/USBUART_std.c ****                     USBUART_EP[curEp].epMode     = USBUART_GET_ACTIVE_IN_EP_CR0_MODE(epType);
 1986              		.loc 1 850 0
 1987 00e8 7B68     		ldr	r3, [r7, #4]
 1988 00ea 012B     		cmp	r3, #1
 1989 00ec 01D1     		bne	.L130
 1990              		.loc 1 850 0 is_stmt 0 discriminator 1
 1991 00ee 0720     		movs	r0, #7
 1992 00f0 00E0     		b	.L131
 1993              	.L130:
 1994              		.loc 1 850 0 discriminator 2
 1995 00f2 0D20     		movs	r0, #13
 1996              	.L131:
 1997              		.loc 1 850 0 discriminator 4
 1998 00f4 4749     		ldr	r1, .L137+12
ARM GAS  C:\Users\HPz420\AppData\Local\Temp\cczc1snk.s 			page 53


 1999 00f6 BA68     		ldr	r2, [r7, #8]
 2000 00f8 1300     		movs	r3, r2
 2001 00fa 5B00     		lsls	r3, r3, #1
 2002 00fc 9B18     		adds	r3, r3, r2
 2003 00fe 9B00     		lsls	r3, r3, #2
 2004 0100 CB18     		adds	r3, r1, r3
 2005 0102 0533     		adds	r3, r3, #5
 2006 0104 021C     		adds	r2, r0, #0
 2007 0106 1A70     		strb	r2, [r3]
 851:Generated_Source\PSoC4/USBUART_std.c ****                     USBUART_EP[curEp].apiEpState = USBUART_EVENT_PENDING;
 2008              		.loc 1 851 0 is_stmt 1 discriminator 4
 2009 0108 4249     		ldr	r1, .L137+12
 2010 010a BA68     		ldr	r2, [r7, #8]
 2011 010c 1300     		movs	r3, r2
 2012 010e 5B00     		lsls	r3, r3, #1
 2013 0110 9B18     		adds	r3, r3, r2
 2014 0112 9B00     		lsls	r3, r3, #2
 2015 0114 CB18     		adds	r3, r1, r3
 2016 0116 0133     		adds	r3, r3, #1
 2017 0118 0122     		movs	r2, #1
 2018 011a 1A70     		strb	r2, [r3]
 2019 011c 19E0     		b	.L132
 2020              	.L129:
 852:Generated_Source\PSoC4/USBUART_std.c ****                 }
 853:Generated_Source\PSoC4/USBUART_std.c ****                 else
 854:Generated_Source\PSoC4/USBUART_std.c ****                 {
 855:Generated_Source\PSoC4/USBUART_std.c ****                     /* OUT Endpoint */
 856:Generated_Source\PSoC4/USBUART_std.c ****                     USBUART_EP[curEp].epMode     = USBUART_GET_ACTIVE_OUT_EP_CR0_MODE(epType);
 2021              		.loc 1 856 0
 2022 011e 7B68     		ldr	r3, [r7, #4]
 2023 0120 012B     		cmp	r3, #1
 2024 0122 01D1     		bne	.L133
 2025              		.loc 1 856 0 is_stmt 0 discriminator 1
 2026 0124 0520     		movs	r0, #5
 2027 0126 00E0     		b	.L134
 2028              	.L133:
 2029              		.loc 1 856 0 discriminator 2
 2030 0128 0920     		movs	r0, #9
 2031              	.L134:
 2032              		.loc 1 856 0 discriminator 4
 2033 012a 3A49     		ldr	r1, .L137+12
 2034 012c BA68     		ldr	r2, [r7, #8]
 2035 012e 1300     		movs	r3, r2
 2036 0130 5B00     		lsls	r3, r3, #1
 2037 0132 9B18     		adds	r3, r3, r2
 2038 0134 9B00     		lsls	r3, r3, #2
 2039 0136 CB18     		adds	r3, r1, r3
 2040 0138 0533     		adds	r3, r3, #5
 2041 013a 021C     		adds	r2, r0, #0
 2042 013c 1A70     		strb	r2, [r3]
 857:Generated_Source\PSoC4/USBUART_std.c ****                     USBUART_EP[curEp].apiEpState = USBUART_NO_EVENT_PENDING;
 2043              		.loc 1 857 0 is_stmt 1 discriminator 4
 2044 013e 3549     		ldr	r1, .L137+12
 2045 0140 BA68     		ldr	r2, [r7, #8]
 2046 0142 1300     		movs	r3, r2
 2047 0144 5B00     		lsls	r3, r3, #1
 2048 0146 9B18     		adds	r3, r3, r2
ARM GAS  C:\Users\HPz420\AppData\Local\Temp\cczc1snk.s 			page 54


 2049 0148 9B00     		lsls	r3, r3, #2
 2050 014a CB18     		adds	r3, r1, r3
 2051 014c 0133     		adds	r3, r3, #1
 2052 014e 0022     		movs	r2, #0
 2053 0150 1A70     		strb	r2, [r3]
 2054              	.L132:
 858:Generated_Source\PSoC4/USBUART_std.c ****                 }
 859:Generated_Source\PSoC4/USBUART_std.c ****                 
 860:Generated_Source\PSoC4/USBUART_std.c ****                 /* Make SIE to NAK any endpoint requests */
 861:Generated_Source\PSoC4/USBUART_std.c ****                 USBUART_SIE_EP_BASE.sieEp[curEp].epCr0 = USBUART_MODE_NAK_IN_OUT;
 2055              		.loc 1 861 0
 2056 0152 314A     		ldr	r2, .L137+16
 2057 0154 BB68     		ldr	r3, [r7, #8]
 2058 0156 9B01     		lsls	r3, r3, #6
 2059 0158 D318     		adds	r3, r2, r3
 2060 015a 0833     		adds	r3, r3, #8
 2061 015c 0122     		movs	r2, #1
 2062 015e 1A60     		str	r2, [r3]
 862:Generated_Source\PSoC4/USBUART_std.c **** 
 863:Generated_Source\PSoC4/USBUART_std.c ****             #if (USBUART_EP_MANAGEMENT_DMA_AUTO)
 864:Generated_Source\PSoC4/USBUART_std.c ****                 /* Clear IN data ready. */
 865:Generated_Source\PSoC4/USBUART_std.c ****                 USBUART_ARB_EP_BASE.arbEp[curEp].epCfg &= (uint32) ~USBUART_ARB_EPX_CFG_IN_DATA_RDY
 866:Generated_Source\PSoC4/USBUART_std.c **** 
 867:Generated_Source\PSoC4/USBUART_std.c ****                 /* Select endpoint number of reconfiguration */
 868:Generated_Source\PSoC4/USBUART_std.c ****                 USBUART_DYN_RECONFIG_REG = (uint32) ((curEp - 1u) << USBUART_DYN_RECONFIG_EP_SHIFT)
 869:Generated_Source\PSoC4/USBUART_std.c ****                 
 870:Generated_Source\PSoC4/USBUART_std.c ****                 /* Request for dynamic re-configuration of endpoint. */
 871:Generated_Source\PSoC4/USBUART_std.c ****                 USBUART_DYN_RECONFIG_REG |= USBUART_DYN_RECONFIG_ENABLE;
 872:Generated_Source\PSoC4/USBUART_std.c ****                 
 873:Generated_Source\PSoC4/USBUART_std.c ****                 /* Wait until block is ready for re-configuration */
 874:Generated_Source\PSoC4/USBUART_std.c ****                 while (0u == (USBUART_DYN_RECONFIG_REG & USBUART_DYN_RECONFIG_RDY_STS))
 875:Generated_Source\PSoC4/USBUART_std.c ****                 {
 876:Generated_Source\PSoC4/USBUART_std.c ****                 }
 877:Generated_Source\PSoC4/USBUART_std.c ****                 
 878:Generated_Source\PSoC4/USBUART_std.c ****                 /* Once DYN_RECONFIG_RDY_STS bit is set, FW can change the EP configuration. */
 879:Generated_Source\PSoC4/USBUART_std.c ****                 /* Change EP Type with new direction */
 880:Generated_Source\PSoC4/USBUART_std.c ****                 if (0u != (pEP->addr & USBUART_DIR_IN))
 881:Generated_Source\PSoC4/USBUART_std.c ****                 {
 882:Generated_Source\PSoC4/USBUART_std.c ****                     /* Set endpoint type: 0 - IN and 1 - OUT. */
 883:Generated_Source\PSoC4/USBUART_std.c ****                     USBUART_EP_TYPE_REG &= (uint32) ~(uint32)((uint32) 0x01u << (curEp - 1u));
 884:Generated_Source\PSoC4/USBUART_std.c ****                     
 885:Generated_Source\PSoC4/USBUART_std.c ****                 #if (CY_PSOC4)
 886:Generated_Source\PSoC4/USBUART_std.c ****                     /* Clear DMA_TERMIN for IN endpoint */
 887:Generated_Source\PSoC4/USBUART_std.c ****                     USBUART_ARB_EP_BASE.arbEp[curEp].epIntEn &= (uint32) ~USBUART_ARB_EPX_INT_DMA_T
 888:Generated_Source\PSoC4/USBUART_std.c ****                 #endif /* (CY_PSOC4) */
 889:Generated_Source\PSoC4/USBUART_std.c ****                 }
 890:Generated_Source\PSoC4/USBUART_std.c ****                 else
 891:Generated_Source\PSoC4/USBUART_std.c ****                 {
 892:Generated_Source\PSoC4/USBUART_std.c ****                     /* Set endpoint type: 0 - IN and 1- OUT. */
 893:Generated_Source\PSoC4/USBUART_std.c ****                     USBUART_EP_TYPE_REG |= (uint32) ((uint32) 0x01u << (curEp - 1u));
 894:Generated_Source\PSoC4/USBUART_std.c ****                     
 895:Generated_Source\PSoC4/USBUART_std.c ****                 #if (CY_PSOC4)
 896:Generated_Source\PSoC4/USBUART_std.c ****                     /* Set DMA_TERMIN for OUT endpoint */
 897:Generated_Source\PSoC4/USBUART_std.c ****                     USBUART_ARB_EP_BASE.arbEp[curEp].epIntEn |= (uint32) USBUART_ARB_EPX_INT_DMA_TE
 898:Generated_Source\PSoC4/USBUART_std.c ****                 #endif /* (CY_PSOC4) */
 899:Generated_Source\PSoC4/USBUART_std.c ****                 }
 900:Generated_Source\PSoC4/USBUART_std.c ****                 
ARM GAS  C:\Users\HPz420\AppData\Local\Temp\cczc1snk.s 			page 55


 901:Generated_Source\PSoC4/USBUART_std.c ****                 /* Complete dynamic re-configuration: all endpoint related status and signals 
 902:Generated_Source\PSoC4/USBUART_std.c ****                 * are set into the default state.
 903:Generated_Source\PSoC4/USBUART_std.c ****                 */
 904:Generated_Source\PSoC4/USBUART_std.c ****                 USBUART_DYN_RECONFIG_REG &= (uint32) ~USBUART_DYN_RECONFIG_ENABLE;
 905:Generated_Source\PSoC4/USBUART_std.c **** 
 906:Generated_Source\PSoC4/USBUART_std.c ****             #else
 907:Generated_Source\PSoC4/USBUART_std.c ****                 USBUART_SIE_EP_BASE.sieEp[curEp].epCnt0 = HI8(USBUART_EP[curEp].bufferSize);
 2063              		.loc 1 907 0
 2064 0160 2D48     		ldr	r0, .L137+16
 2065 0162 2C49     		ldr	r1, .L137+12
 2066 0164 BA68     		ldr	r2, [r7, #8]
 2067 0166 1300     		movs	r3, r2
 2068 0168 5B00     		lsls	r3, r3, #1
 2069 016a 9B18     		adds	r3, r3, r2
 2070 016c 9B00     		lsls	r3, r3, #2
 2071 016e CB18     		adds	r3, r1, r3
 2072 0170 0833     		adds	r3, r3, #8
 2073 0172 1B88     		ldrh	r3, [r3]
 2074 0174 9BB2     		uxth	r3, r3
 2075 0176 1B0A     		lsrs	r3, r3, #8
 2076 0178 9BB2     		uxth	r3, r3
 2077 017a DBB2     		uxtb	r3, r3
 2078 017c 1A00     		movs	r2, r3
 2079 017e BB68     		ldr	r3, [r7, #8]
 2080 0180 9B01     		lsls	r3, r3, #6
 2081 0182 1A50     		str	r2, [r3, r0]
 908:Generated_Source\PSoC4/USBUART_std.c ****                 USBUART_SIE_EP_BASE.sieEp[curEp].epCnt1 = LO8(USBUART_EP[curEp].bufferSize);
 2082              		.loc 1 908 0
 2083 0184 2448     		ldr	r0, .L137+16
 2084 0186 2349     		ldr	r1, .L137+12
 2085 0188 BA68     		ldr	r2, [r7, #8]
 2086 018a 1300     		movs	r3, r2
 2087 018c 5B00     		lsls	r3, r3, #1
 2088 018e 9B18     		adds	r3, r3, r2
 2089 0190 9B00     		lsls	r3, r3, #2
 2090 0192 CB18     		adds	r3, r1, r3
 2091 0194 0833     		adds	r3, r3, #8
 2092 0196 1B88     		ldrh	r3, [r3]
 2093 0198 9BB2     		uxth	r3, r3
 2094 019a DBB2     		uxtb	r3, r3
 2095 019c 1A00     		movs	r2, r3
 2096 019e BB68     		ldr	r3, [r7, #8]
 2097 01a0 9B01     		lsls	r3, r3, #6
 2098 01a2 C318     		adds	r3, r0, r3
 2099 01a4 0433     		adds	r3, r3, #4
 2100 01a6 1A60     		str	r2, [r3]
 909:Generated_Source\PSoC4/USBUART_std.c ****                 
 910:Generated_Source\PSoC4/USBUART_std.c ****                 #if (CY_PSOC4)
 911:Generated_Source\PSoC4/USBUART_std.c ****                     USBUART_ARB_EP16_BASE.arbEp[curEp].rwRa16  = (uint32) USBUART_EP[curEp].buffOff
 2101              		.loc 1 911 0
 2102 01a8 1C48     		ldr	r0, .L137+20
 2103 01aa 1A49     		ldr	r1, .L137+12
 2104 01ac BA68     		ldr	r2, [r7, #8]
 2105 01ae 1300     		movs	r3, r2
 2106 01b0 5B00     		lsls	r3, r3, #1
 2107 01b2 9B18     		adds	r3, r3, r2
 2108 01b4 9B00     		lsls	r3, r3, #2
ARM GAS  C:\Users\HPz420\AppData\Local\Temp\cczc1snk.s 			page 56


 2109 01b6 CB18     		adds	r3, r1, r3
 2110 01b8 0633     		adds	r3, r3, #6
 2111 01ba 1B88     		ldrh	r3, [r3]
 2112 01bc 9BB2     		uxth	r3, r3
 2113 01be 1A00     		movs	r2, r3
 2114 01c0 BB68     		ldr	r3, [r7, #8]
 2115 01c2 9B01     		lsls	r3, r3, #6
 2116 01c4 C318     		adds	r3, r0, r3
 2117 01c6 0833     		adds	r3, r3, #8
 2118 01c8 1A60     		str	r2, [r3]
 912:Generated_Source\PSoC4/USBUART_std.c ****                     USBUART_ARB_EP16_BASE.arbEp[curEp].rwWa16  = (uint32) USBUART_EP[curEp].buffOff
 2119              		.loc 1 912 0
 2120 01ca 1448     		ldr	r0, .L137+20
 2121 01cc 1149     		ldr	r1, .L137+12
 2122 01ce BA68     		ldr	r2, [r7, #8]
 2123 01d0 1300     		movs	r3, r2
 2124 01d2 5B00     		lsls	r3, r3, #1
 2125 01d4 9B18     		adds	r3, r3, r2
 2126 01d6 9B00     		lsls	r3, r3, #2
 2127 01d8 CB18     		adds	r3, r1, r3
 2128 01da 0633     		adds	r3, r3, #6
 2129 01dc 1B88     		ldrh	r3, [r3]
 2130 01de 9BB2     		uxth	r3, r3
 2131 01e0 1A00     		movs	r2, r3
 2132 01e2 BB68     		ldr	r3, [r7, #8]
 2133 01e4 9B01     		lsls	r3, r3, #6
 2134 01e6 1A50     		str	r2, [r3, r0]
 2135              	.L128:
 913:Generated_Source\PSoC4/USBUART_std.c ****                 #else
 914:Generated_Source\PSoC4/USBUART_std.c ****                     USBUART_ARB_EP_BASE.arbEp[curEp].rwRa    = LO8(USBUART_EP[curEp].buffOffset);
 915:Generated_Source\PSoC4/USBUART_std.c ****                     USBUART_ARB_EP_BASE.arbEp[curEp].rwRaMsb = HI8(USBUART_EP[curEp].buffOffset);
 916:Generated_Source\PSoC4/USBUART_std.c ****                     USBUART_ARB_EP_BASE.arbEp[curEp].rwWa    = LO8(USBUART_EP[curEp].buffOffset);
 917:Generated_Source\PSoC4/USBUART_std.c ****                     USBUART_ARB_EP_BASE.arbEp[curEp].rwWaMsb = HI8(USBUART_EP[curEp].buffOffset);
 918:Generated_Source\PSoC4/USBUART_std.c ****                 #endif /* (CY_PSOC4) */                
 919:Generated_Source\PSoC4/USBUART_std.c ****             #endif /* (USBUART_EP_MANAGEMENT_DMA_AUTO) */
 920:Generated_Source\PSoC4/USBUART_std.c ****             }
 921:Generated_Source\PSoC4/USBUART_std.c ****             
 922:Generated_Source\PSoC4/USBUART_std.c ****             pEP = &pEP[1u]; /* Get next EP element */
 2136              		.loc 1 922 0 discriminator 2
 2137 01e8 BB69     		ldr	r3, [r7, #24]
 2138 01ea 0833     		adds	r3, r3, #8
 2139 01ec BB61     		str	r3, [r7, #24]
 832:Generated_Source\PSoC4/USBUART_std.c ****         {
 2140              		.loc 1 832 0 discriminator 2
 2141 01ee FB69     		ldr	r3, [r7, #28]
 2142 01f0 0133     		adds	r3, r3, #1
 2143 01f2 FB61     		str	r3, [r7, #28]
 2144              	.L127:
 832:Generated_Source\PSoC4/USBUART_std.c ****         {
 2145              		.loc 1 832 0 is_stmt 0 discriminator 1
 2146 01f4 FA69     		ldr	r2, [r7, #28]
 2147 01f6 3B69     		ldr	r3, [r7, #16]
 2148 01f8 9A42     		cmp	r2, r3
 2149 01fa 00D2     		bcs	.LCB1931
 2150 01fc 24E7     		b	.L135	@long jump
 2151              	.LCB1931:
 2152              	.L136:
ARM GAS  C:\Users\HPz420\AppData\Local\Temp\cczc1snk.s 			page 57


 923:Generated_Source\PSoC4/USBUART_std.c ****         }
 924:Generated_Source\PSoC4/USBUART_std.c ****         
 925:Generated_Source\PSoC4/USBUART_std.c ****         /* The main loop has to re-enable DMA and OUT endpoint */
 926:Generated_Source\PSoC4/USBUART_std.c ****     }
 927:Generated_Source\PSoC4/USBUART_std.c **** }
 2153              		.loc 1 927 0 is_stmt 1
 2154 01fe C046     		nop
 2155 0200 BD46     		mov	sp, r7
 2156 0202 08B0     		add	sp, sp, #32
 2157              		@ sp needed
 2158 0204 80BD     		pop	{r7, pc}
 2159              	.L138:
 2160 0206 C046     		.align	2
 2161              	.L137:
 2162 0208 00000000 		.word	USBUART_configuration
 2163 020c 00000000 		.word	USBUART_interfaceNumber
 2164 0210 00000000 		.word	USBUART_interfaceSetting
 2165 0214 00000000 		.word	USBUART_EP
 2166 0218 F0FF2B40 		.word	1076625392
 2167 021c D0112C40 		.word	1076629968
 2168              		.cfi_endproc
 2169              	.LFE6:
 2170              		.size	USBUART_ConfigAltChanged, .-USBUART_ConfigAltChanged
 2171              		.section	.text.USBUART_GetConfigTablePtr,"ax",%progbits
 2172              		.align	2
 2173              		.global	USBUART_GetConfigTablePtr
 2174              		.code	16
 2175              		.thumb_func
 2176              		.type	USBUART_GetConfigTablePtr, %function
 2177              	USBUART_GetConfigTablePtr:
 2178              	.LFB7:
 928:Generated_Source\PSoC4/USBUART_std.c **** 
 929:Generated_Source\PSoC4/USBUART_std.c **** 
 930:Generated_Source\PSoC4/USBUART_std.c **** /*******************************************************************************
 931:Generated_Source\PSoC4/USBUART_std.c **** * Function Name: USBUART_GetConfigTablePtr
 932:Generated_Source\PSoC4/USBUART_std.c **** ****************************************************************************//**
 933:Generated_Source\PSoC4/USBUART_std.c **** *
 934:Generated_Source\PSoC4/USBUART_std.c **** *  This routine returns a pointer a configuration table entry
 935:Generated_Source\PSoC4/USBUART_std.c **** *
 936:Generated_Source\PSoC4/USBUART_std.c **** *  \param confIndex:  Configuration Index
 937:Generated_Source\PSoC4/USBUART_std.c **** *
 938:Generated_Source\PSoC4/USBUART_std.c **** * \return
 939:Generated_Source\PSoC4/USBUART_std.c **** *  Device Descriptor pointer or NULL when descriptor does not exist.
 940:Generated_Source\PSoC4/USBUART_std.c **** *
 941:Generated_Source\PSoC4/USBUART_std.c **** *******************************************************************************/
 942:Generated_Source\PSoC4/USBUART_std.c **** const T_USBUART_LUT CYCODE *USBUART_GetConfigTablePtr(uint8 confIndex)
 943:Generated_Source\PSoC4/USBUART_std.c ****                                                         
 944:Generated_Source\PSoC4/USBUART_std.c **** {
 2179              		.loc 1 944 0
 2180              		.cfi_startproc
 2181              		@ args = 0, pretend = 0, frame = 16
 2182              		@ frame_needed = 1, uses_anonymous_args = 0
 2183 0000 80B5     		push	{r7, lr}
 2184              		.cfi_def_cfa_offset 8
 2185              		.cfi_offset 7, -8
 2186              		.cfi_offset 14, -4
 2187 0002 84B0     		sub	sp, sp, #16
ARM GAS  C:\Users\HPz420\AppData\Local\Temp\cczc1snk.s 			page 58


 2188              		.cfi_def_cfa_offset 24
 2189 0004 00AF     		add	r7, sp, #0
 2190              		.cfi_def_cfa_register 7
 2191 0006 0200     		movs	r2, r0
 2192 0008 FB1D     		adds	r3, r7, #7
 2193 000a 1A70     		strb	r2, [r3]
 945:Generated_Source\PSoC4/USBUART_std.c ****     /* Device Table */
 946:Generated_Source\PSoC4/USBUART_std.c ****     const T_USBUART_LUT CYCODE *pTmp;
 947:Generated_Source\PSoC4/USBUART_std.c **** 
 948:Generated_Source\PSoC4/USBUART_std.c ****     pTmp = (const T_USBUART_LUT CYCODE *) USBUART_TABLE[USBUART_device].p_list;
 2194              		.loc 1 948 0
 2195 000c 104B     		ldr	r3, .L143
 2196 000e 1B78     		ldrb	r3, [r3]
 2197 0010 DBB2     		uxtb	r3, r3
 2198 0012 104A     		ldr	r2, .L143+4
 2199 0014 DB00     		lsls	r3, r3, #3
 2200 0016 D318     		adds	r3, r2, r3
 2201 0018 0433     		adds	r3, r3, #4
 2202 001a 1B68     		ldr	r3, [r3]
 2203 001c FB60     		str	r3, [r7, #12]
 949:Generated_Source\PSoC4/USBUART_std.c **** 
 950:Generated_Source\PSoC4/USBUART_std.c ****     /* The first entry points to the Device Descriptor,
 951:Generated_Source\PSoC4/USBUART_std.c ****     *  the second entry point to the BOS Descriptor
 952:Generated_Source\PSoC4/USBUART_std.c ****     *  the rest configuration entries.
 953:Generated_Source\PSoC4/USBUART_std.c ****     *  Set pointer to the first Configuration Descriptor
 954:Generated_Source\PSoC4/USBUART_std.c ****     */
 955:Generated_Source\PSoC4/USBUART_std.c ****     pTmp = &pTmp[2u];
 2204              		.loc 1 955 0
 2205 001e FB68     		ldr	r3, [r7, #12]
 2206 0020 1033     		adds	r3, r3, #16
 2207 0022 FB60     		str	r3, [r7, #12]
 956:Generated_Source\PSoC4/USBUART_std.c ****     /* For this table, c is the number of configuration descriptors  */
 957:Generated_Source\PSoC4/USBUART_std.c ****     if(confIndex >= pTmp->c)   /* Verify that required configuration descriptor exists */
 2208              		.loc 1 957 0
 2209 0024 FB68     		ldr	r3, [r7, #12]
 2210 0026 1B78     		ldrb	r3, [r3]
 2211 0028 FA1D     		adds	r2, r7, #7
 2212 002a 1278     		ldrb	r2, [r2]
 2213 002c 9A42     		cmp	r2, r3
 2214 002e 02D3     		bcc	.L140
 958:Generated_Source\PSoC4/USBUART_std.c ****     {
 959:Generated_Source\PSoC4/USBUART_std.c ****         pTmp = (const T_USBUART_LUT CYCODE *) NULL;
 2215              		.loc 1 959 0
 2216 0030 0023     		movs	r3, #0
 2217 0032 FB60     		str	r3, [r7, #12]
 2218 0034 06E0     		b	.L141
 2219              	.L140:
 960:Generated_Source\PSoC4/USBUART_std.c ****     }
 961:Generated_Source\PSoC4/USBUART_std.c ****     else
 962:Generated_Source\PSoC4/USBUART_std.c ****     {
 963:Generated_Source\PSoC4/USBUART_std.c ****         pTmp = (const T_USBUART_LUT CYCODE *) pTmp[confIndex].p_list;
 2220              		.loc 1 963 0
 2221 0036 FB1D     		adds	r3, r7, #7
 2222 0038 1B78     		ldrb	r3, [r3]
 2223 003a DB00     		lsls	r3, r3, #3
 2224 003c FA68     		ldr	r2, [r7, #12]
 2225 003e D318     		adds	r3, r2, r3
ARM GAS  C:\Users\HPz420\AppData\Local\Temp\cczc1snk.s 			page 59


 2226 0040 5B68     		ldr	r3, [r3, #4]
 2227 0042 FB60     		str	r3, [r7, #12]
 2228              	.L141:
 964:Generated_Source\PSoC4/USBUART_std.c ****     }
 965:Generated_Source\PSoC4/USBUART_std.c **** 
 966:Generated_Source\PSoC4/USBUART_std.c ****     return (pTmp);
 2229              		.loc 1 966 0
 2230 0044 FB68     		ldr	r3, [r7, #12]
 967:Generated_Source\PSoC4/USBUART_std.c **** }
 2231              		.loc 1 967 0
 2232 0046 1800     		movs	r0, r3
 2233 0048 BD46     		mov	sp, r7
 2234 004a 04B0     		add	sp, sp, #16
 2235              		@ sp needed
 2236 004c 80BD     		pop	{r7, pc}
 2237              	.L144:
 2238 004e C046     		.align	2
 2239              	.L143:
 2240 0050 00000000 		.word	USBUART_device
 2241 0054 00000000 		.word	USBUART_TABLE
 2242              		.cfi_endproc
 2243              	.LFE7:
 2244              		.size	USBUART_GetConfigTablePtr, .-USBUART_GetConfigTablePtr
 2245              		.section	.text.USBUART_GetDeviceTablePtr,"ax",%progbits
 2246              		.align	2
 2247              		.global	USBUART_GetDeviceTablePtr
 2248              		.code	16
 2249              		.thumb_func
 2250              		.type	USBUART_GetDeviceTablePtr, %function
 2251              	USBUART_GetDeviceTablePtr:
 2252              	.LFB8:
 968:Generated_Source\PSoC4/USBUART_std.c **** 
 969:Generated_Source\PSoC4/USBUART_std.c **** 
 970:Generated_Source\PSoC4/USBUART_std.c **** #if (USBUART_BOS_ENABLE)
 971:Generated_Source\PSoC4/USBUART_std.c ****     /*******************************************************************************
 972:Generated_Source\PSoC4/USBUART_std.c ****     * Function Name: USBUART_GetBOSPtr
 973:Generated_Source\PSoC4/USBUART_std.c ****     ****************************************************************************//**
 974:Generated_Source\PSoC4/USBUART_std.c ****     *
 975:Generated_Source\PSoC4/USBUART_std.c ****     *  This routine returns a pointer a BOS table entry
 976:Generated_Source\PSoC4/USBUART_std.c ****     *
 977:Generated_Source\PSoC4/USBUART_std.c ****     *  
 978:Generated_Source\PSoC4/USBUART_std.c ****     *
 979:Generated_Source\PSoC4/USBUART_std.c ****     * \return
 980:Generated_Source\PSoC4/USBUART_std.c ****     *  BOS Descriptor pointer or NULL when descriptor does not exist.
 981:Generated_Source\PSoC4/USBUART_std.c ****     *
 982:Generated_Source\PSoC4/USBUART_std.c ****     *******************************************************************************/
 983:Generated_Source\PSoC4/USBUART_std.c ****     const T_USBUART_LUT CYCODE *USBUART_GetBOSPtr(void)
 984:Generated_Source\PSoC4/USBUART_std.c ****                                                             
 985:Generated_Source\PSoC4/USBUART_std.c ****     {
 986:Generated_Source\PSoC4/USBUART_std.c ****         /* Device Table */
 987:Generated_Source\PSoC4/USBUART_std.c ****         const T_USBUART_LUT CYCODE *pTmp;
 988:Generated_Source\PSoC4/USBUART_std.c **** 
 989:Generated_Source\PSoC4/USBUART_std.c ****         pTmp = (const T_USBUART_LUT CYCODE *) USBUART_TABLE[USBUART_device].p_list;
 990:Generated_Source\PSoC4/USBUART_std.c **** 
 991:Generated_Source\PSoC4/USBUART_std.c ****         /* The first entry points to the Device Descriptor,
 992:Generated_Source\PSoC4/USBUART_std.c ****         *  the second entry points to the BOS Descriptor
 993:Generated_Source\PSoC4/USBUART_std.c ****         */
ARM GAS  C:\Users\HPz420\AppData\Local\Temp\cczc1snk.s 			page 60


 994:Generated_Source\PSoC4/USBUART_std.c ****         pTmp = &pTmp[1u];
 995:Generated_Source\PSoC4/USBUART_std.c ****         pTmp = (const T_USBUART_LUT CYCODE *) pTmp->p_list;
 996:Generated_Source\PSoC4/USBUART_std.c ****         return (pTmp);
 997:Generated_Source\PSoC4/USBUART_std.c ****     }
 998:Generated_Source\PSoC4/USBUART_std.c **** #endif /* (USBUART_BOS_ENABLE) */
 999:Generated_Source\PSoC4/USBUART_std.c **** 
1000:Generated_Source\PSoC4/USBUART_std.c **** 
1001:Generated_Source\PSoC4/USBUART_std.c **** /*******************************************************************************
1002:Generated_Source\PSoC4/USBUART_std.c **** * Function Name: USBUART_GetDeviceTablePtr
1003:Generated_Source\PSoC4/USBUART_std.c **** ****************************************************************************//**
1004:Generated_Source\PSoC4/USBUART_std.c **** *
1005:Generated_Source\PSoC4/USBUART_std.c **** *  This routine returns a pointer to the Device table
1006:Generated_Source\PSoC4/USBUART_std.c **** *
1007:Generated_Source\PSoC4/USBUART_std.c **** * \return
1008:Generated_Source\PSoC4/USBUART_std.c **** *  Device Table pointer
1009:Generated_Source\PSoC4/USBUART_std.c **** *
1010:Generated_Source\PSoC4/USBUART_std.c **** *******************************************************************************/
1011:Generated_Source\PSoC4/USBUART_std.c **** const T_USBUART_LUT CYCODE *USBUART_GetDeviceTablePtr(void)
1012:Generated_Source\PSoC4/USBUART_std.c ****                                                             
1013:Generated_Source\PSoC4/USBUART_std.c **** {
 2253              		.loc 1 1013 0
 2254              		.cfi_startproc
 2255              		@ args = 0, pretend = 0, frame = 0
 2256              		@ frame_needed = 1, uses_anonymous_args = 0
 2257 0000 80B5     		push	{r7, lr}
 2258              		.cfi_def_cfa_offset 8
 2259              		.cfi_offset 7, -8
 2260              		.cfi_offset 14, -4
 2261 0002 00AF     		add	r7, sp, #0
 2262              		.cfi_def_cfa_register 7
1014:Generated_Source\PSoC4/USBUART_std.c ****     /* Device Table */
1015:Generated_Source\PSoC4/USBUART_std.c ****     return( (const T_USBUART_LUT CYCODE *) USBUART_TABLE[USBUART_device].p_list );
 2263              		.loc 1 1015 0
 2264 0004 054B     		ldr	r3, .L147
 2265 0006 1B78     		ldrb	r3, [r3]
 2266 0008 DBB2     		uxtb	r3, r3
 2267 000a 054A     		ldr	r2, .L147+4
 2268 000c DB00     		lsls	r3, r3, #3
 2269 000e D318     		adds	r3, r2, r3
 2270 0010 0433     		adds	r3, r3, #4
 2271 0012 1B68     		ldr	r3, [r3]
1016:Generated_Source\PSoC4/USBUART_std.c **** }
 2272              		.loc 1 1016 0
 2273 0014 1800     		movs	r0, r3
 2274 0016 BD46     		mov	sp, r7
 2275              		@ sp needed
 2276 0018 80BD     		pop	{r7, pc}
 2277              	.L148:
 2278 001a C046     		.align	2
 2279              	.L147:
 2280 001c 00000000 		.word	USBUART_device
 2281 0020 00000000 		.word	USBUART_TABLE
 2282              		.cfi_endproc
 2283              	.LFE8:
 2284              		.size	USBUART_GetDeviceTablePtr, .-USBUART_GetDeviceTablePtr
 2285              		.section	.text.USBUART_GetInterfaceClassTablePtr,"ax",%progbits
 2286              		.align	2
ARM GAS  C:\Users\HPz420\AppData\Local\Temp\cczc1snk.s 			page 61


 2287              		.global	USBUART_GetInterfaceClassTablePtr
 2288              		.code	16
 2289              		.thumb_func
 2290              		.type	USBUART_GetInterfaceClassTablePtr, %function
 2291              	USBUART_GetInterfaceClassTablePtr:
 2292              	.LFB9:
1017:Generated_Source\PSoC4/USBUART_std.c **** 
1018:Generated_Source\PSoC4/USBUART_std.c **** 
1019:Generated_Source\PSoC4/USBUART_std.c **** /*******************************************************************************
1020:Generated_Source\PSoC4/USBUART_std.c **** * Function Name: USB_GetInterfaceClassTablePtr
1021:Generated_Source\PSoC4/USBUART_std.c **** ****************************************************************************//**
1022:Generated_Source\PSoC4/USBUART_std.c **** *
1023:Generated_Source\PSoC4/USBUART_std.c **** *  This routine returns Interface Class table pointer, which contains
1024:Generated_Source\PSoC4/USBUART_std.c **** *  the relation between interface number and interface class.
1025:Generated_Source\PSoC4/USBUART_std.c **** *
1026:Generated_Source\PSoC4/USBUART_std.c **** * \return
1027:Generated_Source\PSoC4/USBUART_std.c **** *  Interface Class table pointer.
1028:Generated_Source\PSoC4/USBUART_std.c **** *
1029:Generated_Source\PSoC4/USBUART_std.c **** *******************************************************************************/
1030:Generated_Source\PSoC4/USBUART_std.c **** const uint8 CYCODE *USBUART_GetInterfaceClassTablePtr(void)
1031:Generated_Source\PSoC4/USBUART_std.c ****                                                         
1032:Generated_Source\PSoC4/USBUART_std.c **** {
 2293              		.loc 1 1032 0
 2294              		.cfi_startproc
 2295              		@ args = 0, pretend = 0, frame = 16
 2296              		@ frame_needed = 1, uses_anonymous_args = 0
 2297 0000 80B5     		push	{r7, lr}
 2298              		.cfi_def_cfa_offset 8
 2299              		.cfi_offset 7, -8
 2300              		.cfi_offset 14, -4
 2301 0002 84B0     		sub	sp, sp, #16
 2302              		.cfi_def_cfa_offset 24
 2303 0004 00AF     		add	r7, sp, #0
 2304              		.cfi_def_cfa_register 7
1033:Generated_Source\PSoC4/USBUART_std.c ****     const T_USBUART_LUT CYCODE *pTmp;
1034:Generated_Source\PSoC4/USBUART_std.c ****     const uint8 CYCODE *pInterfaceClass;
1035:Generated_Source\PSoC4/USBUART_std.c ****     uint8 currentInterfacesNum;
1036:Generated_Source\PSoC4/USBUART_std.c **** 
1037:Generated_Source\PSoC4/USBUART_std.c ****     pTmp = USBUART_GetConfigTablePtr(USBUART_configuration - 1u);
 2305              		.loc 1 1037 0
 2306 0006 124B     		ldr	r3, .L153
 2307 0008 1B78     		ldrb	r3, [r3]
 2308 000a DBB2     		uxtb	r3, r3
 2309 000c 013B     		subs	r3, r3, #1
 2310 000e DBB2     		uxtb	r3, r3
 2311 0010 1800     		movs	r0, r3
 2312 0012 FFF7FEFF 		bl	USBUART_GetConfigTablePtr
 2313 0016 0300     		movs	r3, r0
 2314 0018 BB60     		str	r3, [r7, #8]
1038:Generated_Source\PSoC4/USBUART_std.c ****     if (pTmp != NULL)
 2315              		.loc 1 1038 0
 2316 001a BB68     		ldr	r3, [r7, #8]
 2317 001c 002B     		cmp	r3, #0
 2318 001e 0FD0     		beq	.L150
1039:Generated_Source\PSoC4/USBUART_std.c ****     {
1040:Generated_Source\PSoC4/USBUART_std.c ****         currentInterfacesNum  = ((const uint8 *) pTmp->p_list)[USBUART_CONFIG_DESCR_NUM_INTERFACES]
 2319              		.loc 1 1040 0
ARM GAS  C:\Users\HPz420\AppData\Local\Temp\cczc1snk.s 			page 62


 2320 0020 BB68     		ldr	r3, [r7, #8]
 2321 0022 5A68     		ldr	r2, [r3, #4]
 2322 0024 FB1D     		adds	r3, r7, #7
 2323 0026 1279     		ldrb	r2, [r2, #4]
 2324 0028 1A70     		strb	r2, [r3]
1041:Generated_Source\PSoC4/USBUART_std.c ****         /* Third entry in the LUT starts the Interface Table pointers */
1042:Generated_Source\PSoC4/USBUART_std.c ****         /* The INTERFACE_CLASS table is located after all interfaces */
1043:Generated_Source\PSoC4/USBUART_std.c ****         pTmp = &pTmp[currentInterfacesNum + 2u];
 2325              		.loc 1 1043 0
 2326 002a FB1D     		adds	r3, r7, #7
 2327 002c 1B78     		ldrb	r3, [r3]
 2328 002e 0233     		adds	r3, r3, #2
 2329 0030 DB00     		lsls	r3, r3, #3
 2330 0032 BA68     		ldr	r2, [r7, #8]
 2331 0034 D318     		adds	r3, r2, r3
 2332 0036 BB60     		str	r3, [r7, #8]
1044:Generated_Source\PSoC4/USBUART_std.c ****         pInterfaceClass = (const uint8 CYCODE *) pTmp->p_list;
 2333              		.loc 1 1044 0
 2334 0038 BB68     		ldr	r3, [r7, #8]
 2335 003a 5B68     		ldr	r3, [r3, #4]
 2336 003c FB60     		str	r3, [r7, #12]
 2337 003e 01E0     		b	.L151
 2338              	.L150:
1045:Generated_Source\PSoC4/USBUART_std.c ****     }
1046:Generated_Source\PSoC4/USBUART_std.c ****     else
1047:Generated_Source\PSoC4/USBUART_std.c ****     {
1048:Generated_Source\PSoC4/USBUART_std.c ****         pInterfaceClass = (const uint8 CYCODE *) NULL;
 2339              		.loc 1 1048 0
 2340 0040 0023     		movs	r3, #0
 2341 0042 FB60     		str	r3, [r7, #12]
 2342              	.L151:
1049:Generated_Source\PSoC4/USBUART_std.c ****     }
1050:Generated_Source\PSoC4/USBUART_std.c **** 
1051:Generated_Source\PSoC4/USBUART_std.c ****     return (pInterfaceClass);
 2343              		.loc 1 1051 0
 2344 0044 FB68     		ldr	r3, [r7, #12]
1052:Generated_Source\PSoC4/USBUART_std.c **** }
 2345              		.loc 1 1052 0
 2346 0046 1800     		movs	r0, r3
 2347 0048 BD46     		mov	sp, r7
 2348 004a 04B0     		add	sp, sp, #16
 2349              		@ sp needed
 2350 004c 80BD     		pop	{r7, pc}
 2351              	.L154:
 2352 004e C046     		.align	2
 2353              	.L153:
 2354 0050 00000000 		.word	USBUART_configuration
 2355              		.cfi_endproc
 2356              	.LFE9:
 2357              		.size	USBUART_GetInterfaceClassTablePtr, .-USBUART_GetInterfaceClassTablePtr
 2358              		.section	.text.USBUART_TerminateEP,"ax",%progbits
 2359              		.align	2
 2360              		.global	USBUART_TerminateEP
 2361              		.code	16
 2362              		.thumb_func
 2363              		.type	USBUART_TerminateEP, %function
 2364              	USBUART_TerminateEP:
ARM GAS  C:\Users\HPz420\AppData\Local\Temp\cczc1snk.s 			page 63


 2365              	.LFB10:
1053:Generated_Source\PSoC4/USBUART_std.c **** 
1054:Generated_Source\PSoC4/USBUART_std.c **** 
1055:Generated_Source\PSoC4/USBUART_std.c **** /*******************************************************************************
1056:Generated_Source\PSoC4/USBUART_std.c **** * Function Name: USBUART_TerminateEP
1057:Generated_Source\PSoC4/USBUART_std.c **** ****************************************************************************//**
1058:Generated_Source\PSoC4/USBUART_std.c **** *
1059:Generated_Source\PSoC4/USBUART_std.c **** *  This function terminates the specified USBFS endpoint.
1060:Generated_Source\PSoC4/USBUART_std.c **** *  This function should be used before endpoint reconfiguration.
1061:Generated_Source\PSoC4/USBUART_std.c **** *
1062:Generated_Source\PSoC4/USBUART_std.c **** *  \param ep Contains the data endpoint number.
1063:Generated_Source\PSoC4/USBUART_std.c **** *
1064:Generated_Source\PSoC4/USBUART_std.c **** *  \reentrant
1065:Generated_Source\PSoC4/USBUART_std.c **** *  No.
1066:Generated_Source\PSoC4/USBUART_std.c **** *
1067:Generated_Source\PSoC4/USBUART_std.c **** * \sideeffect
1068:Generated_Source\PSoC4/USBUART_std.c **** * 
1069:Generated_Source\PSoC4/USBUART_std.c **** * The device responds with a NAK for any transactions on the selected endpoint.
1070:Generated_Source\PSoC4/USBUART_std.c **** *   
1071:Generated_Source\PSoC4/USBUART_std.c **** *******************************************************************************/
1072:Generated_Source\PSoC4/USBUART_std.c **** void USBUART_TerminateEP(uint8 epNumber) 
1073:Generated_Source\PSoC4/USBUART_std.c **** {
 2366              		.loc 1 1073 0
 2367              		.cfi_startproc
 2368              		@ args = 0, pretend = 0, frame = 8
 2369              		@ frame_needed = 1, uses_anonymous_args = 0
 2370 0000 80B5     		push	{r7, lr}
 2371              		.cfi_def_cfa_offset 8
 2372              		.cfi_offset 7, -8
 2373              		.cfi_offset 14, -4
 2374 0002 82B0     		sub	sp, sp, #8
 2375              		.cfi_def_cfa_offset 16
 2376 0004 00AF     		add	r7, sp, #0
 2377              		.cfi_def_cfa_register 7
 2378 0006 0200     		movs	r2, r0
 2379 0008 FB1D     		adds	r3, r7, #7
 2380 000a 1A70     		strb	r2, [r3]
1074:Generated_Source\PSoC4/USBUART_std.c ****     /* Get endpoint number */
1075:Generated_Source\PSoC4/USBUART_std.c ****     epNumber &= USBUART_DIR_UNUSED;
 2381              		.loc 1 1075 0
 2382 000c FB1D     		adds	r3, r7, #7
 2383 000e FA1D     		adds	r2, r7, #7
 2384 0010 1278     		ldrb	r2, [r2]
 2385 0012 7F21     		movs	r1, #127
 2386 0014 0A40     		ands	r2, r1
 2387 0016 1A70     		strb	r2, [r3]
1076:Generated_Source\PSoC4/USBUART_std.c **** 
1077:Generated_Source\PSoC4/USBUART_std.c ****     if ((epNumber > USBUART_EP0) && (epNumber < USBUART_MAX_EP))
 2388              		.loc 1 1077 0
 2389 0018 FB1D     		adds	r3, r7, #7
 2390 001a 1B78     		ldrb	r3, [r3]
 2391 001c 002B     		cmp	r3, #0
 2392 001e 51D0     		beq	.L158
 2393              		.loc 1 1077 0 is_stmt 0 discriminator 1
 2394 0020 FB1D     		adds	r3, r7, #7
 2395 0022 1B78     		ldrb	r3, [r3]
 2396 0024 082B     		cmp	r3, #8
ARM GAS  C:\Users\HPz420\AppData\Local\Temp\cczc1snk.s 			page 64


 2397 0026 4DD8     		bhi	.L158
1078:Generated_Source\PSoC4/USBUART_std.c ****     {
1079:Generated_Source\PSoC4/USBUART_std.c ****         /* Set the endpoint Halt */
1080:Generated_Source\PSoC4/USBUART_std.c ****         USBUART_EP[epNumber].hwEpState |= USBUART_ENDPOINT_STATUS_HALT;
 2398              		.loc 1 1080 0 is_stmt 1
 2399 0028 FB1D     		adds	r3, r7, #7
 2400 002a 1A78     		ldrb	r2, [r3]
 2401 002c FB1D     		adds	r3, r7, #7
 2402 002e 1978     		ldrb	r1, [r3]
 2403 0030 2648     		ldr	r0, .L159
 2404 0032 0B00     		movs	r3, r1
 2405 0034 5B00     		lsls	r3, r3, #1
 2406 0036 5B18     		adds	r3, r3, r1
 2407 0038 9B00     		lsls	r3, r3, #2
 2408 003a C318     		adds	r3, r0, r3
 2409 003c 0233     		adds	r3, r3, #2
 2410 003e 1B78     		ldrb	r3, [r3]
 2411 0040 DBB2     		uxtb	r3, r3
 2412 0042 0121     		movs	r1, #1
 2413 0044 0B43     		orrs	r3, r1
 2414 0046 D8B2     		uxtb	r0, r3
 2415 0048 2049     		ldr	r1, .L159
 2416 004a 1300     		movs	r3, r2
 2417 004c 5B00     		lsls	r3, r3, #1
 2418 004e 9B18     		adds	r3, r3, r2
 2419 0050 9B00     		lsls	r3, r3, #2
 2420 0052 CB18     		adds	r3, r1, r3
 2421 0054 0233     		adds	r3, r3, #2
 2422 0056 021C     		adds	r2, r0, #0
 2423 0058 1A70     		strb	r2, [r3]
1081:Generated_Source\PSoC4/USBUART_std.c **** 
1082:Generated_Source\PSoC4/USBUART_std.c ****         /* Clear the data toggle */
1083:Generated_Source\PSoC4/USBUART_std.c ****         USBUART_EP[epNumber].epToggle = 0u;
 2424              		.loc 1 1083 0
 2425 005a FB1D     		adds	r3, r7, #7
 2426 005c 1A78     		ldrb	r2, [r3]
 2427 005e 1B49     		ldr	r1, .L159
 2428 0060 1300     		movs	r3, r2
 2429 0062 5B00     		lsls	r3, r3, #1
 2430 0064 9B18     		adds	r3, r3, r2
 2431 0066 9B00     		lsls	r3, r3, #2
 2432 0068 CB18     		adds	r3, r1, r3
 2433 006a 0333     		adds	r3, r3, #3
 2434 006c 0022     		movs	r2, #0
 2435 006e 1A70     		strb	r2, [r3]
1084:Generated_Source\PSoC4/USBUART_std.c ****         USBUART_EP[epNumber].apiEpState = USBUART_NO_EVENT_ALLOWED;
 2436              		.loc 1 1084 0
 2437 0070 FB1D     		adds	r3, r7, #7
 2438 0072 1A78     		ldrb	r2, [r3]
 2439 0074 1549     		ldr	r1, .L159
 2440 0076 1300     		movs	r3, r2
 2441 0078 5B00     		lsls	r3, r3, #1
 2442 007a 9B18     		adds	r3, r3, r2
 2443 007c 9B00     		lsls	r3, r3, #2
 2444 007e CB18     		adds	r3, r1, r3
 2445 0080 0133     		adds	r3, r3, #1
 2446 0082 0222     		movs	r2, #2
ARM GAS  C:\Users\HPz420\AppData\Local\Temp\cczc1snk.s 			page 65


 2447 0084 1A70     		strb	r2, [r3]
1085:Generated_Source\PSoC4/USBUART_std.c **** 
1086:Generated_Source\PSoC4/USBUART_std.c ****         if ((USBUART_EP[epNumber].addr & USBUART_DIR_IN) != 0u)
 2448              		.loc 1 1086 0
 2449 0086 FB1D     		adds	r3, r7, #7
 2450 0088 1A78     		ldrb	r2, [r3]
 2451 008a 1049     		ldr	r1, .L159
 2452 008c 1300     		movs	r3, r2
 2453 008e 5B00     		lsls	r3, r3, #1
 2454 0090 9B18     		adds	r3, r3, r2
 2455 0092 9B00     		lsls	r3, r3, #2
 2456 0094 CB18     		adds	r3, r1, r3
 2457 0096 0433     		adds	r3, r3, #4
 2458 0098 1B78     		ldrb	r3, [r3]
 2459 009a DBB2     		uxtb	r3, r3
 2460 009c 5BB2     		sxtb	r3, r3
 2461 009e 002B     		cmp	r3, #0
 2462 00a0 08DA     		bge	.L157
1087:Generated_Source\PSoC4/USBUART_std.c ****         {   
1088:Generated_Source\PSoC4/USBUART_std.c ****             /* IN Endpoint */
1089:Generated_Source\PSoC4/USBUART_std.c ****             USBUART_SIE_EP_BASE.sieEp[epNumber].epCr0 = USBUART_MODE_NAK_IN;
 2463              		.loc 1 1089 0
 2464 00a2 0B4A     		ldr	r2, .L159+4
 2465 00a4 FB1D     		adds	r3, r7, #7
 2466 00a6 1B78     		ldrb	r3, [r3]
 2467 00a8 9B01     		lsls	r3, r3, #6
 2468 00aa D318     		adds	r3, r2, r3
 2469 00ac 0833     		adds	r3, r3, #8
 2470 00ae 0C22     		movs	r2, #12
 2471 00b0 1A60     		str	r2, [r3]
1090:Generated_Source\PSoC4/USBUART_std.c ****         }
1091:Generated_Source\PSoC4/USBUART_std.c ****         else
1092:Generated_Source\PSoC4/USBUART_std.c ****         {
1093:Generated_Source\PSoC4/USBUART_std.c ****             /* OUT Endpoint */
1094:Generated_Source\PSoC4/USBUART_std.c ****             USBUART_SIE_EP_BASE.sieEp[epNumber].epCr0 = USBUART_MODE_NAK_OUT;
1095:Generated_Source\PSoC4/USBUART_std.c ****         }
1096:Generated_Source\PSoC4/USBUART_std.c ****     }
1097:Generated_Source\PSoC4/USBUART_std.c **** }
 2472              		.loc 1 1097 0
 2473 00b2 07E0     		b	.L158
 2474              	.L157:
1094:Generated_Source\PSoC4/USBUART_std.c ****         }
 2475              		.loc 1 1094 0
 2476 00b4 064A     		ldr	r2, .L159+4
 2477 00b6 FB1D     		adds	r3, r7, #7
 2478 00b8 1B78     		ldrb	r3, [r3]
 2479 00ba 9B01     		lsls	r3, r3, #6
 2480 00bc D318     		adds	r3, r2, r3
 2481 00be 0833     		adds	r3, r3, #8
 2482 00c0 0822     		movs	r2, #8
 2483 00c2 1A60     		str	r2, [r3]
 2484              	.L158:
 2485              		.loc 1 1097 0
 2486 00c4 C046     		nop
 2487 00c6 BD46     		mov	sp, r7
 2488 00c8 02B0     		add	sp, sp, #8
 2489              		@ sp needed
ARM GAS  C:\Users\HPz420\AppData\Local\Temp\cczc1snk.s 			page 66


 2490 00ca 80BD     		pop	{r7, pc}
 2491              	.L160:
 2492              		.align	2
 2493              	.L159:
 2494 00cc 00000000 		.word	USBUART_EP
 2495 00d0 F0FF2B40 		.word	1076625392
 2496              		.cfi_endproc
 2497              	.LFE10:
 2498              		.size	USBUART_TerminateEP, .-USBUART_TerminateEP
 2499              		.section	.text.USBUART_SetEndpointHalt,"ax",%progbits
 2500              		.align	2
 2501              		.global	USBUART_SetEndpointHalt
 2502              		.code	16
 2503              		.thumb_func
 2504              		.type	USBUART_SetEndpointHalt, %function
 2505              	USBUART_SetEndpointHalt:
 2506              	.LFB11:
1098:Generated_Source\PSoC4/USBUART_std.c **** 
1099:Generated_Source\PSoC4/USBUART_std.c **** 
1100:Generated_Source\PSoC4/USBUART_std.c **** /*******************************************************************************
1101:Generated_Source\PSoC4/USBUART_std.c **** * Function Name: USBUART_SetEndpointHalt
1102:Generated_Source\PSoC4/USBUART_std.c **** ****************************************************************************//**
1103:Generated_Source\PSoC4/USBUART_std.c **** *
1104:Generated_Source\PSoC4/USBUART_std.c **** *  This routine handles set endpoint halt.
1105:Generated_Source\PSoC4/USBUART_std.c **** *
1106:Generated_Source\PSoC4/USBUART_std.c **** * \return
1107:Generated_Source\PSoC4/USBUART_std.c **** *  requestHandled.
1108:Generated_Source\PSoC4/USBUART_std.c **** *
1109:Generated_Source\PSoC4/USBUART_std.c **** * \reentrant
1110:Generated_Source\PSoC4/USBUART_std.c **** *  No.
1111:Generated_Source\PSoC4/USBUART_std.c **** *
1112:Generated_Source\PSoC4/USBUART_std.c **** *******************************************************************************/
1113:Generated_Source\PSoC4/USBUART_std.c **** uint8 USBUART_SetEndpointHalt(void) 
1114:Generated_Source\PSoC4/USBUART_std.c **** {
 2507              		.loc 1 1114 0
 2508              		.cfi_startproc
 2509              		@ args = 0, pretend = 0, frame = 8
 2510              		@ frame_needed = 1, uses_anonymous_args = 0
 2511 0000 90B5     		push	{r4, r7, lr}
 2512              		.cfi_def_cfa_offset 12
 2513              		.cfi_offset 4, -12
 2514              		.cfi_offset 7, -8
 2515              		.cfi_offset 14, -4
 2516 0002 83B0     		sub	sp, sp, #12
 2517              		.cfi_def_cfa_offset 24
 2518 0004 00AF     		add	r7, sp, #0
 2519              		.cfi_def_cfa_register 7
1115:Generated_Source\PSoC4/USBUART_std.c ****     uint8 requestHandled = USBUART_FALSE;
 2520              		.loc 1 1115 0
 2521 0006 FB1D     		adds	r3, r7, #7
 2522 0008 0022     		movs	r2, #0
 2523 000a 1A70     		strb	r2, [r3]
1116:Generated_Source\PSoC4/USBUART_std.c ****     uint32 ep;
1117:Generated_Source\PSoC4/USBUART_std.c ****     
1118:Generated_Source\PSoC4/USBUART_std.c ****     /* Set endpoint halt */
1119:Generated_Source\PSoC4/USBUART_std.c ****     ep = USBUART_wIndexLoReg & USBUART_DIR_UNUSED;
 2524              		.loc 1 1119 0
ARM GAS  C:\Users\HPz420\AppData\Local\Temp\cczc1snk.s 			page 67


 2525 000c 344B     		ldr	r3, .L166
 2526 000e 1B69     		ldr	r3, [r3, #16]
 2527 0010 7F22     		movs	r2, #127
 2528 0012 1340     		ands	r3, r2
 2529 0014 3B60     		str	r3, [r7]
1120:Generated_Source\PSoC4/USBUART_std.c **** 
1121:Generated_Source\PSoC4/USBUART_std.c ****     if ((ep > USBUART_EP0) && (ep < USBUART_MAX_EP))
 2530              		.loc 1 1121 0
 2531 0016 3B68     		ldr	r3, [r7]
 2532 0018 002B     		cmp	r3, #0
 2533 001a 5BD0     		beq	.L162
 2534              		.loc 1 1121 0 is_stmt 0 discriminator 1
 2535 001c 3B68     		ldr	r3, [r7]
 2536 001e 082B     		cmp	r3, #8
 2537 0020 58D8     		bhi	.L162
1122:Generated_Source\PSoC4/USBUART_std.c ****     {
1123:Generated_Source\PSoC4/USBUART_std.c ****         /* Set the endpoint Halt */
1124:Generated_Source\PSoC4/USBUART_std.c ****         USBUART_EP[ep].hwEpState |= (USBUART_ENDPOINT_STATUS_HALT);
 2538              		.loc 1 1124 0 is_stmt 1
 2539 0022 3049     		ldr	r1, .L166+4
 2540 0024 3A68     		ldr	r2, [r7]
 2541 0026 1300     		movs	r3, r2
 2542 0028 5B00     		lsls	r3, r3, #1
 2543 002a 9B18     		adds	r3, r3, r2
 2544 002c 9B00     		lsls	r3, r3, #2
 2545 002e CB18     		adds	r3, r1, r3
 2546 0030 0233     		adds	r3, r3, #2
 2547 0032 1B78     		ldrb	r3, [r3]
 2548 0034 DBB2     		uxtb	r3, r3
 2549 0036 0122     		movs	r2, #1
 2550 0038 1343     		orrs	r3, r2
 2551 003a D8B2     		uxtb	r0, r3
 2552 003c 2949     		ldr	r1, .L166+4
 2553 003e 3A68     		ldr	r2, [r7]
 2554 0040 1300     		movs	r3, r2
 2555 0042 5B00     		lsls	r3, r3, #1
 2556 0044 9B18     		adds	r3, r3, r2
 2557 0046 9B00     		lsls	r3, r3, #2
 2558 0048 CB18     		adds	r3, r1, r3
 2559 004a 0233     		adds	r3, r3, #2
 2560 004c 021C     		adds	r2, r0, #0
 2561 004e 1A70     		strb	r2, [r3]
1125:Generated_Source\PSoC4/USBUART_std.c **** 
1126:Generated_Source\PSoC4/USBUART_std.c ****         /* Clear the data toggle */
1127:Generated_Source\PSoC4/USBUART_std.c ****         USBUART_EP[ep].epToggle = 0u;
 2562              		.loc 1 1127 0
 2563 0050 2449     		ldr	r1, .L166+4
 2564 0052 3A68     		ldr	r2, [r7]
 2565 0054 1300     		movs	r3, r2
 2566 0056 5B00     		lsls	r3, r3, #1
 2567 0058 9B18     		adds	r3, r3, r2
 2568 005a 9B00     		lsls	r3, r3, #2
 2569 005c CB18     		adds	r3, r1, r3
 2570 005e 0333     		adds	r3, r3, #3
 2571 0060 0022     		movs	r2, #0
 2572 0062 1A70     		strb	r2, [r3]
1128:Generated_Source\PSoC4/USBUART_std.c ****         USBUART_EP[ep].apiEpState |= USBUART_NO_EVENT_ALLOWED;
ARM GAS  C:\Users\HPz420\AppData\Local\Temp\cczc1snk.s 			page 68


 2573              		.loc 1 1128 0
 2574 0064 1F49     		ldr	r1, .L166+4
 2575 0066 3A68     		ldr	r2, [r7]
 2576 0068 1300     		movs	r3, r2
 2577 006a 5B00     		lsls	r3, r3, #1
 2578 006c 9B18     		adds	r3, r3, r2
 2579 006e 9B00     		lsls	r3, r3, #2
 2580 0070 CB18     		adds	r3, r1, r3
 2581 0072 0133     		adds	r3, r3, #1
 2582 0074 1B78     		ldrb	r3, [r3]
 2583 0076 DBB2     		uxtb	r3, r3
 2584 0078 0222     		movs	r2, #2
 2585 007a 1343     		orrs	r3, r2
 2586 007c D8B2     		uxtb	r0, r3
 2587 007e 1949     		ldr	r1, .L166+4
 2588 0080 3A68     		ldr	r2, [r7]
 2589 0082 1300     		movs	r3, r2
 2590 0084 5B00     		lsls	r3, r3, #1
 2591 0086 9B18     		adds	r3, r3, r2
 2592 0088 9B00     		lsls	r3, r3, #2
 2593 008a CB18     		adds	r3, r1, r3
 2594 008c 0133     		adds	r3, r3, #1
 2595 008e 021C     		adds	r2, r0, #0
 2596 0090 1A70     		strb	r2, [r3]
1129:Generated_Source\PSoC4/USBUART_std.c **** 
1130:Generated_Source\PSoC4/USBUART_std.c ****         if ((USBUART_EP[ep].addr & USBUART_DIR_IN) != 0u)
 2597              		.loc 1 1130 0
 2598 0092 1449     		ldr	r1, .L166+4
 2599 0094 3A68     		ldr	r2, [r7]
 2600 0096 1300     		movs	r3, r2
 2601 0098 5B00     		lsls	r3, r3, #1
 2602 009a 9B18     		adds	r3, r3, r2
 2603 009c 9B00     		lsls	r3, r3, #2
 2604 009e CB18     		adds	r3, r1, r3
 2605 00a0 0433     		adds	r3, r3, #4
 2606 00a2 1B78     		ldrb	r3, [r3]
 2607 00a4 DBB2     		uxtb	r3, r3
 2608 00a6 5BB2     		sxtb	r3, r3
 2609 00a8 002B     		cmp	r3, #0
 2610 00aa 07DA     		bge	.L163
1131:Generated_Source\PSoC4/USBUART_std.c ****         {
1132:Generated_Source\PSoC4/USBUART_std.c ****             /* IN Endpoint */
1133:Generated_Source\PSoC4/USBUART_std.c ****             USBUART_SIE_EP_BASE.sieEp[ep].epCr0 = (USBUART_MODE_STALL_DATA_EP | 
 2611              		.loc 1 1133 0
 2612 00ac 0E4A     		ldr	r2, .L166+8
 2613 00ae 3B68     		ldr	r3, [r7]
 2614 00b0 9B01     		lsls	r3, r3, #6
 2615 00b2 D318     		adds	r3, r2, r3
 2616 00b4 0833     		adds	r3, r3, #8
 2617 00b6 8D22     		movs	r2, #141
 2618 00b8 1A60     		str	r2, [r3]
 2619 00ba 06E0     		b	.L164
 2620              	.L163:
1134:Generated_Source\PSoC4/USBUART_std.c ****                                                             USBUART_MODE_ACK_IN);
1135:Generated_Source\PSoC4/USBUART_std.c ****         }
1136:Generated_Source\PSoC4/USBUART_std.c ****         else
1137:Generated_Source\PSoC4/USBUART_std.c ****         {
ARM GAS  C:\Users\HPz420\AppData\Local\Temp\cczc1snk.s 			page 69


1138:Generated_Source\PSoC4/USBUART_std.c ****             /* OUT Endpoint */
1139:Generated_Source\PSoC4/USBUART_std.c ****             USBUART_SIE_EP_BASE.sieEp[ep].epCr0 = (USBUART_MODE_STALL_DATA_EP | 
 2621              		.loc 1 1139 0
 2622 00bc 0A4A     		ldr	r2, .L166+8
 2623 00be 3B68     		ldr	r3, [r7]
 2624 00c0 9B01     		lsls	r3, r3, #6
 2625 00c2 D318     		adds	r3, r2, r3
 2626 00c4 0833     		adds	r3, r3, #8
 2627 00c6 8922     		movs	r2, #137
 2628 00c8 1A60     		str	r2, [r3]
 2629              	.L164:
1140:Generated_Source\PSoC4/USBUART_std.c ****                                                             USBUART_MODE_ACK_OUT);
1141:Generated_Source\PSoC4/USBUART_std.c ****         }
1142:Generated_Source\PSoC4/USBUART_std.c ****         requestHandled = USBUART_InitNoDataControlTransfer();
 2630              		.loc 1 1142 0
 2631 00ca FC1D     		adds	r4, r7, #7
 2632 00cc FFF7FEFF 		bl	USBUART_InitNoDataControlTransfer
 2633 00d0 0300     		movs	r3, r0
 2634 00d2 2370     		strb	r3, [r4]
 2635              	.L162:
1143:Generated_Source\PSoC4/USBUART_std.c ****     }
1144:Generated_Source\PSoC4/USBUART_std.c **** 
1145:Generated_Source\PSoC4/USBUART_std.c ****     return (requestHandled);
 2636              		.loc 1 1145 0
 2637 00d4 FB1D     		adds	r3, r7, #7
 2638 00d6 1B78     		ldrb	r3, [r3]
1146:Generated_Source\PSoC4/USBUART_std.c **** }
 2639              		.loc 1 1146 0
 2640 00d8 1800     		movs	r0, r3
 2641 00da BD46     		mov	sp, r7
 2642 00dc 03B0     		add	sp, sp, #12
 2643              		@ sp needed
 2644 00de 90BD     		pop	{r4, r7, pc}
 2645              	.L167:
 2646              		.align	2
 2647              	.L166:
 2648 00e0 00002C40 		.word	1076625408
 2649 00e4 00000000 		.word	USBUART_EP
 2650 00e8 F0FF2B40 		.word	1076625392
 2651              		.cfi_endproc
 2652              	.LFE11:
 2653              		.size	USBUART_SetEndpointHalt, .-USBUART_SetEndpointHalt
 2654              		.section	.text.USBUART_ClearEndpointHalt,"ax",%progbits
 2655              		.align	2
 2656              		.global	USBUART_ClearEndpointHalt
 2657              		.code	16
 2658              		.thumb_func
 2659              		.type	USBUART_ClearEndpointHalt, %function
 2660              	USBUART_ClearEndpointHalt:
 2661              	.LFB12:
1147:Generated_Source\PSoC4/USBUART_std.c **** 
1148:Generated_Source\PSoC4/USBUART_std.c **** 
1149:Generated_Source\PSoC4/USBUART_std.c **** /*******************************************************************************
1150:Generated_Source\PSoC4/USBUART_std.c **** * Function Name: USBUART_ClearEndpointHalt
1151:Generated_Source\PSoC4/USBUART_std.c **** ****************************************************************************//**
1152:Generated_Source\PSoC4/USBUART_std.c **** *
1153:Generated_Source\PSoC4/USBUART_std.c **** *  This routine handles clear endpoint halt.
ARM GAS  C:\Users\HPz420\AppData\Local\Temp\cczc1snk.s 			page 70


1154:Generated_Source\PSoC4/USBUART_std.c **** *
1155:Generated_Source\PSoC4/USBUART_std.c **** * \return
1156:Generated_Source\PSoC4/USBUART_std.c **** *  requestHandled.
1157:Generated_Source\PSoC4/USBUART_std.c **** *
1158:Generated_Source\PSoC4/USBUART_std.c **** * \reentrant
1159:Generated_Source\PSoC4/USBUART_std.c **** *  No.
1160:Generated_Source\PSoC4/USBUART_std.c **** *
1161:Generated_Source\PSoC4/USBUART_std.c **** *******************************************************************************/
1162:Generated_Source\PSoC4/USBUART_std.c **** uint8 USBUART_ClearEndpointHalt(void) 
1163:Generated_Source\PSoC4/USBUART_std.c **** {
 2662              		.loc 1 1163 0
 2663              		.cfi_startproc
 2664              		@ args = 0, pretend = 0, frame = 8
 2665              		@ frame_needed = 1, uses_anonymous_args = 0
 2666 0000 90B5     		push	{r4, r7, lr}
 2667              		.cfi_def_cfa_offset 12
 2668              		.cfi_offset 4, -12
 2669              		.cfi_offset 7, -8
 2670              		.cfi_offset 14, -4
 2671 0002 83B0     		sub	sp, sp, #12
 2672              		.cfi_def_cfa_offset 24
 2673 0004 00AF     		add	r7, sp, #0
 2674              		.cfi_def_cfa_register 7
1164:Generated_Source\PSoC4/USBUART_std.c ****     uint8 requestHandled = USBUART_FALSE;
 2675              		.loc 1 1164 0
 2676 0006 FB1D     		adds	r3, r7, #7
 2677 0008 0022     		movs	r2, #0
 2678 000a 1A70     		strb	r2, [r3]
1165:Generated_Source\PSoC4/USBUART_std.c ****     uint32 ep;
1166:Generated_Source\PSoC4/USBUART_std.c **** 
1167:Generated_Source\PSoC4/USBUART_std.c ****     /* Clear endpoint halt */
1168:Generated_Source\PSoC4/USBUART_std.c ****     ep = USBUART_wIndexLoReg & USBUART_DIR_UNUSED;
 2679              		.loc 1 1168 0
 2680 000c 4C4B     		ldr	r3, .L176
 2681 000e 1B69     		ldr	r3, [r3, #16]
 2682 0010 7F22     		movs	r2, #127
 2683 0012 1340     		ands	r3, r2
 2684 0014 3B60     		str	r3, [r7]
1169:Generated_Source\PSoC4/USBUART_std.c **** 
1170:Generated_Source\PSoC4/USBUART_std.c ****     if ((ep > USBUART_EP0) && (ep < USBUART_MAX_EP))
 2685              		.loc 1 1170 0
 2686 0016 3B68     		ldr	r3, [r7]
 2687 0018 002B     		cmp	r3, #0
 2688 001a 00D1     		bne	.LCB2419
 2689 001c 8AE0     		b	.L169	@long jump
 2690              	.LCB2419:
 2691              		.loc 1 1170 0 is_stmt 0 discriminator 1
 2692 001e 3B68     		ldr	r3, [r7]
 2693 0020 082B     		cmp	r3, #8
 2694 0022 00D9     		bls	.LCB2422
 2695 0024 86E0     		b	.L169	@long jump
 2696              	.LCB2422:
1171:Generated_Source\PSoC4/USBUART_std.c ****     {
1172:Generated_Source\PSoC4/USBUART_std.c ****         /* Clear the endpoint Halt */
1173:Generated_Source\PSoC4/USBUART_std.c ****         USBUART_EP[ep].hwEpState &= (uint8) ~USBUART_ENDPOINT_STATUS_HALT;
 2697              		.loc 1 1173 0 is_stmt 1
 2698 0026 4749     		ldr	r1, .L176+4
ARM GAS  C:\Users\HPz420\AppData\Local\Temp\cczc1snk.s 			page 71


 2699 0028 3A68     		ldr	r2, [r7]
 2700 002a 1300     		movs	r3, r2
 2701 002c 5B00     		lsls	r3, r3, #1
 2702 002e 9B18     		adds	r3, r3, r2
 2703 0030 9B00     		lsls	r3, r3, #2
 2704 0032 CB18     		adds	r3, r1, r3
 2705 0034 0233     		adds	r3, r3, #2
 2706 0036 1B78     		ldrb	r3, [r3]
 2707 0038 DBB2     		uxtb	r3, r3
 2708 003a 0122     		movs	r2, #1
 2709 003c 9343     		bics	r3, r2
 2710 003e D8B2     		uxtb	r0, r3
 2711 0040 4049     		ldr	r1, .L176+4
 2712 0042 3A68     		ldr	r2, [r7]
 2713 0044 1300     		movs	r3, r2
 2714 0046 5B00     		lsls	r3, r3, #1
 2715 0048 9B18     		adds	r3, r3, r2
 2716 004a 9B00     		lsls	r3, r3, #2
 2717 004c CB18     		adds	r3, r1, r3
 2718 004e 0233     		adds	r3, r3, #2
 2719 0050 021C     		adds	r2, r0, #0
 2720 0052 1A70     		strb	r2, [r3]
1174:Generated_Source\PSoC4/USBUART_std.c **** 
1175:Generated_Source\PSoC4/USBUART_std.c ****         /* Clear the data toggle */
1176:Generated_Source\PSoC4/USBUART_std.c ****         USBUART_EP[ep].epToggle = 0u;
 2721              		.loc 1 1176 0
 2722 0054 3B49     		ldr	r1, .L176+4
 2723 0056 3A68     		ldr	r2, [r7]
 2724 0058 1300     		movs	r3, r2
 2725 005a 5B00     		lsls	r3, r3, #1
 2726 005c 9B18     		adds	r3, r3, r2
 2727 005e 9B00     		lsls	r3, r3, #2
 2728 0060 CB18     		adds	r3, r1, r3
 2729 0062 0333     		adds	r3, r3, #3
 2730 0064 0022     		movs	r2, #0
 2731 0066 1A70     		strb	r2, [r3]
1177:Generated_Source\PSoC4/USBUART_std.c ****         
1178:Generated_Source\PSoC4/USBUART_std.c ****         /* Clear toggle bit for already armed packet */
1179:Generated_Source\PSoC4/USBUART_std.c ****         USBUART_SIE_EP_BASE.sieEp[ep].epCnt0 = (uint32) ~(uint32)USBUART_EPX_CNT_DATA_TOGGLE;
 2732              		.loc 1 1179 0
 2733 0068 3749     		ldr	r1, .L176+8
 2734 006a 3B68     		ldr	r3, [r7]
 2735 006c 9B01     		lsls	r3, r3, #6
 2736 006e 8122     		movs	r2, #129
 2737 0070 5242     		rsbs	r2, r2, #0
 2738 0072 5A50     		str	r2, [r3, r1]
1180:Generated_Source\PSoC4/USBUART_std.c ****         
1181:Generated_Source\PSoC4/USBUART_std.c ****         /* Return API State as it was defined before */
1182:Generated_Source\PSoC4/USBUART_std.c ****         USBUART_EP[ep].apiEpState &= (uint8) ~USBUART_NO_EVENT_ALLOWED;
 2739              		.loc 1 1182 0
 2740 0074 3349     		ldr	r1, .L176+4
 2741 0076 3A68     		ldr	r2, [r7]
 2742 0078 1300     		movs	r3, r2
 2743 007a 5B00     		lsls	r3, r3, #1
 2744 007c 9B18     		adds	r3, r3, r2
 2745 007e 9B00     		lsls	r3, r3, #2
 2746 0080 CB18     		adds	r3, r1, r3
ARM GAS  C:\Users\HPz420\AppData\Local\Temp\cczc1snk.s 			page 72


 2747 0082 0133     		adds	r3, r3, #1
 2748 0084 1B78     		ldrb	r3, [r3]
 2749 0086 DBB2     		uxtb	r3, r3
 2750 0088 0222     		movs	r2, #2
 2751 008a 9343     		bics	r3, r2
 2752 008c D8B2     		uxtb	r0, r3
 2753 008e 2D49     		ldr	r1, .L176+4
 2754 0090 3A68     		ldr	r2, [r7]
 2755 0092 1300     		movs	r3, r2
 2756 0094 5B00     		lsls	r3, r3, #1
 2757 0096 9B18     		adds	r3, r3, r2
 2758 0098 9B00     		lsls	r3, r3, #2
 2759 009a CB18     		adds	r3, r1, r3
 2760 009c 0133     		adds	r3, r3, #1
 2761 009e 021C     		adds	r2, r0, #0
 2762 00a0 1A70     		strb	r2, [r3]
1183:Generated_Source\PSoC4/USBUART_std.c **** 
1184:Generated_Source\PSoC4/USBUART_std.c ****         if ((USBUART_EP[ep].addr & USBUART_DIR_IN) != 0u)
 2763              		.loc 1 1184 0
 2764 00a2 2849     		ldr	r1, .L176+4
 2765 00a4 3A68     		ldr	r2, [r7]
 2766 00a6 1300     		movs	r3, r2
 2767 00a8 5B00     		lsls	r3, r3, #1
 2768 00aa 9B18     		adds	r3, r3, r2
 2769 00ac 9B00     		lsls	r3, r3, #2
 2770 00ae CB18     		adds	r3, r1, r3
 2771 00b0 0433     		adds	r3, r3, #4
 2772 00b2 1B78     		ldrb	r3, [r3]
 2773 00b4 DBB2     		uxtb	r3, r3
 2774 00b6 5BB2     		sxtb	r3, r3
 2775 00b8 002B     		cmp	r3, #0
 2776 00ba 1BDA     		bge	.L170
1185:Generated_Source\PSoC4/USBUART_std.c ****         {
1186:Generated_Source\PSoC4/USBUART_std.c ****             /* IN Endpoint */
1187:Generated_Source\PSoC4/USBUART_std.c ****             if(USBUART_EP[ep].apiEpState == USBUART_IN_BUFFER_EMPTY)
 2777              		.loc 1 1187 0
 2778 00bc 2149     		ldr	r1, .L176+4
 2779 00be 3A68     		ldr	r2, [r7]
 2780 00c0 1300     		movs	r3, r2
 2781 00c2 5B00     		lsls	r3, r3, #1
 2782 00c4 9B18     		adds	r3, r3, r2
 2783 00c6 9B00     		lsls	r3, r3, #2
 2784 00c8 CB18     		adds	r3, r1, r3
 2785 00ca 0133     		adds	r3, r3, #1
 2786 00cc 1B78     		ldrb	r3, [r3]
 2787 00ce DBB2     		uxtb	r3, r3
 2788 00d0 012B     		cmp	r3, #1
 2789 00d2 07D1     		bne	.L171
1188:Generated_Source\PSoC4/USBUART_std.c ****             {       
1189:Generated_Source\PSoC4/USBUART_std.c ****                 /* Wait for next packet from application */
1190:Generated_Source\PSoC4/USBUART_std.c ****                 USBUART_SIE_EP_BASE.sieEp[ep].epCr0 = USBUART_MODE_NAK_IN;
 2790              		.loc 1 1190 0
 2791 00d4 1C4A     		ldr	r2, .L176+8
 2792 00d6 3B68     		ldr	r3, [r7]
 2793 00d8 9B01     		lsls	r3, r3, #6
 2794 00da D318     		adds	r3, r2, r3
 2795 00dc 0833     		adds	r3, r3, #8
ARM GAS  C:\Users\HPz420\AppData\Local\Temp\cczc1snk.s 			page 73


 2796 00de 0C22     		movs	r2, #12
 2797 00e0 1A60     		str	r2, [r3]
 2798 00e2 22E0     		b	.L173
 2799              	.L171:
1191:Generated_Source\PSoC4/USBUART_std.c ****             }
1192:Generated_Source\PSoC4/USBUART_std.c ****             else    /* Continue armed transfer */
1193:Generated_Source\PSoC4/USBUART_std.c ****             {
1194:Generated_Source\PSoC4/USBUART_std.c ****                 USBUART_SIE_EP_BASE.sieEp[ep].epCr0 = USBUART_MODE_ACK_IN;
 2800              		.loc 1 1194 0
 2801 00e4 184A     		ldr	r2, .L176+8
 2802 00e6 3B68     		ldr	r3, [r7]
 2803 00e8 9B01     		lsls	r3, r3, #6
 2804 00ea D318     		adds	r3, r2, r3
 2805 00ec 0833     		adds	r3, r3, #8
 2806 00ee 0D22     		movs	r2, #13
 2807 00f0 1A60     		str	r2, [r3]
 2808 00f2 1AE0     		b	.L173
 2809              	.L170:
1195:Generated_Source\PSoC4/USBUART_std.c ****             }
1196:Generated_Source\PSoC4/USBUART_std.c ****         }
1197:Generated_Source\PSoC4/USBUART_std.c ****         else
1198:Generated_Source\PSoC4/USBUART_std.c ****         {
1199:Generated_Source\PSoC4/USBUART_std.c ****             /* OUT Endpoint */
1200:Generated_Source\PSoC4/USBUART_std.c ****             if (USBUART_EP[ep].apiEpState == USBUART_OUT_BUFFER_FULL)
 2810              		.loc 1 1200 0
 2811 00f4 1349     		ldr	r1, .L176+4
 2812 00f6 3A68     		ldr	r2, [r7]
 2813 00f8 1300     		movs	r3, r2
 2814 00fa 5B00     		lsls	r3, r3, #1
 2815 00fc 9B18     		adds	r3, r3, r2
 2816 00fe 9B00     		lsls	r3, r3, #2
 2817 0100 CB18     		adds	r3, r1, r3
 2818 0102 0133     		adds	r3, r3, #1
 2819 0104 1B78     		ldrb	r3, [r3]
 2820 0106 DBB2     		uxtb	r3, r3
 2821 0108 012B     		cmp	r3, #1
 2822 010a 07D1     		bne	.L174
1201:Generated_Source\PSoC4/USBUART_std.c ****             {       
1202:Generated_Source\PSoC4/USBUART_std.c ****                 /* Allow application to read full buffer */
1203:Generated_Source\PSoC4/USBUART_std.c ****                 USBUART_SIE_EP_BASE.sieEp[ep].epCr0 = USBUART_MODE_NAK_OUT;
 2823              		.loc 1 1203 0
 2824 010c 0E4A     		ldr	r2, .L176+8
 2825 010e 3B68     		ldr	r3, [r7]
 2826 0110 9B01     		lsls	r3, r3, #6
 2827 0112 D318     		adds	r3, r2, r3
 2828 0114 0833     		adds	r3, r3, #8
 2829 0116 0822     		movs	r2, #8
 2830 0118 1A60     		str	r2, [r3]
 2831 011a 06E0     		b	.L173
 2832              	.L174:
1204:Generated_Source\PSoC4/USBUART_std.c ****             }
1205:Generated_Source\PSoC4/USBUART_std.c ****             else    /* Mark endpoint as empty, so it will be reloaded */
1206:Generated_Source\PSoC4/USBUART_std.c ****             {
1207:Generated_Source\PSoC4/USBUART_std.c ****                 USBUART_SIE_EP_BASE.sieEp[ep].epCr0 = USBUART_MODE_ACK_OUT;
 2833              		.loc 1 1207 0
 2834 011c 0A4A     		ldr	r2, .L176+8
 2835 011e 3B68     		ldr	r3, [r7]
ARM GAS  C:\Users\HPz420\AppData\Local\Temp\cczc1snk.s 			page 74


 2836 0120 9B01     		lsls	r3, r3, #6
 2837 0122 D318     		adds	r3, r2, r3
 2838 0124 0833     		adds	r3, r3, #8
 2839 0126 0922     		movs	r2, #9
 2840 0128 1A60     		str	r2, [r3]
 2841              	.L173:
1208:Generated_Source\PSoC4/USBUART_std.c ****             }
1209:Generated_Source\PSoC4/USBUART_std.c ****         }
1210:Generated_Source\PSoC4/USBUART_std.c ****         
1211:Generated_Source\PSoC4/USBUART_std.c ****         requestHandled = USBUART_InitNoDataControlTransfer();
 2842              		.loc 1 1211 0
 2843 012a FC1D     		adds	r4, r7, #7
 2844 012c FFF7FEFF 		bl	USBUART_InitNoDataControlTransfer
 2845 0130 0300     		movs	r3, r0
 2846 0132 2370     		strb	r3, [r4]
 2847              	.L169:
1212:Generated_Source\PSoC4/USBUART_std.c ****     }
1213:Generated_Source\PSoC4/USBUART_std.c **** 
1214:Generated_Source\PSoC4/USBUART_std.c ****     return(requestHandled);
 2848              		.loc 1 1214 0
 2849 0134 FB1D     		adds	r3, r7, #7
 2850 0136 1B78     		ldrb	r3, [r3]
1215:Generated_Source\PSoC4/USBUART_std.c **** }
 2851              		.loc 1 1215 0
 2852 0138 1800     		movs	r0, r3
 2853 013a BD46     		mov	sp, r7
 2854 013c 03B0     		add	sp, sp, #12
 2855              		@ sp needed
 2856 013e 90BD     		pop	{r4, r7, pc}
 2857              	.L177:
 2858              		.align	2
 2859              	.L176:
 2860 0140 00002C40 		.word	1076625408
 2861 0144 00000000 		.word	USBUART_EP
 2862 0148 F0FF2B40 		.word	1076625392
 2863              		.cfi_endproc
 2864              	.LFE12:
 2865              		.size	USBUART_ClearEndpointHalt, .-USBUART_ClearEndpointHalt
 2866              		.section	.text.USBUART_ValidateAlternateSetting,"ax",%progbits
 2867              		.align	2
 2868              		.global	USBUART_ValidateAlternateSetting
 2869              		.code	16
 2870              		.thumb_func
 2871              		.type	USBUART_ValidateAlternateSetting, %function
 2872              	USBUART_ValidateAlternateSetting:
 2873              	.LFB13:
1216:Generated_Source\PSoC4/USBUART_std.c **** 
1217:Generated_Source\PSoC4/USBUART_std.c **** 
1218:Generated_Source\PSoC4/USBUART_std.c **** /*******************************************************************************
1219:Generated_Source\PSoC4/USBUART_std.c **** * Function Name: USBUART_ValidateAlternateSetting
1220:Generated_Source\PSoC4/USBUART_std.c **** ****************************************************************************//**
1221:Generated_Source\PSoC4/USBUART_std.c **** *
1222:Generated_Source\PSoC4/USBUART_std.c **** *  Validates (and records) a SET INTERFACE request.
1223:Generated_Source\PSoC4/USBUART_std.c **** *
1224:Generated_Source\PSoC4/USBUART_std.c **** * \return
1225:Generated_Source\PSoC4/USBUART_std.c **** *  requestHandled.
1226:Generated_Source\PSoC4/USBUART_std.c **** *
ARM GAS  C:\Users\HPz420\AppData\Local\Temp\cczc1snk.s 			page 75


1227:Generated_Source\PSoC4/USBUART_std.c **** * \reentrant
1228:Generated_Source\PSoC4/USBUART_std.c **** *  No.
1229:Generated_Source\PSoC4/USBUART_std.c **** *
1230:Generated_Source\PSoC4/USBUART_std.c **** *******************************************************************************/
1231:Generated_Source\PSoC4/USBUART_std.c **** uint8 USBUART_ValidateAlternateSetting(void) 
1232:Generated_Source\PSoC4/USBUART_std.c **** {
 2874              		.loc 1 1232 0
 2875              		.cfi_startproc
 2876              		@ args = 0, pretend = 0, frame = 16
 2877              		@ frame_needed = 1, uses_anonymous_args = 0
 2878 0000 80B5     		push	{r7, lr}
 2879              		.cfi_def_cfa_offset 8
 2880              		.cfi_offset 7, -8
 2881              		.cfi_offset 14, -4
 2882 0002 84B0     		sub	sp, sp, #16
 2883              		.cfi_def_cfa_offset 24
 2884 0004 00AF     		add	r7, sp, #0
 2885              		.cfi_def_cfa_register 7
1233:Generated_Source\PSoC4/USBUART_std.c ****     uint8 requestHandled = USBUART_FALSE;
 2886              		.loc 1 1233 0
 2887 0006 0F23     		movs	r3, #15
 2888 0008 FB18     		adds	r3, r7, r3
 2889 000a 0022     		movs	r2, #0
 2890 000c 1A70     		strb	r2, [r3]
1234:Generated_Source\PSoC4/USBUART_std.c ****     
1235:Generated_Source\PSoC4/USBUART_std.c ****     uint8 interfaceNum;
1236:Generated_Source\PSoC4/USBUART_std.c ****     uint8 curInterfacesNum;
1237:Generated_Source\PSoC4/USBUART_std.c ****     const T_USBUART_LUT CYCODE *pTmp;
1238:Generated_Source\PSoC4/USBUART_std.c ****     
1239:Generated_Source\PSoC4/USBUART_std.c ****     /* Get interface number from the request. */
1240:Generated_Source\PSoC4/USBUART_std.c ****     interfaceNum = (uint8) USBUART_wIndexLoReg;
 2891              		.loc 1 1240 0
 2892 000e 1F4B     		ldr	r3, .L182
 2893 0010 1A69     		ldr	r2, [r3, #16]
 2894 0012 0E23     		movs	r3, #14
 2895 0014 FB18     		adds	r3, r7, r3
 2896 0016 1A70     		strb	r2, [r3]
1241:Generated_Source\PSoC4/USBUART_std.c ****     
1242:Generated_Source\PSoC4/USBUART_std.c ****     /* Get number of interfaces for current configuration. */
1243:Generated_Source\PSoC4/USBUART_std.c ****     pTmp = USBUART_GetConfigTablePtr(USBUART_configuration - 1u);
 2897              		.loc 1 1243 0
 2898 0018 1D4B     		ldr	r3, .L182+4
 2899 001a 1B78     		ldrb	r3, [r3]
 2900 001c DBB2     		uxtb	r3, r3
 2901 001e 013B     		subs	r3, r3, #1
 2902 0020 DBB2     		uxtb	r3, r3
 2903 0022 1800     		movs	r0, r3
 2904 0024 FFF7FEFF 		bl	USBUART_GetConfigTablePtr
 2905 0028 0300     		movs	r3, r0
 2906 002a BB60     		str	r3, [r7, #8]
1244:Generated_Source\PSoC4/USBUART_std.c ****     curInterfacesNum  = ((const uint8 *) pTmp->p_list)[USBUART_CONFIG_DESCR_NUM_INTERFACES];
 2907              		.loc 1 1244 0
 2908 002c BB68     		ldr	r3, [r7, #8]
 2909 002e 5A68     		ldr	r2, [r3, #4]
 2910 0030 FB1D     		adds	r3, r7, #7
 2911 0032 1279     		ldrb	r2, [r2, #4]
 2912 0034 1A70     		strb	r2, [r3]
ARM GAS  C:\Users\HPz420\AppData\Local\Temp\cczc1snk.s 			page 76


1245:Generated_Source\PSoC4/USBUART_std.c **** 
1246:Generated_Source\PSoC4/USBUART_std.c ****     /* Validate that interface number is within range. */
1247:Generated_Source\PSoC4/USBUART_std.c ****     if ((interfaceNum <= curInterfacesNum) || (interfaceNum <= USBUART_MAX_INTERFACES_NUMBER))
 2913              		.loc 1 1247 0
 2914 0036 0E23     		movs	r3, #14
 2915 0038 FA18     		adds	r2, r7, r3
 2916 003a FB1D     		adds	r3, r7, #7
 2917 003c 1278     		ldrb	r2, [r2]
 2918 003e 1B78     		ldrb	r3, [r3]
 2919 0040 9A42     		cmp	r2, r3
 2920 0042 04D9     		bls	.L179
 2921              		.loc 1 1247 0 is_stmt 0 discriminator 1
 2922 0044 0E23     		movs	r3, #14
 2923 0046 FB18     		adds	r3, r7, r3
 2924 0048 1B78     		ldrb	r3, [r3]
 2925 004a 022B     		cmp	r3, #2
 2926 004c 16D8     		bhi	.L180
 2927              	.L179:
1248:Generated_Source\PSoC4/USBUART_std.c ****     {
1249:Generated_Source\PSoC4/USBUART_std.c ****         /* Save current and new alternate settings (come with request) to make 
1250:Generated_Source\PSoC4/USBUART_std.c ****         * desicion about following endpoint re-configuration.
1251:Generated_Source\PSoC4/USBUART_std.c ****         */
1252:Generated_Source\PSoC4/USBUART_std.c ****         USBUART_interfaceSettingLast[interfaceNum] = USBUART_interfaceSetting[interfaceNum];
 2928              		.loc 1 1252 0 is_stmt 1
 2929 004e 0E23     		movs	r3, #14
 2930 0050 FB18     		adds	r3, r7, r3
 2931 0052 1B78     		ldrb	r3, [r3]
 2932 0054 0E22     		movs	r2, #14
 2933 0056 BA18     		adds	r2, r7, r2
 2934 0058 1278     		ldrb	r2, [r2]
 2935 005a 0E49     		ldr	r1, .L182+8
 2936 005c 8A5C     		ldrb	r2, [r1, r2]
 2937 005e D1B2     		uxtb	r1, r2
 2938 0060 0D4A     		ldr	r2, .L182+12
 2939 0062 D154     		strb	r1, [r2, r3]
1253:Generated_Source\PSoC4/USBUART_std.c ****         USBUART_interfaceSetting[interfaceNum]     = (uint8) USBUART_wValueLoReg;
 2940              		.loc 1 1253 0
 2941 0064 0E23     		movs	r3, #14
 2942 0066 FB18     		adds	r3, r7, r3
 2943 0068 1A78     		ldrb	r2, [r3]
 2944 006a 084B     		ldr	r3, .L182
 2945 006c 9B68     		ldr	r3, [r3, #8]
 2946 006e D9B2     		uxtb	r1, r3
 2947 0070 084B     		ldr	r3, .L182+8
 2948 0072 9954     		strb	r1, [r3, r2]
1254:Generated_Source\PSoC4/USBUART_std.c ****         
1255:Generated_Source\PSoC4/USBUART_std.c ****         requestHandled = USBUART_TRUE;
 2949              		.loc 1 1255 0
 2950 0074 0F23     		movs	r3, #15
 2951 0076 FB18     		adds	r3, r7, r3
 2952 0078 0122     		movs	r2, #1
 2953 007a 1A70     		strb	r2, [r3]
 2954              	.L180:
1256:Generated_Source\PSoC4/USBUART_std.c ****     }
1257:Generated_Source\PSoC4/USBUART_std.c **** 
1258:Generated_Source\PSoC4/USBUART_std.c ****     return (requestHandled);
 2955              		.loc 1 1258 0
ARM GAS  C:\Users\HPz420\AppData\Local\Temp\cczc1snk.s 			page 77


 2956 007c 0F23     		movs	r3, #15
 2957 007e FB18     		adds	r3, r7, r3
 2958 0080 1B78     		ldrb	r3, [r3]
1259:Generated_Source\PSoC4/USBUART_std.c **** }
 2959              		.loc 1 1259 0
 2960 0082 1800     		movs	r0, r3
 2961 0084 BD46     		mov	sp, r7
 2962 0086 04B0     		add	sp, sp, #16
 2963              		@ sp needed
 2964 0088 80BD     		pop	{r7, pc}
 2965              	.L183:
 2966 008a C046     		.align	2
 2967              	.L182:
 2968 008c 00002C40 		.word	1076625408
 2969 0090 00000000 		.word	USBUART_configuration
 2970 0094 00000000 		.word	USBUART_interfaceSetting
 2971 0098 00000000 		.word	USBUART_interfaceSettingLast
 2972              		.cfi_endproc
 2973              	.LFE13:
 2974              		.size	USBUART_ValidateAlternateSetting, .-USBUART_ValidateAlternateSetting
 2975              		.bss
 2976              		.align	2
 2977              	USBUART_tBuffer.5254:
 2978 0000 0000     		.space	2
 2979              		.text
 2980              	.Letext0:
 2981              		.file 2 "Generated_Source\\PSoC4\\cytypes.h"
 2982              		.file 3 "Generated_Source\\PSoC4\\USBUART.h"
 2983              		.file 4 "Generated_Source\\PSoC4\\USBUART_pvt.h"