ARM GAS  C:\Users\DGILLI~1\AppData\Local\Temp\ccMpodsP.s 			page 1


   1              		.syntax unified
   2              		.cpu cortex-m3
   3              		.fpu softvfp
   4              		.eabi_attribute 20, 1
   5              		.eabi_attribute 21, 1
   6              		.eabi_attribute 23, 3
   7              		.eabi_attribute 24, 1
   8              		.eabi_attribute 25, 1
   9              		.eabi_attribute 26, 1
  10              		.eabi_attribute 30, 1
  11              		.eabi_attribute 34, 1
  12              		.eabi_attribute 18, 4
  13              		.thumb
  14              		.file	"cyfitter_cfg.c"
  15              		.text
  16              	.Ltext0:
  17              		.cfi_sections	.debug_frame
  18              		.section	.text.CyClockStartupError,"ax",%progbits
  19              		.align	2
  20              		.thumb
  21              		.thumb_func
  22              		.type	CyClockStartupError, %function
  23              	CyClockStartupError:
  24              	.LFB3:
  25              		.file 1 ".\\Generated_Source\\PSoC5\\cyfitter_cfg.c"
   1:.\Generated_Source\PSoC5/cyfitter_cfg.c **** /*******************************************************************************
   2:.\Generated_Source\PSoC5/cyfitter_cfg.c **** * File Name: cyfitter_cfg.c
   3:.\Generated_Source\PSoC5/cyfitter_cfg.c **** * 
   4:.\Generated_Source\PSoC5/cyfitter_cfg.c **** * PSoC Creator  3.3
   5:.\Generated_Source\PSoC5/cyfitter_cfg.c **** *
   6:.\Generated_Source\PSoC5/cyfitter_cfg.c **** * Description:
   7:.\Generated_Source\PSoC5/cyfitter_cfg.c **** * This file contains device initialization code.
   8:.\Generated_Source\PSoC5/cyfitter_cfg.c **** * Except for the user defined sections in CyClockStartupError(), this file should not be modified.
   9:.\Generated_Source\PSoC5/cyfitter_cfg.c **** * This file is automatically generated by PSoC Creator.
  10:.\Generated_Source\PSoC5/cyfitter_cfg.c **** *
  11:.\Generated_Source\PSoC5/cyfitter_cfg.c **** ********************************************************************************
  12:.\Generated_Source\PSoC5/cyfitter_cfg.c **** * Copyright (c) 2007-2015 Cypress Semiconductor.  All rights reserved.
  13:.\Generated_Source\PSoC5/cyfitter_cfg.c **** * You may use this file only in accordance with the license, terms, conditions, 
  14:.\Generated_Source\PSoC5/cyfitter_cfg.c **** * disclaimers, and limitations in the end user license agreement accompanying 
  15:.\Generated_Source\PSoC5/cyfitter_cfg.c **** * the software package with which this file was provided.
  16:.\Generated_Source\PSoC5/cyfitter_cfg.c **** ********************************************************************************/
  17:.\Generated_Source\PSoC5/cyfitter_cfg.c **** 
  18:.\Generated_Source\PSoC5/cyfitter_cfg.c **** #include <string.h>
  19:.\Generated_Source\PSoC5/cyfitter_cfg.c **** #include "cytypes.h"
  20:.\Generated_Source\PSoC5/cyfitter_cfg.c **** #include "cydevice_trm.h"
  21:.\Generated_Source\PSoC5/cyfitter_cfg.c **** #include "cyfitter.h"
  22:.\Generated_Source\PSoC5/cyfitter_cfg.c **** #include "CyLib.h"
  23:.\Generated_Source\PSoC5/cyfitter_cfg.c **** #include "cyfitter_cfg.h"
  24:.\Generated_Source\PSoC5/cyfitter_cfg.c **** 
  25:.\Generated_Source\PSoC5/cyfitter_cfg.c **** #define CY_NEED_CYCLOCKSTARTUPERROR 1
  26:.\Generated_Source\PSoC5/cyfitter_cfg.c **** 
  27:.\Generated_Source\PSoC5/cyfitter_cfg.c **** 
  28:.\Generated_Source\PSoC5/cyfitter_cfg.c **** #if defined(__GNUC__) || defined(__ARMCC_VERSION)
  29:.\Generated_Source\PSoC5/cyfitter_cfg.c ****     #define CYPACKED 
  30:.\Generated_Source\PSoC5/cyfitter_cfg.c ****     #define CYPACKED_ATTR __attribute__ ((packed))
  31:.\Generated_Source\PSoC5/cyfitter_cfg.c ****     #define CYALIGNED __attribute__ ((aligned))
  32:.\Generated_Source\PSoC5/cyfitter_cfg.c ****     #define CY_CFG_UNUSED __attribute__ ((unused))
ARM GAS  C:\Users\DGILLI~1\AppData\Local\Temp\ccMpodsP.s 			page 2


  33:.\Generated_Source\PSoC5/cyfitter_cfg.c ****     #define CY_CFG_SECTION __attribute__ ((section(".psocinit")))
  34:.\Generated_Source\PSoC5/cyfitter_cfg.c ****     
  35:.\Generated_Source\PSoC5/cyfitter_cfg.c ****     #if defined(__ARMCC_VERSION)
  36:.\Generated_Source\PSoC5/cyfitter_cfg.c ****         #define CY_CFG_MEMORY_BARRIER() __memory_changed()
  37:.\Generated_Source\PSoC5/cyfitter_cfg.c ****     #else
  38:.\Generated_Source\PSoC5/cyfitter_cfg.c ****         #define CY_CFG_MEMORY_BARRIER() __sync_synchronize()
  39:.\Generated_Source\PSoC5/cyfitter_cfg.c ****     #endif
  40:.\Generated_Source\PSoC5/cyfitter_cfg.c ****     
  41:.\Generated_Source\PSoC5/cyfitter_cfg.c **** #elif defined(__ICCARM__)
  42:.\Generated_Source\PSoC5/cyfitter_cfg.c ****     #include <intrinsics.h>
  43:.\Generated_Source\PSoC5/cyfitter_cfg.c **** 
  44:.\Generated_Source\PSoC5/cyfitter_cfg.c ****     #define CYPACKED __packed
  45:.\Generated_Source\PSoC5/cyfitter_cfg.c ****     #define CYPACKED_ATTR 
  46:.\Generated_Source\PSoC5/cyfitter_cfg.c ****     #define CYALIGNED _Pragma("data_alignment=4")
  47:.\Generated_Source\PSoC5/cyfitter_cfg.c ****     #define CY_CFG_UNUSED _Pragma("diag_suppress=Pe177")
  48:.\Generated_Source\PSoC5/cyfitter_cfg.c ****     #define CY_CFG_SECTION _Pragma("location=\".psocinit\"")
  49:.\Generated_Source\PSoC5/cyfitter_cfg.c ****     
  50:.\Generated_Source\PSoC5/cyfitter_cfg.c ****     #define CY_CFG_MEMORY_BARRIER() __DMB()
  51:.\Generated_Source\PSoC5/cyfitter_cfg.c ****     
  52:.\Generated_Source\PSoC5/cyfitter_cfg.c **** #else
  53:.\Generated_Source\PSoC5/cyfitter_cfg.c ****     #error Unsupported toolchain
  54:.\Generated_Source\PSoC5/cyfitter_cfg.c **** #endif
  55:.\Generated_Source\PSoC5/cyfitter_cfg.c **** 
  56:.\Generated_Source\PSoC5/cyfitter_cfg.c **** 
  57:.\Generated_Source\PSoC5/cyfitter_cfg.c **** CY_CFG_UNUSED
  58:.\Generated_Source\PSoC5/cyfitter_cfg.c **** static void CYMEMZERO(void *s, size_t n);
  59:.\Generated_Source\PSoC5/cyfitter_cfg.c **** CY_CFG_UNUSED
  60:.\Generated_Source\PSoC5/cyfitter_cfg.c **** static void CYMEMZERO(void *s, size_t n)
  61:.\Generated_Source\PSoC5/cyfitter_cfg.c **** {
  62:.\Generated_Source\PSoC5/cyfitter_cfg.c **** 	(void)memset(s, 0, n);
  63:.\Generated_Source\PSoC5/cyfitter_cfg.c **** }
  64:.\Generated_Source\PSoC5/cyfitter_cfg.c **** CY_CFG_UNUSED
  65:.\Generated_Source\PSoC5/cyfitter_cfg.c **** static void CYCONFIGCPY(void *dest, const void *src, size_t n);
  66:.\Generated_Source\PSoC5/cyfitter_cfg.c **** CY_CFG_UNUSED
  67:.\Generated_Source\PSoC5/cyfitter_cfg.c **** static void CYCONFIGCPY(void *dest, const void *src, size_t n)
  68:.\Generated_Source\PSoC5/cyfitter_cfg.c **** {
  69:.\Generated_Source\PSoC5/cyfitter_cfg.c **** 	(void)memcpy(dest, src, n);
  70:.\Generated_Source\PSoC5/cyfitter_cfg.c **** }
  71:.\Generated_Source\PSoC5/cyfitter_cfg.c **** CY_CFG_UNUSED
  72:.\Generated_Source\PSoC5/cyfitter_cfg.c **** static void CYCONFIGCPYCODE(void *dest, const void *src, size_t n);
  73:.\Generated_Source\PSoC5/cyfitter_cfg.c **** CY_CFG_UNUSED
  74:.\Generated_Source\PSoC5/cyfitter_cfg.c **** static void CYCONFIGCPYCODE(void *dest, const void *src, size_t n)
  75:.\Generated_Source\PSoC5/cyfitter_cfg.c **** {
  76:.\Generated_Source\PSoC5/cyfitter_cfg.c **** 	(void)memcpy(dest, src, n);
  77:.\Generated_Source\PSoC5/cyfitter_cfg.c **** }
  78:.\Generated_Source\PSoC5/cyfitter_cfg.c **** 
  79:.\Generated_Source\PSoC5/cyfitter_cfg.c **** 
  80:.\Generated_Source\PSoC5/cyfitter_cfg.c **** 
  81:.\Generated_Source\PSoC5/cyfitter_cfg.c **** /* Clock startup error codes                                                   */
  82:.\Generated_Source\PSoC5/cyfitter_cfg.c **** #define CYCLOCKSTART_NO_ERROR    0u
  83:.\Generated_Source\PSoC5/cyfitter_cfg.c **** #define CYCLOCKSTART_XTAL_ERROR  1u
  84:.\Generated_Source\PSoC5/cyfitter_cfg.c **** #define CYCLOCKSTART_32KHZ_ERROR 2u
  85:.\Generated_Source\PSoC5/cyfitter_cfg.c **** #define CYCLOCKSTART_PLL_ERROR   3u
  86:.\Generated_Source\PSoC5/cyfitter_cfg.c **** 
  87:.\Generated_Source\PSoC5/cyfitter_cfg.c **** #ifdef CY_NEED_CYCLOCKSTARTUPERROR
  88:.\Generated_Source\PSoC5/cyfitter_cfg.c **** /*******************************************************************************
  89:.\Generated_Source\PSoC5/cyfitter_cfg.c **** * Function Name: CyClockStartupError
ARM GAS  C:\Users\DGILLI~1\AppData\Local\Temp\ccMpodsP.s 			page 3


  90:.\Generated_Source\PSoC5/cyfitter_cfg.c **** ********************************************************************************
  91:.\Generated_Source\PSoC5/cyfitter_cfg.c **** * Summary:
  92:.\Generated_Source\PSoC5/cyfitter_cfg.c **** *  If an error is encountered during clock configuration (crystal startup error,
  93:.\Generated_Source\PSoC5/cyfitter_cfg.c **** *  PLL lock error, etc.), the system will end up here.  Unless reimplemented by
  94:.\Generated_Source\PSoC5/cyfitter_cfg.c **** *  the customer, this function will stop in an infinite loop.
  95:.\Generated_Source\PSoC5/cyfitter_cfg.c **** *
  96:.\Generated_Source\PSoC5/cyfitter_cfg.c **** * Parameters:
  97:.\Generated_Source\PSoC5/cyfitter_cfg.c **** *   void
  98:.\Generated_Source\PSoC5/cyfitter_cfg.c **** *
  99:.\Generated_Source\PSoC5/cyfitter_cfg.c **** * Return:
 100:.\Generated_Source\PSoC5/cyfitter_cfg.c **** *   void
 101:.\Generated_Source\PSoC5/cyfitter_cfg.c **** *
 102:.\Generated_Source\PSoC5/cyfitter_cfg.c **** *******************************************************************************/
 103:.\Generated_Source\PSoC5/cyfitter_cfg.c **** CY_CFG_UNUSED
 104:.\Generated_Source\PSoC5/cyfitter_cfg.c **** static void CyClockStartupError(uint8 errorCode);
 105:.\Generated_Source\PSoC5/cyfitter_cfg.c **** CY_CFG_UNUSED
 106:.\Generated_Source\PSoC5/cyfitter_cfg.c **** static void CyClockStartupError(uint8 errorCode)
 107:.\Generated_Source\PSoC5/cyfitter_cfg.c **** {
  26              		.loc 1 107 0
  27              		.cfi_startproc
  28              		@ Volatile: function does not return.
  29              		@ args = 0, pretend = 0, frame = 0
  30              		@ frame_needed = 0, uses_anonymous_args = 0
  31              		@ link register save eliminated.
  32              	.LVL0:
  33              	.L2:
 108:.\Generated_Source\PSoC5/cyfitter_cfg.c ****     /* To remove the compiler warning if errorCode not used.                */
 109:.\Generated_Source\PSoC5/cyfitter_cfg.c ****     errorCode = errorCode;
 110:.\Generated_Source\PSoC5/cyfitter_cfg.c **** 
 111:.\Generated_Source\PSoC5/cyfitter_cfg.c ****     /* `#START CyClockStartupError` */
 112:.\Generated_Source\PSoC5/cyfitter_cfg.c **** 
 113:.\Generated_Source\PSoC5/cyfitter_cfg.c ****     /* If we have a clock startup error (bad MHz crystal, PLL lock, etc.),  */
 114:.\Generated_Source\PSoC5/cyfitter_cfg.c ****     /* we will end up here to allow the customer to implement something to  */
 115:.\Generated_Source\PSoC5/cyfitter_cfg.c ****     /* deal with the clock condition.                                       */
 116:.\Generated_Source\PSoC5/cyfitter_cfg.c **** 
 117:.\Generated_Source\PSoC5/cyfitter_cfg.c ****     /* `#END` */
 118:.\Generated_Source\PSoC5/cyfitter_cfg.c **** 
 119:.\Generated_Source\PSoC5/cyfitter_cfg.c ****     /* If nothing else, stop here since the clocks have not started         */
 120:.\Generated_Source\PSoC5/cyfitter_cfg.c ****     /* correctly.                                                           */
 121:.\Generated_Source\PSoC5/cyfitter_cfg.c ****     while(1) {}
  34              		.loc 1 121 0 discriminator 1
  35 0000 FEE7     		b	.L2
  36              		.cfi_endproc
  37              	.LFE3:
  38              		.size	CyClockStartupError, .-CyClockStartupError
  39 0002 00BF     		.section	.text.cfg_write_bytes32,"ax",%progbits
  40              		.align	2
  41              		.thumb
  42              		.thumb_func
  43              		.type	cfg_write_bytes32, %function
  44              	cfg_write_bytes32:
  45              	.LFB4:
 122:.\Generated_Source\PSoC5/cyfitter_cfg.c **** }
 123:.\Generated_Source\PSoC5/cyfitter_cfg.c **** #endif
 124:.\Generated_Source\PSoC5/cyfitter_cfg.c **** 
 125:.\Generated_Source\PSoC5/cyfitter_cfg.c **** #define CY_CFG_BASE_ADDR_COUNT 17u
 126:.\Generated_Source\PSoC5/cyfitter_cfg.c **** CYPACKED typedef struct
ARM GAS  C:\Users\DGILLI~1\AppData\Local\Temp\ccMpodsP.s 			page 4


 127:.\Generated_Source\PSoC5/cyfitter_cfg.c **** {
 128:.\Generated_Source\PSoC5/cyfitter_cfg.c **** 	uint8 offset;
 129:.\Generated_Source\PSoC5/cyfitter_cfg.c **** 	uint8 value;
 130:.\Generated_Source\PSoC5/cyfitter_cfg.c **** } CYPACKED_ATTR cy_cfg_addrvalue_t;
 131:.\Generated_Source\PSoC5/cyfitter_cfg.c **** 
 132:.\Generated_Source\PSoC5/cyfitter_cfg.c **** #define cy_cfg_addr_table ((const uint32 CYFAR *)0x48000000u)
 133:.\Generated_Source\PSoC5/cyfitter_cfg.c **** #define cy_cfg_data_table ((const cy_cfg_addrvalue_t CYFAR *)0x48000044u)
 134:.\Generated_Source\PSoC5/cyfitter_cfg.c **** 
 135:.\Generated_Source\PSoC5/cyfitter_cfg.c **** /* IOPINS0_0 Address: CYREG_PRT0_DM0 Size (bytes): 8 */
 136:.\Generated_Source\PSoC5/cyfitter_cfg.c **** #define BS_IOPINS0_0_VAL ((const uint8 CYFAR *)0x48000098u)
 137:.\Generated_Source\PSoC5/cyfitter_cfg.c **** 
 138:.\Generated_Source\PSoC5/cyfitter_cfg.c **** /* IOPINS0_3 Address: CYREG_PRT3_DM0 Size (bytes): 8 */
 139:.\Generated_Source\PSoC5/cyfitter_cfg.c **** #define BS_IOPINS0_3_VAL ((const uint8 CYFAR *)0x480000A0u)
 140:.\Generated_Source\PSoC5/cyfitter_cfg.c **** 
 141:.\Generated_Source\PSoC5/cyfitter_cfg.c **** 
 142:.\Generated_Source\PSoC5/cyfitter_cfg.c **** /*******************************************************************************
 143:.\Generated_Source\PSoC5/cyfitter_cfg.c **** * Function Name: cfg_write_bytes32
 144:.\Generated_Source\PSoC5/cyfitter_cfg.c **** ********************************************************************************
 145:.\Generated_Source\PSoC5/cyfitter_cfg.c **** * Summary:
 146:.\Generated_Source\PSoC5/cyfitter_cfg.c **** *  This function is used for setting up the chip configuration areas that
 147:.\Generated_Source\PSoC5/cyfitter_cfg.c **** *  contain relatively sparse data.
 148:.\Generated_Source\PSoC5/cyfitter_cfg.c **** *
 149:.\Generated_Source\PSoC5/cyfitter_cfg.c **** * Parameters:
 150:.\Generated_Source\PSoC5/cyfitter_cfg.c **** *   void
 151:.\Generated_Source\PSoC5/cyfitter_cfg.c **** *
 152:.\Generated_Source\PSoC5/cyfitter_cfg.c **** * Return:
 153:.\Generated_Source\PSoC5/cyfitter_cfg.c **** *   void
 154:.\Generated_Source\PSoC5/cyfitter_cfg.c **** *
 155:.\Generated_Source\PSoC5/cyfitter_cfg.c **** *******************************************************************************/
 156:.\Generated_Source\PSoC5/cyfitter_cfg.c **** static void cfg_write_bytes32(const uint32 addr_table[], const cy_cfg_addrvalue_t data_table[]);
 157:.\Generated_Source\PSoC5/cyfitter_cfg.c **** static void cfg_write_bytes32(const uint32 addr_table[], const cy_cfg_addrvalue_t data_table[])
 158:.\Generated_Source\PSoC5/cyfitter_cfg.c **** {
  46              		.loc 1 158 0
  47              		.cfi_startproc
  48              		@ args = 0, pretend = 0, frame = 0
  49              		@ frame_needed = 0, uses_anonymous_args = 0
  50              		@ link register save eliminated.
  51              	.LVL1:
  52 0000 F0B4     		push	{r4, r5, r6, r7}
  53              		.cfi_def_cfa_offset 16
  54              		.cfi_offset 4, -16
  55              		.cfi_offset 5, -12
  56              		.cfi_offset 6, -8
  57              		.cfi_offset 7, -4
  58              	.LVL2:
 159:.\Generated_Source\PSoC5/cyfitter_cfg.c **** 	/* For 32-bit little-endian architectures */
 160:.\Generated_Source\PSoC5/cyfitter_cfg.c **** 	uint32 i, j = 0u;
  59              		.loc 1 160 0
  60 0002 0022     		movs	r2, #0
 161:.\Generated_Source\PSoC5/cyfitter_cfg.c **** 	for (i = 0u; i < CY_CFG_BASE_ADDR_COUNT; i++)
  61              		.loc 1 161 0
  62 0004 1746     		mov	r7, r2
  63 0006 11E0     		b	.L4
  64              	.LVL3:
  65              	.L7:
  66              	.LBB2:
 162:.\Generated_Source\PSoC5/cyfitter_cfg.c **** 	{
ARM GAS  C:\Users\DGILLI~1\AppData\Local\Temp\ccMpodsP.s 			page 5


 163:.\Generated_Source\PSoC5/cyfitter_cfg.c **** 		uint32 baseAddr = addr_table[i];
  67              		.loc 1 163 0
  68 0008 50F82760 		ldr	r6, [r0, r7, lsl #2]
  69              	.LVL4:
 164:.\Generated_Source\PSoC5/cyfitter_cfg.c **** 		uint8 count = (uint8)baseAddr;
  70              		.loc 1 164 0
  71 000c F3B2     		uxtb	r3, r6
  72              	.LVL5:
 165:.\Generated_Source\PSoC5/cyfitter_cfg.c **** 		baseAddr &= 0xFFFFFF00u;
  73              		.loc 1 165 0
  74 000e 26F0FF06 		bic	r6, r6, #255
  75              	.LVL6:
 166:.\Generated_Source\PSoC5/cyfitter_cfg.c **** 		while (count != 0u)
  76              		.loc 1 166 0
  77 0012 08E0     		b	.L5
  78              	.L6:
 167:.\Generated_Source\PSoC5/cyfitter_cfg.c **** 		{
 168:.\Generated_Source\PSoC5/cyfitter_cfg.c **** 			CY_SET_XTND_REG8((void CYFAR *)(baseAddr + data_table[j].offset), data_table[j].value);
  79              		.loc 1 168 0
  80 0014 01EB4205 		add	r5, r1, r2, lsl #1
  81 0018 11F81240 		ldrb	r4, [r1, r2, lsl #1]	@ zero_extendqisi2
  82 001c 6D78     		ldrb	r5, [r5, #1]	@ zero_extendqisi2
  83 001e A555     		strb	r5, [r4, r6]
 169:.\Generated_Source\PSoC5/cyfitter_cfg.c **** 			j++;
  84              		.loc 1 169 0
  85 0020 0132     		adds	r2, r2, #1
  86              	.LVL7:
 170:.\Generated_Source\PSoC5/cyfitter_cfg.c **** 			count--;
  87              		.loc 1 170 0
  88 0022 013B     		subs	r3, r3, #1
  89              	.LVL8:
  90 0024 DBB2     		uxtb	r3, r3
  91              	.LVL9:
  92              	.L5:
 166:.\Generated_Source\PSoC5/cyfitter_cfg.c **** 		{
  93              		.loc 1 166 0
  94 0026 002B     		cmp	r3, #0
  95 0028 F4D1     		bne	.L6
  96              	.LBE2:
 161:.\Generated_Source\PSoC5/cyfitter_cfg.c **** 	{
  97              		.loc 1 161 0 discriminator 2
  98 002a 0137     		adds	r7, r7, #1
  99              	.LVL10:
 100              	.L4:
 161:.\Generated_Source\PSoC5/cyfitter_cfg.c **** 	{
 101              		.loc 1 161 0 is_stmt 0 discriminator 1
 102 002c 102F     		cmp	r7, #16
 103 002e EBD9     		bls	.L7
 171:.\Generated_Source\PSoC5/cyfitter_cfg.c **** 		}
 172:.\Generated_Source\PSoC5/cyfitter_cfg.c **** 	}
 173:.\Generated_Source\PSoC5/cyfitter_cfg.c **** }
 104              		.loc 1 173 0 is_stmt 1
 105 0030 F0BC     		pop	{r4, r5, r6, r7}
 106              		.cfi_restore 7
 107              		.cfi_restore 6
 108              		.cfi_restore 5
 109              		.cfi_restore 4
ARM GAS  C:\Users\DGILLI~1\AppData\Local\Temp\ccMpodsP.s 			page 6


 110              		.cfi_def_cfa_offset 0
 111              	.LVL11:
 112 0032 7047     		bx	lr
 113              		.cfi_endproc
 114              	.LFE4:
 115              		.size	cfg_write_bytes32, .-cfg_write_bytes32
 116              		.section	.text.AnalogSetDefault,"ax",%progbits
 117              		.align	2
 118              		.thumb
 119              		.thumb_func
 120              		.type	AnalogSetDefault, %function
 121              	AnalogSetDefault:
 122              	.LFB6:
 174:.\Generated_Source\PSoC5/cyfitter_cfg.c **** 
 175:.\Generated_Source\PSoC5/cyfitter_cfg.c **** /*******************************************************************************
 176:.\Generated_Source\PSoC5/cyfitter_cfg.c **** * Function Name: ClockSetup
 177:.\Generated_Source\PSoC5/cyfitter_cfg.c **** ********************************************************************************
 178:.\Generated_Source\PSoC5/cyfitter_cfg.c **** *
 179:.\Generated_Source\PSoC5/cyfitter_cfg.c **** * Summary:
 180:.\Generated_Source\PSoC5/cyfitter_cfg.c **** *  Performs the initialization of all of the clocks in the device based on the
 181:.\Generated_Source\PSoC5/cyfitter_cfg.c **** *  settings in the Clock tab of the DWR.  This includes enabling the requested
 182:.\Generated_Source\PSoC5/cyfitter_cfg.c **** *  clocks and setting the necessary dividers to produce the desired frequency. 
 183:.\Generated_Source\PSoC5/cyfitter_cfg.c **** *
 184:.\Generated_Source\PSoC5/cyfitter_cfg.c **** * Parameters:
 185:.\Generated_Source\PSoC5/cyfitter_cfg.c **** *  void
 186:.\Generated_Source\PSoC5/cyfitter_cfg.c **** *
 187:.\Generated_Source\PSoC5/cyfitter_cfg.c **** * Return:
 188:.\Generated_Source\PSoC5/cyfitter_cfg.c **** *  void
 189:.\Generated_Source\PSoC5/cyfitter_cfg.c **** *
 190:.\Generated_Source\PSoC5/cyfitter_cfg.c **** *******************************************************************************/
 191:.\Generated_Source\PSoC5/cyfitter_cfg.c **** static void ClockSetup(void);
 192:.\Generated_Source\PSoC5/cyfitter_cfg.c **** static void ClockSetup(void)
 193:.\Generated_Source\PSoC5/cyfitter_cfg.c **** {
 194:.\Generated_Source\PSoC5/cyfitter_cfg.c **** 	uint32 timeout;
 195:.\Generated_Source\PSoC5/cyfitter_cfg.c **** 	uint8 pllLock;
 196:.\Generated_Source\PSoC5/cyfitter_cfg.c **** 
 197:.\Generated_Source\PSoC5/cyfitter_cfg.c **** 
 198:.\Generated_Source\PSoC5/cyfitter_cfg.c **** 	/* Configure Digital Clocks based on settings from Clock DWR */
 199:.\Generated_Source\PSoC5/cyfitter_cfg.c **** 	CY_SET_XTND_REG16((void CYFAR *)(CYREG_CLKDIST_DCFG0_CFG0), 0x0001u);
 200:.\Generated_Source\PSoC5/cyfitter_cfg.c **** 	CY_SET_XTND_REG8((void CYFAR *)(CYREG_CLKDIST_DCFG0_CFG0 + 0x2u), 0x18u);
 201:.\Generated_Source\PSoC5/cyfitter_cfg.c **** 	CY_SET_XTND_REG16((void CYFAR *)(CYREG_CLKDIST_DCFG1_CFG0), 0x00EFu);
 202:.\Generated_Source\PSoC5/cyfitter_cfg.c **** 	CY_SET_XTND_REG8((void CYFAR *)(CYREG_CLKDIST_DCFG1_CFG0 + 0x2u), 0x18u);
 203:.\Generated_Source\PSoC5/cyfitter_cfg.c **** 
 204:.\Generated_Source\PSoC5/cyfitter_cfg.c **** 	/* Configure ILO based on settings from Clock DWR */
 205:.\Generated_Source\PSoC5/cyfitter_cfg.c **** 	CY_SET_XTND_REG8((void CYFAR *)(CYREG_SLOWCLK_ILO_CR0), 0x02u);
 206:.\Generated_Source\PSoC5/cyfitter_cfg.c **** 	CY_SET_XTND_REG8((void CYFAR *)(CYREG_CLKDIST_CR), 0x08u);
 207:.\Generated_Source\PSoC5/cyfitter_cfg.c **** 
 208:.\Generated_Source\PSoC5/cyfitter_cfg.c **** 	/* Configure IMO based on settings from Clock DWR */
 209:.\Generated_Source\PSoC5/cyfitter_cfg.c **** 	CY_SET_XTND_REG8((void CYFAR *)(CYREG_FASTCLK_IMO_CR), 0x03u);
 210:.\Generated_Source\PSoC5/cyfitter_cfg.c **** 	CY_SET_XTND_REG8((void CYFAR *)(CYREG_IMO_TR1), (CY_GET_XTND_REG8((void CYFAR *)CYREG_FLSHID_CUST_
 211:.\Generated_Source\PSoC5/cyfitter_cfg.c **** 
 212:.\Generated_Source\PSoC5/cyfitter_cfg.c **** 	/* Configure PLL based on settings from Clock DWR */
 213:.\Generated_Source\PSoC5/cyfitter_cfg.c **** 	CY_SET_XTND_REG16((void CYFAR *)(CYREG_FASTCLK_PLL_P), 0x0008u);
 214:.\Generated_Source\PSoC5/cyfitter_cfg.c **** 	CY_SET_XTND_REG16((void CYFAR *)(CYREG_FASTCLK_PLL_CFG0), 0x1251u);
 215:.\Generated_Source\PSoC5/cyfitter_cfg.c **** 	/* Wait up to 250us for the PLL to lock */
 216:.\Generated_Source\PSoC5/cyfitter_cfg.c **** 	pllLock = 0u;
 217:.\Generated_Source\PSoC5/cyfitter_cfg.c **** 	for (timeout = 250u / 10u; (timeout > 0u) && (pllLock != 0x03u); timeout--)
ARM GAS  C:\Users\DGILLI~1\AppData\Local\Temp\ccMpodsP.s 			page 7


 218:.\Generated_Source\PSoC5/cyfitter_cfg.c **** 	{ 
 219:.\Generated_Source\PSoC5/cyfitter_cfg.c **** 		pllLock = 0x03u & ((uint8)((uint8)pllLock << 1) | ((CY_GET_XTND_REG8((void CYFAR *)CYREG_FASTCLK_
 220:.\Generated_Source\PSoC5/cyfitter_cfg.c **** 		CyDelayCycles(10u * 48u); /* Delay 10us based on 48MHz clock */
 221:.\Generated_Source\PSoC5/cyfitter_cfg.c **** 	}
 222:.\Generated_Source\PSoC5/cyfitter_cfg.c **** 	/* If we ran out of time the PLL didn't lock so go to the error function */
 223:.\Generated_Source\PSoC5/cyfitter_cfg.c **** 	if (timeout == 0u)
 224:.\Generated_Source\PSoC5/cyfitter_cfg.c **** 	{
 225:.\Generated_Source\PSoC5/cyfitter_cfg.c **** 		CyClockStartupError(CYCLOCKSTART_PLL_ERROR);
 226:.\Generated_Source\PSoC5/cyfitter_cfg.c **** 	}
 227:.\Generated_Source\PSoC5/cyfitter_cfg.c **** 
 228:.\Generated_Source\PSoC5/cyfitter_cfg.c **** 	/* Configure Bus/Master Clock based on settings from Clock DWR */
 229:.\Generated_Source\PSoC5/cyfitter_cfg.c **** 	CY_SET_XTND_REG16((void CYFAR *)(CYREG_CLKDIST_MSTR0), 0x0100u);
 230:.\Generated_Source\PSoC5/cyfitter_cfg.c **** 	CY_SET_XTND_REG8((void CYFAR *)(CYREG_CLKDIST_MSTR0), 0x07u);
 231:.\Generated_Source\PSoC5/cyfitter_cfg.c **** 	CY_SET_XTND_REG8((void CYFAR *)(CYREG_CLKDIST_BCFG0), 0x00u);
 232:.\Generated_Source\PSoC5/cyfitter_cfg.c **** 	CY_SET_XTND_REG8((void CYFAR *)(CYREG_CLKDIST_BCFG2), 0x48u);
 233:.\Generated_Source\PSoC5/cyfitter_cfg.c **** 	CY_SET_XTND_REG8((void CYFAR *)(CYREG_CLKDIST_MSTR0), 0x00u);
 234:.\Generated_Source\PSoC5/cyfitter_cfg.c **** 	CY_SET_XTND_REG8((void CYFAR *)(CYREG_CLKDIST_LD), 0x02u);
 235:.\Generated_Source\PSoC5/cyfitter_cfg.c **** 
 236:.\Generated_Source\PSoC5/cyfitter_cfg.c **** 	CY_SET_XTND_REG8((void CYFAR *)(CYREG_PM_ACT_CFG2), ((CY_GET_XTND_REG8((void CYFAR *)CYREG_PM_ACT_
 237:.\Generated_Source\PSoC5/cyfitter_cfg.c **** }
 238:.\Generated_Source\PSoC5/cyfitter_cfg.c **** 
 239:.\Generated_Source\PSoC5/cyfitter_cfg.c **** 
 240:.\Generated_Source\PSoC5/cyfitter_cfg.c **** /* Analog API Functions */
 241:.\Generated_Source\PSoC5/cyfitter_cfg.c **** 
 242:.\Generated_Source\PSoC5/cyfitter_cfg.c **** 
 243:.\Generated_Source\PSoC5/cyfitter_cfg.c **** /*******************************************************************************
 244:.\Generated_Source\PSoC5/cyfitter_cfg.c **** * Function Name: AnalogSetDefault
 245:.\Generated_Source\PSoC5/cyfitter_cfg.c **** ********************************************************************************
 246:.\Generated_Source\PSoC5/cyfitter_cfg.c **** *
 247:.\Generated_Source\PSoC5/cyfitter_cfg.c **** * Summary:
 248:.\Generated_Source\PSoC5/cyfitter_cfg.c **** *  Sets up the analog portions of the chip to default values based on chip
 249:.\Generated_Source\PSoC5/cyfitter_cfg.c **** *  configuration options from the project.
 250:.\Generated_Source\PSoC5/cyfitter_cfg.c **** *
 251:.\Generated_Source\PSoC5/cyfitter_cfg.c **** * Parameters:
 252:.\Generated_Source\PSoC5/cyfitter_cfg.c **** *  void
 253:.\Generated_Source\PSoC5/cyfitter_cfg.c **** *
 254:.\Generated_Source\PSoC5/cyfitter_cfg.c **** * Return:
 255:.\Generated_Source\PSoC5/cyfitter_cfg.c **** *  void
 256:.\Generated_Source\PSoC5/cyfitter_cfg.c **** *
 257:.\Generated_Source\PSoC5/cyfitter_cfg.c **** *******************************************************************************/
 258:.\Generated_Source\PSoC5/cyfitter_cfg.c **** static void AnalogSetDefault(void);
 259:.\Generated_Source\PSoC5/cyfitter_cfg.c **** static void AnalogSetDefault(void)
 260:.\Generated_Source\PSoC5/cyfitter_cfg.c **** {
 123              		.loc 1 260 0
 124              		.cfi_startproc
 125              		@ args = 0, pretend = 0, frame = 0
 126              		@ frame_needed = 0, uses_anonymous_args = 0
 127              		@ link register save eliminated.
 128 0000 F0B4     		push	{r4, r5, r6, r7}
 129              		.cfi_def_cfa_offset 16
 130              		.cfi_offset 4, -16
 131              		.cfi_offset 5, -12
 132              		.cfi_offset 6, -8
 133              		.cfi_offset 7, -4
 261:.\Generated_Source\PSoC5/cyfitter_cfg.c **** 	uint8 bg_xover_inl_trim = CY_GET_XTND_REG8((void CYFAR *)(CYREG_FLSHID_MFG_CFG_BG_XOVER_INL_TRIM +
 134              		.loc 1 261 0
 135 0002 184B     		ldr	r3, .L11
ARM GAS  C:\Users\DGILLI~1\AppData\Local\Temp\ccMpodsP.s 			page 8


 136 0004 1B78     		ldrb	r3, [r3]	@ zero_extendqisi2
 137 0006 DBB2     		uxtb	r3, r3
 138              	.LVL12:
 262:.\Generated_Source\PSoC5/cyfitter_cfg.c **** 	uint8 cr4 = CY_GET_XTND_REG8((void CYFAR *)(CYREG_RESET_CR4));
 139              		.loc 1 262 0
 140 0008 1748     		ldr	r0, .L11+4
 141 000a 0278     		ldrb	r2, [r0]	@ zero_extendqisi2
 142 000c D2B2     		uxtb	r2, r2
 143              	.LVL13:
 263:.\Generated_Source\PSoC5/cyfitter_cfg.c **** 	uint8 cr5 = CY_GET_XTND_REG8((void CYFAR *)(CYREG_RESET_CR5));
 144              		.loc 1 263 0
 145 000e 174C     		ldr	r4, .L11+8
 146 0010 2178     		ldrb	r1, [r4]	@ zero_extendqisi2
 147 0012 C9B2     		uxtb	r1, r1
 148              	.LVL14:
 264:.\Generated_Source\PSoC5/cyfitter_cfg.c **** 	CY_SET_XTND_REG8((void CYFAR *)(CYREG_BG_DFT0), (bg_xover_inl_trim & 0x07u));
 149              		.loc 1 264 0
 150 0014 03F00706 		and	r6, r3, #7
 151 0018 154D     		ldr	r5, .L11+12
 152 001a 2E70     		strb	r6, [r5]
 265:.\Generated_Source\PSoC5/cyfitter_cfg.c **** 	CY_SET_XTND_REG8((void CYFAR *)(CYREG_BG_DFT1), ((bg_xover_inl_trim >> 4) & 0x0Fu));
 153              		.loc 1 265 0
 154 001c 1B09     		lsrs	r3, r3, #4
 155              	.LVL15:
 156 001e 0135     		adds	r5, r5, #1
 157 0020 2B70     		strb	r3, [r5]
 266:.\Generated_Source\PSoC5/cyfitter_cfg.c **** 	/* Disable PRES while setting up SAR voltage reference */
 267:.\Generated_Source\PSoC5/cyfitter_cfg.c **** 	CY_SET_XTND_REG8((void CYFAR *)(CYREG_RESET_CR4), (cr4 | 0x03u));
 158              		.loc 1 267 0
 159 0022 42F00303 		orr	r3, r2, #3
 160 0026 0370     		strb	r3, [r0]
 268:.\Generated_Source\PSoC5/cyfitter_cfg.c **** 	CY_SET_XTND_REG8((void CYFAR *)(CYREG_RESET_CR5), (cr5 | 0x03u));
 161              		.loc 1 268 0
 162 0028 41F00303 		orr	r3, r1, #3
 163 002c 2370     		strb	r3, [r4]
 269:.\Generated_Source\PSoC5/cyfitter_cfg.c **** 	CY_SET_XTND_REG8((void CYFAR *)CYREG_SAR0_CSR1, 0x80u);
 164              		.loc 1 269 0
 165 002e 8023     		movs	r3, #128
 166 0030 9235     		adds	r5, r5, #146
 167 0032 2B70     		strb	r3, [r5]
 270:.\Generated_Source\PSoC5/cyfitter_cfg.c **** 	CY_SET_XTND_REG8((void CYFAR *)CYREG_DAC3_SW0, 0x20u);
 168              		.loc 1 270 0
 169 0034 2025     		movs	r5, #32
 170 0036 0F4E     		ldr	r6, .L11+16
 171 0038 3570     		strb	r5, [r6]
 271:.\Generated_Source\PSoC5/cyfitter_cfg.c **** 	CY_SET_XTND_REG8((void CYFAR *)CYREG_SAR0_SW3, 0x20u);
 172              		.loc 1 271 0
 173 003a 8B36     		adds	r6, r6, #139
 174 003c 3570     		strb	r5, [r6]
 272:.\Generated_Source\PSoC5/cyfitter_cfg.c **** 	CY_SET_XTND_REG8((void CYFAR *)CYREG_OPAMP0_SW, 0x05u);
 175              		.loc 1 272 0
 176 003e 0525     		movs	r5, #5
 177 0040 1E36     		adds	r6, r6, #30
 178 0042 3570     		strb	r5, [r6]
 273:.\Generated_Source\PSoC5/cyfitter_cfg.c **** 	CY_SET_XTND_REG16((void CYFAR *)CYREG_OPAMP1_MX, 0x0102u);
 179              		.loc 1 273 0
 180 0044 4FF48177 		mov	r7, #258
ARM GAS  C:\Users\DGILLI~1\AppData\Local\Temp\ccMpodsP.s 			page 9


 181 0048 0136     		adds	r6, r6, #1
 182 004a 3780     		strh	r7, [r6]	@ movhi
 274:.\Generated_Source\PSoC5/cyfitter_cfg.c **** 	CY_SET_XTND_REG8((void CYFAR *)CYREG_OPAMP3_SW, 0x05u);
 183              		.loc 1 274 0
 184 004c 0536     		adds	r6, r6, #5
 185 004e 3570     		strb	r5, [r6]
 275:.\Generated_Source\PSoC5/cyfitter_cfg.c **** 	CY_SET_XTND_REG8((void CYFAR *)CYREG_BUS_SW0, 0x80u);
 186              		.loc 1 275 0
 187 0050 094D     		ldr	r5, .L11+20
 188 0052 2B70     		strb	r3, [r5]
 276:.\Generated_Source\PSoC5/cyfitter_cfg.c **** 	CY_SET_XTND_REG8((void CYFAR *)(CYREG_RESET_CR5), (cr5));
 189              		.loc 1 276 0
 190 0054 2170     		strb	r1, [r4]
 277:.\Generated_Source\PSoC5/cyfitter_cfg.c **** 	CY_SET_XTND_REG8((void CYFAR *)(CYREG_RESET_CR4), (cr4));
 191              		.loc 1 277 0
 192 0056 0270     		strb	r2, [r0]
 278:.\Generated_Source\PSoC5/cyfitter_cfg.c **** 	CY_SET_XTND_REG8((void CYFAR *)CYREG_PUMP_CR0, 0x44u);
 193              		.loc 1 278 0
 194 0058 4422     		movs	r2, #68
 195              	.LVL16:
 196 005a 084B     		ldr	r3, .L11+24
 197 005c 1A70     		strb	r2, [r3]
 198              	.LVL17:
 279:.\Generated_Source\PSoC5/cyfitter_cfg.c **** }
 199              		.loc 1 279 0
 200 005e F0BC     		pop	{r4, r5, r6, r7}
 201              		.cfi_restore 7
 202              		.cfi_restore 6
 203              		.cfi_restore 5
 204              		.cfi_restore 4
 205              		.cfi_def_cfa_offset 0
 206 0060 7047     		bx	lr
 207              	.L12:
 208 0062 00BF     		.align	2
 209              	.L11:
 210 0064 CF010049 		.word	1224737231
 211 0068 F8460040 		.word	1073759992
 212 006c F9460040 		.word	1073759993
 213 0070 6E580040 		.word	1073764462
 214 0074 985A0040 		.word	1073765016
 215 0078 585B0040 		.word	1073765208
 216 007c 76580040 		.word	1073764470
 217              		.cfi_endproc
 218              	.LFE6:
 219              		.size	AnalogSetDefault, .-AnalogSetDefault
 220              		.section	.text.CYMEMZERO,"ax",%progbits
 221              		.align	2
 222              		.thumb
 223              		.thumb_func
 224              		.type	CYMEMZERO, %function
 225              	CYMEMZERO:
 226              	.LFB0:
  61:.\Generated_Source\PSoC5/cyfitter_cfg.c **** 	(void)memset(s, 0, n);
 227              		.loc 1 61 0
 228              		.cfi_startproc
 229              		@ args = 0, pretend = 0, frame = 0
 230              		@ frame_needed = 0, uses_anonymous_args = 0
ARM GAS  C:\Users\DGILLI~1\AppData\Local\Temp\ccMpodsP.s 			page 10


 231              	.LVL18:
 232 0000 08B5     		push	{r3, lr}
 233              		.cfi_def_cfa_offset 8
 234              		.cfi_offset 3, -8
 235              		.cfi_offset 14, -4
 236 0002 0A46     		mov	r2, r1
  62:.\Generated_Source\PSoC5/cyfitter_cfg.c **** }
 237              		.loc 1 62 0
 238 0004 0021     		movs	r1, #0
 239              	.LVL19:
 240 0006 FFF7FEFF 		bl	memset
 241              	.LVL20:
 242 000a 08BD     		pop	{r3, pc}
 243              		.cfi_endproc
 244              	.LFE0:
 245              		.size	CYMEMZERO, .-CYMEMZERO
 246              		.section	.text.ClockSetup,"ax",%progbits
 247              		.align	2
 248              		.thumb
 249              		.thumb_func
 250              		.type	ClockSetup, %function
 251              	ClockSetup:
 252              	.LFB5:
 193:.\Generated_Source\PSoC5/cyfitter_cfg.c **** 	uint32 timeout;
 253              		.loc 1 193 0
 254              		.cfi_startproc
 255              		@ args = 0, pretend = 0, frame = 0
 256              		@ frame_needed = 0, uses_anonymous_args = 0
 257 0000 38B5     		push	{r3, r4, r5, lr}
 258              		.cfi_def_cfa_offset 16
 259              		.cfi_offset 3, -16
 260              		.cfi_offset 4, -12
 261              		.cfi_offset 5, -8
 262              		.cfi_offset 14, -4
 199:.\Generated_Source\PSoC5/cyfitter_cfg.c **** 	CY_SET_XTND_REG8((void CYFAR *)(CYREG_CLKDIST_DCFG0_CFG0 + 0x2u), 0x18u);
 263              		.loc 1 199 0
 264 0002 0122     		movs	r2, #1
 265 0004 264B     		ldr	r3, .L21
 266 0006 1A80     		strh	r2, [r3]	@ movhi
 200:.\Generated_Source\PSoC5/cyfitter_cfg.c **** 	CY_SET_XTND_REG16((void CYFAR *)(CYREG_CLKDIST_DCFG1_CFG0), 0x00EFu);
 267              		.loc 1 200 0
 268 0008 1823     		movs	r3, #24
 269 000a 264A     		ldr	r2, .L21+4
 270 000c 1370     		strb	r3, [r2]
 201:.\Generated_Source\PSoC5/cyfitter_cfg.c **** 	CY_SET_XTND_REG8((void CYFAR *)(CYREG_CLKDIST_DCFG1_CFG0 + 0x2u), 0x18u);
 271              		.loc 1 201 0
 272 000e EF21     		movs	r1, #239
 273 0010 0232     		adds	r2, r2, #2
 274 0012 1180     		strh	r1, [r2]	@ movhi
 202:.\Generated_Source\PSoC5/cyfitter_cfg.c **** 
 275              		.loc 1 202 0
 276 0014 0232     		adds	r2, r2, #2
 277 0016 1370     		strb	r3, [r2]
 205:.\Generated_Source\PSoC5/cyfitter_cfg.c **** 	CY_SET_XTND_REG8((void CYFAR *)(CYREG_CLKDIST_CR), 0x08u);
 278              		.loc 1 205 0
 279 0018 0222     		movs	r2, #2
 280 001a 234B     		ldr	r3, .L21+8
ARM GAS  C:\Users\DGILLI~1\AppData\Local\Temp\ccMpodsP.s 			page 11


 281 001c 1A70     		strb	r2, [r3]
 206:.\Generated_Source\PSoC5/cyfitter_cfg.c **** 
 282              		.loc 1 206 0
 283 001e 0822     		movs	r2, #8
 284 0020 4FF04023 		mov	r3, #1073758208
 285 0024 1A70     		strb	r2, [r3]
 209:.\Generated_Source\PSoC5/cyfitter_cfg.c **** 	CY_SET_XTND_REG8((void CYFAR *)(CYREG_IMO_TR1), (CY_GET_XTND_REG8((void CYFAR *)CYREG_FLSHID_CUST_
 286              		.loc 1 209 0
 287 0026 0321     		movs	r1, #3
 288 0028 03F50073 		add	r3, r3, #512
 289 002c 1970     		strb	r1, [r3]
 210:.\Generated_Source\PSoC5/cyfitter_cfg.c **** 
 290              		.loc 1 210 0
 291 002e 1F4B     		ldr	r3, .L21+12
 292 0030 1B78     		ldrb	r3, [r3]	@ zero_extendqisi2
 293 0032 DBB2     		uxtb	r3, r3
 294 0034 1E49     		ldr	r1, .L21+16
 295 0036 0B70     		strb	r3, [r1]
 213:.\Generated_Source\PSoC5/cyfitter_cfg.c **** 	CY_SET_XTND_REG16((void CYFAR *)(CYREG_FASTCLK_PLL_CFG0), 0x1251u);
 296              		.loc 1 213 0
 297 0038 1E4B     		ldr	r3, .L21+20
 298 003a 1A80     		strh	r2, [r3]	@ movhi
 214:.\Generated_Source\PSoC5/cyfitter_cfg.c **** 	/* Wait up to 250us for the PLL to lock */
 299              		.loc 1 214 0
 300 003c 41F25122 		movw	r2, #4689
 301 0040 023B     		subs	r3, r3, #2
 302 0042 1A80     		strh	r2, [r3]	@ movhi
 303              	.LVL21:
 216:.\Generated_Source\PSoC5/cyfitter_cfg.c **** 	for (timeout = 250u / 10u; (timeout > 0u) && (pllLock != 0x03u); timeout--)
 304              		.loc 1 216 0
 305 0044 0024     		movs	r4, #0
 217:.\Generated_Source\PSoC5/cyfitter_cfg.c **** 	{ 
 306              		.loc 1 217 0
 307 0046 1925     		movs	r5, #25
 308 0048 0CE0     		b	.L16
 309              	.LVL22:
 310              	.L18:
 219:.\Generated_Source\PSoC5/cyfitter_cfg.c **** 		CyDelayCycles(10u * 48u); /* Delay 10us based on 48MHz clock */
 311              		.loc 1 219 0 discriminator 4
 312 004a 1B4B     		ldr	r3, .L21+24
 313 004c 1B78     		ldrb	r3, [r3]	@ zero_extendqisi2
 314 004e 03F00103 		and	r3, r3, #1
 315 0052 43EA4404 		orr	r4, r3, r4, lsl #1
 316              	.LVL23:
 317 0056 04F00304 		and	r4, r4, #3
 318              	.LVL24:
 220:.\Generated_Source\PSoC5/cyfitter_cfg.c **** 	}
 319              		.loc 1 220 0 discriminator 4
 320 005a 4FF4F070 		mov	r0, #480
 321 005e FFF7FEFF 		bl	CyDelayCycles
 322              	.LVL25:
 217:.\Generated_Source\PSoC5/cyfitter_cfg.c **** 	{ 
 323              		.loc 1 217 0 discriminator 4
 324 0062 013D     		subs	r5, r5, #1
 325              	.LVL26:
 326              	.L16:
 217:.\Generated_Source\PSoC5/cyfitter_cfg.c **** 	{ 
ARM GAS  C:\Users\DGILLI~1\AppData\Local\Temp\ccMpodsP.s 			page 12


 327              		.loc 1 217 0 is_stmt 0 discriminator 1
 328 0064 0DB1     		cbz	r5, .L17
 217:.\Generated_Source\PSoC5/cyfitter_cfg.c **** 	{ 
 329              		.loc 1 217 0 discriminator 3
 330 0066 032C     		cmp	r4, #3
 331 0068 EFD1     		bne	.L18
 332              	.L17:
 223:.\Generated_Source\PSoC5/cyfitter_cfg.c **** 	{
 333              		.loc 1 223 0 is_stmt 1
 334 006a 15B9     		cbnz	r5, .L19
 225:.\Generated_Source\PSoC5/cyfitter_cfg.c **** 	}
 335              		.loc 1 225 0
 336 006c 0320     		movs	r0, #3
 337 006e FFF7FEFF 		bl	CyClockStartupError
 338              	.LVL27:
 339              	.L19:
 229:.\Generated_Source\PSoC5/cyfitter_cfg.c **** 	CY_SET_XTND_REG8((void CYFAR *)(CYREG_CLKDIST_MSTR0), 0x07u);
 340              		.loc 1 229 0
 341 0072 124B     		ldr	r3, .L21+28
 342 0074 4FF48072 		mov	r2, #256
 343 0078 1A80     		strh	r2, [r3]	@ movhi
 230:.\Generated_Source\PSoC5/cyfitter_cfg.c **** 	CY_SET_XTND_REG8((void CYFAR *)(CYREG_CLKDIST_BCFG0), 0x00u);
 344              		.loc 1 230 0
 345 007a 0722     		movs	r2, #7
 346 007c 1A70     		strb	r2, [r3]
 231:.\Generated_Source\PSoC5/cyfitter_cfg.c **** 	CY_SET_XTND_REG8((void CYFAR *)(CYREG_CLKDIST_BCFG2), 0x48u);
 347              		.loc 1 231 0
 348 007e 0022     		movs	r2, #0
 349 0080 0F49     		ldr	r1, .L21+32
 350 0082 0A70     		strb	r2, [r1]
 232:.\Generated_Source\PSoC5/cyfitter_cfg.c **** 	CY_SET_XTND_REG8((void CYFAR *)(CYREG_CLKDIST_MSTR0), 0x00u);
 351              		.loc 1 232 0
 352 0084 4820     		movs	r0, #72
 353 0086 0231     		adds	r1, r1, #2
 354 0088 0870     		strb	r0, [r1]
 233:.\Generated_Source\PSoC5/cyfitter_cfg.c **** 	CY_SET_XTND_REG8((void CYFAR *)(CYREG_CLKDIST_LD), 0x02u);
 355              		.loc 1 233 0
 356 008a 1A70     		strb	r2, [r3]
 234:.\Generated_Source\PSoC5/cyfitter_cfg.c **** 
 357              		.loc 1 234 0
 358 008c 0222     		movs	r2, #2
 359 008e 033B     		subs	r3, r3, #3
 360 0090 1A70     		strb	r2, [r3]
 236:.\Generated_Source\PSoC5/cyfitter_cfg.c **** }
 361              		.loc 1 236 0
 362 0092 0C4A     		ldr	r2, .L21+36
 363 0094 1378     		ldrb	r3, [r2]	@ zero_extendqisi2
 364 0096 43F00303 		orr	r3, r3, #3
 365 009a 1370     		strb	r3, [r2]
 366 009c 38BD     		pop	{r3, r4, r5, pc}
 367              	.LVL28:
 368              	.L22:
 369 009e 00BF     		.align	2
 370              	.L21:
 371 00a0 80400040 		.word	1073758336
 372 00a4 82400040 		.word	1073758338
 373 00a8 00430040 		.word	1073758976
ARM GAS  C:\Users\DGILLI~1\AppData\Local\Temp\ccMpodsP.s 			page 13


 374 00ac 08010049 		.word	1224737032
 375 00b0 A1460040 		.word	1073759905
 376 00b4 22420040 		.word	1073758754
 377 00b8 25420040 		.word	1073758757
 378 00bc 04400040 		.word	1073758212
 379 00c0 06400040 		.word	1073758214
 380 00c4 A2430040 		.word	1073759138
 381              		.cfi_endproc
 382              	.LFE5:
 383              		.size	ClockSetup, .-ClockSetup
 384              		.section	.text.CYCONFIGCPY,"ax",%progbits
 385              		.align	2
 386              		.thumb
 387              		.thumb_func
 388              		.type	CYCONFIGCPY, %function
 389              	CYCONFIGCPY:
 390              	.LFB1:
  68:.\Generated_Source\PSoC5/cyfitter_cfg.c **** 	(void)memcpy(dest, src, n);
 391              		.loc 1 68 0
 392              		.cfi_startproc
 393              		@ args = 0, pretend = 0, frame = 0
 394              		@ frame_needed = 0, uses_anonymous_args = 0
 395              	.LVL29:
 396 0000 08B5     		push	{r3, lr}
 397              		.cfi_def_cfa_offset 8
 398              		.cfi_offset 3, -8
 399              		.cfi_offset 14, -4
  69:.\Generated_Source\PSoC5/cyfitter_cfg.c **** }
 400              		.loc 1 69 0
 401 0002 FFF7FEFF 		bl	memcpy
 402              	.LVL30:
 403 0006 08BD     		pop	{r3, pc}
 404              		.cfi_endproc
 405              	.LFE1:
 406              		.size	CYCONFIGCPY, .-CYCONFIGCPY
 407              		.section	.text.SetAnalogRoutingPumps,"ax",%progbits
 408              		.align	2
 409              		.global	SetAnalogRoutingPumps
 410              		.thumb
 411              		.thumb_func
 412              		.type	SetAnalogRoutingPumps, %function
 413              	SetAnalogRoutingPumps:
 414              	.LFB7:
 280:.\Generated_Source\PSoC5/cyfitter_cfg.c **** 
 281:.\Generated_Source\PSoC5/cyfitter_cfg.c **** 
 282:.\Generated_Source\PSoC5/cyfitter_cfg.c **** /*******************************************************************************
 283:.\Generated_Source\PSoC5/cyfitter_cfg.c **** * Function Name: SetAnalogRoutingPumps
 284:.\Generated_Source\PSoC5/cyfitter_cfg.c **** ********************************************************************************
 285:.\Generated_Source\PSoC5/cyfitter_cfg.c **** *
 286:.\Generated_Source\PSoC5/cyfitter_cfg.c **** * Summary:
 287:.\Generated_Source\PSoC5/cyfitter_cfg.c **** * Enables or disables the analog pumps feeding analog routing switches.
 288:.\Generated_Source\PSoC5/cyfitter_cfg.c **** * Intended to be called at startup, based on the Vdda system configuration;
 289:.\Generated_Source\PSoC5/cyfitter_cfg.c **** * may be called during operation when the user informs us that the Vdda voltage
 290:.\Generated_Source\PSoC5/cyfitter_cfg.c **** * crossed the pump threshold.
 291:.\Generated_Source\PSoC5/cyfitter_cfg.c **** *
 292:.\Generated_Source\PSoC5/cyfitter_cfg.c **** * Parameters:
 293:.\Generated_Source\PSoC5/cyfitter_cfg.c **** *  enabled - 1 to enable the pumps, 0 to disable the pumps
ARM GAS  C:\Users\DGILLI~1\AppData\Local\Temp\ccMpodsP.s 			page 14


 294:.\Generated_Source\PSoC5/cyfitter_cfg.c **** *
 295:.\Generated_Source\PSoC5/cyfitter_cfg.c **** * Return:
 296:.\Generated_Source\PSoC5/cyfitter_cfg.c **** *  void
 297:.\Generated_Source\PSoC5/cyfitter_cfg.c **** *
 298:.\Generated_Source\PSoC5/cyfitter_cfg.c **** *******************************************************************************/
 299:.\Generated_Source\PSoC5/cyfitter_cfg.c **** void SetAnalogRoutingPumps(uint8 enabled)
 300:.\Generated_Source\PSoC5/cyfitter_cfg.c **** {
 415              		.loc 1 300 0
 416              		.cfi_startproc
 417              		@ args = 0, pretend = 0, frame = 0
 418              		@ frame_needed = 0, uses_anonymous_args = 0
 419              		@ link register save eliminated.
 420              	.LVL31:
 301:.\Generated_Source\PSoC5/cyfitter_cfg.c **** 	uint8 regValue = CY_GET_XTND_REG8((void CYFAR *)CYREG_PUMP_CR0);
 421              		.loc 1 301 0
 422 0000 054B     		ldr	r3, .L28
 423 0002 1B78     		ldrb	r3, [r3]	@ zero_extendqisi2
 424 0004 DBB2     		uxtb	r3, r3
 425              	.LVL32:
 302:.\Generated_Source\PSoC5/cyfitter_cfg.c **** 	if (enabled != 0u)
 426              		.loc 1 302 0
 427 0006 10B1     		cbz	r0, .L26
 303:.\Generated_Source\PSoC5/cyfitter_cfg.c **** 	{
 304:.\Generated_Source\PSoC5/cyfitter_cfg.c **** 		regValue |= 0x22u;
 428              		.loc 1 304 0
 429 0008 43F02203 		orr	r3, r3, #34
 430              	.LVL33:
 431 000c 01E0     		b	.L27
 432              	.L26:
 305:.\Generated_Source\PSoC5/cyfitter_cfg.c **** 	}
 306:.\Generated_Source\PSoC5/cyfitter_cfg.c **** 	else
 307:.\Generated_Source\PSoC5/cyfitter_cfg.c **** 	{
 308:.\Generated_Source\PSoC5/cyfitter_cfg.c **** 		regValue &= (uint8)~0x22u;
 433              		.loc 1 308 0
 434 000e 03F0DD03 		and	r3, r3, #221
 435              	.LVL34:
 436              	.L27:
 309:.\Generated_Source\PSoC5/cyfitter_cfg.c **** 	}
 310:.\Generated_Source\PSoC5/cyfitter_cfg.c **** 	CY_SET_XTND_REG8((void CYFAR *)CYREG_PUMP_CR0, regValue);
 437              		.loc 1 310 0
 438 0012 014A     		ldr	r2, .L28
 439 0014 1370     		strb	r3, [r2]
 440 0016 7047     		bx	lr
 441              	.L29:
 442              		.align	2
 443              	.L28:
 444 0018 76580040 		.word	1073764470
 445              		.cfi_endproc
 446              	.LFE7:
 447              		.size	SetAnalogRoutingPumps, .-SetAnalogRoutingPumps
 448              		.section	.text.AMux_1_Set,"ax",%progbits
 449              		.align	2
 450              		.global	AMux_1_Set
 451              		.thumb
 452              		.thumb_func
 453              		.type	AMux_1_Set, %function
 454              	AMux_1_Set:
ARM GAS  C:\Users\DGILLI~1\AppData\Local\Temp\ccMpodsP.s 			page 15


 455              	.LFB8:
 311:.\Generated_Source\PSoC5/cyfitter_cfg.c **** }
 312:.\Generated_Source\PSoC5/cyfitter_cfg.c **** 
 313:.\Generated_Source\PSoC5/cyfitter_cfg.c **** #define CY_AMUX_UNUSED CYREG_BOOST_SR
 314:.\Generated_Source\PSoC5/cyfitter_cfg.c **** /* This is an implementation detail of the AMux. Code that depends on it may be
 315:.\Generated_Source\PSoC5/cyfitter_cfg.c ****    incompatible with other versions of PSoC Creator. */
 316:.\Generated_Source\PSoC5/cyfitter_cfg.c **** uint8 CYXDATA * const CYCODE AMux_1__addrTable[4] = {
 317:.\Generated_Source\PSoC5/cyfitter_cfg.c **** 	(uint8 CYXDATA *)CYREG_PRT3_AG, (uint8 CYXDATA *)CYREG_SAR0_SW0, 
 318:.\Generated_Source\PSoC5/cyfitter_cfg.c **** 	(uint8 CYXDATA *)CYREG_PRT0_AG, (uint8 CYXDATA *)CYREG_SAR0_SW0, 
 319:.\Generated_Source\PSoC5/cyfitter_cfg.c **** };
 320:.\Generated_Source\PSoC5/cyfitter_cfg.c **** 
 321:.\Generated_Source\PSoC5/cyfitter_cfg.c **** /* This is an implementation detail of the AMux. Code that depends on it may be
 322:.\Generated_Source\PSoC5/cyfitter_cfg.c ****    incompatible with other versions of PSoC Creator. */
 323:.\Generated_Source\PSoC5/cyfitter_cfg.c **** const uint8 CYCODE AMux_1__maskTable[4] = {
 324:.\Generated_Source\PSoC5/cyfitter_cfg.c **** 	0x80u, 0x80u, 
 325:.\Generated_Source\PSoC5/cyfitter_cfg.c **** 	0x02u, 0x20u, 
 326:.\Generated_Source\PSoC5/cyfitter_cfg.c **** };
 327:.\Generated_Source\PSoC5/cyfitter_cfg.c **** 
 328:.\Generated_Source\PSoC5/cyfitter_cfg.c **** /*******************************************************************************
 329:.\Generated_Source\PSoC5/cyfitter_cfg.c **** * Function Name: AMux_1_Set
 330:.\Generated_Source\PSoC5/cyfitter_cfg.c **** ********************************************************************************
 331:.\Generated_Source\PSoC5/cyfitter_cfg.c **** * Summary:
 332:.\Generated_Source\PSoC5/cyfitter_cfg.c **** *  This function is used to set a particular channel as active on the AMux.
 333:.\Generated_Source\PSoC5/cyfitter_cfg.c **** *
 334:.\Generated_Source\PSoC5/cyfitter_cfg.c **** * Parameters:  
 335:.\Generated_Source\PSoC5/cyfitter_cfg.c **** *   channel - The mux channel input to set as active
 336:.\Generated_Source\PSoC5/cyfitter_cfg.c **** *
 337:.\Generated_Source\PSoC5/cyfitter_cfg.c **** * Return:
 338:.\Generated_Source\PSoC5/cyfitter_cfg.c **** *   void
 339:.\Generated_Source\PSoC5/cyfitter_cfg.c **** *
 340:.\Generated_Source\PSoC5/cyfitter_cfg.c **** *******************************************************************************/
 341:.\Generated_Source\PSoC5/cyfitter_cfg.c **** void AMux_1_Set(uint8 channel)
 342:.\Generated_Source\PSoC5/cyfitter_cfg.c **** {
 456              		.loc 1 342 0
 457              		.cfi_startproc
 458              		@ args = 0, pretend = 0, frame = 0
 459              		@ frame_needed = 0, uses_anonymous_args = 0
 460              		@ link register save eliminated.
 343:.\Generated_Source\PSoC5/cyfitter_cfg.c **** 	if (channel < 2)
 461              		.loc 1 343 0
 462 0000 0128     		cmp	r0, #1
 463 0002 15D8     		bhi	.L34
 342:.\Generated_Source\PSoC5/cyfitter_cfg.c **** 	if (channel < 2)
 464              		.loc 1 342 0
 465 0004 10B4     		push	{r4}
 466              		.cfi_def_cfa_offset 4
 467              		.cfi_offset 4, -4
 344:.\Generated_Source\PSoC5/cyfitter_cfg.c **** 	{
 345:.\Generated_Source\PSoC5/cyfitter_cfg.c **** 		channel += channel;
 468              		.loc 1 345 0
 469 0006 4000     		lsls	r0, r0, #1
 470 0008 C0B2     		uxtb	r0, r0
 346:.\Generated_Source\PSoC5/cyfitter_cfg.c **** 		*AMux_1__addrTable[channel] |= AMux_1__maskTable[channel];
 471              		.loc 1 346 0
 472 000a 0A4B     		ldr	r3, .L35
 473 000c 53F82010 		ldr	r1, [r3, r0, lsl #2]
 474 0010 1A18     		adds	r2, r3, r0
ARM GAS  C:\Users\DGILLI~1\AppData\Local\Temp\ccMpodsP.s 			page 16


 475 0012 147C     		ldrb	r4, [r2, #16]	@ zero_extendqisi2
 476 0014 0A78     		ldrb	r2, [r1]	@ zero_extendqisi2
 477 0016 2243     		orrs	r2, r2, r4
 478 0018 0A70     		strb	r2, [r1]
 347:.\Generated_Source\PSoC5/cyfitter_cfg.c **** 		channel++;
 479              		.loc 1 347 0
 480 001a 0130     		adds	r0, r0, #1
 481 001c C0B2     		uxtb	r0, r0
 348:.\Generated_Source\PSoC5/cyfitter_cfg.c **** 		*AMux_1__addrTable[channel] |= AMux_1__maskTable[channel];
 482              		.loc 1 348 0
 483 001e 53F82020 		ldr	r2, [r3, r0, lsl #2]
 484 0022 1844     		add	r0, r0, r3
 485 0024 017C     		ldrb	r1, [r0, #16]	@ zero_extendqisi2
 486 0026 1378     		ldrb	r3, [r2]	@ zero_extendqisi2
 487 0028 0B43     		orrs	r3, r3, r1
 488 002a 1370     		strb	r3, [r2]
 349:.\Generated_Source\PSoC5/cyfitter_cfg.c **** 	}
 350:.\Generated_Source\PSoC5/cyfitter_cfg.c **** }
 489              		.loc 1 350 0
 490 002c 5DF8044B 		ldr	r4, [sp], #4
 491              		.cfi_restore 4
 492              		.cfi_def_cfa_offset 0
 493              	.L34:
 494 0030 7047     		bx	lr
 495              	.L36:
 496 0032 00BF     		.align	2
 497              	.L35:
 498 0034 00000000 		.word	.LANCHOR0
 499              		.cfi_endproc
 500              	.LFE8:
 501              		.size	AMux_1_Set, .-AMux_1_Set
 502              		.section	.text.AMux_1_Unset,"ax",%progbits
 503              		.align	2
 504              		.global	AMux_1_Unset
 505              		.thumb
 506              		.thumb_func
 507              		.type	AMux_1_Unset, %function
 508              	AMux_1_Unset:
 509              	.LFB9:
 351:.\Generated_Source\PSoC5/cyfitter_cfg.c **** 
 352:.\Generated_Source\PSoC5/cyfitter_cfg.c **** /*******************************************************************************
 353:.\Generated_Source\PSoC5/cyfitter_cfg.c **** * Function Name: AMux_1_Unset
 354:.\Generated_Source\PSoC5/cyfitter_cfg.c **** ********************************************************************************
 355:.\Generated_Source\PSoC5/cyfitter_cfg.c **** * Summary:
 356:.\Generated_Source\PSoC5/cyfitter_cfg.c **** *  This function is used to clear a particular channel from being active on the
 357:.\Generated_Source\PSoC5/cyfitter_cfg.c **** *  AMux.
 358:.\Generated_Source\PSoC5/cyfitter_cfg.c **** *
 359:.\Generated_Source\PSoC5/cyfitter_cfg.c **** * Parameters:  
 360:.\Generated_Source\PSoC5/cyfitter_cfg.c **** *   channel - The mux channel input to mark inactive
 361:.\Generated_Source\PSoC5/cyfitter_cfg.c **** *
 362:.\Generated_Source\PSoC5/cyfitter_cfg.c **** * Return:
 363:.\Generated_Source\PSoC5/cyfitter_cfg.c **** *   void
 364:.\Generated_Source\PSoC5/cyfitter_cfg.c **** *
 365:.\Generated_Source\PSoC5/cyfitter_cfg.c **** *******************************************************************************/
 366:.\Generated_Source\PSoC5/cyfitter_cfg.c **** void AMux_1_Unset(uint8 channel)
 367:.\Generated_Source\PSoC5/cyfitter_cfg.c **** {
 510              		.loc 1 367 0
ARM GAS  C:\Users\DGILLI~1\AppData\Local\Temp\ccMpodsP.s 			page 17


 511              		.cfi_startproc
 512              		@ args = 0, pretend = 0, frame = 0
 513              		@ frame_needed = 0, uses_anonymous_args = 0
 514              		@ link register save eliminated.
 368:.\Generated_Source\PSoC5/cyfitter_cfg.c **** 	if (channel < 2)
 515              		.loc 1 368 0
 516 0000 0128     		cmp	r0, #1
 517 0002 17D8     		bhi	.L41
 367:.\Generated_Source\PSoC5/cyfitter_cfg.c **** 	if (channel < 2)
 518              		.loc 1 367 0
 519 0004 10B4     		push	{r4}
 520              		.cfi_def_cfa_offset 4
 521              		.cfi_offset 4, -4
 369:.\Generated_Source\PSoC5/cyfitter_cfg.c **** 	{
 370:.\Generated_Source\PSoC5/cyfitter_cfg.c **** 		channel += channel;
 522              		.loc 1 370 0
 523 0006 4000     		lsls	r0, r0, #1
 524 0008 C0B2     		uxtb	r0, r0
 371:.\Generated_Source\PSoC5/cyfitter_cfg.c **** 		*AMux_1__addrTable[channel] &= (uint8)~AMux_1__maskTable[channel];
 525              		.loc 1 371 0
 526 000a 0B4B     		ldr	r3, .L42
 527 000c 53F82010 		ldr	r1, [r3, r0, lsl #2]
 528 0010 1A18     		adds	r2, r3, r0
 529 0012 147C     		ldrb	r4, [r2, #16]	@ zero_extendqisi2
 530 0014 0A78     		ldrb	r2, [r1]	@ zero_extendqisi2
 531 0016 22EA0402 		bic	r2, r2, r4
 532 001a 0A70     		strb	r2, [r1]
 372:.\Generated_Source\PSoC5/cyfitter_cfg.c **** 		channel++;
 533              		.loc 1 372 0
 534 001c 0130     		adds	r0, r0, #1
 535 001e C0B2     		uxtb	r0, r0
 373:.\Generated_Source\PSoC5/cyfitter_cfg.c **** 		*AMux_1__addrTable[channel] &= (uint8)~AMux_1__maskTable[channel];
 536              		.loc 1 373 0
 537 0020 53F82020 		ldr	r2, [r3, r0, lsl #2]
 538 0024 1844     		add	r0, r0, r3
 539 0026 017C     		ldrb	r1, [r0, #16]	@ zero_extendqisi2
 540 0028 1378     		ldrb	r3, [r2]	@ zero_extendqisi2
 541 002a 23EA0103 		bic	r3, r3, r1
 542 002e 1370     		strb	r3, [r2]
 374:.\Generated_Source\PSoC5/cyfitter_cfg.c **** 	}
 375:.\Generated_Source\PSoC5/cyfitter_cfg.c **** }
 543              		.loc 1 375 0
 544 0030 5DF8044B 		ldr	r4, [sp], #4
 545              		.cfi_restore 4
 546              		.cfi_def_cfa_offset 0
 547              	.L41:
 548 0034 7047     		bx	lr
 549              	.L43:
 550 0036 00BF     		.align	2
 551              	.L42:
 552 0038 00000000 		.word	.LANCHOR0
 553              		.cfi_endproc
 554              	.LFE9:
 555              		.size	AMux_1_Unset, .-AMux_1_Unset
 556              		.section	.text.cyfitter_cfg,"ax",%progbits
 557              		.align	2
 558              		.global	cyfitter_cfg
ARM GAS  C:\Users\DGILLI~1\AppData\Local\Temp\ccMpodsP.s 			page 18


 559              		.thumb
 560              		.thumb_func
 561              		.type	cyfitter_cfg, %function
 562              	cyfitter_cfg:
 563              	.LFB10:
 376:.\Generated_Source\PSoC5/cyfitter_cfg.c **** 
 377:.\Generated_Source\PSoC5/cyfitter_cfg.c **** 
 378:.\Generated_Source\PSoC5/cyfitter_cfg.c **** 
 379:.\Generated_Source\PSoC5/cyfitter_cfg.c **** /*******************************************************************************
 380:.\Generated_Source\PSoC5/cyfitter_cfg.c **** * Function Name: cyfitter_cfg
 381:.\Generated_Source\PSoC5/cyfitter_cfg.c **** ********************************************************************************
 382:.\Generated_Source\PSoC5/cyfitter_cfg.c **** * Summary:
 383:.\Generated_Source\PSoC5/cyfitter_cfg.c **** *  This function is called by the start-up code for the selected device. It
 384:.\Generated_Source\PSoC5/cyfitter_cfg.c **** *  performs all of the necessary device configuration based on the design
 385:.\Generated_Source\PSoC5/cyfitter_cfg.c **** *  settings.  This includes settings from the Design Wide Resources (DWR) such
 386:.\Generated_Source\PSoC5/cyfitter_cfg.c **** *  as Clocks and Pins as well as any component configuration that is necessary.
 387:.\Generated_Source\PSoC5/cyfitter_cfg.c **** *
 388:.\Generated_Source\PSoC5/cyfitter_cfg.c **** * Parameters:  
 389:.\Generated_Source\PSoC5/cyfitter_cfg.c **** *   void
 390:.\Generated_Source\PSoC5/cyfitter_cfg.c **** *
 391:.\Generated_Source\PSoC5/cyfitter_cfg.c **** * Return:
 392:.\Generated_Source\PSoC5/cyfitter_cfg.c **** *   void
 393:.\Generated_Source\PSoC5/cyfitter_cfg.c **** *
 394:.\Generated_Source\PSoC5/cyfitter_cfg.c **** *******************************************************************************/
 395:.\Generated_Source\PSoC5/cyfitter_cfg.c **** 
 396:.\Generated_Source\PSoC5/cyfitter_cfg.c **** void cyfitter_cfg(void)
 397:.\Generated_Source\PSoC5/cyfitter_cfg.c **** {
 564              		.loc 1 397 0
 565              		.cfi_startproc
 566              		@ args = 0, pretend = 0, frame = 0
 567              		@ frame_needed = 0, uses_anonymous_args = 0
 568 0000 38B5     		push	{r3, r4, r5, lr}
 569              		.cfi_def_cfa_offset 16
 570              		.cfi_offset 3, -16
 571              		.cfi_offset 4, -12
 572              		.cfi_offset 5, -8
 573              		.cfi_offset 14, -4
 398:.\Generated_Source\PSoC5/cyfitter_cfg.c **** #ifdef CYGlobalIntDisable
 399:.\Generated_Source\PSoC5/cyfitter_cfg.c **** 	/* Disable interrupts by default. Let user enable if/when they want. */
 400:.\Generated_Source\PSoC5/cyfitter_cfg.c **** 	CYGlobalIntDisable
 574              		.loc 1 400 0
 575              	@ 400 ".\Generated_Source\PSoC5\cyfitter_cfg.c" 1
 576 0002 72B6     		CPSID   i
 577              	@ 0 "" 2
 401:.\Generated_Source\PSoC5/cyfitter_cfg.c **** #endif
 402:.\Generated_Source\PSoC5/cyfitter_cfg.c **** 
 403:.\Generated_Source\PSoC5/cyfitter_cfg.c **** 	/* Enable/Disable Debug functionality based on settings from System DWR */
 404:.\Generated_Source\PSoC5/cyfitter_cfg.c **** 	CY_SET_XTND_REG8((void CYFAR *)CYREG_MLOGIC_DEBUG, (CY_GET_XTND_REG8((void CYFAR *)CYREG_MLOGIC_DE
 578              		.loc 1 404 0
 579              		.thumb
 580 0004 2B4A     		ldr	r2, .L48
 581 0006 1378     		ldrb	r3, [r2]	@ zero_extendqisi2
 582 0008 43F00403 		orr	r3, r3, #4
 583 000c 1370     		strb	r3, [r2]
 584              	.LVL35:
 585              	.LBB3:
 405:.\Generated_Source\PSoC5/cyfitter_cfg.c **** 
ARM GAS  C:\Users\DGILLI~1\AppData\Local\Temp\ccMpodsP.s 			page 19


 406:.\Generated_Source\PSoC5/cyfitter_cfg.c **** 	{
 407:.\Generated_Source\PSoC5/cyfitter_cfg.c **** 
 408:.\Generated_Source\PSoC5/cyfitter_cfg.c **** 		CYPACKED typedef struct {
 409:.\Generated_Source\PSoC5/cyfitter_cfg.c **** 			void CYFAR *address;
 410:.\Generated_Source\PSoC5/cyfitter_cfg.c **** 			uint16 size;
 411:.\Generated_Source\PSoC5/cyfitter_cfg.c **** 		} CYPACKED_ATTR cfg_memset_t;
 412:.\Generated_Source\PSoC5/cyfitter_cfg.c **** 
 413:.\Generated_Source\PSoC5/cyfitter_cfg.c **** 		static const cfg_memset_t CYCODE cfg_memset_list [] = {
 414:.\Generated_Source\PSoC5/cyfitter_cfg.c **** 			/* address, size */
 415:.\Generated_Source\PSoC5/cyfitter_cfg.c **** 			{(void CYFAR *)(CYREG_PRT1_DR), 32u},
 416:.\Generated_Source\PSoC5/cyfitter_cfg.c **** 			{(void CYFAR *)(CYREG_PRT4_DR), 48u},
 417:.\Generated_Source\PSoC5/cyfitter_cfg.c **** 			{(void CYFAR *)(CYREG_PRT12_DR), 16u},
 418:.\Generated_Source\PSoC5/cyfitter_cfg.c **** 			{(void CYFAR *)(CYREG_PRT15_DR), 16u},
 419:.\Generated_Source\PSoC5/cyfitter_cfg.c **** 			{(void CYFAR *)(CYDEV_UCFG_B0_P0_U0_BASE), 4096u},
 420:.\Generated_Source\PSoC5/cyfitter_cfg.c **** 			{(void CYFAR *)(CYDEV_UCFG_B1_P2_U0_BASE), 2048u},
 421:.\Generated_Source\PSoC5/cyfitter_cfg.c **** 			{(void CYFAR *)(CYDEV_UCFG_DSI0_BASE), 2560u},
 422:.\Generated_Source\PSoC5/cyfitter_cfg.c **** 			{(void CYFAR *)(CYDEV_UCFG_DSI12_BASE), 512u},
 423:.\Generated_Source\PSoC5/cyfitter_cfg.c **** 			{(void CYFAR *)(CYREG_BCTL0_MDCLK_EN), 32u},
 424:.\Generated_Source\PSoC5/cyfitter_cfg.c **** 		};
 425:.\Generated_Source\PSoC5/cyfitter_cfg.c **** 
 426:.\Generated_Source\PSoC5/cyfitter_cfg.c **** 		uint8 CYDATA i;
 427:.\Generated_Source\PSoC5/cyfitter_cfg.c **** 
 428:.\Generated_Source\PSoC5/cyfitter_cfg.c **** 		/* Zero out critical memory blocks before beginning configuration */
 429:.\Generated_Source\PSoC5/cyfitter_cfg.c **** 		for (i = 0u; i < (sizeof(cfg_memset_list)/sizeof(cfg_memset_list[0])); i++)
 586              		.loc 1 429 0
 587 000e 0024     		movs	r4, #0
 588 0010 0AE0     		b	.L45
 589              	.LVL36:
 590              	.L46:
 591              	.LBB4:
 430:.\Generated_Source\PSoC5/cyfitter_cfg.c **** 		{
 431:.\Generated_Source\PSoC5/cyfitter_cfg.c **** 			const cfg_memset_t CYCODE * CYDATA ms = &cfg_memset_list[i];
 432:.\Generated_Source\PSoC5/cyfitter_cfg.c **** 			CYMEMZERO(ms->address, (size_t)(uint32)(ms->size));
 592              		.loc 1 432 0 discriminator 3
 593 0012 2949     		ldr	r1, .L48+4
 594 0014 6300     		lsls	r3, r4, #1
 595 0016 1A19     		adds	r2, r3, r4
 596 0018 5200     		lsls	r2, r2, #1
 597 001a 0A44     		add	r2, r2, r1
 598 001c 5069     		ldr	r0, [r2, #20]	@ unaligned
 599 001e 118B     		ldrh	r1, [r2, #24]
 600 0020 FFF7FEFF 		bl	CYMEMZERO
 601              	.LVL37:
 602              	.LBE4:
 429:.\Generated_Source\PSoC5/cyfitter_cfg.c **** 		{
 603              		.loc 1 429 0 discriminator 3
 604 0024 0134     		adds	r4, r4, #1
 605              	.LVL38:
 606 0026 E4B2     		uxtb	r4, r4
 607              	.LVL39:
 608              	.L45:
 429:.\Generated_Source\PSoC5/cyfitter_cfg.c **** 		{
 609              		.loc 1 429 0 is_stmt 0 discriminator 1
 610 0028 082C     		cmp	r4, #8
 611 002a F2D9     		bls	.L46
 433:.\Generated_Source\PSoC5/cyfitter_cfg.c **** 		}
 434:.\Generated_Source\PSoC5/cyfitter_cfg.c **** 
ARM GAS  C:\Users\DGILLI~1\AppData\Local\Temp\ccMpodsP.s 			page 20


 435:.\Generated_Source\PSoC5/cyfitter_cfg.c **** 		cfg_write_bytes32(cy_cfg_addr_table, cy_cfg_data_table);
 612              		.loc 1 435 0 is_stmt 1
 613 002c 4FF09040 		mov	r0, #1207959552
 614 0030 2249     		ldr	r1, .L48+8
 615 0032 FFF7FEFF 		bl	cfg_write_bytes32
 616              	.LVL40:
 436:.\Generated_Source\PSoC5/cyfitter_cfg.c **** 
 437:.\Generated_Source\PSoC5/cyfitter_cfg.c **** 		/* Perform normal device configuration. Order is not critical for these items. */
 438:.\Generated_Source\PSoC5/cyfitter_cfg.c **** 		CYMEMZERO((void CYFAR *)(CYREG_PHUB_CFGMEM0_CFG0), 4u);
 617              		.loc 1 438 0
 618 0036 2248     		ldr	r0, .L48+12
 619 0038 0421     		movs	r1, #4
 620 003a FFF7FEFF 		bl	CYMEMZERO
 621              	.LVL41:
 439:.\Generated_Source\PSoC5/cyfitter_cfg.c **** 		CYMEMZERO((void CYFAR *)(CYREG_PHUB_CFGMEM1_CFG0), 4u);
 622              		.loc 1 439 0
 623 003e 2148     		ldr	r0, .L48+16
 624 0040 0421     		movs	r1, #4
 625 0042 FFF7FEFF 		bl	CYMEMZERO
 626              	.LVL42:
 440:.\Generated_Source\PSoC5/cyfitter_cfg.c **** 
 441:.\Generated_Source\PSoC5/cyfitter_cfg.c **** 		/* Enable digital routing */
 442:.\Generated_Source\PSoC5/cyfitter_cfg.c **** 		CY_SET_XTND_REG8((void CYFAR *)CYREG_BCTL0_BANK_CTL, CY_GET_XTND_REG8((void CYFAR *)CYREG_BCTL0_B
 627              		.loc 1 442 0
 628 0046 204A     		ldr	r2, .L48+20
 629 0048 1378     		ldrb	r3, [r2]	@ zero_extendqisi2
 630 004a 43F00203 		orr	r3, r3, #2
 631 004e 1370     		strb	r3, [r2]
 443:.\Generated_Source\PSoC5/cyfitter_cfg.c **** 		CY_SET_XTND_REG8((void CYFAR *)CYREG_BCTL1_BANK_CTL, CY_GET_XTND_REG8((void CYFAR *)CYREG_BCTL1_B
 632              		.loc 1 443 0
 633 0050 1032     		adds	r2, r2, #16
 634 0052 1378     		ldrb	r3, [r2]	@ zero_extendqisi2
 635 0054 43F00203 		orr	r3, r3, #2
 636 0058 1370     		strb	r3, [r2]
 444:.\Generated_Source\PSoC5/cyfitter_cfg.c **** 
 445:.\Generated_Source\PSoC5/cyfitter_cfg.c **** 		/* Enable UDB array */
 446:.\Generated_Source\PSoC5/cyfitter_cfg.c **** 		CY_SET_XTND_REG8((void CYFAR *)CYREG_PM_ACT_CFG0, CY_GET_XTND_REG8((void CYFAR *)CYREG_PM_ACT_CFG
 637              		.loc 1 446 0
 638 005a 1C4C     		ldr	r4, .L48+24
 639              	.LVL43:
 640 005c 2378     		ldrb	r3, [r4]	@ zero_extendqisi2
 641 005e 43F04003 		orr	r3, r3, #64
 642 0062 2370     		strb	r3, [r4]
 447:.\Generated_Source\PSoC5/cyfitter_cfg.c **** 		CY_SET_XTND_REG8((void CYFAR *)CYREG_PM_AVAIL_CR2, CY_GET_XTND_REG8((void CYFAR *)CYREG_PM_AVAIL_
 643              		.loc 1 447 0
 644 0064 A2F58632 		sub	r2, r2, #68608
 645 0068 513A     		subs	r2, r2, #81
 646 006a 1378     		ldrb	r3, [r2]	@ zero_extendqisi2
 647 006c 43F01003 		orr	r3, r3, #16
 648 0070 1370     		strb	r3, [r2]
 649              	.LBE3:
 448:.\Generated_Source\PSoC5/cyfitter_cfg.c **** 	}
 449:.\Generated_Source\PSoC5/cyfitter_cfg.c **** 
 450:.\Generated_Source\PSoC5/cyfitter_cfg.c **** 
 451:.\Generated_Source\PSoC5/cyfitter_cfg.c **** 	/* Perform second pass device configuration. These items must be configured in specific order afte
 452:.\Generated_Source\PSoC5/cyfitter_cfg.c **** 	CYCONFIGCPY((void CYFAR *)(CYREG_PRT0_DM0), (const void CYFAR *)(BS_IOPINS0_0_VAL), 8u);
 650              		.loc 1 452 0
ARM GAS  C:\Users\DGILLI~1\AppData\Local\Temp\ccMpodsP.s 			page 21


 651 0072 1748     		ldr	r0, .L48+28
 652 0074 1749     		ldr	r1, .L48+32
 653 0076 0822     		movs	r2, #8
 654 0078 FFF7FEFF 		bl	CYCONFIGCPY
 655              	.LVL44:
 453:.\Generated_Source\PSoC5/cyfitter_cfg.c **** 	CYCONFIGCPY((void CYFAR *)(CYREG_PRT3_DM0), (const void CYFAR *)(BS_IOPINS0_3_VAL), 8u);
 656              		.loc 1 453 0
 657 007c 1648     		ldr	r0, .L48+36
 658 007e 1749     		ldr	r1, .L48+40
 659 0080 0822     		movs	r2, #8
 660 0082 FFF7FEFF 		bl	CYCONFIGCPY
 661              	.LVL45:
 454:.\Generated_Source\PSoC5/cyfitter_cfg.c **** 	/* Switch Boost to the precision bandgap reference from its internal reference */
 455:.\Generated_Source\PSoC5/cyfitter_cfg.c **** 	CY_SET_REG8((void CYXDATA *)CYREG_BOOST_CR2, (CY_GET_REG8((void CYXDATA *)CYREG_BOOST_CR2) | 0x08u
 662              		.loc 1 455 0
 663 0086 164A     		ldr	r2, .L48+44
 664 0088 1378     		ldrb	r3, [r2]	@ zero_extendqisi2
 665 008a 43F00803 		orr	r3, r3, #8
 666 008e 1370     		strb	r3, [r2]
 456:.\Generated_Source\PSoC5/cyfitter_cfg.c **** 
 457:.\Generated_Source\PSoC5/cyfitter_cfg.c **** 	/* Set Flash Cycles based on max possible frequency in case a glitch occurs during ClockSetup(). *
 458:.\Generated_Source\PSoC5/cyfitter_cfg.c **** 	CY_SET_XTND_REG8((void CYFAR *)(CYREG_CACHE_CC_CTL), (((CYDEV_INSTRUCT_CACHE_ENABLED) != 0) ? 0x61
 667              		.loc 1 458 0
 668 0090 144D     		ldr	r5, .L48+48
 669 0092 6123     		movs	r3, #97
 670 0094 2B70     		strb	r3, [r5]
 459:.\Generated_Source\PSoC5/cyfitter_cfg.c **** 	/* Setup clocks based on selections from Clock DWR */
 460:.\Generated_Source\PSoC5/cyfitter_cfg.c **** 	ClockSetup();
 671              		.loc 1 460 0
 672 0096 FFF7FEFF 		bl	ClockSetup
 673              	.LVL46:
 461:.\Generated_Source\PSoC5/cyfitter_cfg.c **** 	/* Set Flash Cycles based on newly configured 24.00MHz Bus Clock. */
 462:.\Generated_Source\PSoC5/cyfitter_cfg.c **** 	CY_SET_XTND_REG8((void CYFAR *)(CYREG_CACHE_CC_CTL), (((CYDEV_INSTRUCT_CACHE_ENABLED) != 0) ? 0x81
 674              		.loc 1 462 0
 675 009a 8123     		movs	r3, #129
 676 009c 2B70     		strb	r3, [r5]
 463:.\Generated_Source\PSoC5/cyfitter_cfg.c **** 	CY_SET_XTND_REG8((void CYFAR *)(CYREG_PANTHER_WAITPIPE), 0x01u);
 677              		.loc 1 463 0
 678 009e 0122     		movs	r2, #1
 679 00a0 114B     		ldr	r3, .L48+52
 680 00a2 1A70     		strb	r2, [r3]
 464:.\Generated_Source\PSoC5/cyfitter_cfg.c **** 
 465:.\Generated_Source\PSoC5/cyfitter_cfg.c **** 	/* Perform basic analog initialization to defaults */
 466:.\Generated_Source\PSoC5/cyfitter_cfg.c **** 	AnalogSetDefault();
 681              		.loc 1 466 0
 682 00a4 FFF7FEFF 		bl	AnalogSetDefault
 683              	.LVL47:
 467:.\Generated_Source\PSoC5/cyfitter_cfg.c **** 
 468:.\Generated_Source\PSoC5/cyfitter_cfg.c **** 	/* Configure alternate active mode */
 469:.\Generated_Source\PSoC5/cyfitter_cfg.c **** 	CYCONFIGCPY((void CYFAR *)CYDEV_PM_STBY_BASE, (const void CYFAR *)CYDEV_PM_ACT_BASE, 14u);
 684              		.loc 1 469 0
 685 00a8 1048     		ldr	r0, .L48+56
 686 00aa 2146     		mov	r1, r4
 687 00ac 0E22     		movs	r2, #14
 688 00ae FFF7FEFF 		bl	CYCONFIGCPY
 689              	.LVL48:
 690 00b2 38BD     		pop	{r3, r4, r5, pc}
ARM GAS  C:\Users\DGILLI~1\AppData\Local\Temp\ccMpodsP.s 			page 22


 691              	.L49:
 692              		.align	2
 693              	.L48:
 694 00b4 E8460040 		.word	1073759976
 695 00b8 00000000 		.word	.LANCHOR0
 696 00bc 44000048 		.word	1207959620
 697 00c0 00760040 		.word	1073772032
 698 00c4 08760040 		.word	1073772040
 699 00c8 03500140 		.word	1073827843
 700 00cc A0430040 		.word	1073759136
 701 00d0 02510040 		.word	1073762562
 702 00d4 98000048 		.word	1207959704
 703 00d8 32510040 		.word	1073762610
 704 00dc A0000048 		.word	1207959712
 705 00e0 22430040 		.word	1073759010
 706 00e4 00480040 		.word	1073760256
 707 00e8 04000840 		.word	1074266116
 708 00ec B0430040 		.word	1073759152
 709              		.cfi_endproc
 710              	.LFE10:
 711              		.size	cyfitter_cfg, .-cyfitter_cfg
 712              		.global	AMux_1__maskTable
 713              		.global	AMux_1__addrTable
 714              		.section	.rodata
 715              		.align	2
 716              		.set	.LANCHOR0,. + 0
 717              		.type	AMux_1__addrTable, %object
 718              		.size	AMux_1__addrTable, 16
 719              	AMux_1__addrTable:
 720 0000 3D510040 		.word	1073762621
 721 0004 205B0040 		.word	1073765152
 722 0008 0D510040 		.word	1073762573
 723 000c 205B0040 		.word	1073765152
 724              		.type	AMux_1__maskTable, %object
 725              		.size	AMux_1__maskTable, 4
 726              	AMux_1__maskTable:
 727 0010 80       		.byte	-128
 728 0011 80       		.byte	-128
 729 0012 02       		.byte	2
 730 0013 20       		.byte	32
 731              		.type	cfg_memset_list.4896, %object
 732              		.size	cfg_memset_list.4896, 54
 733              	cfg_memset_list.4896:
 734 0014 10510040 		.word	1073762576
 735 0018 2000     		.short	32
 736 001a 40510040 		.4byte	1073762624
 737 001e 3000     		.short	48
 738 0020 C0510040 		.word	1073762752
 739 0024 1000     		.short	16
 740 0026 F0510040 		.4byte	1073762800
 741 002a 1000     		.short	16
 742 002c 00000140 		.word	1073807360
 743 0030 0010     		.short	4096
 744 0032 00140140 		.4byte	1073812480
 745 0036 0008     		.short	2048
 746 0038 00400140 		.word	1073823744
 747 003c 000A     		.short	2560
ARM GAS  C:\Users\DGILLI~1\AppData\Local\Temp\ccMpodsP.s 			page 23


 748 003e 004C0140 		.4byte	1073826816
 749 0042 0002     		.short	512
 750 0044 00500140 		.word	1073827840
 751 0048 2000     		.short	32
 752 004a 0000     		.text
 753              	.Letext0:
 754              		.file 2 "c:\\program files (x86)\\cypress\\psoc creator\\3.3\\psoc creator\\import\\gnu\\arm\\4.9.
 755              		.file 3 ".\\Generated_Source\\PSoC5\\cytypes.h"
 756              		.file 4 ".\\Generated_Source\\PSoC5\\CyLib.h"